
ArcadeIT_Ver021_F469_CMSIS.elf:     file format elf32-littlearm

Sections:
Idx Name          Size      VMA       LMA       File off  Algn
  0 .isr_vector   000001b4  08000000  08000000  00010000  2**0
                  CONTENTS, ALLOC, LOAD, READONLY, DATA
  1 .text         00007be8  080001c0  080001c0  000101c0  2**4
                  CONTENTS, ALLOC, LOAD, READONLY, CODE
  2 .rodata       0000f238  08007da8  08007da8  00017da8  2**3
                  CONTENTS, ALLOC, LOAD, READONLY, DATA
  3 .ARM.extab    00000000  08016fe0  08016fe0  000301dc  2**0
                  CONTENTS
  4 .ARM          00000000  08016fe0  08016fe0  000301dc  2**0
                  CONTENTS
  5 .preinit_array 00000000  08016fe0  08016fe0  000301dc  2**0
                  CONTENTS, ALLOC, LOAD, DATA
  6 .init_array   00000004  08016fe0  08016fe0  00026fe0  2**2
                  CONTENTS, ALLOC, LOAD, DATA
  7 .fini_array   00000004  08016fe4  08016fe4  00026fe4  2**2
                  CONTENTS, ALLOC, LOAD, DATA
  8 .data         000001dc  20000000  08016fe8  00030000  2**2
                  CONTENTS, ALLOC, LOAD, DATA
  9 .bss          00000d4c  200001dc  080171c4  000301dc  2**2
                  ALLOC
 10 ._user_heap_stack 00000600  20000f28  080171c4  00030f28  2**0
                  ALLOC
 11 .ARM.attributes 00000030  00000000  00000000  000301dc  2**0
                  CONTENTS, READONLY
 12 .comment      0000007b  00000000  00000000  0003020c  2**0
                  CONTENTS, READONLY
 13 .debug_frame  00000a5c  00000000  00000000  00030288  2**2
                  CONTENTS, READONLY, DEBUGGING

Disassembly of section .text:

080001c0 <__do_global_dtors_aux>:
 80001c0:	b510      	push	{r4, lr}
 80001c2:	4c05      	ldr	r4, [pc, #20]	; (80001d8 <__do_global_dtors_aux+0x18>)
 80001c4:	7823      	ldrb	r3, [r4, #0]
 80001c6:	b933      	cbnz	r3, 80001d6 <__do_global_dtors_aux+0x16>
 80001c8:	4b04      	ldr	r3, [pc, #16]	; (80001dc <__do_global_dtors_aux+0x1c>)
 80001ca:	b113      	cbz	r3, 80001d2 <__do_global_dtors_aux+0x12>
 80001cc:	4804      	ldr	r0, [pc, #16]	; (80001e0 <__do_global_dtors_aux+0x20>)
 80001ce:	f3af 8000 	nop.w
 80001d2:	2301      	movs	r3, #1
 80001d4:	7023      	strb	r3, [r4, #0]
 80001d6:	bd10      	pop	{r4, pc}
 80001d8:	200001dc 	.word	0x200001dc
 80001dc:	00000000 	.word	0x00000000
 80001e0:	08007d90 	.word	0x08007d90

080001e4 <frame_dummy>:
 80001e4:	b508      	push	{r3, lr}
 80001e6:	4b03      	ldr	r3, [pc, #12]	; (80001f4 <frame_dummy+0x10>)
 80001e8:	b11b      	cbz	r3, 80001f2 <frame_dummy+0xe>
 80001ea:	4903      	ldr	r1, [pc, #12]	; (80001f8 <frame_dummy+0x14>)
 80001ec:	4803      	ldr	r0, [pc, #12]	; (80001fc <frame_dummy+0x18>)
 80001ee:	f3af 8000 	nop.w
 80001f2:	bd08      	pop	{r3, pc}
 80001f4:	00000000 	.word	0x00000000
 80001f8:	200001e0 	.word	0x200001e0
 80001fc:	08007d90 	.word	0x08007d90

08000200 <strlen>:
 8000200:	4603      	mov	r3, r0
 8000202:	f813 2b01 	ldrb.w	r2, [r3], #1
 8000206:	2a00      	cmp	r2, #0
 8000208:	d1fb      	bne.n	8000202 <strlen+0x2>
 800020a:	1a18      	subs	r0, r3, r0
 800020c:	3801      	subs	r0, #1
 800020e:	4770      	bx	lr

08000210 <memchr>:
 8000210:	f001 01ff 	and.w	r1, r1, #255	; 0xff
 8000214:	2a10      	cmp	r2, #16
 8000216:	db2b      	blt.n	8000270 <memchr+0x60>
 8000218:	f010 0f07 	tst.w	r0, #7
 800021c:	d008      	beq.n	8000230 <memchr+0x20>
 800021e:	f810 3b01 	ldrb.w	r3, [r0], #1
 8000222:	3a01      	subs	r2, #1
 8000224:	428b      	cmp	r3, r1
 8000226:	d02d      	beq.n	8000284 <memchr+0x74>
 8000228:	f010 0f07 	tst.w	r0, #7
 800022c:	b342      	cbz	r2, 8000280 <memchr+0x70>
 800022e:	d1f6      	bne.n	800021e <memchr+0xe>
 8000230:	b4f0      	push	{r4, r5, r6, r7}
 8000232:	ea41 2101 	orr.w	r1, r1, r1, lsl #8
 8000236:	ea41 4101 	orr.w	r1, r1, r1, lsl #16
 800023a:	f022 0407 	bic.w	r4, r2, #7
 800023e:	f07f 0700 	mvns.w	r7, #0
 8000242:	2300      	movs	r3, #0
 8000244:	e8f0 5602 	ldrd	r5, r6, [r0], #8
 8000248:	3c08      	subs	r4, #8
 800024a:	ea85 0501 	eor.w	r5, r5, r1
 800024e:	ea86 0601 	eor.w	r6, r6, r1
 8000252:	fa85 f547 	uadd8	r5, r5, r7
 8000256:	faa3 f587 	sel	r5, r3, r7
 800025a:	fa86 f647 	uadd8	r6, r6, r7
 800025e:	faa5 f687 	sel	r6, r5, r7
 8000262:	b98e      	cbnz	r6, 8000288 <memchr+0x78>
 8000264:	d1ee      	bne.n	8000244 <memchr+0x34>
 8000266:	bcf0      	pop	{r4, r5, r6, r7}
 8000268:	f001 01ff 	and.w	r1, r1, #255	; 0xff
 800026c:	f002 0207 	and.w	r2, r2, #7
 8000270:	b132      	cbz	r2, 8000280 <memchr+0x70>
 8000272:	f810 3b01 	ldrb.w	r3, [r0], #1
 8000276:	3a01      	subs	r2, #1
 8000278:	ea83 0301 	eor.w	r3, r3, r1
 800027c:	b113      	cbz	r3, 8000284 <memchr+0x74>
 800027e:	d1f8      	bne.n	8000272 <memchr+0x62>
 8000280:	2000      	movs	r0, #0
 8000282:	4770      	bx	lr
 8000284:	3801      	subs	r0, #1
 8000286:	4770      	bx	lr
 8000288:	2d00      	cmp	r5, #0
 800028a:	bf06      	itte	eq
 800028c:	4635      	moveq	r5, r6
 800028e:	3803      	subeq	r0, #3
 8000290:	3807      	subne	r0, #7
 8000292:	f015 0f01 	tst.w	r5, #1
 8000296:	d107      	bne.n	80002a8 <memchr+0x98>
 8000298:	3001      	adds	r0, #1
 800029a:	f415 7f80 	tst.w	r5, #256	; 0x100
 800029e:	bf02      	ittt	eq
 80002a0:	3001      	addeq	r0, #1
 80002a2:	f415 3fc0 	tsteq.w	r5, #98304	; 0x18000
 80002a6:	3001      	addeq	r0, #1
 80002a8:	bcf0      	pop	{r4, r5, r6, r7}
 80002aa:	3801      	subs	r0, #1
 80002ac:	4770      	bx	lr
 80002ae:	bf00      	nop

080002b0 <__aeabi_drsub>:
 80002b0:	f081 4100 	eor.w	r1, r1, #2147483648	; 0x80000000
 80002b4:	e002      	b.n	80002bc <__adddf3>
 80002b6:	bf00      	nop

080002b8 <__aeabi_dsub>:
 80002b8:	f083 4300 	eor.w	r3, r3, #2147483648	; 0x80000000

080002bc <__adddf3>:
 80002bc:	b530      	push	{r4, r5, lr}
 80002be:	ea4f 0441 	mov.w	r4, r1, lsl #1
 80002c2:	ea4f 0543 	mov.w	r5, r3, lsl #1
 80002c6:	ea94 0f05 	teq	r4, r5
 80002ca:	bf08      	it	eq
 80002cc:	ea90 0f02 	teqeq	r0, r2
 80002d0:	bf1f      	itttt	ne
 80002d2:	ea54 0c00 	orrsne.w	ip, r4, r0
 80002d6:	ea55 0c02 	orrsne.w	ip, r5, r2
 80002da:	ea7f 5c64 	mvnsne.w	ip, r4, asr #21
 80002de:	ea7f 5c65 	mvnsne.w	ip, r5, asr #21
 80002e2:	f000 80e2 	beq.w	80004aa <__adddf3+0x1ee>
 80002e6:	ea4f 5454 	mov.w	r4, r4, lsr #21
 80002ea:	ebd4 5555 	rsbs	r5, r4, r5, lsr #21
 80002ee:	bfb8      	it	lt
 80002f0:	426d      	neglt	r5, r5
 80002f2:	dd0c      	ble.n	800030e <__adddf3+0x52>
 80002f4:	442c      	add	r4, r5
 80002f6:	ea80 0202 	eor.w	r2, r0, r2
 80002fa:	ea81 0303 	eor.w	r3, r1, r3
 80002fe:	ea82 0000 	eor.w	r0, r2, r0
 8000302:	ea83 0101 	eor.w	r1, r3, r1
 8000306:	ea80 0202 	eor.w	r2, r0, r2
 800030a:	ea81 0303 	eor.w	r3, r1, r3
 800030e:	2d36      	cmp	r5, #54	; 0x36
 8000310:	bf88      	it	hi
 8000312:	bd30      	pophi	{r4, r5, pc}
 8000314:	f011 4f00 	tst.w	r1, #2147483648	; 0x80000000
 8000318:	ea4f 3101 	mov.w	r1, r1, lsl #12
 800031c:	f44f 1c80 	mov.w	ip, #1048576	; 0x100000
 8000320:	ea4c 3111 	orr.w	r1, ip, r1, lsr #12
 8000324:	d002      	beq.n	800032c <__adddf3+0x70>
 8000326:	4240      	negs	r0, r0
 8000328:	eb61 0141 	sbc.w	r1, r1, r1, lsl #1
 800032c:	f013 4f00 	tst.w	r3, #2147483648	; 0x80000000
 8000330:	ea4f 3303 	mov.w	r3, r3, lsl #12
 8000334:	ea4c 3313 	orr.w	r3, ip, r3, lsr #12
 8000338:	d002      	beq.n	8000340 <__adddf3+0x84>
 800033a:	4252      	negs	r2, r2
 800033c:	eb63 0343 	sbc.w	r3, r3, r3, lsl #1
 8000340:	ea94 0f05 	teq	r4, r5
 8000344:	f000 80a7 	beq.w	8000496 <__adddf3+0x1da>
 8000348:	f1a4 0401 	sub.w	r4, r4, #1
 800034c:	f1d5 0e20 	rsbs	lr, r5, #32
 8000350:	db0d      	blt.n	800036e <__adddf3+0xb2>
 8000352:	fa02 fc0e 	lsl.w	ip, r2, lr
 8000356:	fa22 f205 	lsr.w	r2, r2, r5
 800035a:	1880      	adds	r0, r0, r2
 800035c:	f141 0100 	adc.w	r1, r1, #0
 8000360:	fa03 f20e 	lsl.w	r2, r3, lr
 8000364:	1880      	adds	r0, r0, r2
 8000366:	fa43 f305 	asr.w	r3, r3, r5
 800036a:	4159      	adcs	r1, r3
 800036c:	e00e      	b.n	800038c <__adddf3+0xd0>
 800036e:	f1a5 0520 	sub.w	r5, r5, #32
 8000372:	f10e 0e20 	add.w	lr, lr, #32
 8000376:	2a01      	cmp	r2, #1
 8000378:	fa03 fc0e 	lsl.w	ip, r3, lr
 800037c:	bf28      	it	cs
 800037e:	f04c 0c02 	orrcs.w	ip, ip, #2
 8000382:	fa43 f305 	asr.w	r3, r3, r5
 8000386:	18c0      	adds	r0, r0, r3
 8000388:	eb51 71e3 	adcs.w	r1, r1, r3, asr #31
 800038c:	f001 4500 	and.w	r5, r1, #2147483648	; 0x80000000
 8000390:	d507      	bpl.n	80003a2 <__adddf3+0xe6>
 8000392:	f04f 0e00 	mov.w	lr, #0
 8000396:	f1dc 0c00 	rsbs	ip, ip, #0
 800039a:	eb7e 0000 	sbcs.w	r0, lr, r0
 800039e:	eb6e 0101 	sbc.w	r1, lr, r1
 80003a2:	f5b1 1f80 	cmp.w	r1, #1048576	; 0x100000
 80003a6:	d31b      	bcc.n	80003e0 <__adddf3+0x124>
 80003a8:	f5b1 1f00 	cmp.w	r1, #2097152	; 0x200000
 80003ac:	d30c      	bcc.n	80003c8 <__adddf3+0x10c>
 80003ae:	0849      	lsrs	r1, r1, #1
 80003b0:	ea5f 0030 	movs.w	r0, r0, rrx
 80003b4:	ea4f 0c3c 	mov.w	ip, ip, rrx
 80003b8:	f104 0401 	add.w	r4, r4, #1
 80003bc:	ea4f 5244 	mov.w	r2, r4, lsl #21
 80003c0:	f512 0f80 	cmn.w	r2, #4194304	; 0x400000
 80003c4:	f080 809a 	bcs.w	80004fc <__adddf3+0x240>
 80003c8:	f1bc 4f00 	cmp.w	ip, #2147483648	; 0x80000000
 80003cc:	bf08      	it	eq
 80003ce:	ea5f 0c50 	movseq.w	ip, r0, lsr #1
 80003d2:	f150 0000 	adcs.w	r0, r0, #0
 80003d6:	eb41 5104 	adc.w	r1, r1, r4, lsl #20
 80003da:	ea41 0105 	orr.w	r1, r1, r5
 80003de:	bd30      	pop	{r4, r5, pc}
 80003e0:	ea5f 0c4c 	movs.w	ip, ip, lsl #1
 80003e4:	4140      	adcs	r0, r0
 80003e6:	eb41 0101 	adc.w	r1, r1, r1
 80003ea:	f411 1f80 	tst.w	r1, #1048576	; 0x100000
 80003ee:	f1a4 0401 	sub.w	r4, r4, #1
 80003f2:	d1e9      	bne.n	80003c8 <__adddf3+0x10c>
 80003f4:	f091 0f00 	teq	r1, #0
 80003f8:	bf04      	itt	eq
 80003fa:	4601      	moveq	r1, r0
 80003fc:	2000      	moveq	r0, #0
 80003fe:	fab1 f381 	clz	r3, r1
 8000402:	bf08      	it	eq
 8000404:	3320      	addeq	r3, #32
 8000406:	f1a3 030b 	sub.w	r3, r3, #11
 800040a:	f1b3 0220 	subs.w	r2, r3, #32
 800040e:	da0c      	bge.n	800042a <__adddf3+0x16e>
 8000410:	320c      	adds	r2, #12
 8000412:	dd08      	ble.n	8000426 <__adddf3+0x16a>
 8000414:	f102 0c14 	add.w	ip, r2, #20
 8000418:	f1c2 020c 	rsb	r2, r2, #12
 800041c:	fa01 f00c 	lsl.w	r0, r1, ip
 8000420:	fa21 f102 	lsr.w	r1, r1, r2
 8000424:	e00c      	b.n	8000440 <__adddf3+0x184>
 8000426:	f102 0214 	add.w	r2, r2, #20
 800042a:	bfd8      	it	le
 800042c:	f1c2 0c20 	rsble	ip, r2, #32
 8000430:	fa01 f102 	lsl.w	r1, r1, r2
 8000434:	fa20 fc0c 	lsr.w	ip, r0, ip
 8000438:	bfdc      	itt	le
 800043a:	ea41 010c 	orrle.w	r1, r1, ip
 800043e:	4090      	lslle	r0, r2
 8000440:	1ae4      	subs	r4, r4, r3
 8000442:	bfa2      	ittt	ge
 8000444:	eb01 5104 	addge.w	r1, r1, r4, lsl #20
 8000448:	4329      	orrge	r1, r5
 800044a:	bd30      	popge	{r4, r5, pc}
 800044c:	ea6f 0404 	mvn.w	r4, r4
 8000450:	3c1f      	subs	r4, #31
 8000452:	da1c      	bge.n	800048e <__adddf3+0x1d2>
 8000454:	340c      	adds	r4, #12
 8000456:	dc0e      	bgt.n	8000476 <__adddf3+0x1ba>
 8000458:	f104 0414 	add.w	r4, r4, #20
 800045c:	f1c4 0220 	rsb	r2, r4, #32
 8000460:	fa20 f004 	lsr.w	r0, r0, r4
 8000464:	fa01 f302 	lsl.w	r3, r1, r2
 8000468:	ea40 0003 	orr.w	r0, r0, r3
 800046c:	fa21 f304 	lsr.w	r3, r1, r4
 8000470:	ea45 0103 	orr.w	r1, r5, r3
 8000474:	bd30      	pop	{r4, r5, pc}
 8000476:	f1c4 040c 	rsb	r4, r4, #12
 800047a:	f1c4 0220 	rsb	r2, r4, #32
 800047e:	fa20 f002 	lsr.w	r0, r0, r2
 8000482:	fa01 f304 	lsl.w	r3, r1, r4
 8000486:	ea40 0003 	orr.w	r0, r0, r3
 800048a:	4629      	mov	r1, r5
 800048c:	bd30      	pop	{r4, r5, pc}
 800048e:	fa21 f004 	lsr.w	r0, r1, r4
 8000492:	4629      	mov	r1, r5
 8000494:	bd30      	pop	{r4, r5, pc}
 8000496:	f094 0f00 	teq	r4, #0
 800049a:	f483 1380 	eor.w	r3, r3, #1048576	; 0x100000
 800049e:	bf06      	itte	eq
 80004a0:	f481 1180 	eoreq.w	r1, r1, #1048576	; 0x100000
 80004a4:	3401      	addeq	r4, #1
 80004a6:	3d01      	subne	r5, #1
 80004a8:	e74e      	b.n	8000348 <__adddf3+0x8c>
 80004aa:	ea7f 5c64 	mvns.w	ip, r4, asr #21
 80004ae:	bf18      	it	ne
 80004b0:	ea7f 5c65 	mvnsne.w	ip, r5, asr #21
 80004b4:	d029      	beq.n	800050a <__adddf3+0x24e>
 80004b6:	ea94 0f05 	teq	r4, r5
 80004ba:	bf08      	it	eq
 80004bc:	ea90 0f02 	teqeq	r0, r2
 80004c0:	d005      	beq.n	80004ce <__adddf3+0x212>
 80004c2:	ea54 0c00 	orrs.w	ip, r4, r0
 80004c6:	bf04      	itt	eq
 80004c8:	4619      	moveq	r1, r3
 80004ca:	4610      	moveq	r0, r2
 80004cc:	bd30      	pop	{r4, r5, pc}
 80004ce:	ea91 0f03 	teq	r1, r3
 80004d2:	bf1e      	ittt	ne
 80004d4:	2100      	movne	r1, #0
 80004d6:	2000      	movne	r0, #0
 80004d8:	bd30      	popne	{r4, r5, pc}
 80004da:	ea5f 5c54 	movs.w	ip, r4, lsr #21
 80004de:	d105      	bne.n	80004ec <__adddf3+0x230>
 80004e0:	0040      	lsls	r0, r0, #1
 80004e2:	4149      	adcs	r1, r1
 80004e4:	bf28      	it	cs
 80004e6:	f041 4100 	orrcs.w	r1, r1, #2147483648	; 0x80000000
 80004ea:	bd30      	pop	{r4, r5, pc}
 80004ec:	f514 0480 	adds.w	r4, r4, #4194304	; 0x400000
 80004f0:	bf3c      	itt	cc
 80004f2:	f501 1180 	addcc.w	r1, r1, #1048576	; 0x100000
 80004f6:	bd30      	popcc	{r4, r5, pc}
 80004f8:	f001 4500 	and.w	r5, r1, #2147483648	; 0x80000000
 80004fc:	f045 41fe 	orr.w	r1, r5, #2130706432	; 0x7f000000
 8000500:	f441 0170 	orr.w	r1, r1, #15728640	; 0xf00000
 8000504:	f04f 0000 	mov.w	r0, #0
 8000508:	bd30      	pop	{r4, r5, pc}
 800050a:	ea7f 5c64 	mvns.w	ip, r4, asr #21
 800050e:	bf1a      	itte	ne
 8000510:	4619      	movne	r1, r3
 8000512:	4610      	movne	r0, r2
 8000514:	ea7f 5c65 	mvnseq.w	ip, r5, asr #21
 8000518:	bf1c      	itt	ne
 800051a:	460b      	movne	r3, r1
 800051c:	4602      	movne	r2, r0
 800051e:	ea50 3401 	orrs.w	r4, r0, r1, lsl #12
 8000522:	bf06      	itte	eq
 8000524:	ea52 3503 	orrseq.w	r5, r2, r3, lsl #12
 8000528:	ea91 0f03 	teqeq	r1, r3
 800052c:	f441 2100 	orrne.w	r1, r1, #524288	; 0x80000
 8000530:	bd30      	pop	{r4, r5, pc}
 8000532:	bf00      	nop

08000534 <__aeabi_ui2d>:
 8000534:	f090 0f00 	teq	r0, #0
 8000538:	bf04      	itt	eq
 800053a:	2100      	moveq	r1, #0
 800053c:	4770      	bxeq	lr
 800053e:	b530      	push	{r4, r5, lr}
 8000540:	f44f 6480 	mov.w	r4, #1024	; 0x400
 8000544:	f104 0432 	add.w	r4, r4, #50	; 0x32
 8000548:	f04f 0500 	mov.w	r5, #0
 800054c:	f04f 0100 	mov.w	r1, #0
 8000550:	e750      	b.n	80003f4 <__adddf3+0x138>
 8000552:	bf00      	nop

08000554 <__aeabi_i2d>:
 8000554:	f090 0f00 	teq	r0, #0
 8000558:	bf04      	itt	eq
 800055a:	2100      	moveq	r1, #0
 800055c:	4770      	bxeq	lr
 800055e:	b530      	push	{r4, r5, lr}
 8000560:	f44f 6480 	mov.w	r4, #1024	; 0x400
 8000564:	f104 0432 	add.w	r4, r4, #50	; 0x32
 8000568:	f010 4500 	ands.w	r5, r0, #2147483648	; 0x80000000
 800056c:	bf48      	it	mi
 800056e:	4240      	negmi	r0, r0
 8000570:	f04f 0100 	mov.w	r1, #0
 8000574:	e73e      	b.n	80003f4 <__adddf3+0x138>
 8000576:	bf00      	nop

08000578 <__aeabi_f2d>:
 8000578:	0042      	lsls	r2, r0, #1
 800057a:	ea4f 01e2 	mov.w	r1, r2, asr #3
 800057e:	ea4f 0131 	mov.w	r1, r1, rrx
 8000582:	ea4f 7002 	mov.w	r0, r2, lsl #28
 8000586:	bf1f      	itttt	ne
 8000588:	f012 437f 	andsne.w	r3, r2, #4278190080	; 0xff000000
 800058c:	f093 4f7f 	teqne	r3, #4278190080	; 0xff000000
 8000590:	f081 5160 	eorne.w	r1, r1, #939524096	; 0x38000000
 8000594:	4770      	bxne	lr
 8000596:	f032 427f 	bics.w	r2, r2, #4278190080	; 0xff000000
 800059a:	bf08      	it	eq
 800059c:	4770      	bxeq	lr
 800059e:	f093 4f7f 	teq	r3, #4278190080	; 0xff000000
 80005a2:	bf04      	itt	eq
 80005a4:	f441 2100 	orreq.w	r1, r1, #524288	; 0x80000
 80005a8:	4770      	bxeq	lr
 80005aa:	b530      	push	{r4, r5, lr}
 80005ac:	f44f 7460 	mov.w	r4, #896	; 0x380
 80005b0:	f001 4500 	and.w	r5, r1, #2147483648	; 0x80000000
 80005b4:	f021 4100 	bic.w	r1, r1, #2147483648	; 0x80000000
 80005b8:	e71c      	b.n	80003f4 <__adddf3+0x138>
 80005ba:	bf00      	nop

080005bc <__aeabi_ul2d>:
 80005bc:	ea50 0201 	orrs.w	r2, r0, r1
 80005c0:	bf08      	it	eq
 80005c2:	4770      	bxeq	lr
 80005c4:	b530      	push	{r4, r5, lr}
 80005c6:	f04f 0500 	mov.w	r5, #0
 80005ca:	e00a      	b.n	80005e2 <__aeabi_l2d+0x16>

080005cc <__aeabi_l2d>:
 80005cc:	ea50 0201 	orrs.w	r2, r0, r1
 80005d0:	bf08      	it	eq
 80005d2:	4770      	bxeq	lr
 80005d4:	b530      	push	{r4, r5, lr}
 80005d6:	f011 4500 	ands.w	r5, r1, #2147483648	; 0x80000000
 80005da:	d502      	bpl.n	80005e2 <__aeabi_l2d+0x16>
 80005dc:	4240      	negs	r0, r0
 80005de:	eb61 0141 	sbc.w	r1, r1, r1, lsl #1
 80005e2:	f44f 6480 	mov.w	r4, #1024	; 0x400
 80005e6:	f104 0432 	add.w	r4, r4, #50	; 0x32
 80005ea:	ea5f 5c91 	movs.w	ip, r1, lsr #22
 80005ee:	f43f aed8 	beq.w	80003a2 <__adddf3+0xe6>
 80005f2:	f04f 0203 	mov.w	r2, #3
 80005f6:	ea5f 0cdc 	movs.w	ip, ip, lsr #3
 80005fa:	bf18      	it	ne
 80005fc:	3203      	addne	r2, #3
 80005fe:	ea5f 0cdc 	movs.w	ip, ip, lsr #3
 8000602:	bf18      	it	ne
 8000604:	3203      	addne	r2, #3
 8000606:	eb02 02dc 	add.w	r2, r2, ip, lsr #3
 800060a:	f1c2 0320 	rsb	r3, r2, #32
 800060e:	fa00 fc03 	lsl.w	ip, r0, r3
 8000612:	fa20 f002 	lsr.w	r0, r0, r2
 8000616:	fa01 fe03 	lsl.w	lr, r1, r3
 800061a:	ea40 000e 	orr.w	r0, r0, lr
 800061e:	fa21 f102 	lsr.w	r1, r1, r2
 8000622:	4414      	add	r4, r2
 8000624:	e6bd      	b.n	80003a2 <__adddf3+0xe6>
 8000626:	bf00      	nop

08000628 <__aeabi_dmul>:
 8000628:	b570      	push	{r4, r5, r6, lr}
 800062a:	f04f 0cff 	mov.w	ip, #255	; 0xff
 800062e:	f44c 6ce0 	orr.w	ip, ip, #1792	; 0x700
 8000632:	ea1c 5411 	ands.w	r4, ip, r1, lsr #20
 8000636:	bf1d      	ittte	ne
 8000638:	ea1c 5513 	andsne.w	r5, ip, r3, lsr #20
 800063c:	ea94 0f0c 	teqne	r4, ip
 8000640:	ea95 0f0c 	teqne	r5, ip
 8000644:	f000 f8de 	bleq	8000804 <__aeabi_dmul+0x1dc>
 8000648:	442c      	add	r4, r5
 800064a:	ea81 0603 	eor.w	r6, r1, r3
 800064e:	ea21 514c 	bic.w	r1, r1, ip, lsl #21
 8000652:	ea23 534c 	bic.w	r3, r3, ip, lsl #21
 8000656:	ea50 3501 	orrs.w	r5, r0, r1, lsl #12
 800065a:	bf18      	it	ne
 800065c:	ea52 3503 	orrsne.w	r5, r2, r3, lsl #12
 8000660:	f441 1180 	orr.w	r1, r1, #1048576	; 0x100000
 8000664:	f443 1380 	orr.w	r3, r3, #1048576	; 0x100000
 8000668:	d038      	beq.n	80006dc <__aeabi_dmul+0xb4>
 800066a:	fba0 ce02 	umull	ip, lr, r0, r2
 800066e:	f04f 0500 	mov.w	r5, #0
 8000672:	fbe1 e502 	umlal	lr, r5, r1, r2
 8000676:	f006 4200 	and.w	r2, r6, #2147483648	; 0x80000000
 800067a:	fbe0 e503 	umlal	lr, r5, r0, r3
 800067e:	f04f 0600 	mov.w	r6, #0
 8000682:	fbe1 5603 	umlal	r5, r6, r1, r3
 8000686:	f09c 0f00 	teq	ip, #0
 800068a:	bf18      	it	ne
 800068c:	f04e 0e01 	orrne.w	lr, lr, #1
 8000690:	f1a4 04ff 	sub.w	r4, r4, #255	; 0xff
 8000694:	f5b6 7f00 	cmp.w	r6, #512	; 0x200
 8000698:	f564 7440 	sbc.w	r4, r4, #768	; 0x300
 800069c:	d204      	bcs.n	80006a8 <__aeabi_dmul+0x80>
 800069e:	ea5f 0e4e 	movs.w	lr, lr, lsl #1
 80006a2:	416d      	adcs	r5, r5
 80006a4:	eb46 0606 	adc.w	r6, r6, r6
 80006a8:	ea42 21c6 	orr.w	r1, r2, r6, lsl #11
 80006ac:	ea41 5155 	orr.w	r1, r1, r5, lsr #21
 80006b0:	ea4f 20c5 	mov.w	r0, r5, lsl #11
 80006b4:	ea40 505e 	orr.w	r0, r0, lr, lsr #21
 80006b8:	ea4f 2ece 	mov.w	lr, lr, lsl #11
 80006bc:	f1b4 0cfd 	subs.w	ip, r4, #253	; 0xfd
 80006c0:	bf88      	it	hi
 80006c2:	f5bc 6fe0 	cmphi.w	ip, #1792	; 0x700
 80006c6:	d81e      	bhi.n	8000706 <__aeabi_dmul+0xde>
 80006c8:	f1be 4f00 	cmp.w	lr, #2147483648	; 0x80000000
 80006cc:	bf08      	it	eq
 80006ce:	ea5f 0e50 	movseq.w	lr, r0, lsr #1
 80006d2:	f150 0000 	adcs.w	r0, r0, #0
 80006d6:	eb41 5104 	adc.w	r1, r1, r4, lsl #20
 80006da:	bd70      	pop	{r4, r5, r6, pc}
 80006dc:	f006 4600 	and.w	r6, r6, #2147483648	; 0x80000000
 80006e0:	ea46 0101 	orr.w	r1, r6, r1
 80006e4:	ea40 0002 	orr.w	r0, r0, r2
 80006e8:	ea81 0103 	eor.w	r1, r1, r3
 80006ec:	ebb4 045c 	subs.w	r4, r4, ip, lsr #1
 80006f0:	bfc2      	ittt	gt
 80006f2:	ebd4 050c 	rsbsgt	r5, r4, ip
 80006f6:	ea41 5104 	orrgt.w	r1, r1, r4, lsl #20
 80006fa:	bd70      	popgt	{r4, r5, r6, pc}
 80006fc:	f441 1180 	orr.w	r1, r1, #1048576	; 0x100000
 8000700:	f04f 0e00 	mov.w	lr, #0
 8000704:	3c01      	subs	r4, #1
 8000706:	f300 80ab 	bgt.w	8000860 <__aeabi_dmul+0x238>
 800070a:	f114 0f36 	cmn.w	r4, #54	; 0x36
 800070e:	bfde      	ittt	le
 8000710:	2000      	movle	r0, #0
 8000712:	f001 4100 	andle.w	r1, r1, #2147483648	; 0x80000000
 8000716:	bd70      	pople	{r4, r5, r6, pc}
 8000718:	f1c4 0400 	rsb	r4, r4, #0
 800071c:	3c20      	subs	r4, #32
 800071e:	da35      	bge.n	800078c <__aeabi_dmul+0x164>
 8000720:	340c      	adds	r4, #12
 8000722:	dc1b      	bgt.n	800075c <__aeabi_dmul+0x134>
 8000724:	f104 0414 	add.w	r4, r4, #20
 8000728:	f1c4 0520 	rsb	r5, r4, #32
 800072c:	fa00 f305 	lsl.w	r3, r0, r5
 8000730:	fa20 f004 	lsr.w	r0, r0, r4
 8000734:	fa01 f205 	lsl.w	r2, r1, r5
 8000738:	ea40 0002 	orr.w	r0, r0, r2
 800073c:	f001 4200 	and.w	r2, r1, #2147483648	; 0x80000000
 8000740:	f021 4100 	bic.w	r1, r1, #2147483648	; 0x80000000
 8000744:	eb10 70d3 	adds.w	r0, r0, r3, lsr #31
 8000748:	fa21 f604 	lsr.w	r6, r1, r4
 800074c:	eb42 0106 	adc.w	r1, r2, r6
 8000750:	ea5e 0e43 	orrs.w	lr, lr, r3, lsl #1
 8000754:	bf08      	it	eq
 8000756:	ea20 70d3 	biceq.w	r0, r0, r3, lsr #31
 800075a:	bd70      	pop	{r4, r5, r6, pc}
 800075c:	f1c4 040c 	rsb	r4, r4, #12
 8000760:	f1c4 0520 	rsb	r5, r4, #32
 8000764:	fa00 f304 	lsl.w	r3, r0, r4
 8000768:	fa20 f005 	lsr.w	r0, r0, r5
 800076c:	fa01 f204 	lsl.w	r2, r1, r4
 8000770:	ea40 0002 	orr.w	r0, r0, r2
 8000774:	f001 4100 	and.w	r1, r1, #2147483648	; 0x80000000
 8000778:	eb10 70d3 	adds.w	r0, r0, r3, lsr #31
 800077c:	f141 0100 	adc.w	r1, r1, #0
 8000780:	ea5e 0e43 	orrs.w	lr, lr, r3, lsl #1
 8000784:	bf08      	it	eq
 8000786:	ea20 70d3 	biceq.w	r0, r0, r3, lsr #31
 800078a:	bd70      	pop	{r4, r5, r6, pc}
 800078c:	f1c4 0520 	rsb	r5, r4, #32
 8000790:	fa00 f205 	lsl.w	r2, r0, r5
 8000794:	ea4e 0e02 	orr.w	lr, lr, r2
 8000798:	fa20 f304 	lsr.w	r3, r0, r4
 800079c:	fa01 f205 	lsl.w	r2, r1, r5
 80007a0:	ea43 0302 	orr.w	r3, r3, r2
 80007a4:	fa21 f004 	lsr.w	r0, r1, r4
 80007a8:	f001 4100 	and.w	r1, r1, #2147483648	; 0x80000000
 80007ac:	fa21 f204 	lsr.w	r2, r1, r4
 80007b0:	ea20 0002 	bic.w	r0, r0, r2
 80007b4:	eb00 70d3 	add.w	r0, r0, r3, lsr #31
 80007b8:	ea5e 0e43 	orrs.w	lr, lr, r3, lsl #1
 80007bc:	bf08      	it	eq
 80007be:	ea20 70d3 	biceq.w	r0, r0, r3, lsr #31
 80007c2:	bd70      	pop	{r4, r5, r6, pc}
 80007c4:	f094 0f00 	teq	r4, #0
 80007c8:	d10f      	bne.n	80007ea <__aeabi_dmul+0x1c2>
 80007ca:	f001 4600 	and.w	r6, r1, #2147483648	; 0x80000000
 80007ce:	0040      	lsls	r0, r0, #1
 80007d0:	eb41 0101 	adc.w	r1, r1, r1
 80007d4:	f411 1f80 	tst.w	r1, #1048576	; 0x100000
 80007d8:	bf08      	it	eq
 80007da:	3c01      	subeq	r4, #1
 80007dc:	d0f7      	beq.n	80007ce <__aeabi_dmul+0x1a6>
 80007de:	ea41 0106 	orr.w	r1, r1, r6
 80007e2:	f095 0f00 	teq	r5, #0
 80007e6:	bf18      	it	ne
 80007e8:	4770      	bxne	lr
 80007ea:	f003 4600 	and.w	r6, r3, #2147483648	; 0x80000000
 80007ee:	0052      	lsls	r2, r2, #1
 80007f0:	eb43 0303 	adc.w	r3, r3, r3
 80007f4:	f413 1f80 	tst.w	r3, #1048576	; 0x100000
 80007f8:	bf08      	it	eq
 80007fa:	3d01      	subeq	r5, #1
 80007fc:	d0f7      	beq.n	80007ee <__aeabi_dmul+0x1c6>
 80007fe:	ea43 0306 	orr.w	r3, r3, r6
 8000802:	4770      	bx	lr
 8000804:	ea94 0f0c 	teq	r4, ip
 8000808:	ea0c 5513 	and.w	r5, ip, r3, lsr #20
 800080c:	bf18      	it	ne
 800080e:	ea95 0f0c 	teqne	r5, ip
 8000812:	d00c      	beq.n	800082e <__aeabi_dmul+0x206>
 8000814:	ea50 0641 	orrs.w	r6, r0, r1, lsl #1
 8000818:	bf18      	it	ne
 800081a:	ea52 0643 	orrsne.w	r6, r2, r3, lsl #1
 800081e:	d1d1      	bne.n	80007c4 <__aeabi_dmul+0x19c>
 8000820:	ea81 0103 	eor.w	r1, r1, r3
 8000824:	f001 4100 	and.w	r1, r1, #2147483648	; 0x80000000
 8000828:	f04f 0000 	mov.w	r0, #0
 800082c:	bd70      	pop	{r4, r5, r6, pc}
 800082e:	ea50 0641 	orrs.w	r6, r0, r1, lsl #1
 8000832:	bf06      	itte	eq
 8000834:	4610      	moveq	r0, r2
 8000836:	4619      	moveq	r1, r3
 8000838:	ea52 0643 	orrsne.w	r6, r2, r3, lsl #1
 800083c:	d019      	beq.n	8000872 <__aeabi_dmul+0x24a>
 800083e:	ea94 0f0c 	teq	r4, ip
 8000842:	d102      	bne.n	800084a <__aeabi_dmul+0x222>
 8000844:	ea50 3601 	orrs.w	r6, r0, r1, lsl #12
 8000848:	d113      	bne.n	8000872 <__aeabi_dmul+0x24a>
 800084a:	ea95 0f0c 	teq	r5, ip
 800084e:	d105      	bne.n	800085c <__aeabi_dmul+0x234>
 8000850:	ea52 3603 	orrs.w	r6, r2, r3, lsl #12
 8000854:	bf1c      	itt	ne
 8000856:	4610      	movne	r0, r2
 8000858:	4619      	movne	r1, r3
 800085a:	d10a      	bne.n	8000872 <__aeabi_dmul+0x24a>
 800085c:	ea81 0103 	eor.w	r1, r1, r3
 8000860:	f001 4100 	and.w	r1, r1, #2147483648	; 0x80000000
 8000864:	f041 41fe 	orr.w	r1, r1, #2130706432	; 0x7f000000
 8000868:	f441 0170 	orr.w	r1, r1, #15728640	; 0xf00000
 800086c:	f04f 0000 	mov.w	r0, #0
 8000870:	bd70      	pop	{r4, r5, r6, pc}
 8000872:	f041 41fe 	orr.w	r1, r1, #2130706432	; 0x7f000000
 8000876:	f441 0178 	orr.w	r1, r1, #16252928	; 0xf80000
 800087a:	bd70      	pop	{r4, r5, r6, pc}

0800087c <__aeabi_ddiv>:
 800087c:	b570      	push	{r4, r5, r6, lr}
 800087e:	f04f 0cff 	mov.w	ip, #255	; 0xff
 8000882:	f44c 6ce0 	orr.w	ip, ip, #1792	; 0x700
 8000886:	ea1c 5411 	ands.w	r4, ip, r1, lsr #20
 800088a:	bf1d      	ittte	ne
 800088c:	ea1c 5513 	andsne.w	r5, ip, r3, lsr #20
 8000890:	ea94 0f0c 	teqne	r4, ip
 8000894:	ea95 0f0c 	teqne	r5, ip
 8000898:	f000 f8a7 	bleq	80009ea <__aeabi_ddiv+0x16e>
 800089c:	eba4 0405 	sub.w	r4, r4, r5
 80008a0:	ea81 0e03 	eor.w	lr, r1, r3
 80008a4:	ea52 3503 	orrs.w	r5, r2, r3, lsl #12
 80008a8:	ea4f 3101 	mov.w	r1, r1, lsl #12
 80008ac:	f000 8088 	beq.w	80009c0 <__aeabi_ddiv+0x144>
 80008b0:	ea4f 3303 	mov.w	r3, r3, lsl #12
 80008b4:	f04f 5580 	mov.w	r5, #268435456	; 0x10000000
 80008b8:	ea45 1313 	orr.w	r3, r5, r3, lsr #4
 80008bc:	ea43 6312 	orr.w	r3, r3, r2, lsr #24
 80008c0:	ea4f 2202 	mov.w	r2, r2, lsl #8
 80008c4:	ea45 1511 	orr.w	r5, r5, r1, lsr #4
 80008c8:	ea45 6510 	orr.w	r5, r5, r0, lsr #24
 80008cc:	ea4f 2600 	mov.w	r6, r0, lsl #8
 80008d0:	f00e 4100 	and.w	r1, lr, #2147483648	; 0x80000000
 80008d4:	429d      	cmp	r5, r3
 80008d6:	bf08      	it	eq
 80008d8:	4296      	cmpeq	r6, r2
 80008da:	f144 04fd 	adc.w	r4, r4, #253	; 0xfd
 80008de:	f504 7440 	add.w	r4, r4, #768	; 0x300
 80008e2:	d202      	bcs.n	80008ea <__aeabi_ddiv+0x6e>
 80008e4:	085b      	lsrs	r3, r3, #1
 80008e6:	ea4f 0232 	mov.w	r2, r2, rrx
 80008ea:	1ab6      	subs	r6, r6, r2
 80008ec:	eb65 0503 	sbc.w	r5, r5, r3
 80008f0:	085b      	lsrs	r3, r3, #1
 80008f2:	ea4f 0232 	mov.w	r2, r2, rrx
 80008f6:	f44f 1080 	mov.w	r0, #1048576	; 0x100000
 80008fa:	f44f 2c00 	mov.w	ip, #524288	; 0x80000
 80008fe:	ebb6 0e02 	subs.w	lr, r6, r2
 8000902:	eb75 0e03 	sbcs.w	lr, r5, r3
 8000906:	bf22      	ittt	cs
 8000908:	1ab6      	subcs	r6, r6, r2
 800090a:	4675      	movcs	r5, lr
 800090c:	ea40 000c 	orrcs.w	r0, r0, ip
 8000910:	085b      	lsrs	r3, r3, #1
 8000912:	ea4f 0232 	mov.w	r2, r2, rrx
 8000916:	ebb6 0e02 	subs.w	lr, r6, r2
 800091a:	eb75 0e03 	sbcs.w	lr, r5, r3
 800091e:	bf22      	ittt	cs
 8000920:	1ab6      	subcs	r6, r6, r2
 8000922:	4675      	movcs	r5, lr
 8000924:	ea40 005c 	orrcs.w	r0, r0, ip, lsr #1
 8000928:	085b      	lsrs	r3, r3, #1
 800092a:	ea4f 0232 	mov.w	r2, r2, rrx
 800092e:	ebb6 0e02 	subs.w	lr, r6, r2
 8000932:	eb75 0e03 	sbcs.w	lr, r5, r3
 8000936:	bf22      	ittt	cs
 8000938:	1ab6      	subcs	r6, r6, r2
 800093a:	4675      	movcs	r5, lr
 800093c:	ea40 009c 	orrcs.w	r0, r0, ip, lsr #2
 8000940:	085b      	lsrs	r3, r3, #1
 8000942:	ea4f 0232 	mov.w	r2, r2, rrx
 8000946:	ebb6 0e02 	subs.w	lr, r6, r2
 800094a:	eb75 0e03 	sbcs.w	lr, r5, r3
 800094e:	bf22      	ittt	cs
 8000950:	1ab6      	subcs	r6, r6, r2
 8000952:	4675      	movcs	r5, lr
 8000954:	ea40 00dc 	orrcs.w	r0, r0, ip, lsr #3
 8000958:	ea55 0e06 	orrs.w	lr, r5, r6
 800095c:	d018      	beq.n	8000990 <__aeabi_ddiv+0x114>
 800095e:	ea4f 1505 	mov.w	r5, r5, lsl #4
 8000962:	ea45 7516 	orr.w	r5, r5, r6, lsr #28
 8000966:	ea4f 1606 	mov.w	r6, r6, lsl #4
 800096a:	ea4f 03c3 	mov.w	r3, r3, lsl #3
 800096e:	ea43 7352 	orr.w	r3, r3, r2, lsr #29
 8000972:	ea4f 02c2 	mov.w	r2, r2, lsl #3
 8000976:	ea5f 1c1c 	movs.w	ip, ip, lsr #4
 800097a:	d1c0      	bne.n	80008fe <__aeabi_ddiv+0x82>
 800097c:	f411 1f80 	tst.w	r1, #1048576	; 0x100000
 8000980:	d10b      	bne.n	800099a <__aeabi_ddiv+0x11e>
 8000982:	ea41 0100 	orr.w	r1, r1, r0
 8000986:	f04f 0000 	mov.w	r0, #0
 800098a:	f04f 4c00 	mov.w	ip, #2147483648	; 0x80000000
 800098e:	e7b6      	b.n	80008fe <__aeabi_ddiv+0x82>
 8000990:	f411 1f80 	tst.w	r1, #1048576	; 0x100000
 8000994:	bf04      	itt	eq
 8000996:	4301      	orreq	r1, r0
 8000998:	2000      	moveq	r0, #0
 800099a:	f1b4 0cfd 	subs.w	ip, r4, #253	; 0xfd
 800099e:	bf88      	it	hi
 80009a0:	f5bc 6fe0 	cmphi.w	ip, #1792	; 0x700
 80009a4:	f63f aeaf 	bhi.w	8000706 <__aeabi_dmul+0xde>
 80009a8:	ebb5 0c03 	subs.w	ip, r5, r3
 80009ac:	bf04      	itt	eq
 80009ae:	ebb6 0c02 	subseq.w	ip, r6, r2
 80009b2:	ea5f 0c50 	movseq.w	ip, r0, lsr #1
 80009b6:	f150 0000 	adcs.w	r0, r0, #0
 80009ba:	eb41 5104 	adc.w	r1, r1, r4, lsl #20
 80009be:	bd70      	pop	{r4, r5, r6, pc}
 80009c0:	f00e 4e00 	and.w	lr, lr, #2147483648	; 0x80000000
 80009c4:	ea4e 3111 	orr.w	r1, lr, r1, lsr #12
 80009c8:	eb14 045c 	adds.w	r4, r4, ip, lsr #1
 80009cc:	bfc2      	ittt	gt
 80009ce:	ebd4 050c 	rsbsgt	r5, r4, ip
 80009d2:	ea41 5104 	orrgt.w	r1, r1, r4, lsl #20
 80009d6:	bd70      	popgt	{r4, r5, r6, pc}
 80009d8:	f441 1180 	orr.w	r1, r1, #1048576	; 0x100000
 80009dc:	f04f 0e00 	mov.w	lr, #0
 80009e0:	3c01      	subs	r4, #1
 80009e2:	e690      	b.n	8000706 <__aeabi_dmul+0xde>
 80009e4:	ea45 0e06 	orr.w	lr, r5, r6
 80009e8:	e68d      	b.n	8000706 <__aeabi_dmul+0xde>
 80009ea:	ea0c 5513 	and.w	r5, ip, r3, lsr #20
 80009ee:	ea94 0f0c 	teq	r4, ip
 80009f2:	bf08      	it	eq
 80009f4:	ea95 0f0c 	teqeq	r5, ip
 80009f8:	f43f af3b 	beq.w	8000872 <__aeabi_dmul+0x24a>
 80009fc:	ea94 0f0c 	teq	r4, ip
 8000a00:	d10a      	bne.n	8000a18 <__aeabi_ddiv+0x19c>
 8000a02:	ea50 3401 	orrs.w	r4, r0, r1, lsl #12
 8000a06:	f47f af34 	bne.w	8000872 <__aeabi_dmul+0x24a>
 8000a0a:	ea95 0f0c 	teq	r5, ip
 8000a0e:	f47f af25 	bne.w	800085c <__aeabi_dmul+0x234>
 8000a12:	4610      	mov	r0, r2
 8000a14:	4619      	mov	r1, r3
 8000a16:	e72c      	b.n	8000872 <__aeabi_dmul+0x24a>
 8000a18:	ea95 0f0c 	teq	r5, ip
 8000a1c:	d106      	bne.n	8000a2c <__aeabi_ddiv+0x1b0>
 8000a1e:	ea52 3503 	orrs.w	r5, r2, r3, lsl #12
 8000a22:	f43f aefd 	beq.w	8000820 <__aeabi_dmul+0x1f8>
 8000a26:	4610      	mov	r0, r2
 8000a28:	4619      	mov	r1, r3
 8000a2a:	e722      	b.n	8000872 <__aeabi_dmul+0x24a>
 8000a2c:	ea50 0641 	orrs.w	r6, r0, r1, lsl #1
 8000a30:	bf18      	it	ne
 8000a32:	ea52 0643 	orrsne.w	r6, r2, r3, lsl #1
 8000a36:	f47f aec5 	bne.w	80007c4 <__aeabi_dmul+0x19c>
 8000a3a:	ea50 0441 	orrs.w	r4, r0, r1, lsl #1
 8000a3e:	f47f af0d 	bne.w	800085c <__aeabi_dmul+0x234>
 8000a42:	ea52 0543 	orrs.w	r5, r2, r3, lsl #1
 8000a46:	f47f aeeb 	bne.w	8000820 <__aeabi_dmul+0x1f8>
 8000a4a:	e712      	b.n	8000872 <__aeabi_dmul+0x24a>

08000a4c <__gedf2>:
 8000a4c:	f04f 3cff 	mov.w	ip, #4294967295
 8000a50:	e006      	b.n	8000a60 <__cmpdf2+0x4>
 8000a52:	bf00      	nop

08000a54 <__ledf2>:
 8000a54:	f04f 0c01 	mov.w	ip, #1
 8000a58:	e002      	b.n	8000a60 <__cmpdf2+0x4>
 8000a5a:	bf00      	nop

08000a5c <__cmpdf2>:
 8000a5c:	f04f 0c01 	mov.w	ip, #1
 8000a60:	f84d cd04 	str.w	ip, [sp, #-4]!
 8000a64:	ea4f 0c41 	mov.w	ip, r1, lsl #1
 8000a68:	ea7f 5c6c 	mvns.w	ip, ip, asr #21
 8000a6c:	ea4f 0c43 	mov.w	ip, r3, lsl #1
 8000a70:	bf18      	it	ne
 8000a72:	ea7f 5c6c 	mvnsne.w	ip, ip, asr #21
 8000a76:	d01b      	beq.n	8000ab0 <__cmpdf2+0x54>
 8000a78:	b001      	add	sp, #4
 8000a7a:	ea50 0c41 	orrs.w	ip, r0, r1, lsl #1
 8000a7e:	bf0c      	ite	eq
 8000a80:	ea52 0c43 	orrseq.w	ip, r2, r3, lsl #1
 8000a84:	ea91 0f03 	teqne	r1, r3
 8000a88:	bf02      	ittt	eq
 8000a8a:	ea90 0f02 	teqeq	r0, r2
 8000a8e:	2000      	moveq	r0, #0
 8000a90:	4770      	bxeq	lr
 8000a92:	f110 0f00 	cmn.w	r0, #0
 8000a96:	ea91 0f03 	teq	r1, r3
 8000a9a:	bf58      	it	pl
 8000a9c:	4299      	cmppl	r1, r3
 8000a9e:	bf08      	it	eq
 8000aa0:	4290      	cmpeq	r0, r2
 8000aa2:	bf2c      	ite	cs
 8000aa4:	17d8      	asrcs	r0, r3, #31
 8000aa6:	ea6f 70e3 	mvncc.w	r0, r3, asr #31
 8000aaa:	f040 0001 	orr.w	r0, r0, #1
 8000aae:	4770      	bx	lr
 8000ab0:	ea4f 0c41 	mov.w	ip, r1, lsl #1
 8000ab4:	ea7f 5c6c 	mvns.w	ip, ip, asr #21
 8000ab8:	d102      	bne.n	8000ac0 <__cmpdf2+0x64>
 8000aba:	ea50 3c01 	orrs.w	ip, r0, r1, lsl #12
 8000abe:	d107      	bne.n	8000ad0 <__cmpdf2+0x74>
 8000ac0:	ea4f 0c43 	mov.w	ip, r3, lsl #1
 8000ac4:	ea7f 5c6c 	mvns.w	ip, ip, asr #21
 8000ac8:	d1d6      	bne.n	8000a78 <__cmpdf2+0x1c>
 8000aca:	ea52 3c03 	orrs.w	ip, r2, r3, lsl #12
 8000ace:	d0d3      	beq.n	8000a78 <__cmpdf2+0x1c>
 8000ad0:	f85d 0b04 	ldr.w	r0, [sp], #4
 8000ad4:	4770      	bx	lr
 8000ad6:	bf00      	nop

08000ad8 <__aeabi_cdrcmple>:
 8000ad8:	4684      	mov	ip, r0
 8000ada:	4610      	mov	r0, r2
 8000adc:	4662      	mov	r2, ip
 8000ade:	468c      	mov	ip, r1
 8000ae0:	4619      	mov	r1, r3
 8000ae2:	4663      	mov	r3, ip
 8000ae4:	e000      	b.n	8000ae8 <__aeabi_cdcmpeq>
 8000ae6:	bf00      	nop

08000ae8 <__aeabi_cdcmpeq>:
 8000ae8:	b501      	push	{r0, lr}
 8000aea:	f7ff ffb7 	bl	8000a5c <__cmpdf2>
 8000aee:	2800      	cmp	r0, #0
 8000af0:	bf48      	it	mi
 8000af2:	f110 0f00 	cmnmi.w	r0, #0
 8000af6:	bd01      	pop	{r0, pc}

08000af8 <__aeabi_dcmpeq>:
 8000af8:	f84d ed08 	str.w	lr, [sp, #-8]!
 8000afc:	f7ff fff4 	bl	8000ae8 <__aeabi_cdcmpeq>
 8000b00:	bf0c      	ite	eq
 8000b02:	2001      	moveq	r0, #1
 8000b04:	2000      	movne	r0, #0
 8000b06:	f85d fb08 	ldr.w	pc, [sp], #8
 8000b0a:	bf00      	nop

08000b0c <__aeabi_dcmplt>:
 8000b0c:	f84d ed08 	str.w	lr, [sp, #-8]!
 8000b10:	f7ff ffea 	bl	8000ae8 <__aeabi_cdcmpeq>
 8000b14:	bf34      	ite	cc
 8000b16:	2001      	movcc	r0, #1
 8000b18:	2000      	movcs	r0, #0
 8000b1a:	f85d fb08 	ldr.w	pc, [sp], #8
 8000b1e:	bf00      	nop

08000b20 <__aeabi_dcmple>:
 8000b20:	f84d ed08 	str.w	lr, [sp, #-8]!
 8000b24:	f7ff ffe0 	bl	8000ae8 <__aeabi_cdcmpeq>
 8000b28:	bf94      	ite	ls
 8000b2a:	2001      	movls	r0, #1
 8000b2c:	2000      	movhi	r0, #0
 8000b2e:	f85d fb08 	ldr.w	pc, [sp], #8
 8000b32:	bf00      	nop

08000b34 <__aeabi_dcmpge>:
 8000b34:	f84d ed08 	str.w	lr, [sp, #-8]!
 8000b38:	f7ff ffce 	bl	8000ad8 <__aeabi_cdrcmple>
 8000b3c:	bf94      	ite	ls
 8000b3e:	2001      	movls	r0, #1
 8000b40:	2000      	movhi	r0, #0
 8000b42:	f85d fb08 	ldr.w	pc, [sp], #8
 8000b46:	bf00      	nop

08000b48 <__aeabi_dcmpgt>:
 8000b48:	f84d ed08 	str.w	lr, [sp, #-8]!
 8000b4c:	f7ff ffc4 	bl	8000ad8 <__aeabi_cdrcmple>
 8000b50:	bf34      	ite	cc
 8000b52:	2001      	movcc	r0, #1
 8000b54:	2000      	movcs	r0, #0
 8000b56:	f85d fb08 	ldr.w	pc, [sp], #8
 8000b5a:	bf00      	nop

08000b5c <__aeabi_dcmpun>:
 8000b5c:	ea4f 0c41 	mov.w	ip, r1, lsl #1
 8000b60:	ea7f 5c6c 	mvns.w	ip, ip, asr #21
 8000b64:	d102      	bne.n	8000b6c <__aeabi_dcmpun+0x10>
 8000b66:	ea50 3c01 	orrs.w	ip, r0, r1, lsl #12
 8000b6a:	d10a      	bne.n	8000b82 <__aeabi_dcmpun+0x26>
 8000b6c:	ea4f 0c43 	mov.w	ip, r3, lsl #1
 8000b70:	ea7f 5c6c 	mvns.w	ip, ip, asr #21
 8000b74:	d102      	bne.n	8000b7c <__aeabi_dcmpun+0x20>
 8000b76:	ea52 3c03 	orrs.w	ip, r2, r3, lsl #12
 8000b7a:	d102      	bne.n	8000b82 <__aeabi_dcmpun+0x26>
 8000b7c:	f04f 0000 	mov.w	r0, #0
 8000b80:	4770      	bx	lr
 8000b82:	f04f 0001 	mov.w	r0, #1
 8000b86:	4770      	bx	lr

08000b88 <__aeabi_d2iz>:
 8000b88:	ea4f 0241 	mov.w	r2, r1, lsl #1
 8000b8c:	f512 1200 	adds.w	r2, r2, #2097152	; 0x200000
 8000b90:	d215      	bcs.n	8000bbe <__aeabi_d2iz+0x36>
 8000b92:	d511      	bpl.n	8000bb8 <__aeabi_d2iz+0x30>
 8000b94:	f46f 7378 	mvn.w	r3, #992	; 0x3e0
 8000b98:	ebb3 5262 	subs.w	r2, r3, r2, asr #21
 8000b9c:	d912      	bls.n	8000bc4 <__aeabi_d2iz+0x3c>
 8000b9e:	ea4f 23c1 	mov.w	r3, r1, lsl #11
 8000ba2:	f043 4300 	orr.w	r3, r3, #2147483648	; 0x80000000
 8000ba6:	ea43 5350 	orr.w	r3, r3, r0, lsr #21
 8000baa:	f011 4f00 	tst.w	r1, #2147483648	; 0x80000000
 8000bae:	fa23 f002 	lsr.w	r0, r3, r2
 8000bb2:	bf18      	it	ne
 8000bb4:	4240      	negne	r0, r0
 8000bb6:	4770      	bx	lr
 8000bb8:	f04f 0000 	mov.w	r0, #0
 8000bbc:	4770      	bx	lr
 8000bbe:	ea50 3001 	orrs.w	r0, r0, r1, lsl #12
 8000bc2:	d105      	bne.n	8000bd0 <__aeabi_d2iz+0x48>
 8000bc4:	f011 4000 	ands.w	r0, r1, #2147483648	; 0x80000000
 8000bc8:	bf08      	it	eq
 8000bca:	f06f 4000 	mvneq.w	r0, #2147483648	; 0x80000000
 8000bce:	4770      	bx	lr
 8000bd0:	f04f 0000 	mov.w	r0, #0
 8000bd4:	4770      	bx	lr
 8000bd6:	bf00      	nop

08000bd8 <main>:
 8000bd8:	b508      	push	{r3, lr}
 8000bda:	f000 fa1d 	bl	8001018 <ArcadeIT_Test_Bench>
 8000bde:	2000      	movs	r0, #0
 8000be0:	bd08      	pop	{r3, pc}
 8000be2:	bf00      	nop

08000be4 <NMI_Handler>:
 8000be4:	4770      	bx	lr
 8000be6:	bf00      	nop

08000be8 <HardFault_Handler>:
 8000be8:	e7fe      	b.n	8000be8 <HardFault_Handler>
 8000bea:	bf00      	nop

08000bec <MemManage_Handler>:
 8000bec:	e7fe      	b.n	8000bec <MemManage_Handler>
 8000bee:	bf00      	nop

08000bf0 <BusFault_Handler>:
 8000bf0:	e7fe      	b.n	8000bf0 <BusFault_Handler>
 8000bf2:	bf00      	nop

08000bf4 <UsageFault_Handler>:
 8000bf4:	e7fe      	b.n	8000bf4 <UsageFault_Handler>
 8000bf6:	bf00      	nop

08000bf8 <SVC_Handler>:
 8000bf8:	4770      	bx	lr
 8000bfa:	bf00      	nop

08000bfc <DebugMon_Handler>:
 8000bfc:	4770      	bx	lr
 8000bfe:	bf00      	nop

08000c00 <PendSV_Handler>:
 8000c00:	4770      	bx	lr
 8000c02:	bf00      	nop

08000c04 <_sbrk>:
 8000c04:	b508      	push	{r3, lr}
 8000c06:	f240 12f8 	movw	r2, #504	; 0x1f8
 8000c0a:	f2c2 0200 	movt	r2, #8192	; 0x2000
 8000c0e:	6813      	ldr	r3, [r2, #0]
 8000c10:	b133      	cbz	r3, 8000c20 <_sbrk+0x1c>
 8000c12:	4418      	add	r0, r3
 8000c14:	4669      	mov	r1, sp
 8000c16:	4288      	cmp	r0, r1
 8000c18:	d80b      	bhi.n	8000c32 <_sbrk+0x2e>
 8000c1a:	6010      	str	r0, [r2, #0]
 8000c1c:	4618      	mov	r0, r3
 8000c1e:	bd08      	pop	{r3, pc}
 8000c20:	f640 7328 	movw	r3, #3880	; 0xf28
 8000c24:	f2c2 0300 	movt	r3, #8192	; 0x2000
 8000c28:	4418      	add	r0, r3
 8000c2a:	4669      	mov	r1, sp
 8000c2c:	4288      	cmp	r0, r1
 8000c2e:	6013      	str	r3, [r2, #0]
 8000c30:	d9f3      	bls.n	8000c1a <_sbrk+0x16>
 8000c32:	f005 f839 	bl	8005ca8 <__errno>
 8000c36:	230c      	movs	r3, #12
 8000c38:	6003      	str	r3, [r0, #0]
 8000c3a:	f04f 33ff 	mov.w	r3, #4294967295
 8000c3e:	4618      	mov	r0, r3
 8000c40:	bd08      	pop	{r3, pc}
 8000c42:	bf00      	nop

08000c44 <Reset_Handler>:
 8000c44:	f8df d034 	ldr.w	sp, [pc, #52]	; 8000c7c <LoopFillZerobss+0x14>
 8000c48:	2100      	movs	r1, #0
 8000c4a:	e003      	b.n	8000c54 <LoopCopyDataInit>

08000c4c <CopyDataInit>:
 8000c4c:	4b0c      	ldr	r3, [pc, #48]	; (8000c80 <LoopFillZerobss+0x18>)
 8000c4e:	585b      	ldr	r3, [r3, r1]
 8000c50:	5043      	str	r3, [r0, r1]
 8000c52:	3104      	adds	r1, #4

08000c54 <LoopCopyDataInit>:
 8000c54:	480b      	ldr	r0, [pc, #44]	; (8000c84 <LoopFillZerobss+0x1c>)
 8000c56:	4b0c      	ldr	r3, [pc, #48]	; (8000c88 <LoopFillZerobss+0x20>)
 8000c58:	1842      	adds	r2, r0, r1
 8000c5a:	429a      	cmp	r2, r3
 8000c5c:	d3f6      	bcc.n	8000c4c <CopyDataInit>
 8000c5e:	4a0b      	ldr	r2, [pc, #44]	; (8000c8c <LoopFillZerobss+0x24>)
 8000c60:	e002      	b.n	8000c68 <LoopFillZerobss>

08000c62 <FillZerobss>:
 8000c62:	2300      	movs	r3, #0
 8000c64:	f842 3b04 	str.w	r3, [r2], #4

08000c68 <LoopFillZerobss>:
 8000c68:	4b09      	ldr	r3, [pc, #36]	; (8000c90 <LoopFillZerobss+0x28>)
 8000c6a:	429a      	cmp	r2, r3
 8000c6c:	d3f9      	bcc.n	8000c62 <FillZerobss>
 8000c6e:	f000 f81d 	bl	8000cac <ArcadeIT_System_Init>
 8000c72:	f005 f81f 	bl	8005cb4 <__libc_init_array>
 8000c76:	f7ff ffaf 	bl	8000bd8 <main>
 8000c7a:	4770      	bx	lr
 8000c7c:	20050000 	.word	0x20050000
 8000c80:	08016fe8 	.word	0x08016fe8
 8000c84:	20000000 	.word	0x20000000
 8000c88:	200001dc 	.word	0x200001dc
 8000c8c:	200001dc 	.word	0x200001dc
 8000c90:	20000f28 	.word	0x20000f28

08000c94 <ADC_IRQHandler>:
 8000c94:	e7fe      	b.n	8000c94 <ADC_IRQHandler>
	...

08000c98 <ArcadeIT_System_Delay>:
 8000c98:	f240 220c 	movw	r2, #524	; 0x20c
 8000c9c:	f2c2 0200 	movt	r2, #8192	; 0x2000
 8000ca0:	6010      	str	r0, [r2, #0]
 8000ca2:	6813      	ldr	r3, [r2, #0]
 8000ca4:	2b00      	cmp	r3, #0
 8000ca6:	d1fc      	bne.n	8000ca2 <ArcadeIT_System_Delay+0xa>
 8000ca8:	4770      	bx	lr
 8000caa:	bf00      	nop

08000cac <ArcadeIT_System_Init>:
 8000cac:	f44f 436d 	mov.w	r3, #60672	; 0xed00
 8000cb0:	f2ce 0300 	movt	r3, #57344	; 0xe000
 8000cb4:	b082      	sub	sp, #8
 8000cb6:	f44f 62a0 	mov.w	r2, #1280	; 0x500
 8000cba:	f2c0 52fa 	movt	r2, #1530	; 0x5fa
 8000cbe:	2100      	movs	r1, #0
 8000cc0:	9101      	str	r1, [sp, #4]
 8000cc2:	60da      	str	r2, [r3, #12]
 8000cc4:	f8d3 1088 	ldr.w	r1, [r3, #136]	; 0x88
 8000cc8:	f44f 5260 	mov.w	r2, #14336	; 0x3800
 8000ccc:	f441 0170 	orr.w	r1, r1, #15728640	; 0xf00000
 8000cd0:	f2c4 0202 	movt	r2, #16386	; 0x4002
 8000cd4:	f04f 6000 	mov.w	r0, #134217728	; 0x8000000
 8000cd8:	f8c3 1088 	str.w	r1, [r3, #136]	; 0x88
 8000cdc:	6098      	str	r0, [r3, #8]
 8000cde:	6813      	ldr	r3, [r2, #0]
 8000ce0:	f44f 5128 	mov.w	r1, #10752	; 0x2a00
 8000ce4:	f443 3380 	orr.w	r3, r3, #65536	; 0x10000
 8000ce8:	6013      	str	r3, [r2, #0]
 8000cea:	f2c1 5175 	movt	r1, #5493	; 0x1575
 8000cee:	e004      	b.n	8000cfa <ArcadeIT_System_Init+0x4e>
 8000cf0:	9b01      	ldr	r3, [sp, #4]
 8000cf2:	3301      	adds	r3, #1
 8000cf4:	428b      	cmp	r3, r1
 8000cf6:	9301      	str	r3, [sp, #4]
 8000cf8:	d002      	beq.n	8000d00 <ArcadeIT_System_Init+0x54>
 8000cfa:	6813      	ldr	r3, [r2, #0]
 8000cfc:	0398      	lsls	r0, r3, #14
 8000cfe:	d5f7      	bpl.n	8000cf0 <ArcadeIT_System_Init+0x44>
 8000d00:	f44f 5360 	mov.w	r3, #14336	; 0x3800
 8000d04:	f2c4 0302 	movt	r3, #16386	; 0x4002
 8000d08:	681a      	ldr	r2, [r3, #0]
 8000d0a:	0392      	lsls	r2, r2, #14
 8000d0c:	d550      	bpl.n	8000db0 <ArcadeIT_System_Init+0x104>
 8000d0e:	6c19      	ldr	r1, [r3, #64]	; 0x40
 8000d10:	f44f 42e0 	mov.w	r2, #28672	; 0x7000
 8000d14:	f2c4 0200 	movt	r2, #16384	; 0x4000
 8000d18:	f041 5180 	orr.w	r1, r1, #268435456	; 0x10000000
 8000d1c:	6419      	str	r1, [r3, #64]	; 0x40
 8000d1e:	6811      	ldr	r1, [r2, #0]
 8000d20:	f441 4140 	orr.w	r1, r1, #49152	; 0xc000
 8000d24:	6011      	str	r1, [r2, #0]
 8000d26:	689a      	ldr	r2, [r3, #8]
 8000d28:	609a      	str	r2, [r3, #8]
 8000d2a:	689a      	ldr	r2, [r3, #8]
 8000d2c:	f442 4200 	orr.w	r2, r2, #32768	; 0x8000
 8000d30:	609a      	str	r2, [r3, #8]
 8000d32:	689a      	ldr	r2, [r3, #8]
 8000d34:	f642 5104 	movw	r1, #11524	; 0x2d04
 8000d38:	f442 52a0 	orr.w	r2, r2, #5120	; 0x1400
 8000d3c:	f2c0 7140 	movt	r1, #1856	; 0x740
 8000d40:	609a      	str	r2, [r3, #8]
 8000d42:	6059      	str	r1, [r3, #4]
 8000d44:	681a      	ldr	r2, [r3, #0]
 8000d46:	f042 7280 	orr.w	r2, r2, #16777216	; 0x1000000
 8000d4a:	601a      	str	r2, [r3, #0]
 8000d4c:	681a      	ldr	r2, [r3, #0]
 8000d4e:	0190      	lsls	r0, r2, #6
 8000d50:	d5fc      	bpl.n	8000d4c <ArcadeIT_System_Init+0xa0>
 8000d52:	f44f 43e0 	mov.w	r3, #28672	; 0x7000
 8000d56:	f2c4 0300 	movt	r3, #16384	; 0x4000
 8000d5a:	461a      	mov	r2, r3
 8000d5c:	6819      	ldr	r1, [r3, #0]
 8000d5e:	f441 3180 	orr.w	r1, r1, #65536	; 0x10000
 8000d62:	6019      	str	r1, [r3, #0]
 8000d64:	6853      	ldr	r3, [r2, #4]
 8000d66:	03d9      	lsls	r1, r3, #15
 8000d68:	d5fc      	bpl.n	8000d64 <ArcadeIT_System_Init+0xb8>
 8000d6a:	6813      	ldr	r3, [r2, #0]
 8000d6c:	f44f 41e0 	mov.w	r1, #28672	; 0x7000
 8000d70:	f443 3300 	orr.w	r3, r3, #131072	; 0x20000
 8000d74:	6013      	str	r3, [r2, #0]
 8000d76:	f2c4 0100 	movt	r1, #16384	; 0x4000
 8000d7a:	684b      	ldr	r3, [r1, #4]
 8000d7c:	039b      	lsls	r3, r3, #14
 8000d7e:	d5fc      	bpl.n	8000d7a <ArcadeIT_System_Init+0xce>
 8000d80:	f44f 5370 	mov.w	r3, #15360	; 0x3c00
 8000d84:	f2c4 0302 	movt	r3, #16386	; 0x4002
 8000d88:	f44f 5260 	mov.w	r2, #14336	; 0x3800
 8000d8c:	f2c4 0202 	movt	r2, #16386	; 0x4002
 8000d90:	f240 7105 	movw	r1, #1797	; 0x705
 8000d94:	6019      	str	r1, [r3, #0]
 8000d96:	6893      	ldr	r3, [r2, #8]
 8000d98:	f023 0303 	bic.w	r3, r3, #3
 8000d9c:	6093      	str	r3, [r2, #8]
 8000d9e:	6893      	ldr	r3, [r2, #8]
 8000da0:	f043 0302 	orr.w	r3, r3, #2
 8000da4:	6093      	str	r3, [r2, #8]
 8000da6:	6893      	ldr	r3, [r2, #8]
 8000da8:	f003 030c 	and.w	r3, r3, #12
 8000dac:	2b08      	cmp	r3, #8
 8000dae:	d1fa      	bne.n	8000da6 <ArcadeIT_System_Init+0xfa>
 8000db0:	f44f 5380 	mov.w	r3, #4096	; 0x1000
 8000db4:	f2ce 0300 	movt	r3, #57344	; 0xe000
 8000db8:	2100      	movs	r1, #0
 8000dba:	681a      	ldr	r2, [r3, #0]
 8000dbc:	f042 0201 	orr.w	r2, r2, #1
 8000dc0:	601a      	str	r2, [r3, #0]
 8000dc2:	6059      	str	r1, [r3, #4]
 8000dc4:	b002      	add	sp, #8
 8000dc6:	4770      	bx	lr

08000dc8 <SysTick_Handler>:
 8000dc8:	f240 2208 	movw	r2, #520	; 0x208
 8000dcc:	f2c2 0200 	movt	r2, #8192	; 0x2000
 8000dd0:	f240 2300 	movw	r3, #512	; 0x200
 8000dd4:	6811      	ldr	r1, [r2, #0]
 8000dd6:	f2c2 0300 	movt	r3, #8192	; 0x2000
 8000dda:	3101      	adds	r1, #1
 8000ddc:	6011      	str	r1, [r2, #0]
 8000dde:	681a      	ldr	r2, [r3, #0]
 8000de0:	b112      	cbz	r2, 8000de8 <SysTick_Handler+0x20>
 8000de2:	681a      	ldr	r2, [r3, #0]
 8000de4:	3a01      	subs	r2, #1
 8000de6:	601a      	str	r2, [r3, #0]
 8000de8:	f240 230c 	movw	r3, #524	; 0x20c
 8000dec:	f2c2 0300 	movt	r3, #8192	; 0x2000
 8000df0:	681a      	ldr	r2, [r3, #0]
 8000df2:	b112      	cbz	r2, 8000dfa <SysTick_Handler+0x32>
 8000df4:	681a      	ldr	r2, [r3, #0]
 8000df6:	3a01      	subs	r2, #1
 8000df8:	601a      	str	r2, [r3, #0]
 8000dfa:	f240 2310 	movw	r3, #528	; 0x210
 8000dfe:	f2c2 0300 	movt	r3, #8192	; 0x2000
 8000e02:	681b      	ldr	r3, [r3, #0]
 8000e04:	05db      	lsls	r3, r3, #23
 8000e06:	d400      	bmi.n	8000e0a <SysTick_Handler+0x42>
 8000e08:	4770      	bx	lr
 8000e0a:	f001 bfd9 	b.w	8002dc0 <ArcadeIT_Scheduler_Update>
 8000e0e:	bf00      	nop

08000e10 <ArcadeIT_ArcadeIT_Start>:
 8000e10:	b570      	push	{r4, r5, r6, lr}
 8000e12:	f240 14fc 	movw	r4, #508	; 0x1fc
 8000e16:	f2c2 0400 	movt	r4, #8192	; 0x2000
 8000e1a:	b0c0      	sub	sp, #256	; 0x100
 8000e1c:	6823      	ldr	r3, [r4, #0]
 8000e1e:	0459      	lsls	r1, r3, #17
 8000e20:	f100 8099 	bmi.w	8000f56 <ArcadeIT_ArcadeIT_Start+0x146>
 8000e24:	f24e 0310 	movw	r3, #57360	; 0xe010
 8000e28:	f2ce 0300 	movt	r3, #57344	; 0xe000
 8000e2c:	f44f 426d 	mov.w	r2, #60672	; 0xed00
 8000e30:	f64b 711f 	movw	r1, #48927	; 0xbf1f
 8000e34:	f2ce 0200 	movt	r2, #57344	; 0xe000
 8000e38:	f2c0 0102 	movt	r1, #2
 8000e3c:	6059      	str	r1, [r3, #4]
 8000e3e:	26f0      	movs	r6, #240	; 0xf0
 8000e40:	2500      	movs	r5, #0
 8000e42:	2007      	movs	r0, #7
 8000e44:	21c0      	movs	r1, #192	; 0xc0
 8000e46:	f882 6023 	strb.w	r6, [r2, #35]	; 0x23
 8000e4a:	609d      	str	r5, [r3, #8]
 8000e4c:	6018      	str	r0, [r3, #0]
 8000e4e:	f882 1023 	strb.w	r1, [r2, #35]	; 0x23
 8000e52:	6823      	ldr	r3, [r4, #0]
 8000e54:	045a      	lsls	r2, r3, #17
 8000e56:	d506      	bpl.n	8000e66 <ArcadeIT_ArcadeIT_Start+0x56>
 8000e58:	f647 50c8 	movw	r0, #32200	; 0x7dc8
 8000e5c:	f6c0 0000 	movt	r0, #2048	; 0x800
 8000e60:	f000 ffb8 	bl	8001dd4 <ArcadeIT_Serial_Port_String_Send>
 8000e64:	6823      	ldr	r3, [r4, #0]
 8000e66:	039e      	lsls	r6, r3, #14
 8000e68:	d46e      	bmi.n	8000f48 <ArcadeIT_ArcadeIT_Start+0x138>
 8000e6a:	03dd      	lsls	r5, r3, #15
 8000e6c:	d469      	bmi.n	8000f42 <ArcadeIT_ArcadeIT_Start+0x132>
 8000e6e:	f240 2510 	movw	r5, #528	; 0x210
 8000e72:	f2c2 0500 	movt	r5, #8192	; 0x2000
 8000e76:	682b      	ldr	r3, [r5, #0]
 8000e78:	07d8      	lsls	r0, r3, #31
 8000e7a:	d45e      	bmi.n	8000f3a <ArcadeIT_ArcadeIT_Start+0x12a>
 8000e7c:	05d9      	lsls	r1, r3, #23
 8000e7e:	d459      	bmi.n	8000f34 <ArcadeIT_ArcadeIT_Start+0x124>
 8000e80:	6823      	ldr	r3, [r4, #0]
 8000e82:	07da      	lsls	r2, r3, #31
 8000e84:	d452      	bmi.n	8000f2c <ArcadeIT_ArcadeIT_Start+0x11c>
 8000e86:	079e      	lsls	r6, r3, #30
 8000e88:	d449      	bmi.n	8000f1e <ArcadeIT_ArcadeIT_Start+0x10e>
 8000e8a:	06dd      	lsls	r5, r3, #27
 8000e8c:	d442      	bmi.n	8000f14 <ArcadeIT_ArcadeIT_Start+0x104>
 8000e8e:	0698      	lsls	r0, r3, #26
 8000e90:	d439      	bmi.n	8000f06 <ArcadeIT_ArcadeIT_Start+0xf6>
 8000e92:	f240 2504 	movw	r5, #516	; 0x204
 8000e96:	f2c2 0500 	movt	r5, #8192	; 0x2000
 8000e9a:	682b      	ldr	r3, [r5, #0]
 8000e9c:	0799      	lsls	r1, r3, #30
 8000e9e:	d01f      	beq.n	8000ee0 <ArcadeIT_ArcadeIT_Start+0xd0>
 8000ea0:	079a      	lsls	r2, r3, #30
 8000ea2:	d45d      	bmi.n	8000f60 <ArcadeIT_ArcadeIT_Start+0x150>
 8000ea4:	6822      	ldr	r2, [r4, #0]
 8000ea6:	07db      	lsls	r3, r3, #31
 8000ea8:	d51b      	bpl.n	8000ee2 <ArcadeIT_ArcadeIT_Start+0xd2>
 8000eaa:	0796      	lsls	r6, r2, #30
 8000eac:	d519      	bpl.n	8000ee2 <ArcadeIT_ArcadeIT_Start+0xd2>
 8000eae:	f001 f99d 	bl	80021ec <ArcadeIT_RAMDisk_Start>
 8000eb2:	2800      	cmp	r0, #0
 8000eb4:	f000 808f 	beq.w	8000fd6 <ArcadeIT_ArcadeIT_Start+0x1c6>
 8000eb8:	6822      	ldr	r2, [r4, #0]
 8000eba:	0451      	lsls	r1, r2, #17
 8000ebc:	d511      	bpl.n	8000ee2 <ArcadeIT_ArcadeIT_Start+0xd2>
 8000ebe:	f248 0128 	movw	r1, #32808	; 0x8028
 8000ec2:	f6c0 0100 	movt	r1, #2048	; 0x800
 8000ec6:	f000 f8e3 	bl	8001090 <ArcadeIT_Utility_Get_String_ID>
 8000eca:	f647 51c0 	movw	r1, #32192	; 0x7dc0
 8000ece:	4602      	mov	r2, r0
 8000ed0:	f6c0 0100 	movt	r1, #2048	; 0x800
 8000ed4:	4668      	mov	r0, sp
 8000ed6:	f005 fb93 	bl	8006600 <siprintf>
 8000eda:	4668      	mov	r0, sp
 8000edc:	f000 ff7a 	bl	8001dd4 <ArcadeIT_Serial_Port_String_Send>
 8000ee0:	6822      	ldr	r2, [r4, #0]
 8000ee2:	05d3      	lsls	r3, r2, #23
 8000ee4:	d507      	bpl.n	8000ef6 <ArcadeIT_ArcadeIT_Start+0xe6>
 8000ee6:	f000 fc0b 	bl	8001700 <LCD_Driver_Start>
 8000eea:	f240 4330 	movw	r3, #1072	; 0x430
 8000eee:	f2c2 0300 	movt	r3, #8192	; 0x2000
 8000ef2:	2200      	movs	r2, #0
 8000ef4:	749a      	strb	r2, [r3, #18]
 8000ef6:	f647 6068 	movw	r0, #32360	; 0x7e68
 8000efa:	f6c0 0000 	movt	r0, #2048	; 0x800
 8000efe:	f000 ff69 	bl	8001dd4 <ArcadeIT_Serial_Port_String_Send>
 8000f02:	b040      	add	sp, #256	; 0x100
 8000f04:	bd70      	pop	{r4, r5, r6, pc}
 8000f06:	f248 60a0 	movw	r0, #34464	; 0x86a0
 8000f0a:	f2c0 0001 	movt	r0, #1
 8000f0e:	f000 fa8d 	bl	800142c <ArcadeIT_I2C_Port_Init>
 8000f12:	e7be      	b.n	8000e92 <ArcadeIT_ArcadeIT_Start+0x82>
 8000f14:	2000      	movs	r0, #0
 8000f16:	f000 fdb1 	bl	8001a7c <ArcadeIT_SPI_Port_Init>
 8000f1a:	6823      	ldr	r3, [r4, #0]
 8000f1c:	e7b7      	b.n	8000e8e <ArcadeIT_ArcadeIT_Start+0x7e>
 8000f1e:	2002      	movs	r0, #2
 8000f20:	f000 fa28 	bl	8001374 <ArcadeIT_BUS_Port_SRAM>
 8000f24:	f000 fe98 	bl	8001c58 <ArcadeIT_SRAM_Init>
 8000f28:	6823      	ldr	r3, [r4, #0]
 8000f2a:	e7ae      	b.n	8000e8a <ArcadeIT_ArcadeIT_Start+0x7a>
 8000f2c:	f000 f8be 	bl	80010ac <ArcadeIT_BUS_Port_Init>
 8000f30:	6823      	ldr	r3, [r4, #0]
 8000f32:	e7a8      	b.n	8000e86 <ArcadeIT_ArcadeIT_Start+0x76>
 8000f34:	f001 fef2 	bl	8002d1c <ArcadeIT_Scheduler_Task_Init>
 8000f38:	e7a2      	b.n	8000e80 <ArcadeIT_ArcadeIT_Start+0x70>
 8000f3a:	f000 fc25 	bl	8001788 <ArcadeIT_RTC_Init>
 8000f3e:	682b      	ldr	r3, [r5, #0]
 8000f40:	e79c      	b.n	8000e7c <ArcadeIT_ArcadeIT_Start+0x6c>
 8000f42:	f001 f833 	bl	8001fac <ArcadeIT_Status_LEDS_Init>
 8000f46:	e792      	b.n	8000e6e <ArcadeIT_ArcadeIT_Start+0x5e>
 8000f48:	f04f 5140 	mov.w	r1, #805306368	; 0x30000000
 8000f4c:	2000      	movs	r0, #0
 8000f4e:	f001 f89f 	bl	8002090 <ArcadeIT_TestPad_Init>
 8000f52:	6823      	ldr	r3, [r4, #0]
 8000f54:	e789      	b.n	8000e6a <ArcadeIT_ArcadeIT_Start+0x5a>
 8000f56:	f44f 30e1 	mov.w	r0, #115200	; 0x1c200
 8000f5a:	f000 ff4f 	bl	8001dfc <ArcadeIT_Serial_Port_Init>
 8000f5e:	e761      	b.n	8000e24 <ArcadeIT_ArcadeIT_Start+0x14>
 8000f60:	f001 fdf6 	bl	8002b50 <ArcadeIT_SDCard_Disk_Start>
 8000f64:	b120      	cbz	r0, 8000f70 <ArcadeIT_ArcadeIT_Start+0x160>
 8000f66:	6822      	ldr	r2, [r4, #0]
 8000f68:	0451      	lsls	r1, r2, #17
 8000f6a:	d428      	bmi.n	8000fbe <ArcadeIT_ArcadeIT_Start+0x1ae>
 8000f6c:	682b      	ldr	r3, [r5, #0]
 8000f6e:	e79a      	b.n	8000ea6 <ArcadeIT_ArcadeIT_Start+0x96>
 8000f70:	f248 0114 	movw	r1, #32788	; 0x8014
 8000f74:	f6c0 0100 	movt	r1, #2048	; 0x800
 8000f78:	2001      	movs	r0, #1
 8000f7a:	f000 f889 	bl	8001090 <ArcadeIT_Utility_Get_String_ID>
 8000f7e:	f003 fce9 	bl	8004954 <f_chdrive>
 8000f82:	2800      	cmp	r0, #0
 8000f84:	d1ef      	bne.n	8000f66 <ArcadeIT_ArcadeIT_Start+0x156>
 8000f86:	f240 0304 	movw	r3, #4
 8000f8a:	6822      	ldr	r2, [r4, #0]
 8000f8c:	f2c2 0300 	movt	r3, #8192	; 0x2000
 8000f90:	2001      	movs	r0, #1
 8000f92:	0456      	lsls	r6, r2, #17
 8000f94:	7018      	strb	r0, [r3, #0]
 8000f96:	d5e9      	bpl.n	8000f6c <ArcadeIT_ArcadeIT_Start+0x15c>
 8000f98:	f248 0114 	movw	r1, #32788	; 0x8014
 8000f9c:	f6c0 0100 	movt	r1, #2048	; 0x800
 8000fa0:	f000 f876 	bl	8001090 <ArcadeIT_Utility_Get_String_ID>
 8000fa4:	f647 51a8 	movw	r1, #32168	; 0x7da8
 8000fa8:	4602      	mov	r2, r0
 8000faa:	f6c0 0100 	movt	r1, #2048	; 0x800
 8000fae:	4668      	mov	r0, sp
 8000fb0:	f005 fb26 	bl	8006600 <siprintf>
 8000fb4:	4668      	mov	r0, sp
 8000fb6:	f000 ff0d 	bl	8001dd4 <ArcadeIT_Serial_Port_String_Send>
 8000fba:	682b      	ldr	r3, [r5, #0]
 8000fbc:	e772      	b.n	8000ea4 <ArcadeIT_ArcadeIT_Start+0x94>
 8000fbe:	f248 0128 	movw	r1, #32808	; 0x8028
 8000fc2:	f6c0 0100 	movt	r1, #2048	; 0x800
 8000fc6:	f000 f863 	bl	8001090 <ArcadeIT_Utility_Get_String_ID>
 8000fca:	f647 51c0 	movw	r1, #32192	; 0x7dc0
 8000fce:	4602      	mov	r2, r0
 8000fd0:	f6c0 0100 	movt	r1, #2048	; 0x800
 8000fd4:	e7eb      	b.n	8000fae <ArcadeIT_ArcadeIT_Start+0x19e>
 8000fd6:	f248 0114 	movw	r1, #32788	; 0x8014
 8000fda:	f6c0 0100 	movt	r1, #2048	; 0x800
 8000fde:	f000 f857 	bl	8001090 <ArcadeIT_Utility_Get_String_ID>
 8000fe2:	f003 fcb7 	bl	8004954 <f_chdrive>
 8000fe6:	2800      	cmp	r0, #0
 8000fe8:	f47f af66 	bne.w	8000eb8 <ArcadeIT_ArcadeIT_Start+0xa8>
 8000fec:	f240 0304 	movw	r3, #4
 8000ff0:	6822      	ldr	r2, [r4, #0]
 8000ff2:	f2c2 0300 	movt	r3, #8192	; 0x2000
 8000ff6:	0455      	lsls	r5, r2, #17
 8000ff8:	7018      	strb	r0, [r3, #0]
 8000ffa:	f57f af72 	bpl.w	8000ee2 <ArcadeIT_ArcadeIT_Start+0xd2>
 8000ffe:	f248 0114 	movw	r1, #32788	; 0x8014
 8001002:	f6c0 0100 	movt	r1, #2048	; 0x800
 8001006:	f000 f843 	bl	8001090 <ArcadeIT_Utility_Get_String_ID>
 800100a:	f647 51a8 	movw	r1, #32168	; 0x7da8
 800100e:	4602      	mov	r2, r0
 8001010:	f6c0 0100 	movt	r1, #2048	; 0x800
 8001014:	e75e      	b.n	8000ed4 <ArcadeIT_ArcadeIT_Start+0xc4>
 8001016:	bf00      	nop

08001018 <ArcadeIT_Test_Bench>:
 8001018:	b500      	push	{lr}
 800101a:	f240 2410 	movw	r4, #528	; 0x210
 800101e:	f240 2304 	movw	r3, #516	; 0x204
 8001022:	f240 15fc 	movw	r5, #508	; 0x1fc
 8001026:	f2c2 0300 	movt	r3, #8192	; 0x2000
 800102a:	f2c2 0400 	movt	r4, #8192	; 0x2000
 800102e:	f2c2 0500 	movt	r5, #8192	; 0x2000
 8001032:	f244 1233 	movw	r2, #16691	; 0x4133
 8001036:	f240 1001 	movw	r0, #257	; 0x101
 800103a:	f2c0 0203 	movt	r2, #3
 800103e:	2103      	movs	r1, #3
 8001040:	b083      	sub	sp, #12
 8001042:	6019      	str	r1, [r3, #0]
 8001044:	6020      	str	r0, [r4, #0]
 8001046:	602a      	str	r2, [r5, #0]
 8001048:	f7ff fee2 	bl	8000e10 <ArcadeIT_ArcadeIT_Start>
 800104c:	6823      	ldr	r3, [r4, #0]
 800104e:	f413 7380 	ands.w	r3, r3, #256	; 0x100
 8001052:	d002      	beq.n	800105a <ArcadeIT_Test_Bench+0x42>
 8001054:	682a      	ldr	r2, [r5, #0]
 8001056:	03d2      	lsls	r2, r2, #15
 8001058:	d409      	bmi.n	800106e <ArcadeIT_Test_Bench+0x56>
 800105a:	b903      	cbnz	r3, 800105e <ArcadeIT_Test_Bench+0x46>
 800105c:	e7fe      	b.n	800105c <ArcadeIT_Test_Bench+0x44>
 800105e:	f001 ff77 	bl	8002f50 <ArcadeIT_Scheduler_Run>
 8001062:	6823      	ldr	r3, [r4, #0]
 8001064:	f403 7380 	and.w	r3, r3, #256	; 0x100
 8001068:	2b00      	cmp	r3, #0
 800106a:	d0f7      	beq.n	800105c <ArcadeIT_Test_Bench+0x44>
 800106c:	e7f7      	b.n	800105e <ArcadeIT_Test_Bench+0x46>
 800106e:	2300      	movs	r3, #0
 8001070:	f44f 72fa 	mov.w	r2, #500	; 0x1f4
 8001074:	f242 0171 	movw	r1, #8305	; 0x2071
 8001078:	9200      	str	r2, [sp, #0]
 800107a:	4618      	mov	r0, r3
 800107c:	461a      	mov	r2, r3
 800107e:	f6c0 0100 	movt	r1, #2048	; 0x800
 8001082:	f001 fe6d 	bl	8002d60 <ArcadeIT_Scheduler_Task_Set>
 8001086:	6823      	ldr	r3, [r4, #0]
 8001088:	f403 7380 	and.w	r3, r3, #256	; 0x100
 800108c:	e7e5      	b.n	800105a <ArcadeIT_Test_Bench+0x42>
 800108e:	bf00      	nop

08001090 <ArcadeIT_Utility_Get_String_ID>:
 8001090:	b130      	cbz	r0, 80010a0 <ArcadeIT_Utility_Get_String_ID+0x10>
 8001092:	2300      	movs	r3, #0
 8001094:	f811 2b01 	ldrb.w	r2, [r1], #1
 8001098:	b922      	cbnz	r2, 80010a4 <ArcadeIT_Utility_Get_String_ID+0x14>
 800109a:	3301      	adds	r3, #1
 800109c:	4298      	cmp	r0, r3
 800109e:	d1f9      	bne.n	8001094 <ArcadeIT_Utility_Get_String_ID+0x4>
 80010a0:	4608      	mov	r0, r1
 80010a2:	4770      	bx	lr
 80010a4:	4283      	cmp	r3, r0
 80010a6:	d1f5      	bne.n	8001094 <ArcadeIT_Utility_Get_String_ID+0x4>
 80010a8:	4608      	mov	r0, r1
 80010aa:	4770      	bx	lr

080010ac <ArcadeIT_BUS_Port_Init>:
 80010ac:	b510      	push	{r4, lr}
 80010ae:	f44f 5360 	mov.w	r3, #14336	; 0x3800
 80010b2:	f2c4 0302 	movt	r3, #16386	; 0x4002
 80010b6:	6b1a      	ldr	r2, [r3, #48]	; 0x30
 80010b8:	0711      	lsls	r1, r2, #28
 80010ba:	d403      	bmi.n	80010c4 <ArcadeIT_BUS_Port_Init+0x18>
 80010bc:	6b1a      	ldr	r2, [r3, #48]	; 0x30
 80010be:	f042 0208 	orr.w	r2, r2, #8
 80010c2:	631a      	str	r2, [r3, #48]	; 0x30
 80010c4:	f44f 5360 	mov.w	r3, #14336	; 0x3800
 80010c8:	f2c4 0302 	movt	r3, #16386	; 0x4002
 80010cc:	6b1a      	ldr	r2, [r3, #48]	; 0x30
 80010ce:	06d2      	lsls	r2, r2, #27
 80010d0:	d403      	bmi.n	80010da <ArcadeIT_BUS_Port_Init+0x2e>
 80010d2:	6b1a      	ldr	r2, [r3, #48]	; 0x30
 80010d4:	f042 0210 	orr.w	r2, r2, #16
 80010d8:	631a      	str	r2, [r3, #48]	; 0x30
 80010da:	f44f 5360 	mov.w	r3, #14336	; 0x3800
 80010de:	f2c4 0302 	movt	r3, #16386	; 0x4002
 80010e2:	6b1a      	ldr	r2, [r3, #48]	; 0x30
 80010e4:	0694      	lsls	r4, r2, #26
 80010e6:	d403      	bmi.n	80010f0 <ArcadeIT_BUS_Port_Init+0x44>
 80010e8:	6b1a      	ldr	r2, [r3, #48]	; 0x30
 80010ea:	f042 0220 	orr.w	r2, r2, #32
 80010ee:	631a      	str	r2, [r3, #48]	; 0x30
 80010f0:	f44f 5360 	mov.w	r3, #14336	; 0x3800
 80010f4:	f2c4 0302 	movt	r3, #16386	; 0x4002
 80010f8:	6b1a      	ldr	r2, [r3, #48]	; 0x30
 80010fa:	0650      	lsls	r0, r2, #25
 80010fc:	d403      	bmi.n	8001106 <ArcadeIT_BUS_Port_Init+0x5a>
 80010fe:	6b1a      	ldr	r2, [r3, #48]	; 0x30
 8001100:	f042 0240 	orr.w	r2, r2, #64	; 0x40
 8001104:	631a      	str	r2, [r3, #48]	; 0x30
 8001106:	f44f 5360 	mov.w	r3, #14336	; 0x3800
 800110a:	f2c4 0302 	movt	r3, #16386	; 0x4002
 800110e:	6b1a      	ldr	r2, [r3, #48]	; 0x30
 8001110:	05d1      	lsls	r1, r2, #23
 8001112:	d403      	bmi.n	800111c <ArcadeIT_BUS_Port_Init+0x70>
 8001114:	6b1a      	ldr	r2, [r3, #48]	; 0x30
 8001116:	f442 7280 	orr.w	r2, r2, #256	; 0x100
 800111a:	631a      	str	r2, [r3, #48]	; 0x30
 800111c:	f44f 5360 	mov.w	r3, #14336	; 0x3800
 8001120:	f2c4 0302 	movt	r3, #16386	; 0x4002
 8001124:	6b9a      	ldr	r2, [r3, #56]	; 0x38
 8001126:	07d2      	lsls	r2, r2, #31
 8001128:	d403      	bmi.n	8001132 <ArcadeIT_BUS_Port_Init+0x86>
 800112a:	6b9a      	ldr	r2, [r3, #56]	; 0x38
 800112c:	f042 0201 	orr.w	r2, r2, #1
 8001130:	639a      	str	r2, [r3, #56]	; 0x38
 8001132:	f44f 6240 	mov.w	r2, #3072	; 0xc00
 8001136:	f2c4 0202 	movt	r2, #16386	; 0x4002
 800113a:	f243 01f0 	movw	r1, #12528	; 0x30f0
 800113e:	6813      	ldr	r3, [r2, #0]
 8001140:	f2c0 013f 	movt	r1, #63	; 0x3f
 8001144:	400b      	ands	r3, r1
 8001146:	6013      	str	r3, [r2, #0]
 8001148:	6810      	ldr	r0, [r2, #0]
 800114a:	f648 230a 	movw	r3, #35338	; 0x8a0a
 800114e:	f6ca 2380 	movt	r3, #43648	; 0xaa80
 8001152:	4303      	orrs	r3, r0
 8001154:	6013      	str	r3, [r2, #0]
 8001156:	6893      	ldr	r3, [r2, #8]
 8001158:	400b      	ands	r3, r1
 800115a:	6093      	str	r3, [r2, #8]
 800115c:	6890      	ldr	r0, [r2, #8]
 800115e:	f64c 730f 	movw	r3, #53007	; 0xcf0f
 8001162:	f6cf 73c0 	movt	r3, #65472	; 0xffc0
 8001166:	4303      	orrs	r3, r0
 8001168:	6093      	str	r3, [r2, #8]
 800116a:	6853      	ldr	r3, [r2, #4]
 800116c:	f423 4378 	bic.w	r3, r3, #63488	; 0xf800
 8001170:	f023 03b3 	bic.w	r3, r3, #179	; 0xb3
 8001174:	6053      	str	r3, [r2, #4]
 8001176:	6853      	ldr	r3, [r2, #4]
 8001178:	6053      	str	r3, [r2, #4]
 800117a:	68d3      	ldr	r3, [r2, #12]
 800117c:	4019      	ands	r1, r3
 800117e:	60d1      	str	r1, [r2, #12]
 8001180:	68d3      	ldr	r3, [r2, #12]
 8001182:	60d3      	str	r3, [r2, #12]
 8001184:	6a13      	ldr	r3, [r2, #32]
 8001186:	f023 4370 	bic.w	r3, r3, #4026531840	; 0xf0000000
 800118a:	f003 23ff 	and.w	r3, r3, #4278255360	; 0xff00ff00
 800118e:	6213      	str	r3, [r2, #32]
 8001190:	6a13      	ldr	r3, [r2, #32]
 8001192:	f043 4340 	orr.w	r3, r3, #3221225472	; 0xc0000000
 8001196:	f043 13cc 	orr.w	r3, r3, #13369548	; 0xcc00cc
 800119a:	6213      	str	r3, [r2, #32]
 800119c:	6a53      	ldr	r3, [r2, #36]	; 0x24
 800119e:	f3c3 030b 	ubfx	r3, r3, #0, #12
 80011a2:	6253      	str	r3, [r2, #36]	; 0x24
 80011a4:	6a50      	ldr	r0, [r2, #36]	; 0x24
 80011a6:	f44f 4140 	mov.w	r1, #49152	; 0xc000
 80011aa:	f6cc 41cc 	movt	r1, #52428	; 0xcccc
 80011ae:	f44f 5380 	mov.w	r3, #4096	; 0x1000
 80011b2:	f2c4 0302 	movt	r3, #16386	; 0x4002
 80011b6:	4301      	orrs	r1, r0
 80011b8:	6251      	str	r1, [r2, #36]	; 0x24
 80011ba:	681a      	ldr	r2, [r3, #0]
 80011bc:	210f      	movs	r1, #15
 80011be:	f6cf 71c0 	movt	r1, #65472	; 0xffc0
 80011c2:	400a      	ands	r2, r1
 80011c4:	601a      	str	r2, [r3, #0]
 80011c6:	6818      	ldr	r0, [r3, #0]
 80011c8:	f64a 22a0 	movw	r2, #43680	; 0xaaa0
 80011cc:	f2c0 022a 	movt	r2, #42	; 0x2a
 80011d0:	4302      	orrs	r2, r0
 80011d2:	601a      	str	r2, [r3, #0]
 80011d4:	689a      	ldr	r2, [r3, #8]
 80011d6:	400a      	ands	r2, r1
 80011d8:	609a      	str	r2, [r3, #8]
 80011da:	6898      	ldr	r0, [r3, #8]
 80011dc:	f64f 72f0 	movw	r2, #65520	; 0xfff0
 80011e0:	f2c0 023f 	movt	r2, #63	; 0x3f
 80011e4:	4302      	orrs	r2, r0
 80011e6:	609a      	str	r2, [r3, #8]
 80011e8:	685a      	ldr	r2, [r3, #4]
 80011ea:	f422 62ff 	bic.w	r2, r2, #2040	; 0x7f8
 80011ee:	f022 0204 	bic.w	r2, r2, #4
 80011f2:	605a      	str	r2, [r3, #4]
 80011f4:	685a      	ldr	r2, [r3, #4]
 80011f6:	605a      	str	r2, [r3, #4]
 80011f8:	68da      	ldr	r2, [r3, #12]
 80011fa:	4011      	ands	r1, r2
 80011fc:	60d9      	str	r1, [r3, #12]
 80011fe:	68da      	ldr	r2, [r3, #12]
 8001200:	60da      	str	r2, [r3, #12]
 8001202:	6a1a      	ldr	r2, [r3, #32]
 8001204:	b2d2      	uxtb	r2, r2
 8001206:	621a      	str	r2, [r3, #32]
 8001208:	6a1a      	ldr	r2, [r3, #32]
 800120a:	f042 22cc 	orr.w	r2, r2, #3422604288	; 0xcc00cc00
 800120e:	f442 024c 	orr.w	r2, r2, #13369344	; 0xcc0000
 8001212:	621a      	str	r2, [r3, #32]
 8001214:	6a5a      	ldr	r2, [r3, #36]	; 0x24
 8001216:	f422 627f 	bic.w	r2, r2, #4080	; 0xff0
 800121a:	f022 020f 	bic.w	r2, r2, #15
 800121e:	625a      	str	r2, [r3, #36]	; 0x24
 8001220:	6a59      	ldr	r1, [r3, #36]	; 0x24
 8001222:	f44f 52a0 	mov.w	r2, #5120	; 0x1400
 8001226:	f441 614c 	orr.w	r1, r1, #3264	; 0xcc0
 800122a:	f2c4 0202 	movt	r2, #16386	; 0x4002
 800122e:	f041 010c 	orr.w	r1, r1, #12
 8001232:	6259      	str	r1, [r3, #36]	; 0x24
 8001234:	6813      	ldr	r3, [r2, #0]
 8001236:	f44f 4170 	mov.w	r1, #61440	; 0xf000
 800123a:	f2c0 01ff 	movt	r1, #255	; 0xff
 800123e:	400b      	ands	r3, r1
 8001240:	6013      	str	r3, [r2, #0]
 8001242:	6810      	ldr	r0, [r2, #0]
 8001244:	f640 23aa 	movw	r3, #2730	; 0xaaa
 8001248:	f6ca 2300 	movt	r3, #43520	; 0xaa00
 800124c:	4303      	orrs	r3, r0
 800124e:	6013      	str	r3, [r2, #0]
 8001250:	6893      	ldr	r3, [r2, #8]
 8001252:	400b      	ands	r3, r1
 8001254:	6093      	str	r3, [r2, #8]
 8001256:	6890      	ldr	r0, [r2, #8]
 8001258:	f640 73ff 	movw	r3, #4095	; 0xfff
 800125c:	f6cf 7300 	movt	r3, #65280	; 0xff00
 8001260:	4303      	orrs	r3, r0
 8001262:	6093      	str	r3, [r2, #8]
 8001264:	6853      	ldr	r3, [r2, #4]
 8001266:	f423 4370 	bic.w	r3, r3, #61440	; 0xf000
 800126a:	f023 033f 	bic.w	r3, r3, #63	; 0x3f
 800126e:	6053      	str	r3, [r2, #4]
 8001270:	6853      	ldr	r3, [r2, #4]
 8001272:	6053      	str	r3, [r2, #4]
 8001274:	68d3      	ldr	r3, [r2, #12]
 8001276:	4019      	ands	r1, r3
 8001278:	60d1      	str	r1, [r2, #12]
 800127a:	68d3      	ldr	r3, [r2, #12]
 800127c:	60d3      	str	r3, [r2, #12]
 800127e:	6a13      	ldr	r3, [r2, #32]
 8001280:	f003 437f 	and.w	r3, r3, #4278190080	; 0xff000000
 8001284:	6213      	str	r3, [r2, #32]
 8001286:	6a13      	ldr	r3, [r2, #32]
 8001288:	f64c 40cc 	movw	r0, #52428	; 0xcccc
 800128c:	f2c0 00cc 	movt	r0, #204	; 0xcc
 8001290:	4303      	orrs	r3, r0
 8001292:	6213      	str	r3, [r2, #32]
 8001294:	6a53      	ldr	r3, [r2, #36]	; 0x24
 8001296:	b29b      	uxth	r3, r3
 8001298:	6253      	str	r3, [r2, #36]	; 0x24
 800129a:	6a51      	ldr	r1, [r2, #36]	; 0x24
 800129c:	f44f 53c0 	mov.w	r3, #6144	; 0x1800
 80012a0:	f041 414c 	orr.w	r1, r1, #3422552064	; 0xcc000000
 80012a4:	f2c4 0302 	movt	r3, #16386	; 0x4002
 80012a8:	f441 014c 	orr.w	r1, r1, #13369344	; 0xcc0000
 80012ac:	6251      	str	r1, [r2, #36]	; 0x24
 80012ae:	681a      	ldr	r2, [r3, #0]
 80012b0:	f44f 4170 	mov.w	r1, #61440	; 0xf000
 80012b4:	f2cf 31f3 	movt	r1, #62451	; 0xf3f3
 80012b8:	400a      	ands	r2, r1
 80012ba:	601a      	str	r2, [r3, #0]
 80012bc:	681a      	ldr	r2, [r3, #0]
 80012be:	f640 24aa 	movw	r4, #2730	; 0xaaa
 80012c2:	f6c0 0408 	movt	r4, #2056	; 0x808
 80012c6:	4322      	orrs	r2, r4
 80012c8:	601a      	str	r2, [r3, #0]
 80012ca:	689a      	ldr	r2, [r3, #8]
 80012cc:	400a      	ands	r2, r1
 80012ce:	609a      	str	r2, [r3, #8]
 80012d0:	689a      	ldr	r2, [r3, #8]
 80012d2:	f640 74ff 	movw	r4, #4095	; 0xfff
 80012d6:	f6c0 440c 	movt	r4, #3084	; 0xc0c
 80012da:	4322      	orrs	r2, r4
 80012dc:	609a      	str	r2, [r3, #8]
 80012de:	685a      	ldr	r2, [r3, #4]
 80012e0:	f422 5208 	bic.w	r2, r2, #8704	; 0x2200
 80012e4:	f022 023f 	bic.w	r2, r2, #63	; 0x3f
 80012e8:	605a      	str	r2, [r3, #4]
 80012ea:	685a      	ldr	r2, [r3, #4]
 80012ec:	605a      	str	r2, [r3, #4]
 80012ee:	68da      	ldr	r2, [r3, #12]
 80012f0:	4011      	ands	r1, r2
 80012f2:	60d9      	str	r1, [r3, #12]
 80012f4:	68da      	ldr	r2, [r3, #12]
 80012f6:	60da      	str	r2, [r3, #12]
 80012f8:	6a1a      	ldr	r2, [r3, #32]
 80012fa:	f002 427f 	and.w	r2, r2, #4278190080	; 0xff000000
 80012fe:	621a      	str	r2, [r3, #32]
 8001300:	6a1a      	ldr	r2, [r3, #32]
 8001302:	4302      	orrs	r2, r0
 8001304:	621a      	str	r2, [r3, #32]
 8001306:	6a5a      	ldr	r2, [r3, #36]	; 0x24
 8001308:	f022 12f0 	bic.w	r2, r2, #15728880	; 0xf000f0
 800130c:	625a      	str	r2, [r3, #36]	; 0x24
 800130e:	6a59      	ldr	r1, [r3, #36]	; 0x24
 8001310:	f44f 5200 	mov.w	r2, #8192	; 0x2000
 8001314:	f2c4 0202 	movt	r2, #16386	; 0x4002
 8001318:	f041 11c0 	orr.w	r1, r1, #12583104	; 0xc000c0
 800131c:	6259      	str	r1, [r3, #36]	; 0x24
 800131e:	6813      	ldr	r3, [r2, #0]
 8001320:	f423 4340 	bic.w	r3, r3, #49152	; 0xc000
 8001324:	6013      	str	r3, [r2, #0]
 8001326:	6813      	ldr	r3, [r2, #0]
 8001328:	f443 4380 	orr.w	r3, r3, #16384	; 0x4000
 800132c:	6013      	str	r3, [r2, #0]
 800132e:	6893      	ldr	r3, [r2, #8]
 8001330:	f423 4340 	bic.w	r3, r3, #49152	; 0xc000
 8001334:	6093      	str	r3, [r2, #8]
 8001336:	6893      	ldr	r3, [r2, #8]
 8001338:	f443 4340 	orr.w	r3, r3, #49152	; 0xc000
 800133c:	6093      	str	r3, [r2, #8]
 800133e:	6853      	ldr	r3, [r2, #4]
 8001340:	f023 0380 	bic.w	r3, r3, #128	; 0x80
 8001344:	6053      	str	r3, [r2, #4]
 8001346:	6853      	ldr	r3, [r2, #4]
 8001348:	6053      	str	r3, [r2, #4]
 800134a:	68d3      	ldr	r3, [r2, #12]
 800134c:	f423 4340 	bic.w	r3, r3, #49152	; 0xc000
 8001350:	60d3      	str	r3, [r2, #12]
 8001352:	f240 13fc 	movw	r3, #508	; 0x1fc
 8001356:	68d1      	ldr	r1, [r2, #12]
 8001358:	60d1      	str	r1, [r2, #12]
 800135a:	f2c2 0300 	movt	r3, #8192	; 0x2000
 800135e:	681b      	ldr	r3, [r3, #0]
 8001360:	045b      	lsls	r3, r3, #17
 8001362:	d505      	bpl.n	8001370 <ArcadeIT_BUS_Port_Init+0x2c4>
 8001364:	f647 50e4 	movw	r0, #32228	; 0x7de4
 8001368:	f6c0 0000 	movt	r0, #2048	; 0x800
 800136c:	f000 fd32 	bl	8001dd4 <ArcadeIT_Serial_Port_String_Send>
 8001370:	2001      	movs	r0, #1
 8001372:	bd10      	pop	{r4, pc}

08001374 <ArcadeIT_BUS_Port_SRAM>:
 8001374:	b430      	push	{r4, r5}
 8001376:	2300      	movs	r3, #0
 8001378:	b08e      	sub	sp, #56	; 0x38
 800137a:	e9cd 3304 	strd	r3, r3, [sp, #16]
 800137e:	0041      	lsls	r1, r0, #1
 8001380:	f04f 4220 	mov.w	r2, #2684354560	; 0xa0000000
 8001384:	2401      	movs	r4, #1
 8001386:	9008      	str	r0, [sp, #32]
 8001388:	940a      	str	r4, [sp, #40]	; 0x28
 800138a:	9306      	str	r3, [sp, #24]
 800138c:	930d      	str	r3, [sp, #52]	; 0x34
 800138e:	9001      	str	r0, [sp, #4]
 8001390:	9100      	str	r1, [sp, #0]
 8001392:	9102      	str	r1, [sp, #8]
 8001394:	9107      	str	r1, [sp, #28]
 8001396:	9109      	str	r1, [sp, #36]	; 0x24
 8001398:	9403      	str	r4, [sp, #12]
 800139a:	6811      	ldr	r1, [r2, #0]
 800139c:	f44f 6390 	mov.w	r3, #1152	; 0x480
 80013a0:	f6cf 73e7 	movt	r3, #65511	; 0xffe7
 80013a4:	400b      	ands	r3, r1
 80013a6:	f443 43a0 	orr.w	r3, r3, #20480	; 0x5000
 80013aa:	6013      	str	r3, [r2, #0]
 80013ac:	e9dd 0101 	ldrd	r0, r1, [sp, #4]
 80013b0:	9d06      	ldr	r5, [sp, #24]
 80013b2:	9b00      	ldr	r3, [sp, #0]
 80013b4:	9c03      	ldr	r4, [sp, #12]
 80013b6:	432b      	orrs	r3, r5
 80013b8:	ea43 1300 	orr.w	r3, r3, r0, lsl #4
 80013bc:	ea43 2301 	orr.w	r3, r3, r1, lsl #8
 80013c0:	e9dd 0104 	ldrd	r0, r1, [sp, #16]
 80013c4:	ea43 4304 	orr.w	r3, r3, r4, lsl #16
 80013c8:	ea43 5300 	orr.w	r3, r3, r0, lsl #20
 80013cc:	f44f 7082 	mov.w	r0, #260	; 0x104
 80013d0:	ea43 6301 	orr.w	r3, r3, r1, lsl #24
 80013d4:	f2ca 0000 	movt	r0, #40960	; 0xa000
 80013d8:	6053      	str	r3, [r2, #4]
 80013da:	6805      	ldr	r5, [r0, #0]
 80013dc:	9c0d      	ldr	r4, [sp, #52]	; 0x34
 80013de:	9b07      	ldr	r3, [sp, #28]
 80013e0:	2100      	movs	r1, #0
 80013e2:	f6cc 71f0 	movt	r1, #53232	; 0xcff0
 80013e6:	4029      	ands	r1, r5
 80013e8:	4323      	orrs	r3, r4
 80013ea:	e9dd 5408 	ldrd	r5, r4, [sp, #32]
 80013ee:	430b      	orrs	r3, r1
 80013f0:	ea43 1305 	orr.w	r3, r3, r5, lsl #4
 80013f4:	990a      	ldr	r1, [sp, #40]	; 0x28
 80013f6:	ea43 2304 	orr.w	r3, r3, r4, lsl #8
 80013fa:	ea43 4301 	orr.w	r3, r3, r1, lsl #16
 80013fe:	6003      	str	r3, [r0, #0]
 8001400:	6811      	ldr	r1, [r2, #0]
 8001402:	f240 13fc 	movw	r3, #508	; 0x1fc
 8001406:	f041 0101 	orr.w	r1, r1, #1
 800140a:	f2c2 0300 	movt	r3, #8192	; 0x2000
 800140e:	6011      	str	r1, [r2, #0]
 8001410:	681b      	ldr	r3, [r3, #0]
 8001412:	045b      	lsls	r3, r3, #17
 8001414:	d402      	bmi.n	800141c <ArcadeIT_BUS_Port_SRAM+0xa8>
 8001416:	b00e      	add	sp, #56	; 0x38
 8001418:	bc30      	pop	{r4, r5}
 800141a:	4770      	bx	lr
 800141c:	f647 50fc 	movw	r0, #32252	; 0x7dfc
 8001420:	f6c0 0000 	movt	r0, #2048	; 0x800
 8001424:	b00e      	add	sp, #56	; 0x38
 8001426:	bc30      	pop	{r4, r5}
 8001428:	f000 bcd4 	b.w	8001dd4 <ArcadeIT_Serial_Port_String_Send>

0800142c <ArcadeIT_I2C_Port_Init>:
 800142c:	b538      	push	{r3, r4, r5, lr}
 800142e:	f44f 5360 	mov.w	r3, #14336	; 0x3800
 8001432:	f2c4 0302 	movt	r3, #16386	; 0x4002
 8001436:	4605      	mov	r5, r0
 8001438:	6b1a      	ldr	r2, [r3, #48]	; 0x30
 800143a:	0611      	lsls	r1, r2, #24
 800143c:	d403      	bmi.n	8001446 <ArcadeIT_I2C_Port_Init+0x1a>
 800143e:	6b1a      	ldr	r2, [r3, #48]	; 0x30
 8001440:	f042 0280 	orr.w	r2, r2, #128	; 0x80
 8001444:	631a      	str	r2, [r3, #48]	; 0x30
 8001446:	f44f 5360 	mov.w	r3, #14336	; 0x3800
 800144a:	f2c4 0302 	movt	r3, #16386	; 0x4002
 800144e:	6c1a      	ldr	r2, [r3, #64]	; 0x40
 8001450:	0252      	lsls	r2, r2, #9
 8001452:	d403      	bmi.n	800145c <ArcadeIT_I2C_Port_Init+0x30>
 8001454:	6c1a      	ldr	r2, [r3, #64]	; 0x40
 8001456:	f442 0280 	orr.w	r2, r2, #4194304	; 0x400000
 800145a:	641a      	str	r2, [r3, #64]	; 0x40
 800145c:	f44f 53e0 	mov.w	r3, #7168	; 0x1c00
 8001460:	f2c4 0302 	movt	r3, #16386	; 0x4002
 8001464:	f44f 44b0 	mov.w	r4, #22528	; 0x5800
 8001468:	681a      	ldr	r2, [r3, #0]
 800146a:	f422 7240 	bic.w	r2, r2, #768	; 0x300
 800146e:	601a      	str	r2, [r3, #0]
 8001470:	681a      	ldr	r2, [r3, #0]
 8001472:	f442 7200 	orr.w	r2, r2, #512	; 0x200
 8001476:	601a      	str	r2, [r3, #0]
 8001478:	689a      	ldr	r2, [r3, #8]
 800147a:	f422 7240 	bic.w	r2, r2, #768	; 0x300
 800147e:	609a      	str	r2, [r3, #8]
 8001480:	689a      	ldr	r2, [r3, #8]
 8001482:	609a      	str	r2, [r3, #8]
 8001484:	685a      	ldr	r2, [r3, #4]
 8001486:	f022 0210 	bic.w	r2, r2, #16
 800148a:	605a      	str	r2, [r3, #4]
 800148c:	685a      	ldr	r2, [r3, #4]
 800148e:	f042 0210 	orr.w	r2, r2, #16
 8001492:	605a      	str	r2, [r3, #4]
 8001494:	68da      	ldr	r2, [r3, #12]
 8001496:	f422 7240 	bic.w	r2, r2, #768	; 0x300
 800149a:	60da      	str	r2, [r3, #12]
 800149c:	68da      	ldr	r2, [r3, #12]
 800149e:	60da      	str	r2, [r3, #12]
 80014a0:	6a1a      	ldr	r2, [r3, #32]
 80014a2:	f422 2270 	bic.w	r2, r2, #983040	; 0xf0000
 80014a6:	621a      	str	r2, [r3, #32]
 80014a8:	6a1a      	ldr	r2, [r3, #32]
 80014aa:	f442 2280 	orr.w	r2, r2, #262144	; 0x40000
 80014ae:	621a      	str	r2, [r3, #32]
 80014b0:	681a      	ldr	r2, [r3, #0]
 80014b2:	f422 6240 	bic.w	r2, r2, #3072	; 0xc00
 80014b6:	601a      	str	r2, [r3, #0]
 80014b8:	681a      	ldr	r2, [r3, #0]
 80014ba:	f442 6200 	orr.w	r2, r2, #2048	; 0x800
 80014be:	601a      	str	r2, [r3, #0]
 80014c0:	689a      	ldr	r2, [r3, #8]
 80014c2:	f422 6240 	bic.w	r2, r2, #3072	; 0xc00
 80014c6:	609a      	str	r2, [r3, #8]
 80014c8:	689a      	ldr	r2, [r3, #8]
 80014ca:	609a      	str	r2, [r3, #8]
 80014cc:	685a      	ldr	r2, [r3, #4]
 80014ce:	f022 0220 	bic.w	r2, r2, #32
 80014d2:	605a      	str	r2, [r3, #4]
 80014d4:	685a      	ldr	r2, [r3, #4]
 80014d6:	f042 0220 	orr.w	r2, r2, #32
 80014da:	605a      	str	r2, [r3, #4]
 80014dc:	68da      	ldr	r2, [r3, #12]
 80014de:	f422 6240 	bic.w	r2, r2, #3072	; 0xc00
 80014e2:	60da      	str	r2, [r3, #12]
 80014e4:	68da      	ldr	r2, [r3, #12]
 80014e6:	60da      	str	r2, [r3, #12]
 80014e8:	6a1a      	ldr	r2, [r3, #32]
 80014ea:	f422 0270 	bic.w	r2, r2, #15728640	; 0xf00000
 80014ee:	621a      	str	r2, [r3, #32]
 80014f0:	6a1a      	ldr	r2, [r3, #32]
 80014f2:	f2c4 0400 	movt	r4, #16384	; 0x4000
 80014f6:	f442 0280 	orr.w	r2, r2, #4194304	; 0x400000
 80014fa:	621a      	str	r2, [r3, #32]
 80014fc:	6823      	ldr	r3, [r4, #0]
 80014fe:	f443 4300 	orr.w	r3, r3, #32768	; 0x8000
 8001502:	6023      	str	r3, [r4, #0]
 8001504:	f44f 707a 	mov.w	r0, #1000	; 0x3e8
 8001508:	f7ff fbc6 	bl	8000c98 <ArcadeIT_System_Delay>
 800150c:	2300      	movs	r3, #0
 800150e:	6023      	str	r3, [r4, #0]
 8001510:	6823      	ldr	r3, [r4, #0]
 8001512:	f023 0301 	bic.w	r3, r3, #1
 8001516:	6023      	str	r3, [r4, #0]
 8001518:	6863      	ldr	r3, [r4, #4]
 800151a:	f023 033f 	bic.w	r3, r3, #63	; 0x3f
 800151e:	6063      	str	r3, [r4, #4]
 8001520:	6863      	ldr	r3, [r4, #4]
 8001522:	f248 62a0 	movw	r2, #34464	; 0x86a0
 8001526:	f2c0 0201 	movt	r2, #1
 800152a:	f043 032d 	orr.w	r3, r3, #45	; 0x2d
 800152e:	4295      	cmp	r5, r2
 8001530:	6063      	str	r3, [r4, #4]
 8001532:	d826      	bhi.n	8001582 <ArcadeIT_I2C_Port_Init+0x156>
 8001534:	f24a 5240 	movw	r2, #42304	; 0xa540
 8001538:	006b      	lsls	r3, r5, #1
 800153a:	f2c0 22ae 	movt	r2, #686	; 0x2ae
 800153e:	fbb2 f3f3 	udiv	r3, r2, r3
 8001542:	b29b      	uxth	r3, r3
 8001544:	212e      	movs	r1, #46	; 0x2e
 8001546:	2b04      	cmp	r3, #4
 8001548:	bf38      	it	cc
 800154a:	2304      	movcc	r3, #4
 800154c:	6221      	str	r1, [r4, #32]
 800154e:	f44f 42b0 	mov.w	r2, #22528	; 0x5800
 8001552:	f2c4 0200 	movt	r2, #16384	; 0x4000
 8001556:	2100      	movs	r1, #0
 8001558:	f44f 4080 	mov.w	r0, #16384	; 0x4000
 800155c:	61d3      	str	r3, [r2, #28]
 800155e:	6090      	str	r0, [r2, #8]
 8001560:	60d1      	str	r1, [r2, #12]
 8001562:	6813      	ldr	r3, [r2, #0]
 8001564:	f443 6380 	orr.w	r3, r3, #1024	; 0x400
 8001568:	6013      	str	r3, [r2, #0]
 800156a:	6811      	ldr	r1, [r2, #0]
 800156c:	f240 13fc 	movw	r3, #508	; 0x1fc
 8001570:	f041 0101 	orr.w	r1, r1, #1
 8001574:	f2c2 0300 	movt	r3, #8192	; 0x2000
 8001578:	6011      	str	r1, [r2, #0]
 800157a:	681b      	ldr	r3, [r3, #0]
 800157c:	045b      	lsls	r3, r3, #17
 800157e:	d417      	bmi.n	80015b0 <ArcadeIT_I2C_Port_Init+0x184>
 8001580:	bd38      	pop	{r3, r4, r5, pc}
 8001582:	f24a 5340 	movw	r3, #42304	; 0xa540
 8001586:	eb05 0545 	add.w	r5, r5, r5, lsl #1
 800158a:	f2c0 23ae 	movt	r3, #686	; 0x2ae
 800158e:	fbb3 f3f5 	udiv	r3, r3, r5
 8001592:	f3c3 020b 	ubfx	r2, r3, #0, #12
 8001596:	b29b      	uxth	r3, r3
 8001598:	b90a      	cbnz	r2, 800159e <ArcadeIT_I2C_Port_Init+0x172>
 800159a:	f043 0301 	orr.w	r3, r3, #1
 800159e:	f44f 42b0 	mov.w	r2, #22528	; 0x5800
 80015a2:	f2c4 0200 	movt	r2, #16384	; 0x4000
 80015a6:	210e      	movs	r1, #14
 80015a8:	f443 4300 	orr.w	r3, r3, #32768	; 0x8000
 80015ac:	6211      	str	r1, [r2, #32]
 80015ae:	e7ce      	b.n	800154e <ArcadeIT_I2C_Port_Init+0x122>
 80015b0:	f647 6010 	movw	r0, #32272	; 0x7e10
 80015b4:	f6c0 0000 	movt	r0, #2048	; 0x800
 80015b8:	e8bd 4038 	ldmia.w	sp!, {r3, r4, r5, lr}
 80015bc:	f000 bc0a 	b.w	8001dd4 <ArcadeIT_Serial_Port_String_Send>

080015c0 <LCD_Parallel_Port_Setup>:
 80015c0:	f44f 5360 	mov.w	r3, #14336	; 0x3800
 80015c4:	f2c4 0302 	movt	r3, #16386	; 0x4002
 80015c8:	6b1a      	ldr	r2, [r3, #48]	; 0x30
 80015ca:	0610      	lsls	r0, r2, #24
 80015cc:	d403      	bmi.n	80015d6 <LCD_Parallel_Port_Setup+0x16>
 80015ce:	6b1a      	ldr	r2, [r3, #48]	; 0x30
 80015d0:	f042 0280 	orr.w	r2, r2, #128	; 0x80
 80015d4:	631a      	str	r2, [r3, #48]	; 0x30
 80015d6:	f44f 53e0 	mov.w	r3, #7168	; 0x1c00
 80015da:	f2c4 0302 	movt	r3, #16386	; 0x4002
 80015de:	f44f 5260 	mov.w	r2, #14336	; 0x3800
 80015e2:	6819      	ldr	r1, [r3, #0]
 80015e4:	f421 4140 	bic.w	r1, r1, #49152	; 0xc000
 80015e8:	6019      	str	r1, [r3, #0]
 80015ea:	6819      	ldr	r1, [r3, #0]
 80015ec:	f441 4180 	orr.w	r1, r1, #16384	; 0x4000
 80015f0:	6019      	str	r1, [r3, #0]
 80015f2:	6899      	ldr	r1, [r3, #8]
 80015f4:	f421 4140 	bic.w	r1, r1, #49152	; 0xc000
 80015f8:	6099      	str	r1, [r3, #8]
 80015fa:	6899      	ldr	r1, [r3, #8]
 80015fc:	f441 4140 	orr.w	r1, r1, #49152	; 0xc000
 8001600:	6099      	str	r1, [r3, #8]
 8001602:	6859      	ldr	r1, [r3, #4]
 8001604:	f021 0180 	bic.w	r1, r1, #128	; 0x80
 8001608:	6059      	str	r1, [r3, #4]
 800160a:	6859      	ldr	r1, [r3, #4]
 800160c:	6059      	str	r1, [r3, #4]
 800160e:	68d9      	ldr	r1, [r3, #12]
 8001610:	f421 4140 	bic.w	r1, r1, #49152	; 0xc000
 8001614:	60d9      	str	r1, [r3, #12]
 8001616:	68d9      	ldr	r1, [r3, #12]
 8001618:	f2c4 0202 	movt	r2, #16386	; 0x4002
 800161c:	f441 4180 	orr.w	r1, r1, #16384	; 0x4000
 8001620:	60d9      	str	r1, [r3, #12]
 8001622:	6c53      	ldr	r3, [r2, #68]	; 0x44
 8001624:	07d9      	lsls	r1, r3, #31
 8001626:	d403      	bmi.n	8001630 <LCD_Parallel_Port_Setup+0x70>
 8001628:	6c53      	ldr	r3, [r2, #68]	; 0x44
 800162a:	f043 0301 	orr.w	r3, r3, #1
 800162e:	6453      	str	r3, [r2, #68]	; 0x44
 8001630:	f44f 5360 	mov.w	r3, #14336	; 0x3800
 8001634:	f2c4 0302 	movt	r3, #16386	; 0x4002
 8001638:	6b1a      	ldr	r2, [r3, #48]	; 0x30
 800163a:	06d2      	lsls	r2, r2, #27
 800163c:	d403      	bmi.n	8001646 <LCD_Parallel_Port_Setup+0x86>
 800163e:	6b1a      	ldr	r2, [r3, #48]	; 0x30
 8001640:	f042 0210 	orr.w	r2, r2, #16
 8001644:	631a      	str	r2, [r3, #48]	; 0x30
 8001646:	f44f 5380 	mov.w	r3, #4096	; 0x1000
 800164a:	f2c4 0302 	movt	r3, #16386	; 0x4002
 800164e:	f240 12fc 	movw	r2, #508	; 0x1fc
 8001652:	6819      	ldr	r1, [r3, #0]
 8001654:	f021 6140 	bic.w	r1, r1, #201326592	; 0xc000000
 8001658:	6019      	str	r1, [r3, #0]
 800165a:	6819      	ldr	r1, [r3, #0]
 800165c:	f041 6100 	orr.w	r1, r1, #134217728	; 0x8000000
 8001660:	6019      	str	r1, [r3, #0]
 8001662:	6899      	ldr	r1, [r3, #8]
 8001664:	f021 6140 	bic.w	r1, r1, #201326592	; 0xc000000
 8001668:	6099      	str	r1, [r3, #8]
 800166a:	6899      	ldr	r1, [r3, #8]
 800166c:	f041 6180 	orr.w	r1, r1, #67108864	; 0x4000000
 8001670:	6099      	str	r1, [r3, #8]
 8001672:	6859      	ldr	r1, [r3, #4]
 8001674:	f421 5100 	bic.w	r1, r1, #8192	; 0x2000
 8001678:	6059      	str	r1, [r3, #4]
 800167a:	6859      	ldr	r1, [r3, #4]
 800167c:	6059      	str	r1, [r3, #4]
 800167e:	68d9      	ldr	r1, [r3, #12]
 8001680:	f021 6140 	bic.w	r1, r1, #201326592	; 0xc000000
 8001684:	60d9      	str	r1, [r3, #12]
 8001686:	68d9      	ldr	r1, [r3, #12]
 8001688:	f041 6180 	orr.w	r1, r1, #67108864	; 0x4000000
 800168c:	60d9      	str	r1, [r3, #12]
 800168e:	6a59      	ldr	r1, [r3, #36]	; 0x24
 8001690:	f421 0170 	bic.w	r1, r1, #15728640	; 0xf00000
 8001694:	6259      	str	r1, [r3, #36]	; 0x24
 8001696:	6a59      	ldr	r1, [r3, #36]	; 0x24
 8001698:	6259      	str	r1, [r3, #36]	; 0x24
 800169a:	6819      	ldr	r1, [r3, #0]
 800169c:	f021 5140 	bic.w	r1, r1, #805306368	; 0x30000000
 80016a0:	6019      	str	r1, [r3, #0]
 80016a2:	6819      	ldr	r1, [r3, #0]
 80016a4:	f041 5100 	orr.w	r1, r1, #536870912	; 0x20000000
 80016a8:	6019      	str	r1, [r3, #0]
 80016aa:	6899      	ldr	r1, [r3, #8]
 80016ac:	f021 5140 	bic.w	r1, r1, #805306368	; 0x30000000
 80016b0:	6099      	str	r1, [r3, #8]
 80016b2:	6899      	ldr	r1, [r3, #8]
 80016b4:	f041 5180 	orr.w	r1, r1, #268435456	; 0x10000000
 80016b8:	6099      	str	r1, [r3, #8]
 80016ba:	6859      	ldr	r1, [r3, #4]
 80016bc:	f421 4180 	bic.w	r1, r1, #16384	; 0x4000
 80016c0:	6059      	str	r1, [r3, #4]
 80016c2:	6859      	ldr	r1, [r3, #4]
 80016c4:	6059      	str	r1, [r3, #4]
 80016c6:	68d9      	ldr	r1, [r3, #12]
 80016c8:	f021 5140 	bic.w	r1, r1, #805306368	; 0x30000000
 80016cc:	60d9      	str	r1, [r3, #12]
 80016ce:	68d9      	ldr	r1, [r3, #12]
 80016d0:	f041 5180 	orr.w	r1, r1, #268435456	; 0x10000000
 80016d4:	60d9      	str	r1, [r3, #12]
 80016d6:	6a59      	ldr	r1, [r3, #36]	; 0x24
 80016d8:	f021 6170 	bic.w	r1, r1, #251658240	; 0xf000000
 80016dc:	6259      	str	r1, [r3, #36]	; 0x24
 80016de:	6a59      	ldr	r1, [r3, #36]	; 0x24
 80016e0:	6259      	str	r1, [r3, #36]	; 0x24
 80016e2:	f2c2 0200 	movt	r2, #8192	; 0x2000
 80016e6:	6813      	ldr	r3, [r2, #0]
 80016e8:	045b      	lsls	r3, r3, #17
 80016ea:	d400      	bmi.n	80016ee <LCD_Parallel_Port_Setup+0x12e>
 80016ec:	4770      	bx	lr
 80016ee:	f647 6038 	movw	r0, #32312	; 0x7e38
 80016f2:	f6c0 0000 	movt	r0, #2048	; 0x800
 80016f6:	f000 bb6d 	b.w	8001dd4 <ArcadeIT_Serial_Port_String_Send>
 80016fa:	bf00      	nop

080016fc <DMA2_Stream0_IRQHandler>:
 80016fc:	4770      	bx	lr
 80016fe:	bf00      	nop

08001700 <LCD_Driver_Start>:
 8001700:	b530      	push	{r4, r5, lr}
 8001702:	f44f 54e0 	mov.w	r4, #7168	; 0x1c00
 8001706:	f2c4 0402 	movt	r4, #16386	; 0x4002
 800170a:	b0c1      	sub	sp, #260	; 0x104
 800170c:	2000      	movs	r0, #0
 800170e:	f7ff ff57 	bl	80015c0 <LCD_Parallel_Port_Setup>
 8001712:	6963      	ldr	r3, [r4, #20]
 8001714:	f043 0380 	orr.w	r3, r3, #128	; 0x80
 8001718:	6163      	str	r3, [r4, #20]
 800171a:	2001      	movs	r0, #1
 800171c:	f7ff fabc 	bl	8000c98 <ArcadeIT_System_Delay>
 8001720:	6963      	ldr	r3, [r4, #20]
 8001722:	f023 0380 	bic.w	r3, r3, #128	; 0x80
 8001726:	6163      	str	r3, [r4, #20]
 8001728:	2014      	movs	r0, #20
 800172a:	f7ff fab5 	bl	8000c98 <ArcadeIT_System_Delay>
 800172e:	6963      	ldr	r3, [r4, #20]
 8001730:	f043 0380 	orr.w	r3, r3, #128	; 0x80
 8001734:	6163      	str	r3, [r4, #20]
 8001736:	2078      	movs	r0, #120	; 0x78
 8001738:	f7ff faae 	bl	8000c98 <ArcadeIT_System_Delay>
 800173c:	f240 12fc 	movw	r2, #508	; 0x1fc
 8001740:	f2c2 0200 	movt	r2, #8192	; 0x2000
 8001744:	f240 4330 	movw	r3, #1072	; 0x430
 8001748:	f2c2 0300 	movt	r3, #8192	; 0x2000
 800174c:	6810      	ldr	r0, [r2, #0]
 800174e:	f640 0290 	movw	r2, #2192	; 0x890
 8001752:	2100      	movs	r1, #0
 8001754:	f04f 75a0 	mov.w	r5, #20971520	; 0x1400000
 8001758:	24f0      	movs	r4, #240	; 0xf0
 800175a:	f2c2 0200 	movt	r2, #8192	; 0x2000
 800175e:	601d      	str	r5, [r3, #0]
 8001760:	809c      	strh	r4, [r3, #4]
 8001762:	619a      	str	r2, [r3, #24]
 8001764:	7199      	strb	r1, [r3, #6]
 8001766:	8399      	strh	r1, [r3, #28]
 8001768:	0443      	lsls	r3, r0, #17
 800176a:	d50a      	bpl.n	8001782 <LCD_Driver_Start+0x82>
 800176c:	f647 6124 	movw	r1, #32292	; 0x7e24
 8001770:	4668      	mov	r0, sp
 8001772:	f6c0 0100 	movt	r1, #2048	; 0x800
 8001776:	2201      	movs	r2, #1
 8001778:	f004 ff42 	bl	8006600 <siprintf>
 800177c:	4668      	mov	r0, sp
 800177e:	f000 fb29 	bl	8001dd4 <ArcadeIT_Serial_Port_String_Send>
 8001782:	b041      	add	sp, #260	; 0x104
 8001784:	bd30      	pop	{r4, r5, pc}
 8001786:	bf00      	nop

08001788 <ArcadeIT_RTC_Init>:
 8001788:	b430      	push	{r4, r5}
 800178a:	f642 0350 	movw	r3, #10320	; 0x2850
 800178e:	b086      	sub	sp, #24
 8001790:	f2c4 0300 	movt	r3, #16384	; 0x4000
 8001794:	2200      	movs	r2, #0
 8001796:	9201      	str	r2, [sp, #4]
 8001798:	9301      	str	r3, [sp, #4]
 800179a:	9b01      	ldr	r3, [sp, #4]
 800179c:	9301      	str	r3, [sp, #4]
 800179e:	9b01      	ldr	r3, [sp, #4]
 80017a0:	6819      	ldr	r1, [r3, #0]
 80017a2:	f243 23f2 	movw	r3, #13042	; 0x32f2
 80017a6:	4299      	cmp	r1, r3
 80017a8:	f000 80b8 	beq.w	800191c <ArcadeIT_RTC_Init+0x194>
 80017ac:	f44f 5360 	mov.w	r3, #14336	; 0x3800
 80017b0:	f2c4 0302 	movt	r3, #16386	; 0x4002
 80017b4:	6c1a      	ldr	r2, [r3, #64]	; 0x40
 80017b6:	00d4      	lsls	r4, r2, #3
 80017b8:	f140 80a3 	bpl.w	8001902 <ArcadeIT_RTC_Init+0x17a>
 80017bc:	2120      	movs	r1, #32
 80017be:	f2c4 210e 	movt	r1, #16910	; 0x420e
 80017c2:	f44f 5220 	mov.w	r2, #10240	; 0x2800
 80017c6:	f2c4 0200 	movt	r2, #16384	; 0x4000
 80017ca:	2001      	movs	r0, #1
 80017cc:	6008      	str	r0, [r1, #0]
 80017ce:	f44f 6464 	mov.w	r4, #3648	; 0xe40
 80017d2:	21ca      	movs	r1, #202	; 0xca
 80017d4:	f44f 6568 	mov.w	r5, #3712	; 0xe80
 80017d8:	f643 0370 	movw	r3, #14448	; 0x3870
 80017dc:	6251      	str	r1, [r2, #36]	; 0x24
 80017de:	f2c4 0302 	movt	r3, #16386	; 0x4002
 80017e2:	f2c4 2447 	movt	r4, #16967	; 0x4247
 80017e6:	2153      	movs	r1, #83	; 0x53
 80017e8:	f2c4 2547 	movt	r5, #16967	; 0x4247
 80017ec:	6251      	str	r1, [r2, #36]	; 0x24
 80017ee:	2100      	movs	r1, #0
 80017f0:	f44f 5260 	mov.w	r2, #14336	; 0x3800
 80017f4:	6020      	str	r0, [r4, #0]
 80017f6:	f2c4 0202 	movt	r2, #16386	; 0x4002
 80017fa:	6021      	str	r1, [r4, #0]
 80017fc:	6029      	str	r1, [r5, #0]
 80017fe:	7019      	strb	r1, [r3, #0]
 8001800:	7019      	strb	r1, [r3, #0]
 8001802:	7018      	strb	r0, [r3, #0]
 8001804:	6f13      	ldr	r3, [r2, #112]	; 0x70
 8001806:	0798      	lsls	r0, r3, #30
 8001808:	d5fc      	bpl.n	8001804 <ArcadeIT_RTC_Init+0x7c>
 800180a:	6f13      	ldr	r3, [r2, #112]	; 0x70
 800180c:	f640 603c 	movw	r0, #3644	; 0xe3c
 8001810:	f44f 5120 	mov.w	r1, #10240	; 0x2800
 8001814:	f2c4 0100 	movt	r1, #16384	; 0x4000
 8001818:	f443 7380 	orr.w	r3, r3, #256	; 0x100
 800181c:	f2c4 2047 	movt	r0, #16967	; 0x4247
 8001820:	6713      	str	r3, [r2, #112]	; 0x70
 8001822:	2501      	movs	r5, #1
 8001824:	2353      	movs	r3, #83	; 0x53
 8001826:	2400      	movs	r4, #0
 8001828:	22ca      	movs	r2, #202	; 0xca
 800182a:	6005      	str	r5, [r0, #0]
 800182c:	9404      	str	r4, [sp, #16]
 800182e:	624a      	str	r2, [r1, #36]	; 0x24
 8001830:	624b      	str	r3, [r1, #36]	; 0x24
 8001832:	68cb      	ldr	r3, [r1, #12]
 8001834:	f023 03a0 	bic.w	r3, r3, #160	; 0xa0
 8001838:	60cb      	str	r3, [r1, #12]
 800183a:	e000      	b.n	800183e <ArcadeIT_RTC_Init+0xb6>
 800183c:	b94a      	cbnz	r2, 8001852 <ArcadeIT_RTC_Init+0xca>
 800183e:	68ca      	ldr	r2, [r1, #12]
 8001840:	9b04      	ldr	r3, [sp, #16]
 8001842:	3301      	adds	r3, #1
 8001844:	9304      	str	r3, [sp, #16]
 8001846:	9b04      	ldr	r3, [sp, #16]
 8001848:	f5b3 3f00 	cmp.w	r3, #131072	; 0x20000
 800184c:	f002 0220 	and.w	r2, r2, #32
 8001850:	d1f4      	bne.n	800183c <ArcadeIT_RTC_Init+0xb4>
 8001852:	f44f 5320 	mov.w	r3, #10240	; 0x2800
 8001856:	f2c4 0300 	movt	r3, #16384	; 0x4000
 800185a:	2153      	movs	r1, #83	; 0x53
 800185c:	2200      	movs	r2, #0
 800185e:	24ff      	movs	r4, #255	; 0xff
 8001860:	20ca      	movs	r0, #202	; 0xca
 8001862:	68dd      	ldr	r5, [r3, #12]
 8001864:	625c      	str	r4, [r3, #36]	; 0x24
 8001866:	6258      	str	r0, [r3, #36]	; 0x24
 8001868:	6259      	str	r1, [r3, #36]	; 0x24
 800186a:	9203      	str	r2, [sp, #12]
 800186c:	68da      	ldr	r2, [r3, #12]
 800186e:	0651      	lsls	r1, r2, #25
 8001870:	d416      	bmi.n	80018a0 <ArcadeIT_RTC_Init+0x118>
 8001872:	f04f 32ff 	mov.w	r2, #4294967295
 8001876:	60da      	str	r2, [r3, #12]
 8001878:	4619      	mov	r1, r3
 800187a:	e000      	b.n	800187e <ArcadeIT_RTC_Init+0xf6>
 800187c:	b94a      	cbnz	r2, 8001892 <ArcadeIT_RTC_Init+0x10a>
 800187e:	68ca      	ldr	r2, [r1, #12]
 8001880:	9b03      	ldr	r3, [sp, #12]
 8001882:	3301      	adds	r3, #1
 8001884:	9303      	str	r3, [sp, #12]
 8001886:	9b03      	ldr	r3, [sp, #12]
 8001888:	f5b3 3f80 	cmp.w	r3, #65536	; 0x10000
 800188c:	f002 0240 	and.w	r2, r2, #64	; 0x40
 8001890:	d1f4      	bne.n	800187c <ArcadeIT_RTC_Init+0xf4>
 8001892:	f44f 5320 	mov.w	r3, #10240	; 0x2800
 8001896:	f2c4 0300 	movt	r3, #16384	; 0x4000
 800189a:	68db      	ldr	r3, [r3, #12]
 800189c:	065a      	lsls	r2, r3, #25
 800189e:	d513      	bpl.n	80018c8 <ArcadeIT_RTC_Init+0x140>
 80018a0:	f44f 5320 	mov.w	r3, #10240	; 0x2800
 80018a4:	f2c4 0300 	movt	r3, #16384	; 0x4000
 80018a8:	21ff      	movs	r1, #255	; 0xff
 80018aa:	689a      	ldr	r2, [r3, #8]
 80018ac:	f022 0240 	bic.w	r2, r2, #64	; 0x40
 80018b0:	609a      	str	r2, [r3, #8]
 80018b2:	689a      	ldr	r2, [r3, #8]
 80018b4:	609a      	str	r2, [r3, #8]
 80018b6:	6119      	str	r1, [r3, #16]
 80018b8:	691a      	ldr	r2, [r3, #16]
 80018ba:	f442 02fe 	orr.w	r2, r2, #8323072	; 0x7f0000
 80018be:	611a      	str	r2, [r3, #16]
 80018c0:	68da      	ldr	r2, [r3, #12]
 80018c2:	f022 0280 	bic.w	r2, r2, #128	; 0x80
 80018c6:	60da      	str	r2, [r3, #12]
 80018c8:	f44f 5220 	mov.w	r2, #10240	; 0x2800
 80018cc:	f2c4 0200 	movt	r2, #16384	; 0x4000
 80018d0:	f642 0350 	movw	r3, #10320	; 0x2850
 80018d4:	f2c4 0300 	movt	r3, #16384	; 0x4000
 80018d8:	20ff      	movs	r0, #255	; 0xff
 80018da:	2100      	movs	r1, #0
 80018dc:	6250      	str	r0, [r2, #36]	; 0x24
 80018de:	9102      	str	r1, [sp, #8]
 80018e0:	9302      	str	r3, [sp, #8]
 80018e2:	9b02      	ldr	r3, [sp, #8]
 80018e4:	9302      	str	r3, [sp, #8]
 80018e6:	9b02      	ldr	r3, [sp, #8]
 80018e8:	f243 22f2 	movw	r2, #13042	; 0x32f2
 80018ec:	601a      	str	r2, [r3, #0]
 80018ee:	f240 13fc 	movw	r3, #508	; 0x1fc
 80018f2:	f2c2 0300 	movt	r3, #8192	; 0x2000
 80018f6:	681b      	ldr	r3, [r3, #0]
 80018f8:	045b      	lsls	r3, r3, #17
 80018fa:	d407      	bmi.n	800190c <ArcadeIT_RTC_Init+0x184>
 80018fc:	b006      	add	sp, #24
 80018fe:	bc30      	pop	{r4, r5}
 8001900:	4770      	bx	lr
 8001902:	6c1a      	ldr	r2, [r3, #64]	; 0x40
 8001904:	f042 5280 	orr.w	r2, r2, #268435456	; 0x10000000
 8001908:	641a      	str	r2, [r3, #64]	; 0x40
 800190a:	e757      	b.n	80017bc <ArcadeIT_RTC_Init+0x34>
 800190c:	f647 6050 	movw	r0, #32336	; 0x7e50
 8001910:	f6c0 0000 	movt	r0, #2048	; 0x800
 8001914:	b006      	add	sp, #24
 8001916:	bc30      	pop	{r4, r5}
 8001918:	f000 ba5c 	b.w	8001dd4 <ArcadeIT_Serial_Port_String_Send>
 800191c:	f44f 5120 	mov.w	r1, #10240	; 0x2800
 8001920:	f2c4 0100 	movt	r1, #16384	; 0x4000
 8001924:	2353      	movs	r3, #83	; 0x53
 8001926:	20ca      	movs	r0, #202	; 0xca
 8001928:	9205      	str	r2, [sp, #20]
 800192a:	6248      	str	r0, [r1, #36]	; 0x24
 800192c:	624b      	str	r3, [r1, #36]	; 0x24
 800192e:	68cb      	ldr	r3, [r1, #12]
 8001930:	f023 03a0 	bic.w	r3, r3, #160	; 0xa0
 8001934:	60cb      	str	r3, [r1, #12]
 8001936:	e000      	b.n	800193a <ArcadeIT_RTC_Init+0x1b2>
 8001938:	b94a      	cbnz	r2, 800194e <ArcadeIT_RTC_Init+0x1c6>
 800193a:	68ca      	ldr	r2, [r1, #12]
 800193c:	9b05      	ldr	r3, [sp, #20]
 800193e:	3301      	adds	r3, #1
 8001940:	9305      	str	r3, [sp, #20]
 8001942:	9b05      	ldr	r3, [sp, #20]
 8001944:	f5b3 3f00 	cmp.w	r3, #131072	; 0x20000
 8001948:	f002 0220 	and.w	r2, r2, #32
 800194c:	d1f4      	bne.n	8001938 <ArcadeIT_RTC_Init+0x1b0>
 800194e:	f44f 5220 	mov.w	r2, #10240	; 0x2800
 8001952:	f2c4 0200 	movt	r2, #16384	; 0x4000
 8001956:	f44f 5360 	mov.w	r3, #14336	; 0x3800
 800195a:	f2c4 0302 	movt	r3, #16386	; 0x4002
 800195e:	21ff      	movs	r1, #255	; 0xff
 8001960:	68d0      	ldr	r0, [r2, #12]
 8001962:	6251      	str	r1, [r2, #36]	; 0x24
 8001964:	6b1a      	ldr	r2, [r3, #48]	; 0x30
 8001966:	f442 2280 	orr.w	r2, r2, #262144	; 0x40000
 800196a:	631a      	str	r2, [r3, #48]	; 0x30
 800196c:	e7bf      	b.n	80018ee <ArcadeIT_RTC_Init+0x166>
 800196e:	bf00      	nop

08001970 <ArcadeIT_RTC_TimeDate_Get>:
 8001970:	b430      	push	{r4, r5}
 8001972:	f44f 5220 	mov.w	r2, #10240	; 0x2800
 8001976:	f2c4 0200 	movt	r2, #16384	; 0x4000
 800197a:	6813      	ldr	r3, [r2, #0]
 800197c:	6852      	ldr	r2, [r2, #4]
 800197e:	f022 427f 	bic.w	r2, r2, #4278190080	; 0xff000000
 8001982:	f022 02c0 	bic.w	r2, r2, #192	; 0xc0
 8001986:	f003 337f 	and.w	r3, r3, #2139062143	; 0x7f7f7f7f
 800198a:	f023 43fe 	bic.w	r3, r3, #2130706432	; 0x7f000000
 800198e:	f3c2 2404 	ubfx	r4, r2, #8, #5
 8001992:	0c15      	lsrs	r5, r2, #16
 8001994:	7004      	strb	r4, [r0, #0]
 8001996:	7042      	strb	r2, [r0, #1]
 8001998:	f3c3 4405 	ubfx	r4, r3, #16, #6
 800199c:	0a1a      	lsrs	r2, r3, #8
 800199e:	7085      	strb	r5, [r0, #2]
 80019a0:	70c4      	strb	r4, [r0, #3]
 80019a2:	7143      	strb	r3, [r0, #5]
 80019a4:	7102      	strb	r2, [r0, #4]
 80019a6:	bc30      	pop	{r4, r5}
 80019a8:	4770      	bx	lr
 80019aa:	bf00      	nop

080019ac <ArcadeIT_SPI_Port_RW_Byte>:
 80019ac:	f44f 5140 	mov.w	r1, #12288	; 0x3000
 80019b0:	f2c4 0101 	movt	r1, #16385	; 0x4001
 80019b4:	f240 13f5 	movw	r3, #501	; 0x1f5
 80019b8:	e001      	b.n	80019be <ArcadeIT_SPI_Port_RW_Byte+0x12>
 80019ba:	3b01      	subs	r3, #1
 80019bc:	d002      	beq.n	80019c4 <ArcadeIT_SPI_Port_RW_Byte+0x18>
 80019be:	688a      	ldr	r2, [r1, #8]
 80019c0:	0792      	lsls	r2, r2, #30
 80019c2:	d5fa      	bpl.n	80019ba <ArcadeIT_SPI_Port_RW_Byte+0xe>
 80019c4:	f44f 5340 	mov.w	r3, #12288	; 0x3000
 80019c8:	f2c4 0301 	movt	r3, #16385	; 0x4001
 80019cc:	4619      	mov	r1, r3
 80019ce:	60d8      	str	r0, [r3, #12]
 80019d0:	f240 13f5 	movw	r3, #501	; 0x1f5
 80019d4:	e001      	b.n	80019da <ArcadeIT_SPI_Port_RW_Byte+0x2e>
 80019d6:	3b01      	subs	r3, #1
 80019d8:	d002      	beq.n	80019e0 <ArcadeIT_SPI_Port_RW_Byte+0x34>
 80019da:	688a      	ldr	r2, [r1, #8]
 80019dc:	07d2      	lsls	r2, r2, #31
 80019de:	d5fa      	bpl.n	80019d6 <ArcadeIT_SPI_Port_RW_Byte+0x2a>
 80019e0:	f44f 5340 	mov.w	r3, #12288	; 0x3000
 80019e4:	f2c4 0301 	movt	r3, #16385	; 0x4001
 80019e8:	68d8      	ldr	r0, [r3, #12]
 80019ea:	b2c0      	uxtb	r0, r0
 80019ec:	4770      	bx	lr
 80019ee:	bf00      	nop

080019f0 <ArcadeIT_SPI_Port_Read_Buffer>:
 80019f0:	b301      	cbz	r1, 8001a34 <ArcadeIT_SPI_Port_Read_Buffer+0x44>
 80019f2:	4401      	add	r1, r0
 80019f4:	f44f 5240 	mov.w	r2, #12288	; 0x3000
 80019f8:	b430      	push	{r4, r5}
 80019fa:	3801      	subs	r0, #1
 80019fc:	1e4c      	subs	r4, r1, #1
 80019fe:	f2c4 0201 	movt	r2, #16385	; 0x4001
 8001a02:	25ff      	movs	r5, #255	; 0xff
 8001a04:	f240 13f5 	movw	r3, #501	; 0x1f5
 8001a08:	e001      	b.n	8001a0e <ArcadeIT_SPI_Port_Read_Buffer+0x1e>
 8001a0a:	3b01      	subs	r3, #1
 8001a0c:	d002      	beq.n	8001a14 <ArcadeIT_SPI_Port_Read_Buffer+0x24>
 8001a0e:	6891      	ldr	r1, [r2, #8]
 8001a10:	0789      	lsls	r1, r1, #30
 8001a12:	d5fa      	bpl.n	8001a0a <ArcadeIT_SPI_Port_Read_Buffer+0x1a>
 8001a14:	60d5      	str	r5, [r2, #12]
 8001a16:	f240 13f5 	movw	r3, #501	; 0x1f5
 8001a1a:	e001      	b.n	8001a20 <ArcadeIT_SPI_Port_Read_Buffer+0x30>
 8001a1c:	3b01      	subs	r3, #1
 8001a1e:	d002      	beq.n	8001a26 <ArcadeIT_SPI_Port_Read_Buffer+0x36>
 8001a20:	6891      	ldr	r1, [r2, #8]
 8001a22:	07c9      	lsls	r1, r1, #31
 8001a24:	d5fa      	bpl.n	8001a1c <ArcadeIT_SPI_Port_Read_Buffer+0x2c>
 8001a26:	68d3      	ldr	r3, [r2, #12]
 8001a28:	f800 3f01 	strb.w	r3, [r0, #1]!
 8001a2c:	42a0      	cmp	r0, r4
 8001a2e:	d1e9      	bne.n	8001a04 <ArcadeIT_SPI_Port_Read_Buffer+0x14>
 8001a30:	bc30      	pop	{r4, r5}
 8001a32:	4770      	bx	lr
 8001a34:	4770      	bx	lr
 8001a36:	bf00      	nop

08001a38 <ArcadeIT_SPI_Port_Write_Buffer>:
 8001a38:	b1f9      	cbz	r1, 8001a7a <ArcadeIT_SPI_Port_Write_Buffer+0x42>
 8001a3a:	4401      	add	r1, r0
 8001a3c:	f44f 5240 	mov.w	r2, #12288	; 0x3000
 8001a40:	b430      	push	{r4, r5}
 8001a42:	3801      	subs	r0, #1
 8001a44:	1e4d      	subs	r5, r1, #1
 8001a46:	f2c4 0201 	movt	r2, #16385	; 0x4001
 8001a4a:	f810 4f01 	ldrb.w	r4, [r0, #1]!
 8001a4e:	f240 13f5 	movw	r3, #501	; 0x1f5
 8001a52:	e001      	b.n	8001a58 <ArcadeIT_SPI_Port_Write_Buffer+0x20>
 8001a54:	3b01      	subs	r3, #1
 8001a56:	d002      	beq.n	8001a5e <ArcadeIT_SPI_Port_Write_Buffer+0x26>
 8001a58:	6891      	ldr	r1, [r2, #8]
 8001a5a:	0789      	lsls	r1, r1, #30
 8001a5c:	d5fa      	bpl.n	8001a54 <ArcadeIT_SPI_Port_Write_Buffer+0x1c>
 8001a5e:	60d4      	str	r4, [r2, #12]
 8001a60:	f240 13f5 	movw	r3, #501	; 0x1f5
 8001a64:	e001      	b.n	8001a6a <ArcadeIT_SPI_Port_Write_Buffer+0x32>
 8001a66:	3b01      	subs	r3, #1
 8001a68:	d002      	beq.n	8001a70 <ArcadeIT_SPI_Port_Write_Buffer+0x38>
 8001a6a:	6891      	ldr	r1, [r2, #8]
 8001a6c:	07c9      	lsls	r1, r1, #31
 8001a6e:	d5fa      	bpl.n	8001a66 <ArcadeIT_SPI_Port_Write_Buffer+0x2e>
 8001a70:	42a8      	cmp	r0, r5
 8001a72:	68d3      	ldr	r3, [r2, #12]
 8001a74:	d1e9      	bne.n	8001a4a <ArcadeIT_SPI_Port_Write_Buffer+0x12>
 8001a76:	bc30      	pop	{r4, r5}
 8001a78:	4770      	bx	lr
 8001a7a:	4770      	bx	lr

08001a7c <ArcadeIT_SPI_Port_Init>:
 8001a7c:	b508      	push	{r3, lr}
 8001a7e:	f44f 5360 	mov.w	r3, #14336	; 0x3800
 8001a82:	f2c4 0302 	movt	r3, #16386	; 0x4002
 8001a86:	6b1a      	ldr	r2, [r3, #48]	; 0x30
 8001a88:	07d1      	lsls	r1, r2, #31
 8001a8a:	d403      	bmi.n	8001a94 <ArcadeIT_SPI_Port_Init+0x18>
 8001a8c:	6b1a      	ldr	r2, [r3, #48]	; 0x30
 8001a8e:	f042 0201 	orr.w	r2, r2, #1
 8001a92:	631a      	str	r2, [r3, #48]	; 0x30
 8001a94:	f44f 5360 	mov.w	r3, #14336	; 0x3800
 8001a98:	f2c4 0302 	movt	r3, #16386	; 0x4002
 8001a9c:	6b1a      	ldr	r2, [r3, #48]	; 0x30
 8001a9e:	0752      	lsls	r2, r2, #29
 8001aa0:	d403      	bmi.n	8001aaa <ArcadeIT_SPI_Port_Init+0x2e>
 8001aa2:	6b1a      	ldr	r2, [r3, #48]	; 0x30
 8001aa4:	f042 0204 	orr.w	r2, r2, #4
 8001aa8:	631a      	str	r2, [r3, #48]	; 0x30
 8001aaa:	f44f 5360 	mov.w	r3, #14336	; 0x3800
 8001aae:	f2c4 0302 	movt	r3, #16386	; 0x4002
 8001ab2:	6b1a      	ldr	r2, [r3, #48]	; 0x30
 8001ab4:	0711      	lsls	r1, r2, #28
 8001ab6:	d403      	bmi.n	8001ac0 <ArcadeIT_SPI_Port_Init+0x44>
 8001ab8:	6b1a      	ldr	r2, [r3, #48]	; 0x30
 8001aba:	f042 0208 	orr.w	r2, r2, #8
 8001abe:	631a      	str	r2, [r3, #48]	; 0x30
 8001ac0:	f44f 5360 	mov.w	r3, #14336	; 0x3800
 8001ac4:	f2c4 0302 	movt	r3, #16386	; 0x4002
 8001ac8:	6c5a      	ldr	r2, [r3, #68]	; 0x44
 8001aca:	04d2      	lsls	r2, r2, #19
 8001acc:	d403      	bmi.n	8001ad6 <ArcadeIT_SPI_Port_Init+0x5a>
 8001ace:	6c5a      	ldr	r2, [r3, #68]	; 0x44
 8001ad0:	f442 5280 	orr.w	r2, r2, #4096	; 0x1000
 8001ad4:	645a      	str	r2, [r3, #68]	; 0x44
 8001ad6:	2300      	movs	r3, #0
 8001ad8:	f2c4 0302 	movt	r3, #16386	; 0x4002
 8001adc:	f44f 6200 	mov.w	r2, #2048	; 0x800
 8001ae0:	6819      	ldr	r1, [r3, #0]
 8001ae2:	f421 6140 	bic.w	r1, r1, #3072	; 0xc00
 8001ae6:	6019      	str	r1, [r3, #0]
 8001ae8:	6819      	ldr	r1, [r3, #0]
 8001aea:	4311      	orrs	r1, r2
 8001aec:	6019      	str	r1, [r3, #0]
 8001aee:	6899      	ldr	r1, [r3, #8]
 8001af0:	f421 6140 	bic.w	r1, r1, #3072	; 0xc00
 8001af4:	6099      	str	r1, [r3, #8]
 8001af6:	6899      	ldr	r1, [r3, #8]
 8001af8:	f441 6140 	orr.w	r1, r1, #3072	; 0xc00
 8001afc:	6099      	str	r1, [r3, #8]
 8001afe:	6859      	ldr	r1, [r3, #4]
 8001b00:	f021 0120 	bic.w	r1, r1, #32
 8001b04:	6059      	str	r1, [r3, #4]
 8001b06:	6859      	ldr	r1, [r3, #4]
 8001b08:	6059      	str	r1, [r3, #4]
 8001b0a:	68d9      	ldr	r1, [r3, #12]
 8001b0c:	f421 6140 	bic.w	r1, r1, #3072	; 0xc00
 8001b10:	60d9      	str	r1, [r3, #12]
 8001b12:	68d9      	ldr	r1, [r3, #12]
 8001b14:	4311      	orrs	r1, r2
 8001b16:	60d9      	str	r1, [r3, #12]
 8001b18:	6a19      	ldr	r1, [r3, #32]
 8001b1a:	f421 0170 	bic.w	r1, r1, #15728640	; 0xf00000
 8001b1e:	6219      	str	r1, [r3, #32]
 8001b20:	6a19      	ldr	r1, [r3, #32]
 8001b22:	f441 01a0 	orr.w	r1, r1, #5242880	; 0x500000
 8001b26:	6219      	str	r1, [r3, #32]
 8001b28:	6819      	ldr	r1, [r3, #0]
 8001b2a:	f421 4140 	bic.w	r1, r1, #49152	; 0xc000
 8001b2e:	6019      	str	r1, [r3, #0]
 8001b30:	6819      	ldr	r1, [r3, #0]
 8001b32:	f441 4100 	orr.w	r1, r1, #32768	; 0x8000
 8001b36:	6019      	str	r1, [r3, #0]
 8001b38:	6899      	ldr	r1, [r3, #8]
 8001b3a:	f421 4140 	bic.w	r1, r1, #49152	; 0xc000
 8001b3e:	6099      	str	r1, [r3, #8]
 8001b40:	6899      	ldr	r1, [r3, #8]
 8001b42:	f441 4140 	orr.w	r1, r1, #49152	; 0xc000
 8001b46:	6099      	str	r1, [r3, #8]
 8001b48:	6859      	ldr	r1, [r3, #4]
 8001b4a:	f021 0180 	bic.w	r1, r1, #128	; 0x80
 8001b4e:	6059      	str	r1, [r3, #4]
 8001b50:	6859      	ldr	r1, [r3, #4]
 8001b52:	6059      	str	r1, [r3, #4]
 8001b54:	68d9      	ldr	r1, [r3, #12]
 8001b56:	f421 4140 	bic.w	r1, r1, #49152	; 0xc000
 8001b5a:	60d9      	str	r1, [r3, #12]
 8001b5c:	68d9      	ldr	r1, [r3, #12]
 8001b5e:	f441 4100 	orr.w	r1, r1, #32768	; 0x8000
 8001b62:	60d9      	str	r1, [r3, #12]
 8001b64:	6a19      	ldr	r1, [r3, #32]
 8001b66:	f021 4170 	bic.w	r1, r1, #4026531840	; 0xf0000000
 8001b6a:	6219      	str	r1, [r3, #32]
 8001b6c:	6a19      	ldr	r1, [r3, #32]
 8001b6e:	f041 41a0 	orr.w	r1, r1, #1342177280	; 0x50000000
 8001b72:	6219      	str	r1, [r3, #32]
 8001b74:	6819      	ldr	r1, [r3, #0]
 8001b76:	f421 5140 	bic.w	r1, r1, #12288	; 0x3000
 8001b7a:	6019      	str	r1, [r3, #0]
 8001b7c:	6819      	ldr	r1, [r3, #0]
 8001b7e:	f441 5100 	orr.w	r1, r1, #8192	; 0x2000
 8001b82:	6019      	str	r1, [r3, #0]
 8001b84:	6899      	ldr	r1, [r3, #8]
 8001b86:	f421 5140 	bic.w	r1, r1, #12288	; 0x3000
 8001b8a:	6099      	str	r1, [r3, #8]
 8001b8c:	6899      	ldr	r1, [r3, #8]
 8001b8e:	f441 5140 	orr.w	r1, r1, #12288	; 0x3000
 8001b92:	6099      	str	r1, [r3, #8]
 8001b94:	6859      	ldr	r1, [r3, #4]
 8001b96:	f021 0140 	bic.w	r1, r1, #64	; 0x40
 8001b9a:	6059      	str	r1, [r3, #4]
 8001b9c:	6859      	ldr	r1, [r3, #4]
 8001b9e:	6059      	str	r1, [r3, #4]
 8001ba0:	68d9      	ldr	r1, [r3, #12]
 8001ba2:	f421 5140 	bic.w	r1, r1, #12288	; 0x3000
 8001ba6:	60d9      	str	r1, [r3, #12]
 8001ba8:	68d9      	ldr	r1, [r3, #12]
 8001baa:	f441 5180 	orr.w	r1, r1, #4096	; 0x1000
 8001bae:	60d9      	str	r1, [r3, #12]
 8001bb0:	6a19      	ldr	r1, [r3, #32]
 8001bb2:	f021 6170 	bic.w	r1, r1, #251658240	; 0xf000000
 8001bb6:	6219      	str	r1, [r3, #32]
 8001bb8:	6a19      	ldr	r1, [r3, #32]
 8001bba:	f2c4 0202 	movt	r2, #16386	; 0x4002
 8001bbe:	f041 61a0 	orr.w	r1, r1, #83886080	; 0x5000000
 8001bc2:	6219      	str	r1, [r3, #32]
 8001bc4:	6813      	ldr	r3, [r2, #0]
 8001bc6:	f423 7340 	bic.w	r3, r3, #768	; 0x300
 8001bca:	6013      	str	r3, [r2, #0]
 8001bcc:	6813      	ldr	r3, [r2, #0]
 8001bce:	f443 7380 	orr.w	r3, r3, #256	; 0x100
 8001bd2:	6013      	str	r3, [r2, #0]
 8001bd4:	6893      	ldr	r3, [r2, #8]
 8001bd6:	f423 7340 	bic.w	r3, r3, #768	; 0x300
 8001bda:	6093      	str	r3, [r2, #8]
 8001bdc:	6893      	ldr	r3, [r2, #8]
 8001bde:	f443 7340 	orr.w	r3, r3, #768	; 0x300
 8001be2:	6093      	str	r3, [r2, #8]
 8001be4:	6853      	ldr	r3, [r2, #4]
 8001be6:	f023 0310 	bic.w	r3, r3, #16
 8001bea:	6053      	str	r3, [r2, #4]
 8001bec:	6853      	ldr	r3, [r2, #4]
 8001bee:	6053      	str	r3, [r2, #4]
 8001bf0:	68d3      	ldr	r3, [r2, #12]
 8001bf2:	f423 7340 	bic.w	r3, r3, #768	; 0x300
 8001bf6:	60d3      	str	r3, [r2, #12]
 8001bf8:	68d3      	ldr	r3, [r2, #12]
 8001bfa:	f443 7380 	orr.w	r3, r3, #256	; 0x100
 8001bfe:	60d3      	str	r3, [r2, #12]
 8001c00:	6953      	ldr	r3, [r2, #20]
 8001c02:	f44f 5160 	mov.w	r1, #14336	; 0x3800
 8001c06:	f2c4 0102 	movt	r1, #16386	; 0x4002
 8001c0a:	f043 0310 	orr.w	r3, r3, #16
 8001c0e:	6153      	str	r3, [r2, #20]
 8001c10:	6a4b      	ldr	r3, [r1, #36]	; 0x24
 8001c12:	f443 5380 	orr.w	r3, r3, #4096	; 0x1000
 8001c16:	624b      	str	r3, [r1, #36]	; 0x24
 8001c18:	6a4a      	ldr	r2, [r1, #36]	; 0x24
 8001c1a:	f44f 5340 	mov.w	r3, #12288	; 0x3000
 8001c1e:	f2c4 0301 	movt	r3, #16385	; 0x4001
 8001c22:	f422 5280 	bic.w	r2, r2, #4096	; 0x1000
 8001c26:	624a      	str	r2, [r1, #36]	; 0x24
 8001c28:	681a      	ldr	r2, [r3, #0]
 8001c2a:	f440 7041 	orr.w	r0, r0, #772	; 0x304
 8001c2e:	4310      	orrs	r0, r2
 8001c30:	6018      	str	r0, [r3, #0]
 8001c32:	6819      	ldr	r1, [r3, #0]
 8001c34:	f240 12fc 	movw	r2, #508	; 0x1fc
 8001c38:	f041 0140 	orr.w	r1, r1, #64	; 0x40
 8001c3c:	f2c2 0200 	movt	r2, #8192	; 0x2000
 8001c40:	6019      	str	r1, [r3, #0]
 8001c42:	6813      	ldr	r3, [r2, #0]
 8001c44:	045b      	lsls	r3, r3, #17
 8001c46:	d505      	bpl.n	8001c54 <ArcadeIT_SPI_Port_Init+0x1d8>
 8001c48:	f647 606c 	movw	r0, #32364	; 0x7e6c
 8001c4c:	f6c0 0000 	movt	r0, #2048	; 0x800
 8001c50:	f000 f8c0 	bl	8001dd4 <ArcadeIT_Serial_Port_String_Send>
 8001c54:	2001      	movs	r0, #1
 8001c56:	bd08      	pop	{r3, pc}

08001c58 <ArcadeIT_SRAM_Init>:
 8001c58:	e92d 4ff0 	stmdb	sp!, {r4, r5, r6, r7, r8, r9, sl, fp, lr}
 8001c5c:	f240 0808 	movw	r8, #8
 8001c60:	f2c2 0800 	movt	r8, #8192	; 0x2000
 8001c64:	f5ad 7d03 	sub.w	sp, sp, #524	; 0x20c
 8001c68:	f898 b000 	ldrb.w	fp, [r8]
 8001c6c:	f1bb 0f01 	cmp.w	fp, #1
 8001c70:	d004      	beq.n	8001c7c <ArcadeIT_SRAM_Init+0x24>
 8001c72:	4658      	mov	r0, fp
 8001c74:	f50d 7d03 	add.w	sp, sp, #524	; 0x20c
 8001c78:	e8bd 8ff0 	ldmia.w	sp!, {r4, r5, r6, r7, r8, r9, sl, fp, pc}
 8001c7c:	f240 19fc 	movw	r9, #508	; 0x1fc
 8001c80:	f2c2 0900 	movt	r9, #8192	; 0x2000
 8001c84:	f647 629c 	movw	r2, #32412	; 0x7e9c
 8001c88:	f8d9 3000 	ldr.w	r3, [r9]
 8001c8c:	2600      	movs	r6, #0
 8001c8e:	f647 6a80 	movw	sl, #32384	; 0x7e80
 8001c92:	f240 0500 	movw	r5, #0
 8001c96:	f6c0 0200 	movt	r2, #2048	; 0x800
 8001c9a:	f888 6000 	strb.w	r6, [r8]
 8001c9e:	f403 4380 	and.w	r3, r3, #16384	; 0x4000
 8001ca2:	4637      	mov	r7, r6
 8001ca4:	f6c0 0a00 	movt	sl, #2048	; 0x800
 8001ca8:	9201      	str	r2, [sp, #4]
 8001caa:	f2c2 0500 	movt	r5, #8192	; 0x2000
 8001cae:	f44f 2400 	mov.w	r4, #524288	; 0x80000
 8001cb2:	2b00      	cmp	r3, #0
 8001cb4:	d16c      	bne.n	8001d90 <ArcadeIT_SRAM_Init+0x138>
 8001cb6:	04f2      	lsls	r2, r6, #19
 8001cb8:	42a2      	cmp	r2, r4
 8001cba:	d255      	bcs.n	8001d68 <ArcadeIT_SRAM_Init+0x110>
 8001cbc:	4613      	mov	r3, r2
 8001cbe:	6829      	ldr	r1, [r5, #0]
 8001cc0:	54cb      	strb	r3, [r1, r3]
 8001cc2:	3301      	adds	r3, #1
 8001cc4:	429c      	cmp	r4, r3
 8001cc6:	d1fa      	bne.n	8001cbe <ArcadeIT_SRAM_Init+0x66>
 8001cc8:	f5a4 2100 	sub.w	r1, r4, #524288	; 0x80000
 8001ccc:	6828      	ldr	r0, [r5, #0]
 8001cce:	3901      	subs	r1, #1
 8001cd0:	4408      	add	r0, r1
 8001cd2:	f04f 0e00 	mov.w	lr, #0
 8001cd6:	f810 cf01 	ldrb.w	ip, [r0, #1]!
 8001cda:	b2d1      	uxtb	r1, r2
 8001cdc:	4561      	cmp	r1, ip
 8001cde:	f102 0201 	add.w	r2, r2, #1
 8001ce2:	bf18      	it	ne
 8001ce4:	f10e 0e01 	addne.w	lr, lr, #1
 8001ce8:	429a      	cmp	r2, r3
 8001cea:	d1f4      	bne.n	8001cd6 <ArcadeIT_SRAM_Init+0x7e>
 8001cec:	f8d9 3000 	ldr.w	r3, [r9]
 8001cf0:	f403 4380 	and.w	r3, r3, #16384	; 0x4000
 8001cf4:	4619      	mov	r1, r3
 8001cf6:	f1be 0f00 	cmp.w	lr, #0
 8001cfa:	d03a      	beq.n	8001d72 <ArcadeIT_SRAM_Init+0x11a>
 8001cfc:	2b00      	cmp	r3, #0
 8001cfe:	d150      	bne.n	8001da2 <ArcadeIT_SRAM_Init+0x14a>
 8001d00:	3601      	adds	r6, #1
 8001d02:	2e04      	cmp	r6, #4
 8001d04:	f504 2400 	add.w	r4, r4, #524288	; 0x80000
 8001d08:	d1d3      	bne.n	8001cb2 <ArcadeIT_SRAM_Init+0x5a>
 8001d0a:	f240 2414 	movw	r4, #532	; 0x214
 8001d0e:	2f03      	cmp	r7, #3
 8001d10:	f2c2 0400 	movt	r4, #8192	; 0x2000
 8001d14:	d055      	beq.n	8001dc2 <ArcadeIT_SRAM_Init+0x16a>
 8001d16:	2f0f      	cmp	r7, #15
 8001d18:	d04f      	beq.n	8001dba <ArcadeIT_SRAM_Init+0x162>
 8001d1a:	2f01      	cmp	r7, #1
 8001d1c:	d055      	beq.n	8001dca <ArcadeIT_SRAM_Init+0x172>
 8001d1e:	2100      	movs	r1, #0
 8001d20:	2201      	movs	r2, #1
 8001d22:	6021      	str	r1, [r4, #0]
 8001d24:	f888 2000 	strb.w	r2, [r8]
 8001d28:	2b00      	cmp	r3, #0
 8001d2a:	d0a2      	beq.n	8001c72 <ArcadeIT_SRAM_Init+0x1a>
 8001d2c:	f647 60a8 	movw	r0, #32424	; 0x7ea8
 8001d30:	f6c0 0000 	movt	r0, #2048	; 0x800
 8001d34:	f000 f84e 	bl	8001dd4 <ArcadeIT_Serial_Port_String_Send>
 8001d38:	f8d9 1000 	ldr.w	r1, [r9]
 8001d3c:	f401 4180 	and.w	r1, r1, #16384	; 0x4000
 8001d40:	b159      	cbz	r1, 8001d5a <ArcadeIT_SRAM_Init+0x102>
 8001d42:	6822      	ldr	r2, [r4, #0]
 8001d44:	f647 61cc 	movw	r1, #32460	; 0x7ecc
 8001d48:	0a92      	lsrs	r2, r2, #10
 8001d4a:	a802      	add	r0, sp, #8
 8001d4c:	f6c0 0100 	movt	r1, #2048	; 0x800
 8001d50:	f004 fc56 	bl	8006600 <siprintf>
 8001d54:	a802      	add	r0, sp, #8
 8001d56:	f000 f83d 	bl	8001dd4 <ArcadeIT_Serial_Port_String_Send>
 8001d5a:	f898 b000 	ldrb.w	fp, [r8]
 8001d5e:	4658      	mov	r0, fp
 8001d60:	f50d 7d03 	add.w	sp, sp, #524	; 0x20c
 8001d64:	e8bd 8ff0 	ldmia.w	sp!, {r4, r5, r6, r7, r8, r9, sl, fp, pc}
 8001d68:	f8d9 3000 	ldr.w	r3, [r9]
 8001d6c:	f403 4380 	and.w	r3, r3, #16384	; 0x4000
 8001d70:	4619      	mov	r1, r3
 8001d72:	2201      	movs	r2, #1
 8001d74:	40b2      	lsls	r2, r6
 8001d76:	4317      	orrs	r7, r2
 8001d78:	b2ff      	uxtb	r7, r7
 8001d7a:	2b00      	cmp	r3, #0
 8001d7c:	d0c0      	beq.n	8001d00 <ArcadeIT_SRAM_Init+0xa8>
 8001d7e:	9801      	ldr	r0, [sp, #4]
 8001d80:	f000 f828 	bl	8001dd4 <ArcadeIT_Serial_Port_String_Send>
 8001d84:	f8d9 3000 	ldr.w	r3, [r9]
 8001d88:	f403 4380 	and.w	r3, r3, #16384	; 0x4000
 8001d8c:	4619      	mov	r1, r3
 8001d8e:	e7b7      	b.n	8001d00 <ArcadeIT_SRAM_Init+0xa8>
 8001d90:	a802      	add	r0, sp, #8
 8001d92:	4632      	mov	r2, r6
 8001d94:	4651      	mov	r1, sl
 8001d96:	f004 fc33 	bl	8006600 <siprintf>
 8001d9a:	a802      	add	r0, sp, #8
 8001d9c:	f000 f81a 	bl	8001dd4 <ArcadeIT_Serial_Port_String_Send>
 8001da0:	e789      	b.n	8001cb6 <ArcadeIT_SRAM_Init+0x5e>
 8001da2:	f647 60a4 	movw	r0, #32420	; 0x7ea4
 8001da6:	f6c0 0000 	movt	r0, #2048	; 0x800
 8001daa:	f000 f813 	bl	8001dd4 <ArcadeIT_Serial_Port_String_Send>
 8001dae:	f8d9 3000 	ldr.w	r3, [r9]
 8001db2:	f403 4380 	and.w	r3, r3, #16384	; 0x4000
 8001db6:	4619      	mov	r1, r3
 8001db8:	e7a2      	b.n	8001d00 <ArcadeIT_SRAM_Init+0xa8>
 8001dba:	f44f 1300 	mov.w	r3, #2097152	; 0x200000
 8001dbe:	6023      	str	r3, [r4, #0]
 8001dc0:	e7be      	b.n	8001d40 <ArcadeIT_SRAM_Init+0xe8>
 8001dc2:	f44f 1380 	mov.w	r3, #1048576	; 0x100000
 8001dc6:	6023      	str	r3, [r4, #0]
 8001dc8:	e7ba      	b.n	8001d40 <ArcadeIT_SRAM_Init+0xe8>
 8001dca:	f44f 2300 	mov.w	r3, #524288	; 0x80000
 8001dce:	6023      	str	r3, [r4, #0]
 8001dd0:	e7b6      	b.n	8001d40 <ArcadeIT_SRAM_Init+0xe8>
 8001dd2:	bf00      	nop

08001dd4 <ArcadeIT_Serial_Port_String_Send>:
 8001dd4:	7801      	ldrb	r1, [r0, #0]
 8001dd6:	b181      	cbz	r1, 8001dfa <ArcadeIT_Serial_Port_String_Send+0x26>
 8001dd8:	f44f 4288 	mov.w	r2, #17408	; 0x4400
 8001ddc:	b410      	push	{r4}
 8001dde:	f2c4 0200 	movt	r2, #16384	; 0x4000
 8001de2:	1c44      	adds	r4, r0, #1
 8001de4:	6813      	ldr	r3, [r2, #0]
 8001de6:	061b      	lsls	r3, r3, #24
 8001de8:	d5fc      	bpl.n	8001de4 <ArcadeIT_Serial_Port_String_Send+0x10>
 8001dea:	6051      	str	r1, [r2, #4]
 8001dec:	f814 1b01 	ldrb.w	r1, [r4], #1
 8001df0:	2900      	cmp	r1, #0
 8001df2:	d1f7      	bne.n	8001de4 <ArcadeIT_Serial_Port_String_Send+0x10>
 8001df4:	f85d 4b04 	ldr.w	r4, [sp], #4
 8001df8:	4770      	bx	lr
 8001dfa:	4770      	bx	lr

08001dfc <ArcadeIT_Serial_Port_Init>:
 8001dfc:	b410      	push	{r4}
 8001dfe:	f44f 5360 	mov.w	r3, #14336	; 0x3800
 8001e02:	f2c4 0302 	movt	r3, #16386	; 0x4002
 8001e06:	6b1a      	ldr	r2, [r3, #48]	; 0x30
 8001e08:	07d2      	lsls	r2, r2, #31
 8001e0a:	d403      	bmi.n	8001e14 <ArcadeIT_Serial_Port_Init+0x18>
 8001e0c:	6b1a      	ldr	r2, [r3, #48]	; 0x30
 8001e0e:	f042 0201 	orr.w	r2, r2, #1
 8001e12:	631a      	str	r2, [r3, #48]	; 0x30
 8001e14:	f44f 5360 	mov.w	r3, #14336	; 0x3800
 8001e18:	f2c4 0302 	movt	r3, #16386	; 0x4002
 8001e1c:	6c1a      	ldr	r2, [r3, #64]	; 0x40
 8001e1e:	0394      	lsls	r4, r2, #14
 8001e20:	d403      	bmi.n	8001e2a <ArcadeIT_Serial_Port_Init+0x2e>
 8001e22:	6c1a      	ldr	r2, [r3, #64]	; 0x40
 8001e24:	f442 3200 	orr.w	r2, r2, #131072	; 0x20000
 8001e28:	641a      	str	r2, [r3, #64]	; 0x40
 8001e2a:	f44f 5360 	mov.w	r3, #14336	; 0x3800
 8001e2e:	f2c4 0302 	movt	r3, #16386	; 0x4002
 8001e32:	6b1a      	ldr	r2, [r3, #48]	; 0x30
 8001e34:	0291      	lsls	r1, r2, #10
 8001e36:	d403      	bmi.n	8001e40 <ArcadeIT_Serial_Port_Init+0x44>
 8001e38:	6b1a      	ldr	r2, [r3, #48]	; 0x30
 8001e3a:	f442 1200 	orr.w	r2, r2, #2097152	; 0x200000
 8001e3e:	631a      	str	r2, [r3, #48]	; 0x30
 8001e40:	2300      	movs	r3, #0
 8001e42:	f2c4 0302 	movt	r3, #16386	; 0x4002
 8001e46:	f44f 4288 	mov.w	r2, #17408	; 0x4400
 8001e4a:	6819      	ldr	r1, [r3, #0]
 8001e4c:	f021 0130 	bic.w	r1, r1, #48	; 0x30
 8001e50:	6019      	str	r1, [r3, #0]
 8001e52:	6819      	ldr	r1, [r3, #0]
 8001e54:	f041 0120 	orr.w	r1, r1, #32
 8001e58:	6019      	str	r1, [r3, #0]
 8001e5a:	6899      	ldr	r1, [r3, #8]
 8001e5c:	f021 0130 	bic.w	r1, r1, #48	; 0x30
 8001e60:	6099      	str	r1, [r3, #8]
 8001e62:	6899      	ldr	r1, [r3, #8]
 8001e64:	f041 0120 	orr.w	r1, r1, #32
 8001e68:	6099      	str	r1, [r3, #8]
 8001e6a:	6859      	ldr	r1, [r3, #4]
 8001e6c:	f021 0104 	bic.w	r1, r1, #4
 8001e70:	6059      	str	r1, [r3, #4]
 8001e72:	6859      	ldr	r1, [r3, #4]
 8001e74:	6059      	str	r1, [r3, #4]
 8001e76:	68d9      	ldr	r1, [r3, #12]
 8001e78:	f021 0130 	bic.w	r1, r1, #48	; 0x30
 8001e7c:	60d9      	str	r1, [r3, #12]
 8001e7e:	68d9      	ldr	r1, [r3, #12]
 8001e80:	60d9      	str	r1, [r3, #12]
 8001e82:	6a19      	ldr	r1, [r3, #32]
 8001e84:	f421 6170 	bic.w	r1, r1, #3840	; 0xf00
 8001e88:	6219      	str	r1, [r3, #32]
 8001e8a:	6a19      	ldr	r1, [r3, #32]
 8001e8c:	f441 61e0 	orr.w	r1, r1, #1792	; 0x700
 8001e90:	6219      	str	r1, [r3, #32]
 8001e92:	6819      	ldr	r1, [r3, #0]
 8001e94:	f021 01c0 	bic.w	r1, r1, #192	; 0xc0
 8001e98:	6019      	str	r1, [r3, #0]
 8001e9a:	6819      	ldr	r1, [r3, #0]
 8001e9c:	f041 0180 	orr.w	r1, r1, #128	; 0x80
 8001ea0:	6019      	str	r1, [r3, #0]
 8001ea2:	6899      	ldr	r1, [r3, #8]
 8001ea4:	f021 01c0 	bic.w	r1, r1, #192	; 0xc0
 8001ea8:	6099      	str	r1, [r3, #8]
 8001eaa:	6899      	ldr	r1, [r3, #8]
 8001eac:	f041 0180 	orr.w	r1, r1, #128	; 0x80
 8001eb0:	6099      	str	r1, [r3, #8]
 8001eb2:	6859      	ldr	r1, [r3, #4]
 8001eb4:	f021 0108 	bic.w	r1, r1, #8
 8001eb8:	6059      	str	r1, [r3, #4]
 8001eba:	6859      	ldr	r1, [r3, #4]
 8001ebc:	6059      	str	r1, [r3, #4]
 8001ebe:	68d9      	ldr	r1, [r3, #12]
 8001ec0:	f021 01c0 	bic.w	r1, r1, #192	; 0xc0
 8001ec4:	60d9      	str	r1, [r3, #12]
 8001ec6:	68d9      	ldr	r1, [r3, #12]
 8001ec8:	60d9      	str	r1, [r3, #12]
 8001eca:	6a19      	ldr	r1, [r3, #32]
 8001ecc:	f421 4170 	bic.w	r1, r1, #61440	; 0xf000
 8001ed0:	6219      	str	r1, [r3, #32]
 8001ed2:	6a19      	ldr	r1, [r3, #32]
 8001ed4:	f2c4 0200 	movt	r2, #16384	; 0x4000
 8001ed8:	f441 41e0 	orr.w	r1, r1, #28672	; 0x7000
 8001edc:	6219      	str	r1, [r3, #32]
 8001ede:	6913      	ldr	r3, [r2, #16]
 8001ee0:	f64c 71ff 	movw	r1, #53247	; 0xcfff
 8001ee4:	400b      	ands	r3, r1
 8001ee6:	6113      	str	r3, [r2, #16]
 8001ee8:	230c      	movs	r3, #12
 8001eea:	68d1      	ldr	r1, [r2, #12]
 8001eec:	60d3      	str	r3, [r2, #12]
 8001eee:	6953      	ldr	r3, [r2, #20]
 8001ef0:	f64f 41ff 	movw	r1, #64767	; 0xfcff
 8001ef4:	400b      	ands	r3, r1
 8001ef6:	6153      	str	r3, [r2, #20]
 8001ef8:	68d3      	ldr	r3, [r2, #12]
 8001efa:	f413 4f00 	tst.w	r3, #32768	; 0x8000
 8001efe:	f44f 530d 	mov.w	r3, #9024	; 0x2340
 8001f02:	bf14      	ite	ne
 8001f04:	0041      	lslne	r1, r0, #1
 8001f06:	0081      	lsleq	r1, r0, #2
 8001f08:	f2c4 330e 	movt	r3, #17166	; 0x430e
 8001f0c:	fbb3 f1f1 	udiv	r1, r3, r1
 8001f10:	f44f 4388 	mov.w	r3, #17408	; 0x4400
 8001f14:	f2c4 0300 	movt	r3, #16384	; 0x4000
 8001f18:	f248 501f 	movw	r0, #34079	; 0x851f
 8001f1c:	f2c5 10eb 	movt	r0, #20971	; 0x51eb
 8001f20:	fba0 4201 	umull	r4, r2, r0, r1
 8001f24:	68dc      	ldr	r4, [r3, #12]
 8001f26:	0952      	lsrs	r2, r2, #5
 8001f28:	2364      	movs	r3, #100	; 0x64
 8001f2a:	fb03 1312 	mls	r3, r3, r2, r1
 8001f2e:	0111      	lsls	r1, r2, #4
 8001f30:	0422      	lsls	r2, r4, #16
 8001f32:	d532      	bpl.n	8001f9a <ArcadeIT_Serial_Port_Init+0x19e>
 8001f34:	00da      	lsls	r2, r3, #3
 8001f36:	3232      	adds	r2, #50	; 0x32
 8001f38:	fba0 3202 	umull	r3, r2, r0, r2
 8001f3c:	f3c2 1242 	ubfx	r2, r2, #5, #3
 8001f40:	ea42 0301 	orr.w	r3, r2, r1
 8001f44:	f44f 4288 	mov.w	r2, #17408	; 0x4400
 8001f48:	f2c4 0200 	movt	r2, #16384	; 0x4000
 8001f4c:	b29b      	uxth	r3, r3
 8001f4e:	6093      	str	r3, [r2, #8]
 8001f50:	68d3      	ldr	r3, [r2, #12]
 8001f52:	f647 60dc 	movw	r0, #32476	; 0x7edc
 8001f56:	f443 5300 	orr.w	r3, r3, #8192	; 0x2000
 8001f5a:	60d3      	str	r3, [r2, #12]
 8001f5c:	f6c0 0000 	movt	r0, #2048	; 0x800
 8001f60:	211b      	movs	r1, #27
 8001f62:	6813      	ldr	r3, [r2, #0]
 8001f64:	061c      	lsls	r4, r3, #24
 8001f66:	d5fc      	bpl.n	8001f62 <ArcadeIT_Serial_Port_Init+0x166>
 8001f68:	6051      	str	r1, [r2, #4]
 8001f6a:	f810 1f01 	ldrb.w	r1, [r0, #1]!
 8001f6e:	2900      	cmp	r1, #0
 8001f70:	d1f7      	bne.n	8001f62 <ArcadeIT_Serial_Port_Init+0x166>
 8001f72:	f647 60e0 	movw	r0, #32480	; 0x7ee0
 8001f76:	f44f 4288 	mov.w	r2, #17408	; 0x4400
 8001f7a:	f6c0 0000 	movt	r0, #2048	; 0x800
 8001f7e:	f2c4 0200 	movt	r2, #16384	; 0x4000
 8001f82:	2153      	movs	r1, #83	; 0x53
 8001f84:	6813      	ldr	r3, [r2, #0]
 8001f86:	061b      	lsls	r3, r3, #24
 8001f88:	d5fc      	bpl.n	8001f84 <ArcadeIT_Serial_Port_Init+0x188>
 8001f8a:	6051      	str	r1, [r2, #4]
 8001f8c:	f810 1f01 	ldrb.w	r1, [r0, #1]!
 8001f90:	2900      	cmp	r1, #0
 8001f92:	d1f7      	bne.n	8001f84 <ArcadeIT_Serial_Port_Init+0x188>
 8001f94:	f85d 4b04 	ldr.w	r4, [sp], #4
 8001f98:	4770      	bx	lr
 8001f9a:	011b      	lsls	r3, r3, #4
 8001f9c:	3332      	adds	r3, #50	; 0x32
 8001f9e:	fba0 2303 	umull	r2, r3, r0, r3
 8001fa2:	f3c3 1343 	ubfx	r3, r3, #5, #4
 8001fa6:	430b      	orrs	r3, r1
 8001fa8:	e7cc      	b.n	8001f44 <ArcadeIT_Serial_Port_Init+0x148>
 8001faa:	bf00      	nop

08001fac <ArcadeIT_Status_LEDS_Init>:
 8001fac:	f44f 5360 	mov.w	r3, #14336	; 0x3800
 8001fb0:	f2c4 0302 	movt	r3, #16386	; 0x4002
 8001fb4:	6b1a      	ldr	r2, [r3, #48]	; 0x30
 8001fb6:	0612      	lsls	r2, r2, #24
 8001fb8:	d403      	bmi.n	8001fc2 <ArcadeIT_Status_LEDS_Init+0x16>
 8001fba:	6b1a      	ldr	r2, [r3, #48]	; 0x30
 8001fbc:	f042 0280 	orr.w	r2, r2, #128	; 0x80
 8001fc0:	631a      	str	r2, [r3, #48]	; 0x30
 8001fc2:	f44f 53e0 	mov.w	r3, #7168	; 0x1c00
 8001fc6:	f2c4 0302 	movt	r3, #16386	; 0x4002
 8001fca:	f240 12fc 	movw	r2, #508	; 0x1fc
 8001fce:	6819      	ldr	r1, [r3, #0]
 8001fd0:	f021 0130 	bic.w	r1, r1, #48	; 0x30
 8001fd4:	6019      	str	r1, [r3, #0]
 8001fd6:	6819      	ldr	r1, [r3, #0]
 8001fd8:	f041 0110 	orr.w	r1, r1, #16
 8001fdc:	6019      	str	r1, [r3, #0]
 8001fde:	6899      	ldr	r1, [r3, #8]
 8001fe0:	f021 0130 	bic.w	r1, r1, #48	; 0x30
 8001fe4:	6099      	str	r1, [r3, #8]
 8001fe6:	6899      	ldr	r1, [r3, #8]
 8001fe8:	f041 0130 	orr.w	r1, r1, #48	; 0x30
 8001fec:	6099      	str	r1, [r3, #8]
 8001fee:	6859      	ldr	r1, [r3, #4]
 8001ff0:	f021 0104 	bic.w	r1, r1, #4
 8001ff4:	6059      	str	r1, [r3, #4]
 8001ff6:	6859      	ldr	r1, [r3, #4]
 8001ff8:	6059      	str	r1, [r3, #4]
 8001ffa:	68d9      	ldr	r1, [r3, #12]
 8001ffc:	f021 0130 	bic.w	r1, r1, #48	; 0x30
 8002000:	60d9      	str	r1, [r3, #12]
 8002002:	68d9      	ldr	r1, [r3, #12]
 8002004:	f041 0120 	orr.w	r1, r1, #32
 8002008:	60d9      	str	r1, [r3, #12]
 800200a:	6819      	ldr	r1, [r3, #0]
 800200c:	f021 01c0 	bic.w	r1, r1, #192	; 0xc0
 8002010:	6019      	str	r1, [r3, #0]
 8002012:	6819      	ldr	r1, [r3, #0]
 8002014:	f041 0140 	orr.w	r1, r1, #64	; 0x40
 8002018:	6019      	str	r1, [r3, #0]
 800201a:	6899      	ldr	r1, [r3, #8]
 800201c:	f021 01c0 	bic.w	r1, r1, #192	; 0xc0
 8002020:	6099      	str	r1, [r3, #8]
 8002022:	6899      	ldr	r1, [r3, #8]
 8002024:	f041 01c0 	orr.w	r1, r1, #192	; 0xc0
 8002028:	6099      	str	r1, [r3, #8]
 800202a:	6859      	ldr	r1, [r3, #4]
 800202c:	f021 0108 	bic.w	r1, r1, #8
 8002030:	6059      	str	r1, [r3, #4]
 8002032:	6859      	ldr	r1, [r3, #4]
 8002034:	6059      	str	r1, [r3, #4]
 8002036:	68d9      	ldr	r1, [r3, #12]
 8002038:	f021 01c0 	bic.w	r1, r1, #192	; 0xc0
 800203c:	60d9      	str	r1, [r3, #12]
 800203e:	68d9      	ldr	r1, [r3, #12]
 8002040:	f041 0180 	orr.w	r1, r1, #128	; 0x80
 8002044:	60d9      	str	r1, [r3, #12]
 8002046:	6959      	ldr	r1, [r3, #20]
 8002048:	f021 0104 	bic.w	r1, r1, #4
 800204c:	6159      	str	r1, [r3, #20]
 800204e:	6959      	ldr	r1, [r3, #20]
 8002050:	f2c2 0200 	movt	r2, #8192	; 0x2000
 8002054:	f021 0108 	bic.w	r1, r1, #8
 8002058:	6159      	str	r1, [r3, #20]
 800205a:	6813      	ldr	r3, [r2, #0]
 800205c:	045b      	lsls	r3, r3, #17
 800205e:	d400      	bmi.n	8002062 <ArcadeIT_Status_LEDS_Init+0xb6>
 8002060:	4770      	bx	lr
 8002062:	f647 60f8 	movw	r0, #32504	; 0x7ef8
 8002066:	f6c0 0000 	movt	r0, #2048	; 0x800
 800206a:	f7ff beb3 	b.w	8001dd4 <ArcadeIT_Serial_Port_String_Send>
 800206e:	bf00      	nop

08002070 <ArcadeIT_Status_LED1_Toggle>:
 8002070:	f44f 53e0 	mov.w	r3, #7168	; 0x1c00
 8002074:	f2c4 0302 	movt	r3, #16386	; 0x4002
 8002078:	695a      	ldr	r2, [r3, #20]
 800207a:	f012 0f04 	tst.w	r2, #4
 800207e:	695a      	ldr	r2, [r3, #20]
 8002080:	bf14      	ite	ne
 8002082:	f022 0204 	bicne.w	r2, r2, #4
 8002086:	f042 0204 	orreq.w	r2, r2, #4
 800208a:	615a      	str	r2, [r3, #20]
 800208c:	4770      	bx	lr
 800208e:	bf00      	nop

08002090 <ArcadeIT_TestPad_Init>:
 8002090:	b410      	push	{r4}
 8002092:	f44f 5360 	mov.w	r3, #14336	; 0x3800
 8002096:	f2c4 0302 	movt	r3, #16386	; 0x4002
 800209a:	6b1a      	ldr	r2, [r3, #48]	; 0x30
 800209c:	0752      	lsls	r2, r2, #29
 800209e:	d403      	bmi.n	80020a8 <ArcadeIT_TestPad_Init+0x18>
 80020a0:	6b1a      	ldr	r2, [r3, #48]	; 0x30
 80020a2:	f042 0204 	orr.w	r2, r2, #4
 80020a6:	631a      	str	r2, [r3, #48]	; 0x30
 80020a8:	f44f 6300 	mov.w	r3, #2048	; 0x800
 80020ac:	f2c4 0302 	movt	r3, #16386	; 0x4002
 80020b0:	f44f 5460 	mov.w	r4, #14336	; 0x3800
 80020b4:	681a      	ldr	r2, [r3, #0]
 80020b6:	f422 2240 	bic.w	r2, r2, #786432	; 0xc0000
 80020ba:	601a      	str	r2, [r3, #0]
 80020bc:	681a      	ldr	r2, [r3, #0]
 80020be:	f442 2200 	orr.w	r2, r2, #524288	; 0x80000
 80020c2:	601a      	str	r2, [r3, #0]
 80020c4:	689a      	ldr	r2, [r3, #8]
 80020c6:	f422 2240 	bic.w	r2, r2, #786432	; 0xc0000
 80020ca:	609a      	str	r2, [r3, #8]
 80020cc:	689a      	ldr	r2, [r3, #8]
 80020ce:	f442 2240 	orr.w	r2, r2, #786432	; 0xc0000
 80020d2:	609a      	str	r2, [r3, #8]
 80020d4:	685a      	ldr	r2, [r3, #4]
 80020d6:	f422 7200 	bic.w	r2, r2, #512	; 0x200
 80020da:	605a      	str	r2, [r3, #4]
 80020dc:	685a      	ldr	r2, [r3, #4]
 80020de:	605a      	str	r2, [r3, #4]
 80020e0:	68da      	ldr	r2, [r3, #12]
 80020e2:	f422 2240 	bic.w	r2, r2, #786432	; 0xc0000
 80020e6:	60da      	str	r2, [r3, #12]
 80020e8:	68da      	ldr	r2, [r3, #12]
 80020ea:	f442 2280 	orr.w	r2, r2, #262144	; 0x40000
 80020ee:	60da      	str	r2, [r3, #12]
 80020f0:	6a5a      	ldr	r2, [r3, #36]	; 0x24
 80020f2:	f022 02f0 	bic.w	r2, r2, #240	; 0xf0
 80020f6:	625a      	str	r2, [r3, #36]	; 0x24
 80020f8:	6a5a      	ldr	r2, [r3, #36]	; 0x24
 80020fa:	625a      	str	r2, [r3, #36]	; 0x24
 80020fc:	f2c4 0402 	movt	r4, #16386	; 0x4002
 8002100:	f240 12fc 	movw	r2, #508	; 0x1fc
 8002104:	68a3      	ldr	r3, [r4, #8]
 8002106:	f023 4378 	bic.w	r3, r3, #4160749568	; 0xf8000000
 800210a:	4319      	orrs	r1, r3
 800210c:	4301      	orrs	r1, r0
 800210e:	f2c2 0200 	movt	r2, #8192	; 0x2000
 8002112:	60a1      	str	r1, [r4, #8]
 8002114:	6813      	ldr	r3, [r2, #0]
 8002116:	045b      	lsls	r3, r3, #17
 8002118:	d402      	bmi.n	8002120 <ArcadeIT_TestPad_Init+0x90>
 800211a:	f85d 4b04 	ldr.w	r4, [sp], #4
 800211e:	4770      	bx	lr
 8002120:	f647 7010 	movw	r0, #32528	; 0x7f10
 8002124:	f6c0 0000 	movt	r0, #2048	; 0x800
 8002128:	f85d 4b04 	ldr.w	r4, [sp], #4
 800212c:	f7ff be52 	b.w	8001dd4 <ArcadeIT_Serial_Port_String_Send>

08002130 <ArcadeIT_RAMDisk_Initialize>:
 8002130:	f240 2214 	movw	r2, #532	; 0x214
 8002134:	f2c2 0200 	movt	r2, #8192	; 0x2000
 8002138:	f240 0308 	movw	r3, #8
 800213c:	f2c2 0300 	movt	r3, #8192	; 0x2000
 8002140:	6812      	ldr	r2, [r2, #0]
 8002142:	7818      	ldrb	r0, [r3, #0]
 8002144:	f5b2 2f00 	cmp.w	r2, #524288	; 0x80000
 8002148:	bf2c      	ite	cs
 800214a:	f000 00fe 	andcs.w	r0, r0, #254	; 0xfe
 800214e:	f040 0001 	orrcc.w	r0, r0, #1
 8002152:	7018      	strb	r0, [r3, #0]
 8002154:	4770      	bx	lr
 8002156:	bf00      	nop

08002158 <ArcadeIT_RAMDisk_Status>:
 8002158:	f240 0308 	movw	r3, #8
 800215c:	f2c2 0300 	movt	r3, #8192	; 0x2000
 8002160:	7818      	ldrb	r0, [r3, #0]
 8002162:	4770      	bx	lr

08002164 <ArcadeIT_RAMDisk_Read>:
 8002164:	b16a      	cbz	r2, 8002182 <ArcadeIT_RAMDisk_Read+0x1e>
 8002166:	b508      	push	{r3, lr}
 8002168:	f240 0300 	movw	r3, #0
 800216c:	f2c2 0300 	movt	r3, #8192	; 0x2000
 8002170:	eb02 2242 	add.w	r2, r2, r2, lsl #9
 8002174:	681b      	ldr	r3, [r3, #0]
 8002176:	eb03 2141 	add.w	r1, r3, r1, lsl #9
 800217a:	f003 fdd1 	bl	8005d20 <memcpy>
 800217e:	2000      	movs	r0, #0
 8002180:	bd08      	pop	{r3, pc}
 8002182:	2004      	movs	r0, #4
 8002184:	4770      	bx	lr
 8002186:	bf00      	nop

08002188 <ArcadeIT_RAMDisk_Write>:
 8002188:	b17a      	cbz	r2, 80021aa <ArcadeIT_RAMDisk_Write+0x22>
 800218a:	b508      	push	{r3, lr}
 800218c:	460b      	mov	r3, r1
 800218e:	4601      	mov	r1, r0
 8002190:	f240 0000 	movw	r0, #0
 8002194:	f2c2 0000 	movt	r0, #8192	; 0x2000
 8002198:	eb02 2242 	add.w	r2, r2, r2, lsl #9
 800219c:	6800      	ldr	r0, [r0, #0]
 800219e:	eb00 2043 	add.w	r0, r0, r3, lsl #9
 80021a2:	f003 fdbd 	bl	8005d20 <memcpy>
 80021a6:	2000      	movs	r0, #0
 80021a8:	bd08      	pop	{r3, pc}
 80021aa:	2004      	movs	r0, #4
 80021ac:	4770      	bx	lr
 80021ae:	bf00      	nop

080021b0 <ArcadeIT_RAMDisk_Ioctl>:
 80021b0:	2803      	cmp	r0, #3
 80021b2:	d818      	bhi.n	80021e6 <ArcadeIT_RAMDisk_Ioctl+0x36>
 80021b4:	e8df f000 	tbb	[pc, r0]
 80021b8:	04090e02 	.word	0x04090e02
 80021bc:	2000      	movs	r0, #0
 80021be:	4770      	bx	lr
 80021c0:	f44f 7300 	mov.w	r3, #512	; 0x200
 80021c4:	600b      	str	r3, [r1, #0]
 80021c6:	2000      	movs	r0, #0
 80021c8:	4770      	bx	lr
 80021ca:	f44f 7300 	mov.w	r3, #512	; 0x200
 80021ce:	800b      	strh	r3, [r1, #0]
 80021d0:	2000      	movs	r0, #0
 80021d2:	4770      	bx	lr
 80021d4:	f240 2314 	movw	r3, #532	; 0x214
 80021d8:	f2c2 0300 	movt	r3, #8192	; 0x2000
 80021dc:	2000      	movs	r0, #0
 80021de:	681b      	ldr	r3, [r3, #0]
 80021e0:	0a5b      	lsrs	r3, r3, #9
 80021e2:	600b      	str	r3, [r1, #0]
 80021e4:	4770      	bx	lr
 80021e6:	2004      	movs	r0, #4
 80021e8:	4770      	bx	lr
 80021ea:	bf00      	nop

080021ec <ArcadeIT_RAMDisk_Start>:
 80021ec:	b510      	push	{r4, lr}
 80021ee:	f248 0114 	movw	r1, #32788	; 0x8014
 80021f2:	f5ad 5d90 	sub.w	sp, sp, #4608	; 0x1200
 80021f6:	b082      	sub	sp, #8
 80021f8:	f6c0 0100 	movt	r1, #2048	; 0x800
 80021fc:	2000      	movs	r0, #0
 80021fe:	f7fe ff47 	bl	8001090 <ArcadeIT_Utility_Get_String_ID>
 8002202:	f44f 5380 	mov.w	r3, #4096	; 0x1000
 8002206:	aa82      	add	r2, sp, #520	; 0x208
 8002208:	2100      	movs	r1, #0
 800220a:	f002 fe8d 	bl	8004f28 <f_mkfs>
 800220e:	2800      	cmp	r0, #0
 8002210:	d15a      	bne.n	80022c8 <ArcadeIT_RAMDisk_Start+0xdc>
 8002212:	f248 0114 	movw	r1, #32788	; 0x8014
 8002216:	f6c0 0100 	movt	r1, #2048	; 0x800
 800221a:	f7fe ff39 	bl	8001090 <ArcadeIT_Utility_Get_String_ID>
 800221e:	4601      	mov	r1, r0
 8002220:	f640 10d0 	movw	r0, #2512	; 0x9d0
 8002224:	f2c2 0000 	movt	r0, #8192	; 0x2000
 8002228:	2201      	movs	r2, #1
 800222a:	f002 fb67 	bl	80048fc <f_mount>
 800222e:	4604      	mov	r4, r0
 8002230:	2800      	cmp	r0, #0
 8002232:	d165      	bne.n	8002300 <ArcadeIT_RAMDisk_Start+0x114>
 8002234:	f248 0114 	movw	r1, #32788	; 0x8014
 8002238:	f6c0 0100 	movt	r1, #2048	; 0x800
 800223c:	f7fe ff28 	bl	8001090 <ArcadeIT_Utility_Get_String_ID>
 8002240:	f647 712c 	movw	r1, #32556	; 0x7f2c
 8002244:	4602      	mov	r2, r0
 8002246:	f6c0 0100 	movt	r1, #2048	; 0x800
 800224a:	a802      	add	r0, sp, #8
 800224c:	f004 f9d8 	bl	8006600 <siprintf>
 8002250:	a802      	add	r0, sp, #8
 8002252:	f7ff fdbf 	bl	8001dd4 <ArcadeIT_Serial_Port_String_Send>
 8002256:	f248 0114 	movw	r1, #32788	; 0x8014
 800225a:	f6c0 0100 	movt	r1, #2048	; 0x800
 800225e:	4620      	mov	r0, r4
 8002260:	f7fe ff16 	bl	8001090 <ArcadeIT_Utility_Get_String_ID>
 8002264:	f002 fb76 	bl	8004954 <f_chdrive>
 8002268:	f647 7044 	movw	r0, #32580	; 0x7f44
 800226c:	f6c0 0000 	movt	r0, #2048	; 0x800
 8002270:	f002 fd28 	bl	8004cc4 <f_setlabel>
 8002274:	f248 0114 	movw	r1, #32788	; 0x8014
 8002278:	f6c0 0100 	movt	r1, #2048	; 0x800
 800227c:	4620      	mov	r0, r4
 800227e:	f7fe ff07 	bl	8001090 <ArcadeIT_Utility_Get_String_ID>
 8002282:	ab02      	add	r3, sp, #8
 8002284:	aa01      	add	r2, sp, #4
 8002286:	f1a3 0108 	sub.w	r1, r3, #8
 800228a:	f002 fb7b 	bl	8004984 <f_getfree>
 800228e:	bb08      	cbnz	r0, 80022d4 <ArcadeIT_RAMDisk_Start+0xe8>
 8002290:	e9dd 1200 	ldrd	r1, r2, [sp]
 8002294:	69d3      	ldr	r3, [r2, #28]
 8002296:	8952      	ldrh	r2, [r2, #10]
 8002298:	0249      	lsls	r1, r1, #9
 800229a:	3b02      	subs	r3, #2
 800229c:	fb02 f303 	mul.w	r3, r2, r3
 80022a0:	fb02 f201 	mul.w	r2, r2, r1
 80022a4:	f647 714c 	movw	r1, #32588	; 0x7f4c
 80022a8:	f3c3 0355 	ubfx	r3, r3, #1, #22
 80022ac:	0a92      	lsrs	r2, r2, #10
 80022ae:	f6c0 0100 	movt	r1, #2048	; 0x800
 80022b2:	a802      	add	r0, sp, #8
 80022b4:	f004 f9a4 	bl	8006600 <siprintf>
 80022b8:	a802      	add	r0, sp, #8
 80022ba:	f7ff fd8b 	bl	8001dd4 <ArcadeIT_Serial_Port_String_Send>
 80022be:	4620      	mov	r0, r4
 80022c0:	f50d 5d90 	add.w	sp, sp, #4608	; 0x1200
 80022c4:	b002      	add	sp, #8
 80022c6:	bd10      	pop	{r4, pc}
 80022c8:	2403      	movs	r4, #3
 80022ca:	4620      	mov	r0, r4
 80022cc:	f50d 5d90 	add.w	sp, sp, #4608	; 0x1200
 80022d0:	b002      	add	sp, #8
 80022d2:	bd10      	pop	{r4, pc}
 80022d4:	f248 0128 	movw	r1, #32808	; 0x8028
 80022d8:	f6c0 0100 	movt	r1, #2048	; 0x800
 80022dc:	f7fe fed8 	bl	8001090 <ArcadeIT_Utility_Get_String_ID>
 80022e0:	f647 51c0 	movw	r1, #32192	; 0x7dc0
 80022e4:	4602      	mov	r2, r0
 80022e6:	f6c0 0100 	movt	r1, #2048	; 0x800
 80022ea:	a802      	add	r0, sp, #8
 80022ec:	f004 f988 	bl	8006600 <siprintf>
 80022f0:	a802      	add	r0, sp, #8
 80022f2:	f7ff fd6f 	bl	8001dd4 <ArcadeIT_Serial_Port_String_Send>
 80022f6:	4620      	mov	r0, r4
 80022f8:	f50d 5d90 	add.w	sp, sp, #4608	; 0x1200
 80022fc:	b002      	add	sp, #8
 80022fe:	bd10      	pop	{r4, pc}
 8002300:	f248 0128 	movw	r1, #32808	; 0x8028
 8002304:	f6c0 0100 	movt	r1, #2048	; 0x800
 8002308:	f7fe fec2 	bl	8001090 <ArcadeIT_Utility_Get_String_ID>
 800230c:	f647 7160 	movw	r1, #32608	; 0x7f60
 8002310:	4602      	mov	r2, r0
 8002312:	f6c0 0100 	movt	r1, #2048	; 0x800
 8002316:	a802      	add	r0, sp, #8
 8002318:	f004 f972 	bl	8006600 <siprintf>
 800231c:	a802      	add	r0, sp, #8
 800231e:	f7ff fd59 	bl	8001dd4 <ArcadeIT_Serial_Port_String_Send>
 8002322:	2403      	movs	r4, #3
 8002324:	4620      	mov	r0, r4
 8002326:	f50d 5d90 	add.w	sp, sp, #4608	; 0x1200
 800232a:	b002      	add	sp, #8
 800232c:	bd10      	pop	{r4, pc}
 800232e:	bf00      	nop

08002330 <send_cmd>:
 8002330:	b5f8      	push	{r3, r4, r5, r6, r7, lr}
 8002332:	460d      	mov	r5, r1
 8002334:	0601      	lsls	r1, r0, #24
 8002336:	4606      	mov	r6, r0
 8002338:	d46a      	bmi.n	8002410 <send_cmd+0xe0>
 800233a:	2e0c      	cmp	r6, #12
 800233c:	d050      	beq.n	80023e0 <send_cmd+0xb0>
 800233e:	f44f 6700 	mov.w	r7, #2048	; 0x800
 8002342:	f2c4 0702 	movt	r7, #16386	; 0x4002
 8002346:	20ff      	movs	r0, #255	; 0xff
 8002348:	697b      	ldr	r3, [r7, #20]
 800234a:	f043 0310 	orr.w	r3, r3, #16
 800234e:	617b      	str	r3, [r7, #20]
 8002350:	f7ff fb2c 	bl	80019ac <ArcadeIT_SPI_Port_RW_Byte>
 8002354:	697b      	ldr	r3, [r7, #20]
 8002356:	f240 2400 	movw	r4, #512	; 0x200
 800235a:	f023 0310 	bic.w	r3, r3, #16
 800235e:	617b      	str	r3, [r7, #20]
 8002360:	20ff      	movs	r0, #255	; 0xff
 8002362:	f2c2 0400 	movt	r4, #8192	; 0x2000
 8002366:	f7ff fb21 	bl	80019ac <ArcadeIT_SPI_Port_RW_Byte>
 800236a:	f44f 737a 	mov.w	r3, #1000	; 0x3e8
 800236e:	6023      	str	r3, [r4, #0]
 8002370:	e001      	b.n	8002376 <send_cmd+0x46>
 8002372:	6823      	ldr	r3, [r4, #0]
 8002374:	b33b      	cbz	r3, 80023c6 <send_cmd+0x96>
 8002376:	20ff      	movs	r0, #255	; 0xff
 8002378:	f7ff fb18 	bl	80019ac <ArcadeIT_SPI_Port_RW_Byte>
 800237c:	28ff      	cmp	r0, #255	; 0xff
 800237e:	d1f8      	bne.n	8002372 <send_cmd+0x42>
 8002380:	f046 0040 	orr.w	r0, r6, #64	; 0x40
 8002384:	f7ff fb12 	bl	80019ac <ArcadeIT_SPI_Port_RW_Byte>
 8002388:	0e28      	lsrs	r0, r5, #24
 800238a:	f7ff fb0f 	bl	80019ac <ArcadeIT_SPI_Port_RW_Byte>
 800238e:	f3c5 4007 	ubfx	r0, r5, #16, #8
 8002392:	f7ff fb0b 	bl	80019ac <ArcadeIT_SPI_Port_RW_Byte>
 8002396:	f3c5 2007 	ubfx	r0, r5, #8, #8
 800239a:	f7ff fb07 	bl	80019ac <ArcadeIT_SPI_Port_RW_Byte>
 800239e:	b2e8      	uxtb	r0, r5
 80023a0:	f7ff fb04 	bl	80019ac <ArcadeIT_SPI_Port_RW_Byte>
 80023a4:	2e00      	cmp	r6, #0
 80023a6:	d13c      	bne.n	8002422 <send_cmd+0xf2>
 80023a8:	2095      	movs	r0, #149	; 0x95
 80023aa:	f7ff faff 	bl	80019ac <ArcadeIT_SPI_Port_RW_Byte>
 80023ae:	240a      	movs	r4, #10
 80023b0:	20ff      	movs	r0, #255	; 0xff
 80023b2:	f7ff fafb 	bl	80019ac <ArcadeIT_SPI_Port_RW_Byte>
 80023b6:	0602      	lsls	r2, r0, #24
 80023b8:	f104 33ff 	add.w	r3, r4, #4294967295
 80023bc:	d502      	bpl.n	80023c4 <send_cmd+0x94>
 80023be:	f013 04ff 	ands.w	r4, r3, #255	; 0xff
 80023c2:	d1f5      	bne.n	80023b0 <send_cmd+0x80>
 80023c4:	bdf8      	pop	{r3, r4, r5, r6, r7, pc}
 80023c6:	f44f 6300 	mov.w	r3, #2048	; 0x800
 80023ca:	f2c4 0302 	movt	r3, #16386	; 0x4002
 80023ce:	20ff      	movs	r0, #255	; 0xff
 80023d0:	695a      	ldr	r2, [r3, #20]
 80023d2:	f042 0210 	orr.w	r2, r2, #16
 80023d6:	615a      	str	r2, [r3, #20]
 80023d8:	f7ff fae8 	bl	80019ac <ArcadeIT_SPI_Port_RW_Byte>
 80023dc:	20ff      	movs	r0, #255	; 0xff
 80023de:	bdf8      	pop	{r3, r4, r5, r6, r7, pc}
 80023e0:	204c      	movs	r0, #76	; 0x4c
 80023e2:	f7ff fae3 	bl	80019ac <ArcadeIT_SPI_Port_RW_Byte>
 80023e6:	0e28      	lsrs	r0, r5, #24
 80023e8:	f7ff fae0 	bl	80019ac <ArcadeIT_SPI_Port_RW_Byte>
 80023ec:	f3c5 4007 	ubfx	r0, r5, #16, #8
 80023f0:	f7ff fadc 	bl	80019ac <ArcadeIT_SPI_Port_RW_Byte>
 80023f4:	f3c5 2007 	ubfx	r0, r5, #8, #8
 80023f8:	f7ff fad8 	bl	80019ac <ArcadeIT_SPI_Port_RW_Byte>
 80023fc:	b2e8      	uxtb	r0, r5
 80023fe:	f7ff fad5 	bl	80019ac <ArcadeIT_SPI_Port_RW_Byte>
 8002402:	2001      	movs	r0, #1
 8002404:	f7ff fad2 	bl	80019ac <ArcadeIT_SPI_Port_RW_Byte>
 8002408:	20ff      	movs	r0, #255	; 0xff
 800240a:	f7ff facf 	bl	80019ac <ArcadeIT_SPI_Port_RW_Byte>
 800240e:	e7ce      	b.n	80023ae <send_cmd+0x7e>
 8002410:	2100      	movs	r1, #0
 8002412:	2037      	movs	r0, #55	; 0x37
 8002414:	f7ff ff8c 	bl	8002330 <send_cmd>
 8002418:	2801      	cmp	r0, #1
 800241a:	d8d3      	bhi.n	80023c4 <send_cmd+0x94>
 800241c:	f006 067f 	and.w	r6, r6, #127	; 0x7f
 8002420:	e78b      	b.n	800233a <send_cmd+0xa>
 8002422:	2e08      	cmp	r6, #8
 8002424:	d103      	bne.n	800242e <send_cmd+0xfe>
 8002426:	2087      	movs	r0, #135	; 0x87
 8002428:	f7ff fac0 	bl	80019ac <ArcadeIT_SPI_Port_RW_Byte>
 800242c:	e7bf      	b.n	80023ae <send_cmd+0x7e>
 800242e:	2001      	movs	r0, #1
 8002430:	f7ff fabc 	bl	80019ac <ArcadeIT_SPI_Port_RW_Byte>
 8002434:	e7bb      	b.n	80023ae <send_cmd+0x7e>
 8002436:	bf00      	nop

08002438 <ArcadeIT_SDCard_Disk_Initialize>:
 8002438:	b570      	push	{r4, r5, r6, lr}
 800243a:	f44f 5340 	mov.w	r3, #12288	; 0x3000
 800243e:	f2c4 0301 	movt	r3, #16385	; 0x4001
 8002442:	b082      	sub	sp, #8
 8002444:	681a      	ldr	r2, [r3, #0]
 8002446:	f042 0238 	orr.w	r2, r2, #56	; 0x38
 800244a:	2428      	movs	r4, #40	; 0x28
 800244c:	601a      	str	r2, [r3, #0]
 800244e:	20ff      	movs	r0, #255	; 0xff
 8002450:	f7ff faac 	bl	80019ac <ArcadeIT_SPI_Port_RW_Byte>
 8002454:	1e61      	subs	r1, r4, #1
 8002456:	f011 04ff 	ands.w	r4, r1, #255	; 0xff
 800245a:	d1f8      	bne.n	800244e <ArcadeIT_SDCard_Disk_Initialize+0x16>
 800245c:	4621      	mov	r1, r4
 800245e:	4620      	mov	r0, r4
 8002460:	f7ff ff66 	bl	8002330 <send_cmd>
 8002464:	2801      	cmp	r0, #1
 8002466:	4605      	mov	r5, r0
 8002468:	d017      	beq.n	800249a <ArcadeIT_SDCard_Disk_Initialize+0x62>
 800246a:	f640 6244 	movw	r2, #3652	; 0xe44
 800246e:	f2c2 0200 	movt	r2, #8192	; 0x2000
 8002472:	f44f 6300 	mov.w	r3, #2048	; 0x800
 8002476:	f2c4 0302 	movt	r3, #16386	; 0x4002
 800247a:	7014      	strb	r4, [r2, #0]
 800247c:	695a      	ldr	r2, [r3, #20]
 800247e:	f042 0210 	orr.w	r2, r2, #16
 8002482:	615a      	str	r2, [r3, #20]
 8002484:	20ff      	movs	r0, #255	; 0xff
 8002486:	f7ff fa91 	bl	80019ac <ArcadeIT_SPI_Port_RW_Byte>
 800248a:	f240 0308 	movw	r3, #8
 800248e:	f2c2 0300 	movt	r3, #8192	; 0x2000
 8002492:	2001      	movs	r0, #1
 8002494:	7058      	strb	r0, [r3, #1]
 8002496:	b002      	add	sp, #8
 8002498:	bd70      	pop	{r4, r5, r6, pc}
 800249a:	f44f 71d5 	mov.w	r1, #426	; 0x1aa
 800249e:	2008      	movs	r0, #8
 80024a0:	f7ff ff46 	bl	8002330 <send_cmd>
 80024a4:	2801      	cmp	r0, #1
 80024a6:	d118      	bne.n	80024da <ArcadeIT_SDCard_Disk_Initialize+0xa2>
 80024a8:	ae01      	add	r6, sp, #4
 80024aa:	4635      	mov	r5, r6
 80024ac:	ac02      	add	r4, sp, #8
 80024ae:	20ff      	movs	r0, #255	; 0xff
 80024b0:	f7ff fa7c 	bl	80019ac <ArcadeIT_SPI_Port_RW_Byte>
 80024b4:	f805 0b01 	strb.w	r0, [r5], #1
 80024b8:	42ac      	cmp	r4, r5
 80024ba:	d1f8      	bne.n	80024ae <ArcadeIT_SDCard_Disk_Initialize+0x76>
 80024bc:	f89d 3006 	ldrb.w	r3, [sp, #6]
 80024c0:	2b01      	cmp	r3, #1
 80024c2:	d036      	beq.n	8002532 <ArcadeIT_SDCard_Disk_Initialize+0xfa>
 80024c4:	f640 6244 	movw	r2, #3652	; 0xe44
 80024c8:	f2c2 0200 	movt	r2, #8192	; 0x2000
 80024cc:	f44f 6300 	mov.w	r3, #2048	; 0x800
 80024d0:	2100      	movs	r1, #0
 80024d2:	f2c4 0302 	movt	r3, #16386	; 0x4002
 80024d6:	7011      	strb	r1, [r2, #0]
 80024d8:	e7d0      	b.n	800247c <ArcadeIT_SDCard_Disk_Initialize+0x44>
 80024da:	4621      	mov	r1, r4
 80024dc:	20a9      	movs	r0, #169	; 0xa9
 80024de:	f7ff ff27 	bl	8002330 <send_cmd>
 80024e2:	f240 2400 	movw	r4, #512	; 0x200
 80024e6:	f2c2 0400 	movt	r4, #8192	; 0x2000
 80024ea:	2801      	cmp	r0, #1
 80024ec:	f44f 737a 	mov.w	r3, #1000	; 0x3e8
 80024f0:	bf96      	itet	ls
 80024f2:	25a9      	movls	r5, #169	; 0xa9
 80024f4:	2601      	movhi	r6, #1
 80024f6:	2602      	movls	r6, #2
 80024f8:	6023      	str	r3, [r4, #0]
 80024fa:	e002      	b.n	8002502 <ArcadeIT_SDCard_Disk_Initialize+0xca>
 80024fc:	f7ff ff18 	bl	8002330 <send_cmd>
 8002500:	b120      	cbz	r0, 800250c <ArcadeIT_SDCard_Disk_Initialize+0xd4>
 8002502:	6823      	ldr	r3, [r4, #0]
 8002504:	2100      	movs	r1, #0
 8002506:	4628      	mov	r0, r5
 8002508:	2b00      	cmp	r3, #0
 800250a:	d1f7      	bne.n	80024fc <ArcadeIT_SDCard_Disk_Initialize+0xc4>
 800250c:	6823      	ldr	r3, [r4, #0]
 800250e:	bb73      	cbnz	r3, 800256e <ArcadeIT_SDCard_Disk_Initialize+0x136>
 8002510:	f640 6144 	movw	r1, #3652	; 0xe44
 8002514:	f2c2 0100 	movt	r1, #8192	; 0x2000
 8002518:	f44f 6200 	mov.w	r2, #2048	; 0x800
 800251c:	f2c4 0202 	movt	r2, #16386	; 0x4002
 8002520:	700b      	strb	r3, [r1, #0]
 8002522:	6953      	ldr	r3, [r2, #20]
 8002524:	f043 0310 	orr.w	r3, r3, #16
 8002528:	6153      	str	r3, [r2, #20]
 800252a:	20ff      	movs	r0, #255	; 0xff
 800252c:	f7ff fa3e 	bl	80019ac <ArcadeIT_SPI_Port_RW_Byte>
 8002530:	e7ab      	b.n	800248a <ArcadeIT_SDCard_Disk_Initialize+0x52>
 8002532:	f89d 3007 	ldrb.w	r3, [sp, #7]
 8002536:	2baa      	cmp	r3, #170	; 0xaa
 8002538:	d1c4      	bne.n	80024c4 <ArcadeIT_SDCard_Disk_Initialize+0x8c>
 800253a:	f240 2400 	movw	r4, #512	; 0x200
 800253e:	f2c2 0400 	movt	r4, #8192	; 0x2000
 8002542:	f44f 737a 	mov.w	r3, #1000	; 0x3e8
 8002546:	6023      	str	r3, [r4, #0]
 8002548:	e002      	b.n	8002550 <ArcadeIT_SDCard_Disk_Initialize+0x118>
 800254a:	f7ff fef1 	bl	8002330 <send_cmd>
 800254e:	b128      	cbz	r0, 800255c <ArcadeIT_SDCard_Disk_Initialize+0x124>
 8002550:	6823      	ldr	r3, [r4, #0]
 8002552:	f04f 4180 	mov.w	r1, #1073741824	; 0x40000000
 8002556:	20a9      	movs	r0, #169	; 0xa9
 8002558:	2b00      	cmp	r3, #0
 800255a:	d1f6      	bne.n	800254a <ArcadeIT_SDCard_Disk_Initialize+0x112>
 800255c:	6821      	ldr	r1, [r4, #0]
 800255e:	bb81      	cbnz	r1, 80025c2 <ArcadeIT_SDCard_Disk_Initialize+0x18a>
 8002560:	f640 6244 	movw	r2, #3652	; 0xe44
 8002564:	f2c2 0200 	movt	r2, #8192	; 0x2000
 8002568:	f44f 6300 	mov.w	r3, #2048	; 0x800
 800256c:	e7b1      	b.n	80024d2 <ArcadeIT_SDCard_Disk_Initialize+0x9a>
 800256e:	f44f 7100 	mov.w	r1, #512	; 0x200
 8002572:	2010      	movs	r0, #16
 8002574:	f7ff fedc 	bl	8002330 <send_cmd>
 8002578:	f640 6244 	movw	r2, #3652	; 0xe44
 800257c:	f2c2 0200 	movt	r2, #8192	; 0x2000
 8002580:	f44f 6300 	mov.w	r3, #2048	; 0x800
 8002584:	2800      	cmp	r0, #0
 8002586:	d1a3      	bne.n	80024d0 <ArcadeIT_SDCard_Disk_Initialize+0x98>
 8002588:	f2c4 0302 	movt	r3, #16386	; 0x4002
 800258c:	7016      	strb	r6, [r2, #0]
 800258e:	695a      	ldr	r2, [r3, #20]
 8002590:	f042 0210 	orr.w	r2, r2, #16
 8002594:	615a      	str	r2, [r3, #20]
 8002596:	20ff      	movs	r0, #255	; 0xff
 8002598:	f7ff fa08 	bl	80019ac <ArcadeIT_SPI_Port_RW_Byte>
 800259c:	f44f 5140 	mov.w	r1, #12288	; 0x3000
 80025a0:	f2c4 0101 	movt	r1, #16385	; 0x4001
 80025a4:	f240 0208 	movw	r2, #8
 80025a8:	680b      	ldr	r3, [r1, #0]
 80025aa:	f023 0338 	bic.w	r3, r3, #56	; 0x38
 80025ae:	f2c2 0200 	movt	r2, #8192	; 0x2000
 80025b2:	f043 0308 	orr.w	r3, r3, #8
 80025b6:	600b      	str	r3, [r1, #0]
 80025b8:	7850      	ldrb	r0, [r2, #1]
 80025ba:	f000 00fe 	and.w	r0, r0, #254	; 0xfe
 80025be:	7050      	strb	r0, [r2, #1]
 80025c0:	e769      	b.n	8002496 <ArcadeIT_SDCard_Disk_Initialize+0x5e>
 80025c2:	2100      	movs	r1, #0
 80025c4:	203a      	movs	r0, #58	; 0x3a
 80025c6:	f7ff feb3 	bl	8002330 <send_cmd>
 80025ca:	2800      	cmp	r0, #0
 80025cc:	f47f af7a 	bne.w	80024c4 <ArcadeIT_SDCard_Disk_Initialize+0x8c>
 80025d0:	20ff      	movs	r0, #255	; 0xff
 80025d2:	f7ff f9eb 	bl	80019ac <ArcadeIT_SPI_Port_RW_Byte>
 80025d6:	f806 0b01 	strb.w	r0, [r6], #1
 80025da:	42ae      	cmp	r6, r5
 80025dc:	d1f8      	bne.n	80025d0 <ArcadeIT_SDCard_Disk_Initialize+0x198>
 80025de:	f89d 3004 	ldrb.w	r3, [sp, #4]
 80025e2:	f640 6244 	movw	r2, #3652	; 0xe44
 80025e6:	f013 0f40 	tst.w	r3, #64	; 0x40
 80025ea:	f2c2 0200 	movt	r2, #8192	; 0x2000
 80025ee:	f44f 6300 	mov.w	r3, #2048	; 0x800
 80025f2:	bf14      	ite	ne
 80025f4:	210c      	movne	r1, #12
 80025f6:	2104      	moveq	r1, #4
 80025f8:	f2c4 0302 	movt	r3, #16386	; 0x4002
 80025fc:	7011      	strb	r1, [r2, #0]
 80025fe:	e7c6      	b.n	800258e <ArcadeIT_SDCard_Disk_Initialize+0x156>

08002600 <ArcadeIT_SDCard_Disk_Status>:
 8002600:	f240 0308 	movw	r3, #8
 8002604:	f2c2 0300 	movt	r3, #8192	; 0x2000
 8002608:	7858      	ldrb	r0, [r3, #1]
 800260a:	4770      	bx	lr

0800260c <ArcadeIT_SDCard_Disk_Read>:
 800260c:	b5f8      	push	{r3, r4, r5, r6, r7, lr}
 800260e:	2a00      	cmp	r2, #0
 8002610:	d03d      	beq.n	800268e <ArcadeIT_SDCard_Disk_Read+0x82>
 8002612:	f240 0308 	movw	r3, #8
 8002616:	f2c2 0300 	movt	r3, #8192	; 0x2000
 800261a:	785b      	ldrb	r3, [r3, #1]
 800261c:	07dc      	lsls	r4, r3, #31
 800261e:	d425      	bmi.n	800266c <ArcadeIT_SDCard_Disk_Read+0x60>
 8002620:	f640 6344 	movw	r3, #3652	; 0xe44
 8002624:	f2c2 0300 	movt	r3, #8192	; 0x2000
 8002628:	4606      	mov	r6, r0
 800262a:	781b      	ldrb	r3, [r3, #0]
 800262c:	071b      	lsls	r3, r3, #28
 800262e:	bf58      	it	pl
 8002630:	0249      	lslpl	r1, r1, #9
 8002632:	2a01      	cmp	r2, #1
 8002634:	4615      	mov	r5, r2
 8002636:	d03d      	beq.n	80026b4 <ArcadeIT_SDCard_Disk_Read+0xa8>
 8002638:	2012      	movs	r0, #18
 800263a:	f7ff fe79 	bl	8002330 <send_cmd>
 800263e:	b9c0      	cbnz	r0, 8002672 <ArcadeIT_SDCard_Disk_Read+0x66>
 8002640:	f240 2400 	movw	r4, #512	; 0x200
 8002644:	f2c2 0400 	movt	r4, #8192	; 0x2000
 8002648:	27c8      	movs	r7, #200	; 0xc8
 800264a:	6027      	str	r7, [r4, #0]
 800264c:	e001      	b.n	8002652 <ArcadeIT_SDCard_Disk_Read+0x46>
 800264e:	6823      	ldr	r3, [r4, #0]
 8002650:	b133      	cbz	r3, 8002660 <ArcadeIT_SDCard_Disk_Read+0x54>
 8002652:	20ff      	movs	r0, #255	; 0xff
 8002654:	f7ff f9aa 	bl	80019ac <ArcadeIT_SPI_Port_RW_Byte>
 8002658:	28ff      	cmp	r0, #255	; 0xff
 800265a:	d0f8      	beq.n	800264e <ArcadeIT_SDCard_Disk_Read+0x42>
 800265c:	28fe      	cmp	r0, #254	; 0xfe
 800265e:	d019      	beq.n	8002694 <ArcadeIT_SDCard_Disk_Read+0x88>
 8002660:	2501      	movs	r5, #1
 8002662:	2100      	movs	r1, #0
 8002664:	200c      	movs	r0, #12
 8002666:	f7ff fe63 	bl	8002330 <send_cmd>
 800266a:	e003      	b.n	8002674 <ArcadeIT_SDCard_Disk_Read+0x68>
 800266c:	2503      	movs	r5, #3
 800266e:	4628      	mov	r0, r5
 8002670:	bdf8      	pop	{r3, r4, r5, r6, r7, pc}
 8002672:	2501      	movs	r5, #1
 8002674:	f44f 6300 	mov.w	r3, #2048	; 0x800
 8002678:	f2c4 0302 	movt	r3, #16386	; 0x4002
 800267c:	20ff      	movs	r0, #255	; 0xff
 800267e:	695a      	ldr	r2, [r3, #20]
 8002680:	f042 0210 	orr.w	r2, r2, #16
 8002684:	615a      	str	r2, [r3, #20]
 8002686:	f7ff f991 	bl	80019ac <ArcadeIT_SPI_Port_RW_Byte>
 800268a:	4628      	mov	r0, r5
 800268c:	bdf8      	pop	{r3, r4, r5, r6, r7, pc}
 800268e:	2504      	movs	r5, #4
 8002690:	4628      	mov	r0, r5
 8002692:	bdf8      	pop	{r3, r4, r5, r6, r7, pc}
 8002694:	f44f 7100 	mov.w	r1, #512	; 0x200
 8002698:	4630      	mov	r0, r6
 800269a:	f7ff f9a9 	bl	80019f0 <ArcadeIT_SPI_Port_Read_Buffer>
 800269e:	20ff      	movs	r0, #255	; 0xff
 80026a0:	f7ff f984 	bl	80019ac <ArcadeIT_SPI_Port_RW_Byte>
 80026a4:	20ff      	movs	r0, #255	; 0xff
 80026a6:	f7ff f981 	bl	80019ac <ArcadeIT_SPI_Port_RW_Byte>
 80026aa:	3d01      	subs	r5, #1
 80026ac:	f506 7600 	add.w	r6, r6, #512	; 0x200
 80026b0:	d1cb      	bne.n	800264a <ArcadeIT_SDCard_Disk_Read+0x3e>
 80026b2:	e7d6      	b.n	8002662 <ArcadeIT_SDCard_Disk_Read+0x56>
 80026b4:	2011      	movs	r0, #17
 80026b6:	f7ff fe3b 	bl	8002330 <send_cmd>
 80026ba:	2800      	cmp	r0, #0
 80026bc:	d1d9      	bne.n	8002672 <ArcadeIT_SDCard_Disk_Read+0x66>
 80026be:	f240 2400 	movw	r4, #512	; 0x200
 80026c2:	f2c2 0400 	movt	r4, #8192	; 0x2000
 80026c6:	23c8      	movs	r3, #200	; 0xc8
 80026c8:	6023      	str	r3, [r4, #0]
 80026ca:	e002      	b.n	80026d2 <ArcadeIT_SDCard_Disk_Read+0xc6>
 80026cc:	6823      	ldr	r3, [r4, #0]
 80026ce:	2b00      	cmp	r3, #0
 80026d0:	d0cf      	beq.n	8002672 <ArcadeIT_SDCard_Disk_Read+0x66>
 80026d2:	20ff      	movs	r0, #255	; 0xff
 80026d4:	f7ff f96a 	bl	80019ac <ArcadeIT_SPI_Port_RW_Byte>
 80026d8:	28ff      	cmp	r0, #255	; 0xff
 80026da:	d0f7      	beq.n	80026cc <ArcadeIT_SDCard_Disk_Read+0xc0>
 80026dc:	28fe      	cmp	r0, #254	; 0xfe
 80026de:	d1c8      	bne.n	8002672 <ArcadeIT_SDCard_Disk_Read+0x66>
 80026e0:	f44f 7100 	mov.w	r1, #512	; 0x200
 80026e4:	4630      	mov	r0, r6
 80026e6:	f7ff f983 	bl	80019f0 <ArcadeIT_SPI_Port_Read_Buffer>
 80026ea:	20ff      	movs	r0, #255	; 0xff
 80026ec:	f7ff f95e 	bl	80019ac <ArcadeIT_SPI_Port_RW_Byte>
 80026f0:	20ff      	movs	r0, #255	; 0xff
 80026f2:	f7ff f95b 	bl	80019ac <ArcadeIT_SPI_Port_RW_Byte>
 80026f6:	2500      	movs	r5, #0
 80026f8:	e7bc      	b.n	8002674 <ArcadeIT_SDCard_Disk_Read+0x68>
 80026fa:	bf00      	nop

080026fc <ArcadeIT_SDCard_Disk_Write>:
 80026fc:	e92d 41f0 	stmdb	sp!, {r4, r5, r6, r7, r8, lr}
 8002700:	2a00      	cmp	r2, #0
 8002702:	d06f      	beq.n	80027e4 <ArcadeIT_SDCard_Disk_Write+0xe8>
 8002704:	f240 0308 	movw	r3, #8
 8002708:	f2c2 0300 	movt	r3, #8192	; 0x2000
 800270c:	785b      	ldrb	r3, [r3, #1]
 800270e:	07dd      	lsls	r5, r3, #31
 8002710:	d450      	bmi.n	80027b4 <ArcadeIT_SDCard_Disk_Write+0xb8>
 8002712:	075c      	lsls	r4, r3, #29
 8002714:	d474      	bmi.n	8002800 <ArcadeIT_SDCard_Disk_Write+0x104>
 8002716:	f640 6344 	movw	r3, #3652	; 0xe44
 800271a:	f2c2 0300 	movt	r3, #8192	; 0x2000
 800271e:	4616      	mov	r6, r2
 8002720:	781b      	ldrb	r3, [r3, #0]
 8002722:	071a      	lsls	r2, r3, #28
 8002724:	460c      	mov	r4, r1
 8002726:	bf58      	it	pl
 8002728:	024c      	lslpl	r4, r1, #9
 800272a:	2e01      	cmp	r6, #1
 800272c:	4607      	mov	r7, r0
 800272e:	d045      	beq.n	80027bc <ArcadeIT_SDCard_Disk_Write+0xc0>
 8002730:	f013 0f06 	tst.w	r3, #6
 8002734:	d15a      	bne.n	80027ec <ArcadeIT_SDCard_Disk_Write+0xf0>
 8002736:	4621      	mov	r1, r4
 8002738:	2019      	movs	r0, #25
 800273a:	f7ff fdf9 	bl	8002330 <send_cmd>
 800273e:	2800      	cmp	r0, #0
 8002740:	d141      	bne.n	80027c6 <ArcadeIT_SDCard_Disk_Write+0xca>
 8002742:	f240 2500 	movw	r5, #512	; 0x200
 8002746:	f2c2 0500 	movt	r5, #8192	; 0x2000
 800274a:	f44f 78fa 	mov.w	r8, #500	; 0x1f4
 800274e:	f8c5 8000 	str.w	r8, [r5]
 8002752:	e001      	b.n	8002758 <ArcadeIT_SDCard_Disk_Write+0x5c>
 8002754:	682b      	ldr	r3, [r5, #0]
 8002756:	b1d3      	cbz	r3, 800278e <ArcadeIT_SDCard_Disk_Write+0x92>
 8002758:	20ff      	movs	r0, #255	; 0xff
 800275a:	f7ff f927 	bl	80019ac <ArcadeIT_SPI_Port_RW_Byte>
 800275e:	28ff      	cmp	r0, #255	; 0xff
 8002760:	4604      	mov	r4, r0
 8002762:	d1f7      	bne.n	8002754 <ArcadeIT_SDCard_Disk_Write+0x58>
 8002764:	20fc      	movs	r0, #252	; 0xfc
 8002766:	f7ff f921 	bl	80019ac <ArcadeIT_SPI_Port_RW_Byte>
 800276a:	f44f 7100 	mov.w	r1, #512	; 0x200
 800276e:	4638      	mov	r0, r7
 8002770:	f7ff f962 	bl	8001a38 <ArcadeIT_SPI_Port_Write_Buffer>
 8002774:	4620      	mov	r0, r4
 8002776:	f7ff f919 	bl	80019ac <ArcadeIT_SPI_Port_RW_Byte>
 800277a:	4620      	mov	r0, r4
 800277c:	f7ff f916 	bl	80019ac <ArcadeIT_SPI_Port_RW_Byte>
 8002780:	4620      	mov	r0, r4
 8002782:	f7ff f913 	bl	80019ac <ArcadeIT_SPI_Port_RW_Byte>
 8002786:	f000 001f 	and.w	r0, r0, #31
 800278a:	2805      	cmp	r0, #5
 800278c:	d033      	beq.n	80027f6 <ArcadeIT_SDCard_Disk_Write+0xfa>
 800278e:	f44f 73fa 	mov.w	r3, #500	; 0x1f4
 8002792:	602b      	str	r3, [r5, #0]
 8002794:	e001      	b.n	800279a <ArcadeIT_SDCard_Disk_Write+0x9e>
 8002796:	682b      	ldr	r3, [r5, #0]
 8002798:	b1ab      	cbz	r3, 80027c6 <ArcadeIT_SDCard_Disk_Write+0xca>
 800279a:	20ff      	movs	r0, #255	; 0xff
 800279c:	f7ff f906 	bl	80019ac <ArcadeIT_SPI_Port_RW_Byte>
 80027a0:	28ff      	cmp	r0, #255	; 0xff
 80027a2:	d1f8      	bne.n	8002796 <ArcadeIT_SDCard_Disk_Write+0x9a>
 80027a4:	3600      	adds	r6, #0
 80027a6:	f04f 00fd 	mov.w	r0, #253	; 0xfd
 80027aa:	bf18      	it	ne
 80027ac:	2601      	movne	r6, #1
 80027ae:	f7ff f8fd 	bl	80019ac <ArcadeIT_SPI_Port_RW_Byte>
 80027b2:	e009      	b.n	80027c8 <ArcadeIT_SDCard_Disk_Write+0xcc>
 80027b4:	2603      	movs	r6, #3
 80027b6:	4630      	mov	r0, r6
 80027b8:	e8bd 81f0 	ldmia.w	sp!, {r4, r5, r6, r7, r8, pc}
 80027bc:	4621      	mov	r1, r4
 80027be:	2018      	movs	r0, #24
 80027c0:	f7ff fdb6 	bl	8002330 <send_cmd>
 80027c4:	b300      	cbz	r0, 8002808 <ArcadeIT_SDCard_Disk_Write+0x10c>
 80027c6:	2601      	movs	r6, #1
 80027c8:	f44f 6300 	mov.w	r3, #2048	; 0x800
 80027cc:	f2c4 0302 	movt	r3, #16386	; 0x4002
 80027d0:	20ff      	movs	r0, #255	; 0xff
 80027d2:	695a      	ldr	r2, [r3, #20]
 80027d4:	f042 0210 	orr.w	r2, r2, #16
 80027d8:	615a      	str	r2, [r3, #20]
 80027da:	f7ff f8e7 	bl	80019ac <ArcadeIT_SPI_Port_RW_Byte>
 80027de:	4630      	mov	r0, r6
 80027e0:	e8bd 81f0 	ldmia.w	sp!, {r4, r5, r6, r7, r8, pc}
 80027e4:	2604      	movs	r6, #4
 80027e6:	4630      	mov	r0, r6
 80027e8:	e8bd 81f0 	ldmia.w	sp!, {r4, r5, r6, r7, r8, pc}
 80027ec:	4631      	mov	r1, r6
 80027ee:	2097      	movs	r0, #151	; 0x97
 80027f0:	f7ff fd9e 	bl	8002330 <send_cmd>
 80027f4:	e79f      	b.n	8002736 <ArcadeIT_SDCard_Disk_Write+0x3a>
 80027f6:	3e01      	subs	r6, #1
 80027f8:	f507 7700 	add.w	r7, r7, #512	; 0x200
 80027fc:	d1a7      	bne.n	800274e <ArcadeIT_SDCard_Disk_Write+0x52>
 80027fe:	e7c6      	b.n	800278e <ArcadeIT_SDCard_Disk_Write+0x92>
 8002800:	2602      	movs	r6, #2
 8002802:	4630      	mov	r0, r6
 8002804:	e8bd 81f0 	ldmia.w	sp!, {r4, r5, r6, r7, r8, pc}
 8002808:	f240 2500 	movw	r5, #512	; 0x200
 800280c:	f2c2 0500 	movt	r5, #8192	; 0x2000
 8002810:	f44f 73fa 	mov.w	r3, #500	; 0x1f4
 8002814:	602b      	str	r3, [r5, #0]
 8002816:	e002      	b.n	800281e <ArcadeIT_SDCard_Disk_Write+0x122>
 8002818:	682b      	ldr	r3, [r5, #0]
 800281a:	2b00      	cmp	r3, #0
 800281c:	d0d3      	beq.n	80027c6 <ArcadeIT_SDCard_Disk_Write+0xca>
 800281e:	20ff      	movs	r0, #255	; 0xff
 8002820:	f7ff f8c4 	bl	80019ac <ArcadeIT_SPI_Port_RW_Byte>
 8002824:	28ff      	cmp	r0, #255	; 0xff
 8002826:	4604      	mov	r4, r0
 8002828:	d1f6      	bne.n	8002818 <ArcadeIT_SDCard_Disk_Write+0x11c>
 800282a:	20fe      	movs	r0, #254	; 0xfe
 800282c:	f7ff f8be 	bl	80019ac <ArcadeIT_SPI_Port_RW_Byte>
 8002830:	f44f 7100 	mov.w	r1, #512	; 0x200
 8002834:	4638      	mov	r0, r7
 8002836:	f7ff f8ff 	bl	8001a38 <ArcadeIT_SPI_Port_Write_Buffer>
 800283a:	4620      	mov	r0, r4
 800283c:	f7ff f8b6 	bl	80019ac <ArcadeIT_SPI_Port_RW_Byte>
 8002840:	4620      	mov	r0, r4
 8002842:	f7ff f8b3 	bl	80019ac <ArcadeIT_SPI_Port_RW_Byte>
 8002846:	4620      	mov	r0, r4
 8002848:	f7ff f8b0 	bl	80019ac <ArcadeIT_SPI_Port_RW_Byte>
 800284c:	f000 061f 	and.w	r6, r0, #31
 8002850:	3e05      	subs	r6, #5
 8002852:	bf18      	it	ne
 8002854:	2601      	movne	r6, #1
 8002856:	e7b7      	b.n	80027c8 <ArcadeIT_SDCard_Disk_Write+0xcc>

08002858 <ArcadeIT_SDCard_Disk_Ioctl>:
 8002858:	b5f0      	push	{r4, r5, r6, r7, lr}
 800285a:	f240 0308 	movw	r3, #8
 800285e:	f2c2 0300 	movt	r3, #8192	; 0x2000
 8002862:	b085      	sub	sp, #20
 8002864:	785b      	ldrb	r3, [r3, #1]
 8002866:	07dc      	lsls	r4, r3, #31
 8002868:	d408      	bmi.n	800287c <ArcadeIT_SDCard_Disk_Ioctl+0x24>
 800286a:	460e      	mov	r6, r1
 800286c:	2804      	cmp	r0, #4
 800286e:	f200 80c5 	bhi.w	80029fc <ArcadeIT_SDCard_Disk_Ioctl+0x1a4>
 8002872:	e8df f000 	tbb	[pc, r0]
 8002876:	3d1f      	.short	0x3d1f
 8002878:	85c3      	.short	0x85c3
 800287a:	07          	.byte	0x07
 800287b:	00          	.byte	0x00
 800287c:	2403      	movs	r4, #3
 800287e:	4620      	mov	r0, r4
 8002880:	b005      	add	sp, #20
 8002882:	bdf0      	pop	{r4, r5, r6, r7, pc}
 8002884:	f640 6744 	movw	r7, #3652	; 0xe44
 8002888:	f2c2 0700 	movt	r7, #8192	; 0x2000
 800288c:	783b      	ldrb	r3, [r7, #0]
 800288e:	f013 0f06 	tst.w	r3, #6
 8002892:	f040 80fa 	bne.w	8002a8a <ArcadeIT_SDCard_Disk_Ioctl+0x232>
 8002896:	2401      	movs	r4, #1
 8002898:	f44f 6300 	mov.w	r3, #2048	; 0x800
 800289c:	f2c4 0302 	movt	r3, #16386	; 0x4002
 80028a0:	20ff      	movs	r0, #255	; 0xff
 80028a2:	695a      	ldr	r2, [r3, #20]
 80028a4:	f042 0210 	orr.w	r2, r2, #16
 80028a8:	615a      	str	r2, [r3, #20]
 80028aa:	f7ff f87f 	bl	80019ac <ArcadeIT_SPI_Port_RW_Byte>
 80028ae:	4620      	mov	r0, r4
 80028b0:	b005      	add	sp, #20
 80028b2:	bdf0      	pop	{r4, r5, r6, r7, pc}
 80028b4:	f44f 6300 	mov.w	r3, #2048	; 0x800
 80028b8:	f2c4 0302 	movt	r3, #16386	; 0x4002
 80028bc:	f240 2500 	movw	r5, #512	; 0x200
 80028c0:	695a      	ldr	r2, [r3, #20]
 80028c2:	f022 0210 	bic.w	r2, r2, #16
 80028c6:	615a      	str	r2, [r3, #20]
 80028c8:	20ff      	movs	r0, #255	; 0xff
 80028ca:	f2c2 0500 	movt	r5, #8192	; 0x2000
 80028ce:	f7ff f86d 	bl	80019ac <ArcadeIT_SPI_Port_RW_Byte>
 80028d2:	f44f 737a 	mov.w	r3, #1000	; 0x3e8
 80028d6:	602b      	str	r3, [r5, #0]
 80028d8:	e003      	b.n	80028e2 <ArcadeIT_SDCard_Disk_Ioctl+0x8a>
 80028da:	682b      	ldr	r3, [r5, #0]
 80028dc:	2b00      	cmp	r3, #0
 80028de:	f000 808f 	beq.w	8002a00 <ArcadeIT_SDCard_Disk_Ioctl+0x1a8>
 80028e2:	20ff      	movs	r0, #255	; 0xff
 80028e4:	f7ff f862 	bl	80019ac <ArcadeIT_SPI_Port_RW_Byte>
 80028e8:	28ff      	cmp	r0, #255	; 0xff
 80028ea:	d1f6      	bne.n	80028da <ArcadeIT_SDCard_Disk_Ioctl+0x82>
 80028ec:	2400      	movs	r4, #0
 80028ee:	e7d3      	b.n	8002898 <ArcadeIT_SDCard_Disk_Ioctl+0x40>
 80028f0:	2100      	movs	r1, #0
 80028f2:	2009      	movs	r0, #9
 80028f4:	f7ff fd1c 	bl	8002330 <send_cmd>
 80028f8:	2800      	cmp	r0, #0
 80028fa:	d1cc      	bne.n	8002896 <ArcadeIT_SDCard_Disk_Ioctl+0x3e>
 80028fc:	f240 2500 	movw	r5, #512	; 0x200
 8002900:	f2c2 0500 	movt	r5, #8192	; 0x2000
 8002904:	23c8      	movs	r3, #200	; 0xc8
 8002906:	602b      	str	r3, [r5, #0]
 8002908:	e002      	b.n	8002910 <ArcadeIT_SDCard_Disk_Ioctl+0xb8>
 800290a:	682b      	ldr	r3, [r5, #0]
 800290c:	2b00      	cmp	r3, #0
 800290e:	d0c2      	beq.n	8002896 <ArcadeIT_SDCard_Disk_Ioctl+0x3e>
 8002910:	20ff      	movs	r0, #255	; 0xff
 8002912:	f7ff f84b 	bl	80019ac <ArcadeIT_SPI_Port_RW_Byte>
 8002916:	28ff      	cmp	r0, #255	; 0xff
 8002918:	d0f7      	beq.n	800290a <ArcadeIT_SDCard_Disk_Ioctl+0xb2>
 800291a:	28fe      	cmp	r0, #254	; 0xfe
 800291c:	d1bb      	bne.n	8002896 <ArcadeIT_SDCard_Disk_Ioctl+0x3e>
 800291e:	2110      	movs	r1, #16
 8002920:	4668      	mov	r0, sp
 8002922:	f7ff f865 	bl	80019f0 <ArcadeIT_SPI_Port_Read_Buffer>
 8002926:	20ff      	movs	r0, #255	; 0xff
 8002928:	f7ff f840 	bl	80019ac <ArcadeIT_SPI_Port_RW_Byte>
 800292c:	20ff      	movs	r0, #255	; 0xff
 800292e:	f7ff f83d 	bl	80019ac <ArcadeIT_SPI_Port_RW_Byte>
 8002932:	f89d 3000 	ldrb.w	r3, [sp]
 8002936:	099b      	lsrs	r3, r3, #6
 8002938:	2b01      	cmp	r3, #1
 800293a:	f000 80e7 	beq.w	8002b0c <ArcadeIT_SDCard_Disk_Ioctl+0x2b4>
 800293e:	f89d 3007 	ldrb.w	r3, [sp, #7]
 8002942:	f89d 0006 	ldrb.w	r0, [sp, #6]
 8002946:	f89d 2005 	ldrb.w	r2, [sp, #5]
 800294a:	f89d 1009 	ldrb.w	r1, [sp, #9]
 800294e:	f89d 400a 	ldrb.w	r4, [sp, #10]
 8002952:	f89d 5008 	ldrb.w	r5, [sp, #8]
 8002956:	009b      	lsls	r3, r3, #2
 8002958:	0280      	lsls	r0, r0, #10
 800295a:	f002 020f 	and.w	r2, r2, #15
 800295e:	0049      	lsls	r1, r1, #1
 8002960:	eb02 12d4 	add.w	r2, r2, r4, lsr #7
 8002964:	eb03 1395 	add.w	r3, r3, r5, lsr #6
 8002968:	f400 6040 	and.w	r0, r0, #3072	; 0xc00
 800296c:	f001 0106 	and.w	r1, r1, #6
 8002970:	4403      	add	r3, r0
 8002972:	440a      	add	r2, r1
 8002974:	3301      	adds	r3, #1
 8002976:	3a07      	subs	r2, #7
 8002978:	4093      	lsls	r3, r2
 800297a:	6033      	str	r3, [r6, #0]
 800297c:	2400      	movs	r4, #0
 800297e:	e78b      	b.n	8002898 <ArcadeIT_SDCard_Disk_Ioctl+0x40>
 8002980:	f640 6744 	movw	r7, #3652	; 0xe44
 8002984:	f2c2 0700 	movt	r7, #8192	; 0x2000
 8002988:	7839      	ldrb	r1, [r7, #0]
 800298a:	f011 0104 	ands.w	r1, r1, #4
 800298e:	d043      	beq.n	8002a18 <ArcadeIT_SDCard_Disk_Ioctl+0x1c0>
 8002990:	2100      	movs	r1, #0
 8002992:	208d      	movs	r0, #141	; 0x8d
 8002994:	f7ff fccc 	bl	8002330 <send_cmd>
 8002998:	2800      	cmp	r0, #0
 800299a:	f47f af7c 	bne.w	8002896 <ArcadeIT_SDCard_Disk_Ioctl+0x3e>
 800299e:	f240 2500 	movw	r5, #512	; 0x200
 80029a2:	20ff      	movs	r0, #255	; 0xff
 80029a4:	f2c2 0500 	movt	r5, #8192	; 0x2000
 80029a8:	f7ff f800 	bl	80019ac <ArcadeIT_SPI_Port_RW_Byte>
 80029ac:	23c8      	movs	r3, #200	; 0xc8
 80029ae:	602b      	str	r3, [r5, #0]
 80029b0:	e003      	b.n	80029ba <ArcadeIT_SDCard_Disk_Ioctl+0x162>
 80029b2:	682b      	ldr	r3, [r5, #0]
 80029b4:	2b00      	cmp	r3, #0
 80029b6:	f43f af6e 	beq.w	8002896 <ArcadeIT_SDCard_Disk_Ioctl+0x3e>
 80029ba:	20ff      	movs	r0, #255	; 0xff
 80029bc:	f7fe fff6 	bl	80019ac <ArcadeIT_SPI_Port_RW_Byte>
 80029c0:	28ff      	cmp	r0, #255	; 0xff
 80029c2:	d0f6      	beq.n	80029b2 <ArcadeIT_SDCard_Disk_Ioctl+0x15a>
 80029c4:	28fe      	cmp	r0, #254	; 0xfe
 80029c6:	f47f af66 	bne.w	8002896 <ArcadeIT_SDCard_Disk_Ioctl+0x3e>
 80029ca:	2110      	movs	r1, #16
 80029cc:	4668      	mov	r0, sp
 80029ce:	f7ff f80f 	bl	80019f0 <ArcadeIT_SPI_Port_Read_Buffer>
 80029d2:	20ff      	movs	r0, #255	; 0xff
 80029d4:	f7fe ffea 	bl	80019ac <ArcadeIT_SPI_Port_RW_Byte>
 80029d8:	20ff      	movs	r0, #255	; 0xff
 80029da:	f7fe ffe7 	bl	80019ac <ArcadeIT_SPI_Port_RW_Byte>
 80029de:	2430      	movs	r4, #48	; 0x30
 80029e0:	20ff      	movs	r0, #255	; 0xff
 80029e2:	3c01      	subs	r4, #1
 80029e4:	f7fe ffe2 	bl	80019ac <ArcadeIT_SPI_Port_RW_Byte>
 80029e8:	f014 04ff 	ands.w	r4, r4, #255	; 0xff
 80029ec:	d1f8      	bne.n	80029e0 <ArcadeIT_SDCard_Disk_Ioctl+0x188>
 80029ee:	f89d 200a 	ldrb.w	r2, [sp, #10]
 80029f2:	2310      	movs	r3, #16
 80029f4:	0912      	lsrs	r2, r2, #4
 80029f6:	4093      	lsls	r3, r2
 80029f8:	6033      	str	r3, [r6, #0]
 80029fa:	e74d      	b.n	8002898 <ArcadeIT_SDCard_Disk_Ioctl+0x40>
 80029fc:	2404      	movs	r4, #4
 80029fe:	e74b      	b.n	8002898 <ArcadeIT_SDCard_Disk_Ioctl+0x40>
 8002a00:	f44f 6300 	mov.w	r3, #2048	; 0x800
 8002a04:	f2c4 0302 	movt	r3, #16386	; 0x4002
 8002a08:	20ff      	movs	r0, #255	; 0xff
 8002a0a:	695a      	ldr	r2, [r3, #20]
 8002a0c:	f042 0210 	orr.w	r2, r2, #16
 8002a10:	615a      	str	r2, [r3, #20]
 8002a12:	f7fe ffcb 	bl	80019ac <ArcadeIT_SPI_Port_RW_Byte>
 8002a16:	e73e      	b.n	8002896 <ArcadeIT_SDCard_Disk_Ioctl+0x3e>
 8002a18:	2009      	movs	r0, #9
 8002a1a:	f7ff fc89 	bl	8002330 <send_cmd>
 8002a1e:	2800      	cmp	r0, #0
 8002a20:	f47f af39 	bne.w	8002896 <ArcadeIT_SDCard_Disk_Ioctl+0x3e>
 8002a24:	f240 2500 	movw	r5, #512	; 0x200
 8002a28:	f2c2 0500 	movt	r5, #8192	; 0x2000
 8002a2c:	23c8      	movs	r3, #200	; 0xc8
 8002a2e:	602b      	str	r3, [r5, #0]
 8002a30:	e003      	b.n	8002a3a <ArcadeIT_SDCard_Disk_Ioctl+0x1e2>
 8002a32:	682b      	ldr	r3, [r5, #0]
 8002a34:	2b00      	cmp	r3, #0
 8002a36:	f43f af2e 	beq.w	8002896 <ArcadeIT_SDCard_Disk_Ioctl+0x3e>
 8002a3a:	20ff      	movs	r0, #255	; 0xff
 8002a3c:	f7fe ffb6 	bl	80019ac <ArcadeIT_SPI_Port_RW_Byte>
 8002a40:	28ff      	cmp	r0, #255	; 0xff
 8002a42:	d0f6      	beq.n	8002a32 <ArcadeIT_SDCard_Disk_Ioctl+0x1da>
 8002a44:	28fe      	cmp	r0, #254	; 0xfe
 8002a46:	f47f af26 	bne.w	8002896 <ArcadeIT_SDCard_Disk_Ioctl+0x3e>
 8002a4a:	2110      	movs	r1, #16
 8002a4c:	4668      	mov	r0, sp
 8002a4e:	f7fe ffcf 	bl	80019f0 <ArcadeIT_SPI_Port_Read_Buffer>
 8002a52:	20ff      	movs	r0, #255	; 0xff
 8002a54:	f7fe ffaa 	bl	80019ac <ArcadeIT_SPI_Port_RW_Byte>
 8002a58:	20ff      	movs	r0, #255	; 0xff
 8002a5a:	f7fe ffa7 	bl	80019ac <ArcadeIT_SPI_Port_RW_Byte>
 8002a5e:	783b      	ldrb	r3, [r7, #0]
 8002a60:	f013 0402 	ands.w	r4, r3, #2
 8002a64:	d063      	beq.n	8002b2e <ArcadeIT_SDCard_Disk_Ioctl+0x2d6>
 8002a66:	f89d 300a 	ldrb.w	r3, [sp, #10]
 8002a6a:	f89d 100b 	ldrb.w	r1, [sp, #11]
 8002a6e:	f89d 200d 	ldrb.w	r2, [sp, #13]
 8002a72:	005b      	lsls	r3, r3, #1
 8002a74:	f003 037e 	and.w	r3, r3, #126	; 0x7e
 8002a78:	eb03 13d1 	add.w	r3, r3, r1, lsr #7
 8002a7c:	0992      	lsrs	r2, r2, #6
 8002a7e:	3301      	adds	r3, #1
 8002a80:	3a01      	subs	r2, #1
 8002a82:	4093      	lsls	r3, r2
 8002a84:	6033      	str	r3, [r6, #0]
 8002a86:	2400      	movs	r4, #0
 8002a88:	e706      	b.n	8002898 <ArcadeIT_SDCard_Disk_Ioctl+0x40>
 8002a8a:	466a      	mov	r2, sp
 8002a8c:	210b      	movs	r1, #11
 8002a8e:	2001      	movs	r0, #1
 8002a90:	f000 faca 	bl	8003028 <disk_ioctl>
 8002a94:	4604      	mov	r4, r0
 8002a96:	2800      	cmp	r0, #0
 8002a98:	f47f aefd 	bne.w	8002896 <ArcadeIT_SDCard_Disk_Ioctl+0x3e>
 8002a9c:	f89d 3000 	ldrb.w	r3, [sp]
 8002aa0:	099b      	lsrs	r3, r3, #6
 8002aa2:	d104      	bne.n	8002aae <ArcadeIT_SDCard_Disk_Ioctl+0x256>
 8002aa4:	f89d 300a 	ldrb.w	r3, [sp, #10]
 8002aa8:	065a      	lsls	r2, r3, #25
 8002aaa:	f57f aef4 	bpl.w	8002896 <ArcadeIT_SDCard_Disk_Ioctl+0x3e>
 8002aae:	e9d6 1500 	ldrd	r1, r5, [r6]
 8002ab2:	783b      	ldrb	r3, [r7, #0]
 8002ab4:	071b      	lsls	r3, r3, #28
 8002ab6:	bf58      	it	pl
 8002ab8:	0249      	lslpl	r1, r1, #9
 8002aba:	f04f 0020 	mov.w	r0, #32
 8002abe:	bf58      	it	pl
 8002ac0:	026d      	lslpl	r5, r5, #9
 8002ac2:	f7ff fc35 	bl	8002330 <send_cmd>
 8002ac6:	2800      	cmp	r0, #0
 8002ac8:	f47f aee5 	bne.w	8002896 <ArcadeIT_SDCard_Disk_Ioctl+0x3e>
 8002acc:	4629      	mov	r1, r5
 8002ace:	2021      	movs	r0, #33	; 0x21
 8002ad0:	f7ff fc2e 	bl	8002330 <send_cmd>
 8002ad4:	2800      	cmp	r0, #0
 8002ad6:	f47f aede 	bne.w	8002896 <ArcadeIT_SDCard_Disk_Ioctl+0x3e>
 8002ada:	4601      	mov	r1, r0
 8002adc:	2026      	movs	r0, #38	; 0x26
 8002ade:	f7ff fc27 	bl	8002330 <send_cmd>
 8002ae2:	2800      	cmp	r0, #0
 8002ae4:	f47f aed7 	bne.w	8002896 <ArcadeIT_SDCard_Disk_Ioctl+0x3e>
 8002ae8:	f240 2500 	movw	r5, #512	; 0x200
 8002aec:	f2c2 0500 	movt	r5, #8192	; 0x2000
 8002af0:	f247 5330 	movw	r3, #30000	; 0x7530
 8002af4:	602b      	str	r3, [r5, #0]
 8002af6:	e003      	b.n	8002b00 <ArcadeIT_SDCard_Disk_Ioctl+0x2a8>
 8002af8:	682b      	ldr	r3, [r5, #0]
 8002afa:	2b00      	cmp	r3, #0
 8002afc:	f43f aecb 	beq.w	8002896 <ArcadeIT_SDCard_Disk_Ioctl+0x3e>
 8002b00:	20ff      	movs	r0, #255	; 0xff
 8002b02:	f7fe ff53 	bl	80019ac <ArcadeIT_SPI_Port_RW_Byte>
 8002b06:	28ff      	cmp	r0, #255	; 0xff
 8002b08:	d1f6      	bne.n	8002af8 <ArcadeIT_SDCard_Disk_Ioctl+0x2a0>
 8002b0a:	e6c5      	b.n	8002898 <ArcadeIT_SDCard_Disk_Ioctl+0x40>
 8002b0c:	f89d 2007 	ldrb.w	r2, [sp, #7]
 8002b10:	f89d 1008 	ldrb.w	r1, [sp, #8]
 8002b14:	f89d 3009 	ldrb.w	r3, [sp, #9]
 8002b18:	0412      	lsls	r2, r2, #16
 8002b1a:	f402 127c 	and.w	r2, r2, #4128768	; 0x3f0000
 8002b1e:	3201      	adds	r2, #1
 8002b20:	eb03 2301 	add.w	r3, r3, r1, lsl #8
 8002b24:	4413      	add	r3, r2
 8002b26:	029b      	lsls	r3, r3, #10
 8002b28:	6033      	str	r3, [r6, #0]
 8002b2a:	2400      	movs	r4, #0
 8002b2c:	e6b4      	b.n	8002898 <ArcadeIT_SDCard_Disk_Ioctl+0x40>
 8002b2e:	f89d 100b 	ldrb.w	r1, [sp, #11]
 8002b32:	f89d 300a 	ldrb.w	r3, [sp, #10]
 8002b36:	00ca      	lsls	r2, r1, #3
 8002b38:	f002 0218 	and.w	r2, r2, #24
 8002b3c:	f3c3 0384 	ubfx	r3, r3, #2, #5
 8002b40:	eb02 1251 	add.w	r2, r2, r1, lsr #5
 8002b44:	3301      	adds	r3, #1
 8002b46:	fb02 3303 	mla	r3, r2, r3, r3
 8002b4a:	6033      	str	r3, [r6, #0]
 8002b4c:	e6a4      	b.n	8002898 <ArcadeIT_SDCard_Disk_Ioctl+0x40>
 8002b4e:	bf00      	nop

08002b50 <ArcadeIT_SDCard_Disk_Start>:
 8002b50:	b5f0      	push	{r4, r5, r6, r7, lr}
 8002b52:	f248 0114 	movw	r1, #32788	; 0x8014
 8002b56:	f5ad 5d90 	sub.w	sp, sp, #4608	; 0x1200
 8002b5a:	b083      	sub	sp, #12
 8002b5c:	f6c0 0100 	movt	r1, #2048	; 0x800
 8002b60:	2001      	movs	r0, #1
 8002b62:	f7fe fa95 	bl	8001090 <ArcadeIT_Utility_Get_String_ID>
 8002b66:	4601      	mov	r1, r0
 8002b68:	f640 400c 	movw	r0, #3084	; 0xc0c
 8002b6c:	f2c2 0000 	movt	r0, #8192	; 0x2000
 8002b70:	2201      	movs	r2, #1
 8002b72:	f001 fec3 	bl	80048fc <f_mount>
 8002b76:	4606      	mov	r6, r0
 8002b78:	2800      	cmp	r0, #0
 8002b7a:	d067      	beq.n	8002c4c <ArcadeIT_SDCard_Disk_Start+0xfc>
 8002b7c:	280d      	cmp	r0, #13
 8002b7e:	d149      	bne.n	8002c14 <ArcadeIT_SDCard_Disk_Start+0xc4>
 8002b80:	f647 757c 	movw	r5, #32636	; 0x7f7c
 8002b84:	f6c0 0500 	movt	r5, #2048	; 0x800
 8002b88:	cd0f      	ldmia	r5!, {r0, r1, r2, r3}
 8002b8a:	af02      	add	r7, sp, #8
 8002b8c:	463c      	mov	r4, r7
 8002b8e:	c40f      	stmia	r4!, {r0, r1, r2, r3}
 8002b90:	e895 0007 	ldmia.w	r5, {r0, r1, r2}
 8002b94:	f240 15fc 	movw	r5, #508	; 0x1fc
 8002b98:	f2c2 0500 	movt	r5, #8192	; 0x2000
 8002b9c:	c403      	stmia	r4!, {r0, r1}
 8002b9e:	682b      	ldr	r3, [r5, #0]
 8002ba0:	8022      	strh	r2, [r4, #0]
 8002ba2:	045c      	lsls	r4, r3, #17
 8002ba4:	f100 8095 	bmi.w	8002cd2 <ArcadeIT_SDCard_Disk_Start+0x182>
 8002ba8:	f248 0114 	movw	r1, #32788	; 0x8014
 8002bac:	f6c0 0100 	movt	r1, #2048	; 0x800
 8002bb0:	2001      	movs	r0, #1
 8002bb2:	f7fe fa6d 	bl	8001090 <ArcadeIT_Utility_Get_String_ID>
 8002bb6:	f44f 5380 	mov.w	r3, #4096	; 0x1000
 8002bba:	aa82      	add	r2, sp, #520	; 0x208
 8002bbc:	2100      	movs	r1, #0
 8002bbe:	f002 f9b3 	bl	8004f28 <f_mkfs>
 8002bc2:	f248 0128 	movw	r1, #32808	; 0x8028
 8002bc6:	f6c0 0100 	movt	r1, #2048	; 0x800
 8002bca:	f7fe fa61 	bl	8001090 <ArcadeIT_Utility_Get_String_ID>
 8002bce:	f647 7198 	movw	r1, #32664	; 0x7f98
 8002bd2:	4602      	mov	r2, r0
 8002bd4:	f6c0 0100 	movt	r1, #2048	; 0x800
 8002bd8:	4638      	mov	r0, r7
 8002bda:	f003 fd11 	bl	8006600 <siprintf>
 8002bde:	682b      	ldr	r3, [r5, #0]
 8002be0:	0458      	lsls	r0, r3, #17
 8002be2:	d502      	bpl.n	8002bea <ArcadeIT_SDCard_Disk_Start+0x9a>
 8002be4:	4638      	mov	r0, r7
 8002be6:	f7ff f8f5 	bl	8001dd4 <ArcadeIT_Serial_Port_String_Send>
 8002bea:	f248 0114 	movw	r1, #32788	; 0x8014
 8002bee:	f6c0 0100 	movt	r1, #2048	; 0x800
 8002bf2:	2001      	movs	r0, #1
 8002bf4:	f7fe fa4c 	bl	8001090 <ArcadeIT_Utility_Get_String_ID>
 8002bf8:	f001 feac 	bl	8004954 <f_chdrive>
 8002bfc:	f647 70bc 	movw	r0, #32700	; 0x7fbc
 8002c00:	f6c0 0000 	movt	r0, #2048	; 0x800
 8002c04:	f002 f85e 	bl	8004cc4 <f_setlabel>
 8002c08:	2603      	movs	r6, #3
 8002c0a:	4630      	mov	r0, r6
 8002c0c:	f50d 5d90 	add.w	sp, sp, #4608	; 0x1200
 8002c10:	b003      	add	sp, #12
 8002c12:	bdf0      	pop	{r4, r5, r6, r7, pc}
 8002c14:	f647 75e8 	movw	r5, #32744	; 0x7fe8
 8002c18:	f6c0 0500 	movt	r5, #2048	; 0x800
 8002c1c:	cd0f      	ldmia	r5!, {r0, r1, r2, r3}
 8002c1e:	ac02      	add	r4, sp, #8
 8002c20:	c40f      	stmia	r4!, {r0, r1, r2, r3}
 8002c22:	cd0f      	ldmia	r5!, {r0, r1, r2, r3}
 8002c24:	c40f      	stmia	r4!, {r0, r1, r2, r3}
 8002c26:	e895 0007 	ldmia.w	r5, {r0, r1, r2}
 8002c2a:	f240 13fc 	movw	r3, #508	; 0x1fc
 8002c2e:	f2c2 0300 	movt	r3, #8192	; 0x2000
 8002c32:	c403      	stmia	r4!, {r0, r1}
 8002c34:	681b      	ldr	r3, [r3, #0]
 8002c36:	7022      	strb	r2, [r4, #0]
 8002c38:	045b      	lsls	r3, r3, #17
 8002c3a:	d502      	bpl.n	8002c42 <ArcadeIT_SDCard_Disk_Start+0xf2>
 8002c3c:	a802      	add	r0, sp, #8
 8002c3e:	f7ff f8c9 	bl	8001dd4 <ArcadeIT_Serial_Port_String_Send>
 8002c42:	4630      	mov	r0, r6
 8002c44:	f50d 5d90 	add.w	sp, sp, #4608	; 0x1200
 8002c48:	b003      	add	sp, #12
 8002c4a:	bdf0      	pop	{r4, r5, r6, r7, pc}
 8002c4c:	f248 0114 	movw	r1, #32788	; 0x8014
 8002c50:	f6c0 0100 	movt	r1, #2048	; 0x800
 8002c54:	2001      	movs	r0, #1
 8002c56:	f7fe fa1b 	bl	8001090 <ArcadeIT_Utility_Get_String_ID>
 8002c5a:	f240 15fc 	movw	r5, #508	; 0x1fc
 8002c5e:	af02      	add	r7, sp, #8
 8002c60:	f647 71cc 	movw	r1, #32716	; 0x7fcc
 8002c64:	f2c2 0500 	movt	r5, #8192	; 0x2000
 8002c68:	4602      	mov	r2, r0
 8002c6a:	f6c0 0100 	movt	r1, #2048	; 0x800
 8002c6e:	4638      	mov	r0, r7
 8002c70:	f003 fcc6 	bl	8006600 <siprintf>
 8002c74:	682b      	ldr	r3, [r5, #0]
 8002c76:	0459      	lsls	r1, r3, #17
 8002c78:	d427      	bmi.n	8002cca <ArcadeIT_SDCard_Disk_Start+0x17a>
 8002c7a:	f248 0114 	movw	r1, #32788	; 0x8014
 8002c7e:	f6c0 0100 	movt	r1, #2048	; 0x800
 8002c82:	2001      	movs	r0, #1
 8002c84:	f7fe fa04 	bl	8001090 <ArcadeIT_Utility_Get_String_ID>
 8002c88:	aa82      	add	r2, sp, #520	; 0x208
 8002c8a:	1f39      	subs	r1, r7, #4
 8002c8c:	f001 fe7a 	bl	8004984 <f_getfree>
 8002c90:	9b82      	ldr	r3, [sp, #520]	; 0x208
 8002c92:	f857 0c04 	ldr.w	r0, [r7, #-4]
 8002c96:	895a      	ldrh	r2, [r3, #10]
 8002c98:	69db      	ldr	r3, [r3, #28]
 8002c9a:	1052      	asrs	r2, r2, #1
 8002c9c:	3b02      	subs	r3, #2
 8002c9e:	f647 714c 	movw	r1, #32588	; 0x7f4c
 8002ca2:	fb02 f303 	mul.w	r3, r2, r3
 8002ca6:	f6c0 0100 	movt	r1, #2048	; 0x800
 8002caa:	fb00 f202 	mul.w	r2, r0, r2
 8002cae:	4638      	mov	r0, r7
 8002cb0:	f003 fca6 	bl	8006600 <siprintf>
 8002cb4:	682b      	ldr	r3, [r5, #0]
 8002cb6:	045a      	lsls	r2, r3, #17
 8002cb8:	d5c3      	bpl.n	8002c42 <ArcadeIT_SDCard_Disk_Start+0xf2>
 8002cba:	4638      	mov	r0, r7
 8002cbc:	f7ff f88a 	bl	8001dd4 <ArcadeIT_Serial_Port_String_Send>
 8002cc0:	4630      	mov	r0, r6
 8002cc2:	f50d 5d90 	add.w	sp, sp, #4608	; 0x1200
 8002cc6:	b003      	add	sp, #12
 8002cc8:	bdf0      	pop	{r4, r5, r6, r7, pc}
 8002cca:	4638      	mov	r0, r7
 8002ccc:	f7ff f882 	bl	8001dd4 <ArcadeIT_Serial_Port_String_Send>
 8002cd0:	e7d3      	b.n	8002c7a <ArcadeIT_SDCard_Disk_Start+0x12a>
 8002cd2:	4638      	mov	r0, r7
 8002cd4:	f7ff f87e 	bl	8001dd4 <ArcadeIT_Serial_Port_String_Send>
 8002cd8:	e766      	b.n	8002ba8 <ArcadeIT_SDCard_Disk_Start+0x58>
 8002cda:	bf00      	nop

08002cdc <get_fattime>:
 8002cdc:	b530      	push	{r4, r5, lr}
 8002cde:	b083      	sub	sp, #12
 8002ce0:	4668      	mov	r0, sp
 8002ce2:	f7fe fe45 	bl	8001970 <ArcadeIT_RTC_TimeDate_Get>
 8002ce6:	f89d 3001 	ldrb.w	r3, [sp, #1]
 8002cea:	f89d 5000 	ldrb.w	r5, [sp]
 8002cee:	f89d 4003 	ldrb.w	r4, [sp, #3]
 8002cf2:	f89d 1004 	ldrb.w	r1, [sp, #4]
 8002cf6:	f89d 2005 	ldrb.w	r2, [sp, #5]
 8002cfa:	f89d 0002 	ldrb.w	r0, [sp, #2]
 8002cfe:	041b      	lsls	r3, r3, #16
 8002d00:	ea43 5345 	orr.w	r3, r3, r5, lsl #21
 8002d04:	ea43 23c4 	orr.w	r3, r3, r4, lsl #11
 8002d08:	ea43 1341 	orr.w	r3, r3, r1, lsl #5
 8002d0c:	ea43 0352 	orr.w	r3, r3, r2, lsr #1
 8002d10:	3014      	adds	r0, #20
 8002d12:	ea43 6040 	orr.w	r0, r3, r0, lsl #25
 8002d16:	b003      	add	sp, #12
 8002d18:	bd30      	pop	{r4, r5, pc}
 8002d1a:	bf00      	nop

08002d1c <ArcadeIT_Scheduler_Task_Init>:
 8002d1c:	f640 6348 	movw	r3, #3656	; 0xe48
 8002d20:	f2c2 0300 	movt	r3, #8192	; 0x2000
 8002d24:	2200      	movs	r2, #0
 8002d26:	e9c3 2200 	strd	r2, r2, [r3]
 8002d2a:	e9c3 2202 	strd	r2, r2, [r3, #8]
 8002d2e:	611a      	str	r2, [r3, #16]
 8002d30:	e9c3 220b 	strd	r2, r2, [r3, #44]	; 0x2c
 8002d34:	e9c3 220d 	strd	r2, r2, [r3, #52]	; 0x34
 8002d38:	63da      	str	r2, [r3, #60]	; 0x3c
 8002d3a:	e9c3 2216 	strd	r2, r2, [r3, #88]	; 0x58
 8002d3e:	e9c3 2218 	strd	r2, r2, [r3, #96]	; 0x60
 8002d42:	669a      	str	r2, [r3, #104]	; 0x68
 8002d44:	e9c3 2221 	strd	r2, r2, [r3, #132]	; 0x84
 8002d48:	e9c3 2223 	strd	r2, r2, [r3, #140]	; 0x8c
 8002d4c:	f8c3 2094 	str.w	r2, [r3, #148]	; 0x94
 8002d50:	e9c3 222c 	strd	r2, r2, [r3, #176]	; 0xb0
 8002d54:	e9c3 222e 	strd	r2, r2, [r3, #184]	; 0xb8
 8002d58:	f8c3 20c0 	str.w	r2, [r3, #192]	; 0xc0
 8002d5c:	4770      	bx	lr
 8002d5e:	bf00      	nop

08002d60 <ArcadeIT_Scheduler_Task_Set>:
 8002d60:	e92d 41f0 	stmdb	sp!, {r4, r5, r6, r7, r8, lr}
 8002d64:	f640 6748 	movw	r7, #3656	; 0xe48
 8002d68:	469e      	mov	lr, r3
 8002d6a:	f2c2 0700 	movt	r7, #8192	; 0x2000
 8002d6e:	9b06      	ldr	r3, [sp, #24]
 8002d70:	b1ba      	cbz	r2, 8002da2 <ArcadeIT_Scheduler_Task_Set+0x42>
 8002d72:	242c      	movs	r4, #44	; 0x2c
 8002d74:	fb04 7400 	mla	r4, r4, r0, r7
 8002d78:	f892 8000 	ldrb.w	r8, [r2]
 8002d7c:	f884 8014 	strb.w	r8, [r4, #20]
 8002d80:	2600      	movs	r6, #0
 8002d82:	eb00 0c80 	add.w	ip, r0, r0, lsl #2
 8002d86:	4634      	mov	r4, r6
 8002d88:	eb00 0c4c 	add.w	ip, r0, ip, lsl #1
 8002d8c:	eb0c 0504 	add.w	r5, ip, r4
 8002d90:	3506      	adds	r5, #6
 8002d92:	f852 4024 	ldr.w	r4, [r2, r4, lsl #2]
 8002d96:	f847 4025 	str.w	r4, [r7, r5, lsl #2]
 8002d9a:	3601      	adds	r6, #1
 8002d9c:	b2f4      	uxtb	r4, r6
 8002d9e:	45a0      	cmp	r8, r4
 8002da0:	d2f4      	bcs.n	8002d8c <ArcadeIT_Scheduler_Task_Set+0x2c>
 8002da2:	222c      	movs	r2, #44	; 0x2c
 8002da4:	fb02 f000 	mul.w	r0, r2, r0
 8002da8:	183a      	adds	r2, r7, r0
 8002daa:	e9c2 3302 	strd	r3, r3, [r2, #8]
 8002dae:	f847 e000 	str.w	lr, [r7, r0]
 8002db2:	2000      	movs	r0, #0
 8002db4:	6111      	str	r1, [r2, #16]
 8002db6:	6050      	str	r0, [r2, #4]
 8002db8:	f882 0028 	strb.w	r0, [r2, #40]	; 0x28
 8002dbc:	e8bd 81f0 	ldmia.w	sp!, {r4, r5, r6, r7, r8, pc}

08002dc0 <ArcadeIT_Scheduler_Update>:
 8002dc0:	b410      	push	{r4}
 8002dc2:	f640 6348 	movw	r3, #3656	; 0xe48
 8002dc6:	f2c2 0300 	movt	r3, #8192	; 0x2000
 8002dca:	691a      	ldr	r2, [r3, #16]
 8002dcc:	b11a      	cbz	r2, 8002dd6 <ArcadeIT_Scheduler_Update+0x16>
 8002dce:	f893 2028 	ldrb.w	r2, [r3, #40]	; 0x28
 8002dd2:	2a00      	cmp	r2, #0
 8002dd4:	d05d      	beq.n	8002e92 <ArcadeIT_Scheduler_Update+0xd2>
 8002dd6:	6bda      	ldr	r2, [r3, #60]	; 0x3c
 8002dd8:	b11a      	cbz	r2, 8002de2 <ArcadeIT_Scheduler_Update+0x22>
 8002dda:	f893 2054 	ldrb.w	r2, [r3, #84]	; 0x54
 8002dde:	2a00      	cmp	r2, #0
 8002de0:	d04a      	beq.n	8002e78 <ArcadeIT_Scheduler_Update+0xb8>
 8002de2:	6e9a      	ldr	r2, [r3, #104]	; 0x68
 8002de4:	b112      	cbz	r2, 8002dec <ArcadeIT_Scheduler_Update+0x2c>
 8002de6:	f893 2080 	ldrb.w	r2, [r3, #128]	; 0x80
 8002dea:	b3ba      	cbz	r2, 8002e5c <ArcadeIT_Scheduler_Update+0x9c>
 8002dec:	f8d3 2094 	ldr.w	r2, [r3, #148]	; 0x94
 8002df0:	b112      	cbz	r2, 8002df8 <ArcadeIT_Scheduler_Update+0x38>
 8002df2:	f893 20ac 	ldrb.w	r2, [r3, #172]	; 0xac
 8002df6:	b1f2      	cbz	r2, 8002e36 <ArcadeIT_Scheduler_Update+0x76>
 8002df8:	f8d3 20c0 	ldr.w	r2, [r3, #192]	; 0xc0
 8002dfc:	b1c2      	cbz	r2, 8002e30 <ArcadeIT_Scheduler_Update+0x70>
 8002dfe:	f893 20d8 	ldrb.w	r2, [r3, #216]	; 0xd8
 8002e02:	b9aa      	cbnz	r2, 8002e30 <ArcadeIT_Scheduler_Update+0x70>
 8002e04:	f8d3 20bc 	ldr.w	r2, [r3, #188]	; 0xbc
 8002e08:	3a01      	subs	r2, #1
 8002e0a:	f8c3 20bc 	str.w	r2, [r3, #188]	; 0xbc
 8002e0e:	b97a      	cbnz	r2, 8002e30 <ArcadeIT_Scheduler_Update+0x70>
 8002e10:	f8d3 10b0 	ldr.w	r1, [r3, #176]	; 0xb0
 8002e14:	2001      	movs	r0, #1
 8002e16:	f883 00d8 	strb.w	r0, [r3, #216]	; 0xd8
 8002e1a:	2900      	cmp	r1, #0
 8002e1c:	d068      	beq.n	8002ef0 <ArcadeIT_Scheduler_Update+0x130>
 8002e1e:	e9d3 042d 	ldrd	r0, r4, [r3, #180]	; 0xb4
 8002e22:	3001      	adds	r0, #1
 8002e24:	4281      	cmp	r1, r0
 8002e26:	f8c3 40bc 	str.w	r4, [r3, #188]	; 0xbc
 8002e2a:	d066      	beq.n	8002efa <ArcadeIT_Scheduler_Update+0x13a>
 8002e2c:	f8c3 00b4 	str.w	r0, [r3, #180]	; 0xb4
 8002e30:	f85d 4b04 	ldr.w	r4, [sp], #4
 8002e34:	4770      	bx	lr
 8002e36:	f8d3 2090 	ldr.w	r2, [r3, #144]	; 0x90
 8002e3a:	3a01      	subs	r2, #1
 8002e3c:	f8c3 2090 	str.w	r2, [r3, #144]	; 0x90
 8002e40:	2a00      	cmp	r2, #0
 8002e42:	d1d9      	bne.n	8002df8 <ArcadeIT_Scheduler_Update+0x38>
 8002e44:	f8d3 1084 	ldr.w	r1, [r3, #132]	; 0x84
 8002e48:	2001      	movs	r0, #1
 8002e4a:	f883 00ac 	strb.w	r0, [r3, #172]	; 0xac
 8002e4e:	2900      	cmp	r1, #0
 8002e50:	d144      	bne.n	8002edc <ArcadeIT_Scheduler_Update+0x11c>
 8002e52:	f8d3 208c 	ldr.w	r2, [r3, #140]	; 0x8c
 8002e56:	f8c3 2090 	str.w	r2, [r3, #144]	; 0x90
 8002e5a:	e7cd      	b.n	8002df8 <ArcadeIT_Scheduler_Update+0x38>
 8002e5c:	6e5a      	ldr	r2, [r3, #100]	; 0x64
 8002e5e:	3a01      	subs	r2, #1
 8002e60:	665a      	str	r2, [r3, #100]	; 0x64
 8002e62:	2a00      	cmp	r2, #0
 8002e64:	d1c2      	bne.n	8002dec <ArcadeIT_Scheduler_Update+0x2c>
 8002e66:	6d99      	ldr	r1, [r3, #88]	; 0x58
 8002e68:	2001      	movs	r0, #1
 8002e6a:	f883 0080 	strb.w	r0, [r3, #128]	; 0x80
 8002e6e:	2900      	cmp	r1, #0
 8002e70:	d12c      	bne.n	8002ecc <ArcadeIT_Scheduler_Update+0x10c>
 8002e72:	6e1a      	ldr	r2, [r3, #96]	; 0x60
 8002e74:	665a      	str	r2, [r3, #100]	; 0x64
 8002e76:	e7b9      	b.n	8002dec <ArcadeIT_Scheduler_Update+0x2c>
 8002e78:	6b9a      	ldr	r2, [r3, #56]	; 0x38
 8002e7a:	3a01      	subs	r2, #1
 8002e7c:	639a      	str	r2, [r3, #56]	; 0x38
 8002e7e:	2a00      	cmp	r2, #0
 8002e80:	d1af      	bne.n	8002de2 <ArcadeIT_Scheduler_Update+0x22>
 8002e82:	6ad9      	ldr	r1, [r3, #44]	; 0x2c
 8002e84:	2001      	movs	r0, #1
 8002e86:	f883 0054 	strb.w	r0, [r3, #84]	; 0x54
 8002e8a:	b9b9      	cbnz	r1, 8002ebc <ArcadeIT_Scheduler_Update+0xfc>
 8002e8c:	6b5a      	ldr	r2, [r3, #52]	; 0x34
 8002e8e:	639a      	str	r2, [r3, #56]	; 0x38
 8002e90:	e7a7      	b.n	8002de2 <ArcadeIT_Scheduler_Update+0x22>
 8002e92:	68da      	ldr	r2, [r3, #12]
 8002e94:	3a01      	subs	r2, #1
 8002e96:	60da      	str	r2, [r3, #12]
 8002e98:	2a00      	cmp	r2, #0
 8002e9a:	d19c      	bne.n	8002dd6 <ArcadeIT_Scheduler_Update+0x16>
 8002e9c:	6819      	ldr	r1, [r3, #0]
 8002e9e:	2001      	movs	r0, #1
 8002ea0:	f883 0028 	strb.w	r0, [r3, #40]	; 0x28
 8002ea4:	b911      	cbnz	r1, 8002eac <ArcadeIT_Scheduler_Update+0xec>
 8002ea6:	689a      	ldr	r2, [r3, #8]
 8002ea8:	60da      	str	r2, [r3, #12]
 8002eaa:	e794      	b.n	8002dd6 <ArcadeIT_Scheduler_Update+0x16>
 8002eac:	e9d3 0401 	ldrd	r0, r4, [r3, #4]
 8002eb0:	3001      	adds	r0, #1
 8002eb2:	4281      	cmp	r1, r0
 8002eb4:	60dc      	str	r4, [r3, #12]
 8002eb6:	d042      	beq.n	8002f3e <ArcadeIT_Scheduler_Update+0x17e>
 8002eb8:	6058      	str	r0, [r3, #4]
 8002eba:	e78c      	b.n	8002dd6 <ArcadeIT_Scheduler_Update+0x16>
 8002ebc:	e9d3 040c 	ldrd	r0, r4, [r3, #48]	; 0x30
 8002ec0:	3001      	adds	r0, #1
 8002ec2:	4281      	cmp	r1, r0
 8002ec4:	639c      	str	r4, [r3, #56]	; 0x38
 8002ec6:	d032      	beq.n	8002f2e <ArcadeIT_Scheduler_Update+0x16e>
 8002ec8:	6318      	str	r0, [r3, #48]	; 0x30
 8002eca:	e78a      	b.n	8002de2 <ArcadeIT_Scheduler_Update+0x22>
 8002ecc:	e9d3 0417 	ldrd	r0, r4, [r3, #92]	; 0x5c
 8002ed0:	3001      	adds	r0, #1
 8002ed2:	4281      	cmp	r1, r0
 8002ed4:	665c      	str	r4, [r3, #100]	; 0x64
 8002ed6:	d022      	beq.n	8002f1e <ArcadeIT_Scheduler_Update+0x15e>
 8002ed8:	65d8      	str	r0, [r3, #92]	; 0x5c
 8002eda:	e787      	b.n	8002dec <ArcadeIT_Scheduler_Update+0x2c>
 8002edc:	e9d3 0422 	ldrd	r0, r4, [r3, #136]	; 0x88
 8002ee0:	3001      	adds	r0, #1
 8002ee2:	4281      	cmp	r1, r0
 8002ee4:	f8c3 4090 	str.w	r4, [r3, #144]	; 0x90
 8002ee8:	d010      	beq.n	8002f0c <ArcadeIT_Scheduler_Update+0x14c>
 8002eea:	f8c3 0088 	str.w	r0, [r3, #136]	; 0x88
 8002eee:	e783      	b.n	8002df8 <ArcadeIT_Scheduler_Update+0x38>
 8002ef0:	f8d3 20b8 	ldr.w	r2, [r3, #184]	; 0xb8
 8002ef4:	f8c3 20bc 	str.w	r2, [r3, #188]	; 0xbc
 8002ef8:	e79a      	b.n	8002e30 <ArcadeIT_Scheduler_Update+0x70>
 8002efa:	e9c3 222c 	strd	r2, r2, [r3, #176]	; 0xb0
 8002efe:	e9c3 222e 	strd	r2, r2, [r3, #184]	; 0xb8
 8002f02:	f8c3 20c0 	str.w	r2, [r3, #192]	; 0xc0
 8002f06:	f883 20d8 	strb.w	r2, [r3, #216]	; 0xd8
 8002f0a:	e791      	b.n	8002e30 <ArcadeIT_Scheduler_Update+0x70>
 8002f0c:	e9c3 2221 	strd	r2, r2, [r3, #132]	; 0x84
 8002f10:	e9c3 2223 	strd	r2, r2, [r3, #140]	; 0x8c
 8002f14:	f8c3 2094 	str.w	r2, [r3, #148]	; 0x94
 8002f18:	f883 20ac 	strb.w	r2, [r3, #172]	; 0xac
 8002f1c:	e76c      	b.n	8002df8 <ArcadeIT_Scheduler_Update+0x38>
 8002f1e:	e9c3 2216 	strd	r2, r2, [r3, #88]	; 0x58
 8002f22:	e9c3 2218 	strd	r2, r2, [r3, #96]	; 0x60
 8002f26:	669a      	str	r2, [r3, #104]	; 0x68
 8002f28:	f883 2080 	strb.w	r2, [r3, #128]	; 0x80
 8002f2c:	e75e      	b.n	8002dec <ArcadeIT_Scheduler_Update+0x2c>
 8002f2e:	e9c3 220b 	strd	r2, r2, [r3, #44]	; 0x2c
 8002f32:	e9c3 220d 	strd	r2, r2, [r3, #52]	; 0x34
 8002f36:	63da      	str	r2, [r3, #60]	; 0x3c
 8002f38:	f883 2054 	strb.w	r2, [r3, #84]	; 0x54
 8002f3c:	e751      	b.n	8002de2 <ArcadeIT_Scheduler_Update+0x22>
 8002f3e:	e9c3 2200 	strd	r2, r2, [r3]
 8002f42:	e9c3 2202 	strd	r2, r2, [r3, #8]
 8002f46:	611a      	str	r2, [r3, #16]
 8002f48:	f883 2028 	strb.w	r2, [r3, #40]	; 0x28
 8002f4c:	e743      	b.n	8002dd6 <ArcadeIT_Scheduler_Update+0x16>
 8002f4e:	bf00      	nop

08002f50 <ArcadeIT_Scheduler_Run>:
 8002f50:	b570      	push	{r4, r5, r6, lr}
 8002f52:	f640 6460 	movw	r4, #3680	; 0xe60
 8002f56:	f2c2 0400 	movt	r4, #8192	; 0x2000
 8002f5a:	2600      	movs	r6, #0
 8002f5c:	f104 05dc 	add.w	r5, r4, #220	; 0xdc
 8002f60:	7c23      	ldrb	r3, [r4, #16]
 8002f62:	b123      	cbz	r3, 8002f6e <ArcadeIT_Scheduler_Run+0x1e>
 8002f64:	f854 3c08 	ldr.w	r3, [r4, #-8]
 8002f68:	4620      	mov	r0, r4
 8002f6a:	4798      	blx	r3
 8002f6c:	7426      	strb	r6, [r4, #16]
 8002f6e:	342c      	adds	r4, #44	; 0x2c
 8002f70:	42ac      	cmp	r4, r5
 8002f72:	d1f5      	bne.n	8002f60 <ArcadeIT_Scheduler_Run+0x10>
 8002f74:	bd70      	pop	{r4, r5, r6, pc}
 8002f76:	bf00      	nop

08002f78 <disk_status>:
 8002f78:	2803      	cmp	r0, #3
 8002f7a:	d809      	bhi.n	8002f90 <disk_status+0x18>
 8002f7c:	e8df f000 	tbb	[pc, r0]
 8002f80:	02020406 	.word	0x02020406
 8002f84:	2000      	movs	r0, #0
 8002f86:	4770      	bx	lr
 8002f88:	f7ff bb3a 	b.w	8002600 <ArcadeIT_SDCard_Disk_Status>
 8002f8c:	f7ff b8e4 	b.w	8002158 <ArcadeIT_RAMDisk_Status>
 8002f90:	2001      	movs	r0, #1
 8002f92:	4770      	bx	lr

08002f94 <disk_initialize>:
 8002f94:	2803      	cmp	r0, #3
 8002f96:	d809      	bhi.n	8002fac <disk_initialize+0x18>
 8002f98:	e8df f000 	tbb	[pc, r0]
 8002f9c:	02020406 	.word	0x02020406
 8002fa0:	2000      	movs	r0, #0
 8002fa2:	4770      	bx	lr
 8002fa4:	f7ff ba48 	b.w	8002438 <ArcadeIT_SDCard_Disk_Initialize>
 8002fa8:	f7ff b8c2 	b.w	8002130 <ArcadeIT_RAMDisk_Initialize>
 8002fac:	2001      	movs	r0, #1
 8002fae:	4770      	bx	lr

08002fb0 <disk_read>:
 8002fb0:	b410      	push	{r4}
 8002fb2:	460c      	mov	r4, r1
 8002fb4:	4611      	mov	r1, r2
 8002fb6:	2803      	cmp	r0, #3
 8002fb8:	d813      	bhi.n	8002fe2 <disk_read+0x32>
 8002fba:	e8df f000 	tbb	[pc, r0]
 8002fbe:	060c      	.short	0x060c
 8002fc0:	0202      	.short	0x0202
 8002fc2:	2000      	movs	r0, #0
 8002fc4:	f85d 4b04 	ldr.w	r4, [sp], #4
 8002fc8:	4770      	bx	lr
 8002fca:	4620      	mov	r0, r4
 8002fcc:	461a      	mov	r2, r3
 8002fce:	f85d 4b04 	ldr.w	r4, [sp], #4
 8002fd2:	f7ff bb1b 	b.w	800260c <ArcadeIT_SDCard_Disk_Read>
 8002fd6:	4620      	mov	r0, r4
 8002fd8:	461a      	mov	r2, r3
 8002fda:	f85d 4b04 	ldr.w	r4, [sp], #4
 8002fde:	f7ff b8c1 	b.w	8002164 <ArcadeIT_RAMDisk_Read>
 8002fe2:	2004      	movs	r0, #4
 8002fe4:	f85d 4b04 	ldr.w	r4, [sp], #4
 8002fe8:	4770      	bx	lr
 8002fea:	bf00      	nop

08002fec <disk_write>:
 8002fec:	b410      	push	{r4}
 8002fee:	460c      	mov	r4, r1
 8002ff0:	4611      	mov	r1, r2
 8002ff2:	2803      	cmp	r0, #3
 8002ff4:	d813      	bhi.n	800301e <disk_write+0x32>
 8002ff6:	e8df f000 	tbb	[pc, r0]
 8002ffa:	060c      	.short	0x060c
 8002ffc:	0202      	.short	0x0202
 8002ffe:	2000      	movs	r0, #0
 8003000:	f85d 4b04 	ldr.w	r4, [sp], #4
 8003004:	4770      	bx	lr
 8003006:	4620      	mov	r0, r4
 8003008:	461a      	mov	r2, r3
 800300a:	f85d 4b04 	ldr.w	r4, [sp], #4
 800300e:	f7ff bb75 	b.w	80026fc <ArcadeIT_SDCard_Disk_Write>
 8003012:	4620      	mov	r0, r4
 8003014:	461a      	mov	r2, r3
 8003016:	f85d 4b04 	ldr.w	r4, [sp], #4
 800301a:	f7ff b8b5 	b.w	8002188 <ArcadeIT_RAMDisk_Write>
 800301e:	2004      	movs	r0, #4
 8003020:	f85d 4b04 	ldr.w	r4, [sp], #4
 8003024:	4770      	bx	lr
 8003026:	bf00      	nop

08003028 <disk_ioctl>:
 8003028:	460b      	mov	r3, r1
 800302a:	2803      	cmp	r0, #3
 800302c:	d80d      	bhi.n	800304a <disk_ioctl+0x22>
 800302e:	e8df f000 	tbb	[pc, r0]
 8003032:	0408      	.short	0x0408
 8003034:	0202      	.short	0x0202
 8003036:	2000      	movs	r0, #0
 8003038:	4770      	bx	lr
 800303a:	4611      	mov	r1, r2
 800303c:	4618      	mov	r0, r3
 800303e:	f7ff bc0b 	b.w	8002858 <ArcadeIT_SDCard_Disk_Ioctl>
 8003042:	4611      	mov	r1, r2
 8003044:	4618      	mov	r0, r3
 8003046:	f7ff b8b3 	b.w	80021b0 <ArcadeIT_RAMDisk_Ioctl>
 800304a:	2004      	movs	r0, #4
 800304c:	4770      	bx	lr
 800304e:	bf00      	nop

08003050 <get_ldnumber>:
 8003050:	f8d0 c000 	ldr.w	ip, [r0]
 8003054:	f1bc 0f00 	cmp.w	ip, #0
 8003058:	d04f      	beq.n	80030fa <get_ldnumber+0xaa>
 800305a:	e92d 41f0 	stmdb	sp!, {r4, r5, r6, r7, r8, lr}
 800305e:	4686      	mov	lr, r0
 8003060:	4667      	mov	r7, ip
 8003062:	e001      	b.n	8003068 <get_ldnumber+0x18>
 8003064:	2b3a      	cmp	r3, #58	; 0x3a
 8003066:	d00a      	beq.n	800307e <get_ldnumber+0x2e>
 8003068:	f817 3b01 	ldrb.w	r3, [r7], #1
 800306c:	2b1f      	cmp	r3, #31
 800306e:	d8f9      	bhi.n	8003064 <get_ldnumber+0x14>
 8003070:	f240 2318 	movw	r3, #536	; 0x218
 8003074:	f2c2 0300 	movt	r3, #8192	; 0x2000
 8003078:	7818      	ldrb	r0, [r3, #0]
 800307a:	e8bd 81f0 	ldmia.w	sp!, {r4, r5, r6, r7, r8, pc}
 800307e:	f89c 0000 	ldrb.w	r0, [ip]
 8003082:	f1a0 0330 	sub.w	r3, r0, #48	; 0x30
 8003086:	b2da      	uxtb	r2, r3
 8003088:	2a09      	cmp	r2, #9
 800308a:	d803      	bhi.n	8003094 <get_ldnumber+0x44>
 800308c:	f10c 0202 	add.w	r2, ip, #2
 8003090:	4297      	cmp	r7, r2
 8003092:	d027      	beq.n	80030e4 <get_ldnumber+0x94>
 8003094:	f647 7144 	movw	r1, #32580	; 0x7f44
 8003098:	f6c0 0100 	movt	r1, #2048	; 0x800
 800309c:	f04f 0802 	mov.w	r8, #2
 80030a0:	2000      	movs	r0, #0
 80030a2:	4664      	mov	r4, ip
 80030a4:	e001      	b.n	80030aa <get_ldnumber+0x5a>
 80030a6:	429a      	cmp	r2, r3
 80030a8:	d113      	bne.n	80030d2 <get_ldnumber+0x82>
 80030aa:	f811 3b01 	ldrb.w	r3, [r1], #1
 80030ae:	f814 2b01 	ldrb.w	r2, [r4], #1
 80030b2:	f1a3 0661 	sub.w	r6, r3, #97	; 0x61
 80030b6:	2e19      	cmp	r6, #25
 80030b8:	f1a2 0561 	sub.w	r5, r2, #97	; 0x61
 80030bc:	bf9c      	itt	ls
 80030be:	3b20      	subls	r3, #32
 80030c0:	b2db      	uxtbls	r3, r3
 80030c2:	2d19      	cmp	r5, #25
 80030c4:	bf9c      	itt	ls
 80030c6:	3a20      	subls	r2, #32
 80030c8:	b2d2      	uxtbls	r2, r2
 80030ca:	2b00      	cmp	r3, #0
 80030cc:	d1eb      	bne.n	80030a6 <get_ldnumber+0x56>
 80030ce:	42a7      	cmp	r7, r4
 80030d0:	d00b      	beq.n	80030ea <get_ldnumber+0x9a>
 80030d2:	2001      	movs	r0, #1
 80030d4:	f248 31dc 	movw	r1, #33756	; 0x83dc
 80030d8:	4580      	cmp	r8, r0
 80030da:	f6c0 0100 	movt	r1, #2048	; 0x800
 80030de:	d008      	beq.n	80030f2 <get_ldnumber+0xa2>
 80030e0:	4680      	mov	r8, r0
 80030e2:	e7de      	b.n	80030a2 <get_ldnumber+0x52>
 80030e4:	2b01      	cmp	r3, #1
 80030e6:	4618      	mov	r0, r3
 80030e8:	dc03      	bgt.n	80030f2 <get_ldnumber+0xa2>
 80030ea:	f8ce 7000 	str.w	r7, [lr]
 80030ee:	e8bd 81f0 	ldmia.w	sp!, {r4, r5, r6, r7, r8, pc}
 80030f2:	f04f 30ff 	mov.w	r0, #4294967295
 80030f6:	e8bd 81f0 	ldmia.w	sp!, {r4, r5, r6, r7, r8, pc}
 80030fa:	f04f 30ff 	mov.w	r0, #4294967295
 80030fe:	4770      	bx	lr

08003100 <sync_fs>:
 8003100:	b5f8      	push	{r3, r4, r5, r6, r7, lr}
 8003102:	78c3      	ldrb	r3, [r0, #3]
 8003104:	4604      	mov	r4, r0
 8003106:	b95b      	cbnz	r3, 8003120 <sync_fs+0x20>
 8003108:	7823      	ldrb	r3, [r4, #0]
 800310a:	2b03      	cmp	r3, #3
 800310c:	d023      	beq.n	8003156 <sync_fs+0x56>
 800310e:	2200      	movs	r2, #0
 8003110:	7860      	ldrb	r0, [r4, #1]
 8003112:	4611      	mov	r1, r2
 8003114:	f7ff ff88 	bl	8003028 <disk_ioctl>
 8003118:	3000      	adds	r0, #0
 800311a:	bf18      	it	ne
 800311c:	2001      	movne	r0, #1
 800311e:	bdf8      	pop	{r3, r4, r5, r6, r7, pc}
 8003120:	f100 0538 	add.w	r5, r0, #56	; 0x38
 8003124:	6b42      	ldr	r2, [r0, #52]	; 0x34
 8003126:	7840      	ldrb	r0, [r0, #1]
 8003128:	4629      	mov	r1, r5
 800312a:	2301      	movs	r3, #1
 800312c:	f7ff ff5e 	bl	8002fec <disk_write>
 8003130:	2800      	cmp	r0, #0
 8003132:	d156      	bne.n	80031e2 <sync_fs+0xe2>
 8003134:	6b61      	ldr	r1, [r4, #52]	; 0x34
 8003136:	6aa3      	ldr	r3, [r4, #40]	; 0x28
 8003138:	6a22      	ldr	r2, [r4, #32]
 800313a:	70e0      	strb	r0, [r4, #3]
 800313c:	1acb      	subs	r3, r1, r3
 800313e:	4293      	cmp	r3, r2
 8003140:	d2e2      	bcs.n	8003108 <sync_fs+0x8>
 8003142:	78a3      	ldrb	r3, [r4, #2]
 8003144:	2b02      	cmp	r3, #2
 8003146:	d1df      	bne.n	8003108 <sync_fs+0x8>
 8003148:	440a      	add	r2, r1
 800314a:	2301      	movs	r3, #1
 800314c:	4629      	mov	r1, r5
 800314e:	7860      	ldrb	r0, [r4, #1]
 8003150:	f7ff ff4c 	bl	8002fec <disk_write>
 8003154:	e7d8      	b.n	8003108 <sync_fs+0x8>
 8003156:	7925      	ldrb	r5, [r4, #4]
 8003158:	2d01      	cmp	r5, #1
 800315a:	d1d8      	bne.n	800310e <sync_fs+0xe>
 800315c:	f104 0638 	add.w	r6, r4, #56	; 0x38
 8003160:	f44f 7200 	mov.w	r2, #512	; 0x200
 8003164:	2100      	movs	r1, #0
 8003166:	4630      	mov	r0, r6
 8003168:	f002 fde5 	bl	8005d36 <memset>
 800316c:	e9d4 2104 	ldrd	r2, r1, [r4, #16]
 8003170:	2300      	movs	r3, #0
 8003172:	0a08      	lsrs	r0, r1, #8
 8003174:	f361 0307 	bfi	r3, r1, #0, #8
 8003178:	0c0f      	lsrs	r7, r1, #16
 800317a:	f360 230f 	bfi	r3, r0, #8, #8
 800317e:	2000      	movs	r0, #0
 8003180:	f362 0007 	bfi	r0, r2, #0, #8
 8003184:	f367 4317 	bfi	r3, r7, #16, #8
 8003188:	0e09      	lsrs	r1, r1, #24
 800318a:	0a17      	lsrs	r7, r2, #8
 800318c:	f361 631f 	bfi	r3, r1, #24, #8
 8003190:	f367 200f 	bfi	r0, r7, #8, #8
 8003194:	0c11      	lsrs	r1, r2, #16
 8003196:	f361 4017 	bfi	r0, r1, #16, #8
 800319a:	0e12      	lsrs	r2, r2, #24
 800319c:	6a61      	ldr	r1, [r4, #36]	; 0x24
 800319e:	f8c4 3220 	str.w	r3, [r4, #544]	; 0x220
 80031a2:	f362 601f 	bfi	r0, r2, #24, #8
 80031a6:	f245 2c52 	movw	ip, #21074	; 0x5252
 80031aa:	f247 2772 	movw	r7, #29298	; 0x7272
 80031ae:	1c4a      	adds	r2, r1, #1
 80031b0:	462b      	mov	r3, r5
 80031b2:	f2c4 1c61 	movt	ip, #16737	; 0x4161
 80031b6:	f8c4 0224 	str.w	r0, [r4, #548]	; 0x224
 80031ba:	f2c6 1741 	movt	r7, #24897	; 0x6141
 80031be:	20aa      	movs	r0, #170	; 0xaa
 80031c0:	2555      	movs	r5, #85	; 0x55
 80031c2:	f884 0237 	strb.w	r0, [r4, #567]	; 0x237
 80031c6:	4631      	mov	r1, r6
 80031c8:	6362      	str	r2, [r4, #52]	; 0x34
 80031ca:	f8c4 c038 	str.w	ip, [r4, #56]	; 0x38
 80031ce:	f8c4 721c 	str.w	r7, [r4, #540]	; 0x21c
 80031d2:	f884 5236 	strb.w	r5, [r4, #566]	; 0x236
 80031d6:	7860      	ldrb	r0, [r4, #1]
 80031d8:	f7ff ff08 	bl	8002fec <disk_write>
 80031dc:	2300      	movs	r3, #0
 80031de:	7123      	strb	r3, [r4, #4]
 80031e0:	e795      	b.n	800310e <sync_fs+0xe>
 80031e2:	2001      	movs	r0, #1
 80031e4:	bdf8      	pop	{r3, r4, r5, r6, r7, pc}
 80031e6:	bf00      	nop

080031e8 <move_window.part.4>:
 80031e8:	b570      	push	{r4, r5, r6, lr}
 80031ea:	78c3      	ldrb	r3, [r0, #3]
 80031ec:	4604      	mov	r4, r0
 80031ee:	460d      	mov	r5, r1
 80031f0:	7840      	ldrb	r0, [r0, #1]
 80031f2:	f104 0638 	add.w	r6, r4, #56	; 0x38
 80031f6:	b183      	cbz	r3, 800321a <move_window.part.4+0x32>
 80031f8:	2301      	movs	r3, #1
 80031fa:	6b62      	ldr	r2, [r4, #52]	; 0x34
 80031fc:	4631      	mov	r1, r6
 80031fe:	f7ff fef5 	bl	8002fec <disk_write>
 8003202:	b9c0      	cbnz	r0, 8003236 <move_window.part.4+0x4e>
 8003204:	6b61      	ldr	r1, [r4, #52]	; 0x34
 8003206:	6aa3      	ldr	r3, [r4, #40]	; 0x28
 8003208:	6a22      	ldr	r2, [r4, #32]
 800320a:	70e0      	strb	r0, [r4, #3]
 800320c:	1acb      	subs	r3, r1, r3
 800320e:	4293      	cmp	r3, r2
 8003210:	7860      	ldrb	r0, [r4, #1]
 8003212:	d202      	bcs.n	800321a <move_window.part.4+0x32>
 8003214:	78a3      	ldrb	r3, [r4, #2]
 8003216:	2b02      	cmp	r3, #2
 8003218:	d00f      	beq.n	800323a <move_window.part.4+0x52>
 800321a:	462a      	mov	r2, r5
 800321c:	4631      	mov	r1, r6
 800321e:	2301      	movs	r3, #1
 8003220:	f7ff fec6 	bl	8002fb0 <disk_read>
 8003224:	2800      	cmp	r0, #0
 8003226:	bf18      	it	ne
 8003228:	f04f 35ff 	movne.w	r5, #4294967295
 800322c:	6365      	str	r5, [r4, #52]	; 0x34
 800322e:	bf14      	ite	ne
 8003230:	2001      	movne	r0, #1
 8003232:	2000      	moveq	r0, #0
 8003234:	bd70      	pop	{r4, r5, r6, pc}
 8003236:	2001      	movs	r0, #1
 8003238:	bd70      	pop	{r4, r5, r6, pc}
 800323a:	440a      	add	r2, r1
 800323c:	2301      	movs	r3, #1
 800323e:	4631      	mov	r1, r6
 8003240:	f7ff fed4 	bl	8002fec <disk_write>
 8003244:	7860      	ldrb	r0, [r4, #1]
 8003246:	e7e8      	b.n	800321a <move_window.part.4+0x32>

08003248 <dir_clear>:
 8003248:	b5f8      	push	{r3, r4, r5, r6, r7, lr}
 800324a:	78c3      	ldrb	r3, [r0, #3]
 800324c:	4605      	mov	r5, r0
 800324e:	460e      	mov	r6, r1
 8003250:	f100 0738 	add.w	r7, r0, #56	; 0x38
 8003254:	bb33      	cbnz	r3, 80032a4 <dir_clear+0x5c>
 8003256:	69ea      	ldr	r2, [r5, #28]
 8003258:	1eb3      	subs	r3, r6, #2
 800325a:	3a02      	subs	r2, #2
 800325c:	4293      	cmp	r3, r2
 800325e:	bf3b      	ittet	cc
 8003260:	896e      	ldrhcc	r6, [r5, #10]
 8003262:	6b2a      	ldrcc	r2, [r5, #48]	; 0x30
 8003264:	2600      	movcs	r6, #0
 8003266:	fb03 2606 	mlacc	r6, r3, r6, r2
 800326a:	636e      	str	r6, [r5, #52]	; 0x34
 800326c:	f44f 7200 	mov.w	r2, #512	; 0x200
 8003270:	2100      	movs	r1, #0
 8003272:	4638      	mov	r0, r7
 8003274:	f002 fd5f 	bl	8005d36 <memset>
 8003278:	8968      	ldrh	r0, [r5, #10]
 800327a:	4604      	mov	r4, r0
 800327c:	b170      	cbz	r0, 800329c <dir_clear+0x54>
 800327e:	2400      	movs	r4, #0
 8003280:	e003      	b.n	800328a <dir_clear+0x42>
 8003282:	8968      	ldrh	r0, [r5, #10]
 8003284:	3401      	adds	r4, #1
 8003286:	42a0      	cmp	r0, r4
 8003288:	d908      	bls.n	800329c <dir_clear+0x54>
 800328a:	2301      	movs	r3, #1
 800328c:	1932      	adds	r2, r6, r4
 800328e:	4639      	mov	r1, r7
 8003290:	7868      	ldrb	r0, [r5, #1]
 8003292:	f7ff feab 	bl	8002fec <disk_write>
 8003296:	2800      	cmp	r0, #0
 8003298:	d0f3      	beq.n	8003282 <dir_clear+0x3a>
 800329a:	8968      	ldrh	r0, [r5, #10]
 800329c:	1a20      	subs	r0, r4, r0
 800329e:	bf18      	it	ne
 80032a0:	2001      	movne	r0, #1
 80032a2:	bdf8      	pop	{r3, r4, r5, r6, r7, pc}
 80032a4:	6b42      	ldr	r2, [r0, #52]	; 0x34
 80032a6:	7840      	ldrb	r0, [r0, #1]
 80032a8:	2301      	movs	r3, #1
 80032aa:	4639      	mov	r1, r7
 80032ac:	f7ff fe9e 	bl	8002fec <disk_write>
 80032b0:	b980      	cbnz	r0, 80032d4 <dir_clear+0x8c>
 80032b2:	6b69      	ldr	r1, [r5, #52]	; 0x34
 80032b4:	6aab      	ldr	r3, [r5, #40]	; 0x28
 80032b6:	6a2a      	ldr	r2, [r5, #32]
 80032b8:	70e8      	strb	r0, [r5, #3]
 80032ba:	1acb      	subs	r3, r1, r3
 80032bc:	4293      	cmp	r3, r2
 80032be:	d2ca      	bcs.n	8003256 <dir_clear+0xe>
 80032c0:	78ab      	ldrb	r3, [r5, #2]
 80032c2:	2b02      	cmp	r3, #2
 80032c4:	d1c7      	bne.n	8003256 <dir_clear+0xe>
 80032c6:	440a      	add	r2, r1
 80032c8:	2301      	movs	r3, #1
 80032ca:	4639      	mov	r1, r7
 80032cc:	7868      	ldrb	r0, [r5, #1]
 80032ce:	f7ff fe8d 	bl	8002fec <disk_write>
 80032d2:	e7c0      	b.n	8003256 <dir_clear+0xe>
 80032d4:	2001      	movs	r0, #1
 80032d6:	bdf8      	pop	{r3, r4, r5, r6, r7, pc}

080032d8 <put_fat.part.6>:
 80032d8:	e92d 47f0 	stmdb	sp!, {r4, r5, r6, r7, r8, r9, sl, lr}
 80032dc:	7806      	ldrb	r6, [r0, #0]
 80032de:	2e02      	cmp	r6, #2
 80032e0:	4604      	mov	r4, r0
 80032e2:	460d      	mov	r5, r1
 80032e4:	4617      	mov	r7, r2
 80032e6:	d079      	beq.n	80033dc <put_fat.part.6+0x104>
 80032e8:	2e03      	cmp	r6, #3
 80032ea:	d052      	beq.n	8003392 <put_fat.part.6+0xba>
 80032ec:	2e01      	cmp	r6, #1
 80032ee:	d002      	beq.n	80032f6 <put_fat.part.6+0x1e>
 80032f0:	2002      	movs	r0, #2
 80032f2:	e8bd 87f0 	ldmia.w	sp!, {r4, r5, r6, r7, r8, r9, sl, pc}
 80032f6:	6a83      	ldr	r3, [r0, #40]	; 0x28
 80032f8:	6b42      	ldr	r2, [r0, #52]	; 0x34
 80032fa:	eb01 0851 	add.w	r8, r1, r1, lsr #1
 80032fe:	eb03 2a58 	add.w	sl, r3, r8, lsr #9
 8003302:	4592      	cmp	sl, r2
 8003304:	f100 0938 	add.w	r9, r0, #56	; 0x38
 8003308:	f040 80c0 	bne.w	800348c <put_fat.part.6+0x1b4>
 800330c:	f108 0601 	add.w	r6, r8, #1
 8003310:	f015 0501 	ands.w	r5, r5, #1
 8003314:	f3c8 0808 	ubfx	r8, r8, #0, #9
 8003318:	ea4f 2156 	mov.w	r1, r6, lsr #9
 800331c:	f000 80d4 	beq.w	80034c8 <put_fat.part.6+0x1f0>
 8003320:	f819 3008 	ldrb.w	r3, [r9, r8]
 8003324:	f003 030f 	and.w	r3, r3, #15
 8003328:	ea43 1307 	orr.w	r3, r3, r7, lsl #4
 800332c:	f809 3008 	strb.w	r3, [r9, r8]
 8003330:	6aa3      	ldr	r3, [r4, #40]	; 0x28
 8003332:	6b62      	ldr	r2, [r4, #52]	; 0x34
 8003334:	eb01 0803 	add.w	r8, r1, r3
 8003338:	4590      	cmp	r8, r2
 800333a:	f04f 0301 	mov.w	r3, #1
 800333e:	70e3      	strb	r3, [r4, #3]
 8003340:	f000 80e2 	beq.w	8003508 <put_fat.part.6+0x230>
 8003344:	2301      	movs	r3, #1
 8003346:	4649      	mov	r1, r9
 8003348:	7860      	ldrb	r0, [r4, #1]
 800334a:	f7ff fe4f 	bl	8002fec <disk_write>
 800334e:	2800      	cmp	r0, #0
 8003350:	f040 8099 	bne.w	8003486 <put_fat.part.6+0x1ae>
 8003354:	6b61      	ldr	r1, [r4, #52]	; 0x34
 8003356:	6aa3      	ldr	r3, [r4, #40]	; 0x28
 8003358:	6a22      	ldr	r2, [r4, #32]
 800335a:	70e0      	strb	r0, [r4, #3]
 800335c:	1acb      	subs	r3, r1, r3
 800335e:	4293      	cmp	r3, r2
 8003360:	7860      	ldrb	r0, [r4, #1]
 8003362:	d203      	bcs.n	800336c <put_fat.part.6+0x94>
 8003364:	78a3      	ldrb	r3, [r4, #2]
 8003366:	2b02      	cmp	r3, #2
 8003368:	f000 80e0 	beq.w	800352c <put_fat.part.6+0x254>
 800336c:	2301      	movs	r3, #1
 800336e:	4642      	mov	r2, r8
 8003370:	4649      	mov	r1, r9
 8003372:	f7ff fe1d 	bl	8002fb0 <disk_read>
 8003376:	2800      	cmp	r0, #0
 8003378:	f040 8082 	bne.w	8003480 <put_fat.part.6+0x1a8>
 800337c:	f3c6 0608 	ubfx	r6, r6, #0, #9
 8003380:	44b1      	add	r9, r6
 8003382:	f8c4 8034 	str.w	r8, [r4, #52]	; 0x34
 8003386:	2d00      	cmp	r5, #0
 8003388:	f000 80ad 	beq.w	80034e6 <put_fat.part.6+0x20e>
 800338c:	f3c7 1707 	ubfx	r7, r7, #4, #8
 8003390:	e0b0      	b.n	80034f4 <put_fat.part.6+0x21c>
 8003392:	6a83      	ldr	r3, [r0, #40]	; 0x28
 8003394:	6b42      	ldr	r2, [r0, #52]	; 0x34
 8003396:	eb03 18d1 	add.w	r8, r3, r1, lsr #7
 800339a:	4590      	cmp	r8, r2
 800339c:	f100 0638 	add.w	r6, r0, #56	; 0x38
 80033a0:	d14e      	bne.n	8003440 <put_fat.part.6+0x168>
 80033a2:	00ad      	lsls	r5, r5, #2
 80033a4:	f405 75fe 	and.w	r5, r5, #508	; 0x1fc
 80033a8:	1973      	adds	r3, r6, r5
 80033aa:	f027 4770 	bic.w	r7, r7, #4026531840	; 0xf0000000
 80033ae:	885a      	ldrh	r2, [r3, #2]
 80033b0:	0412      	lsls	r2, r2, #16
 80033b2:	f002 4270 	and.w	r2, r2, #4026531840	; 0xf0000000
 80033b6:	433a      	orrs	r2, r7
 80033b8:	2300      	movs	r3, #0
 80033ba:	0a11      	lsrs	r1, r2, #8
 80033bc:	f362 0307 	bfi	r3, r2, #0, #8
 80033c0:	f361 230f 	bfi	r3, r1, #8, #8
 80033c4:	0c11      	lsrs	r1, r2, #16
 80033c6:	f361 4317 	bfi	r3, r1, #16, #8
 80033ca:	0e12      	lsrs	r2, r2, #24
 80033cc:	f362 631f 	bfi	r3, r2, #24, #8
 80033d0:	5173      	str	r3, [r6, r5]
 80033d2:	2201      	movs	r2, #1
 80033d4:	70e2      	strb	r2, [r4, #3]
 80033d6:	2000      	movs	r0, #0
 80033d8:	e8bd 87f0 	ldmia.w	sp!, {r4, r5, r6, r7, r8, r9, sl, pc}
 80033dc:	6a86      	ldr	r6, [r0, #40]	; 0x28
 80033de:	6b42      	ldr	r2, [r0, #52]	; 0x34
 80033e0:	eb06 2611 	add.w	r6, r6, r1, lsr #8
 80033e4:	4296      	cmp	r6, r2
 80033e6:	f100 0838 	add.w	r8, r0, #56	; 0x38
 80033ea:	d01a      	beq.n	8003422 <put_fat.part.6+0x14a>
 80033ec:	78c3      	ldrb	r3, [r0, #3]
 80033ee:	7840      	ldrb	r0, [r0, #1]
 80033f0:	b183      	cbz	r3, 8003414 <put_fat.part.6+0x13c>
 80033f2:	2301      	movs	r3, #1
 80033f4:	4641      	mov	r1, r8
 80033f6:	f7ff fdf9 	bl	8002fec <disk_write>
 80033fa:	2800      	cmp	r0, #0
 80033fc:	d143      	bne.n	8003486 <put_fat.part.6+0x1ae>
 80033fe:	6b61      	ldr	r1, [r4, #52]	; 0x34
 8003400:	6aa3      	ldr	r3, [r4, #40]	; 0x28
 8003402:	6a22      	ldr	r2, [r4, #32]
 8003404:	70e0      	strb	r0, [r4, #3]
 8003406:	1acb      	subs	r3, r1, r3
 8003408:	4293      	cmp	r3, r2
 800340a:	d202      	bcs.n	8003412 <put_fat.part.6+0x13a>
 800340c:	78a3      	ldrb	r3, [r4, #2]
 800340e:	2b02      	cmp	r3, #2
 8003410:	d07e      	beq.n	8003510 <put_fat.part.6+0x238>
 8003412:	7860      	ldrb	r0, [r4, #1]
 8003414:	2301      	movs	r3, #1
 8003416:	4632      	mov	r2, r6
 8003418:	4641      	mov	r1, r8
 800341a:	f7ff fdc9 	bl	8002fb0 <disk_read>
 800341e:	bb78      	cbnz	r0, 8003480 <put_fat.part.6+0x1a8>
 8003420:	6366      	str	r6, [r4, #52]	; 0x34
 8003422:	006d      	lsls	r5, r5, #1
 8003424:	f405 75ff 	and.w	r5, r5, #510	; 0x1fe
 8003428:	eb08 0205 	add.w	r2, r8, r5
 800342c:	f808 7005 	strb.w	r7, [r8, r5]
 8003430:	f3c7 2107 	ubfx	r1, r7, #8, #8
 8003434:	2301      	movs	r3, #1
 8003436:	7051      	strb	r1, [r2, #1]
 8003438:	70e3      	strb	r3, [r4, #3]
 800343a:	2000      	movs	r0, #0
 800343c:	e8bd 87f0 	ldmia.w	sp!, {r4, r5, r6, r7, r8, r9, sl, pc}
 8003440:	78c3      	ldrb	r3, [r0, #3]
 8003442:	7840      	ldrb	r0, [r0, #1]
 8003444:	b1ab      	cbz	r3, 8003472 <put_fat.part.6+0x19a>
 8003446:	2301      	movs	r3, #1
 8003448:	4631      	mov	r1, r6
 800344a:	f7ff fdcf 	bl	8002fec <disk_write>
 800344e:	b9d0      	cbnz	r0, 8003486 <put_fat.part.6+0x1ae>
 8003450:	6b61      	ldr	r1, [r4, #52]	; 0x34
 8003452:	6aa3      	ldr	r3, [r4, #40]	; 0x28
 8003454:	6a22      	ldr	r2, [r4, #32]
 8003456:	70e0      	strb	r0, [r4, #3]
 8003458:	1acb      	subs	r3, r1, r3
 800345a:	4293      	cmp	r3, r2
 800345c:	7860      	ldrb	r0, [r4, #1]
 800345e:	d208      	bcs.n	8003472 <put_fat.part.6+0x19a>
 8003460:	78a3      	ldrb	r3, [r4, #2]
 8003462:	2b02      	cmp	r3, #2
 8003464:	d105      	bne.n	8003472 <put_fat.part.6+0x19a>
 8003466:	440a      	add	r2, r1
 8003468:	2301      	movs	r3, #1
 800346a:	4631      	mov	r1, r6
 800346c:	f7ff fdbe 	bl	8002fec <disk_write>
 8003470:	7860      	ldrb	r0, [r4, #1]
 8003472:	2301      	movs	r3, #1
 8003474:	4642      	mov	r2, r8
 8003476:	4631      	mov	r1, r6
 8003478:	f7ff fd9a 	bl	8002fb0 <disk_read>
 800347c:	2800      	cmp	r0, #0
 800347e:	d040      	beq.n	8003502 <put_fat.part.6+0x22a>
 8003480:	f04f 33ff 	mov.w	r3, #4294967295
 8003484:	6363      	str	r3, [r4, #52]	; 0x34
 8003486:	2001      	movs	r0, #1
 8003488:	e8bd 87f0 	ldmia.w	sp!, {r4, r5, r6, r7, r8, r9, sl, pc}
 800348c:	78c3      	ldrb	r3, [r0, #3]
 800348e:	7840      	ldrb	r0, [r0, #1]
 8003490:	b183      	cbz	r3, 80034b4 <put_fat.part.6+0x1dc>
 8003492:	4633      	mov	r3, r6
 8003494:	4649      	mov	r1, r9
 8003496:	f7ff fda9 	bl	8002fec <disk_write>
 800349a:	2800      	cmp	r0, #0
 800349c:	d1f3      	bne.n	8003486 <put_fat.part.6+0x1ae>
 800349e:	6b61      	ldr	r1, [r4, #52]	; 0x34
 80034a0:	6aa3      	ldr	r3, [r4, #40]	; 0x28
 80034a2:	6a22      	ldr	r2, [r4, #32]
 80034a4:	70e0      	strb	r0, [r4, #3]
 80034a6:	1acb      	subs	r3, r1, r3
 80034a8:	4293      	cmp	r3, r2
 80034aa:	d202      	bcs.n	80034b2 <put_fat.part.6+0x1da>
 80034ac:	78a3      	ldrb	r3, [r4, #2]
 80034ae:	2b02      	cmp	r3, #2
 80034b0:	d035      	beq.n	800351e <put_fat.part.6+0x246>
 80034b2:	7860      	ldrb	r0, [r4, #1]
 80034b4:	2301      	movs	r3, #1
 80034b6:	4652      	mov	r2, sl
 80034b8:	4649      	mov	r1, r9
 80034ba:	f7ff fd79 	bl	8002fb0 <disk_read>
 80034be:	2800      	cmp	r0, #0
 80034c0:	d1de      	bne.n	8003480 <put_fat.part.6+0x1a8>
 80034c2:	f8c4 a034 	str.w	sl, [r4, #52]	; 0x34
 80034c6:	e721      	b.n	800330c <put_fat.part.6+0x34>
 80034c8:	f809 7008 	strb.w	r7, [r9, r8]
 80034cc:	6aa3      	ldr	r3, [r4, #40]	; 0x28
 80034ce:	6b62      	ldr	r2, [r4, #52]	; 0x34
 80034d0:	eb01 0803 	add.w	r8, r1, r3
 80034d4:	4542      	cmp	r2, r8
 80034d6:	f04f 0301 	mov.w	r3, #1
 80034da:	70e3      	strb	r3, [r4, #3]
 80034dc:	f47f af32 	bne.w	8003344 <put_fat.part.6+0x6c>
 80034e0:	f3c6 0608 	ubfx	r6, r6, #0, #9
 80034e4:	44b1      	add	r9, r6
 80034e6:	f899 3000 	ldrb.w	r3, [r9]
 80034ea:	f3c7 2203 	ubfx	r2, r7, #8, #4
 80034ee:	f023 070f 	bic.w	r7, r3, #15
 80034f2:	4317      	orrs	r7, r2
 80034f4:	2301      	movs	r3, #1
 80034f6:	f889 7000 	strb.w	r7, [r9]
 80034fa:	70e3      	strb	r3, [r4, #3]
 80034fc:	2000      	movs	r0, #0
 80034fe:	e8bd 87f0 	ldmia.w	sp!, {r4, r5, r6, r7, r8, r9, sl, pc}
 8003502:	f8c4 8034 	str.w	r8, [r4, #52]	; 0x34
 8003506:	e74c      	b.n	80033a2 <put_fat.part.6+0xca>
 8003508:	f3c6 0608 	ubfx	r6, r6, #0, #9
 800350c:	44b1      	add	r9, r6
 800350e:	e73d      	b.n	800338c <put_fat.part.6+0xb4>
 8003510:	440a      	add	r2, r1
 8003512:	2301      	movs	r3, #1
 8003514:	4641      	mov	r1, r8
 8003516:	7860      	ldrb	r0, [r4, #1]
 8003518:	f7ff fd68 	bl	8002fec <disk_write>
 800351c:	e779      	b.n	8003412 <put_fat.part.6+0x13a>
 800351e:	440a      	add	r2, r1
 8003520:	4633      	mov	r3, r6
 8003522:	4649      	mov	r1, r9
 8003524:	7860      	ldrb	r0, [r4, #1]
 8003526:	f7ff fd61 	bl	8002fec <disk_write>
 800352a:	e7c2      	b.n	80034b2 <put_fat.part.6+0x1da>
 800352c:	440a      	add	r2, r1
 800352e:	2301      	movs	r3, #1
 8003530:	4649      	mov	r1, r9
 8003532:	f7ff fd5b 	bl	8002fec <disk_write>
 8003536:	7860      	ldrb	r0, [r4, #1]
 8003538:	e718      	b.n	800336c <put_fat.part.6+0x94>
 800353a:	bf00      	nop

0800353c <dir_sdi.constprop.18>:
 800353c:	e92d 4ff8 	stmdb	sp!, {r3, r4, r5, r6, r7, r8, r9, sl, fp, lr}
 8003540:	6884      	ldr	r4, [r0, #8]
 8003542:	6807      	ldr	r7, [r0, #0]
 8003544:	2300      	movs	r3, #0
 8003546:	6103      	str	r3, [r0, #16]
 8003548:	b9ec      	cbnz	r4, 8003586 <dir_sdi.constprop.18+0x4a>
 800354a:	783b      	ldrb	r3, [r7, #0]
 800354c:	2b02      	cmp	r3, #2
 800354e:	d816      	bhi.n	800357e <dir_sdi.constprop.18+0x42>
 8003550:	893b      	ldrh	r3, [r7, #8]
 8003552:	b18b      	cbz	r3, 8003578 <dir_sdi.constprop.18+0x3c>
 8003554:	6afb      	ldr	r3, [r7, #44]	; 0x2c
 8003556:	6183      	str	r3, [r0, #24]
 8003558:	6144      	str	r4, [r0, #20]
 800355a:	b16b      	cbz	r3, 8003578 <dir_sdi.constprop.18+0x3c>
 800355c:	3738      	adds	r7, #56	; 0x38
 800355e:	61c7      	str	r7, [r0, #28]
 8003560:	2000      	movs	r0, #0
 8003562:	e8bd 8ff8 	ldmia.w	sp!, {r3, r4, r5, r6, r7, r8, r9, sl, fp, pc}
 8003566:	69fa      	ldr	r2, [r7, #28]
 8003568:	1ea1      	subs	r1, r4, #2
 800356a:	3a02      	subs	r2, #2
 800356c:	4291      	cmp	r1, r2
 800356e:	f0c0 8109 	bcc.w	8003784 <dir_sdi.constprop.18+0x248>
 8003572:	2300      	movs	r3, #0
 8003574:	e9c0 4305 	strd	r4, r3, [r0, #20]
 8003578:	2002      	movs	r0, #2
 800357a:	e8bd 8ff8 	ldmia.w	sp!, {r3, r4, r5, r6, r7, r8, r9, sl, fp, pc}
 800357e:	6afb      	ldr	r3, [r7, #44]	; 0x2c
 8003580:	2b00      	cmp	r3, #0
 8003582:	d0e5      	beq.n	8003550 <dir_sdi.constprop.18+0x14>
 8003584:	461c      	mov	r4, r3
 8003586:	897b      	ldrh	r3, [r7, #10]
 8003588:	2b00      	cmp	r3, #0
 800358a:	d1ec      	bne.n	8003566 <dir_sdi.constprop.18+0x2a>
 800358c:	2c01      	cmp	r4, #1
 800358e:	d9f3      	bls.n	8003578 <dir_sdi.constprop.18+0x3c>
 8003590:	69fb      	ldr	r3, [r7, #28]
 8003592:	42a3      	cmp	r3, r4
 8003594:	d9f0      	bls.n	8003578 <dir_sdi.constprop.18+0x3c>
 8003596:	463d      	mov	r5, r7
 8003598:	4606      	mov	r6, r0
 800359a:	f895 8000 	ldrb.w	r8, [r5]
 800359e:	f1b8 0f02 	cmp.w	r8, #2
 80035a2:	d07b      	beq.n	800369c <dir_sdi.constprop.18+0x160>
 80035a4:	f1b8 0f03 	cmp.w	r8, #3
 80035a8:	d02d      	beq.n	8003606 <dir_sdi.constprop.18+0xca>
 80035aa:	f1b8 0f01 	cmp.w	r8, #1
 80035ae:	d1e3      	bne.n	8003578 <dir_sdi.constprop.18+0x3c>
 80035b0:	6aa9      	ldr	r1, [r5, #40]	; 0x28
 80035b2:	6b6a      	ldr	r2, [r5, #52]	; 0x34
 80035b4:	eb04 0954 	add.w	r9, r4, r4, lsr #1
 80035b8:	eb01 2b59 	add.w	fp, r1, r9, lsr #9
 80035bc:	4593      	cmp	fp, r2
 80035be:	f000 80a1 	beq.w	8003704 <dir_sdi.constprop.18+0x1c8>
 80035c2:	78eb      	ldrb	r3, [r5, #3]
 80035c4:	7868      	ldrb	r0, [r5, #1]
 80035c6:	f105 0a38 	add.w	sl, r5, #56	; 0x38
 80035ca:	b183      	cbz	r3, 80035ee <dir_sdi.constprop.18+0xb2>
 80035cc:	4643      	mov	r3, r8
 80035ce:	4651      	mov	r1, sl
 80035d0:	f7ff fd0c 	bl	8002fec <disk_write>
 80035d4:	b9a8      	cbnz	r0, 8003602 <dir_sdi.constprop.18+0xc6>
 80035d6:	6b69      	ldr	r1, [r5, #52]	; 0x34
 80035d8:	6aab      	ldr	r3, [r5, #40]	; 0x28
 80035da:	6a2a      	ldr	r2, [r5, #32]
 80035dc:	70e8      	strb	r0, [r5, #3]
 80035de:	1acb      	subs	r3, r1, r3
 80035e0:	4293      	cmp	r3, r2
 80035e2:	d203      	bcs.n	80035ec <dir_sdi.constprop.18+0xb0>
 80035e4:	78ab      	ldrb	r3, [r5, #2]
 80035e6:	2b02      	cmp	r3, #2
 80035e8:	f000 80d8 	beq.w	800379c <dir_sdi.constprop.18+0x260>
 80035ec:	7868      	ldrb	r0, [r5, #1]
 80035ee:	4651      	mov	r1, sl
 80035f0:	2301      	movs	r3, #1
 80035f2:	465a      	mov	r2, fp
 80035f4:	f7ff fcdc 	bl	8002fb0 <disk_read>
 80035f8:	2800      	cmp	r0, #0
 80035fa:	d07f      	beq.n	80036fc <dir_sdi.constprop.18+0x1c0>
 80035fc:	f04f 33ff 	mov.w	r3, #4294967295
 8003600:	636b      	str	r3, [r5, #52]	; 0x34
 8003602:	2001      	movs	r0, #1
 8003604:	e7ad      	b.n	8003562 <dir_sdi.constprop.18+0x26>
 8003606:	6aab      	ldr	r3, [r5, #40]	; 0x28
 8003608:	6b6a      	ldr	r2, [r5, #52]	; 0x34
 800360a:	eb03 18d4 	add.w	r8, r3, r4, lsr #7
 800360e:	4590      	cmp	r8, r2
 8003610:	f105 0938 	add.w	r9, r5, #56	; 0x38
 8003614:	d022      	beq.n	800365c <dir_sdi.constprop.18+0x120>
 8003616:	78eb      	ldrb	r3, [r5, #3]
 8003618:	7868      	ldrb	r0, [r5, #1]
 800361a:	b1b3      	cbz	r3, 800364a <dir_sdi.constprop.18+0x10e>
 800361c:	2301      	movs	r3, #1
 800361e:	4649      	mov	r1, r9
 8003620:	f7ff fce4 	bl	8002fec <disk_write>
 8003624:	2800      	cmp	r0, #0
 8003626:	d1ec      	bne.n	8003602 <dir_sdi.constprop.18+0xc6>
 8003628:	6b69      	ldr	r1, [r5, #52]	; 0x34
 800362a:	6aab      	ldr	r3, [r5, #40]	; 0x28
 800362c:	6a2a      	ldr	r2, [r5, #32]
 800362e:	70e8      	strb	r0, [r5, #3]
 8003630:	1acb      	subs	r3, r1, r3
 8003632:	4293      	cmp	r3, r2
 8003634:	7868      	ldrb	r0, [r5, #1]
 8003636:	d208      	bcs.n	800364a <dir_sdi.constprop.18+0x10e>
 8003638:	78ab      	ldrb	r3, [r5, #2]
 800363a:	2b02      	cmp	r3, #2
 800363c:	d105      	bne.n	800364a <dir_sdi.constprop.18+0x10e>
 800363e:	440a      	add	r2, r1
 8003640:	2301      	movs	r3, #1
 8003642:	4649      	mov	r1, r9
 8003644:	f7ff fcd2 	bl	8002fec <disk_write>
 8003648:	7868      	ldrb	r0, [r5, #1]
 800364a:	2301      	movs	r3, #1
 800364c:	4642      	mov	r2, r8
 800364e:	4649      	mov	r1, r9
 8003650:	f7ff fcae 	bl	8002fb0 <disk_read>
 8003654:	2800      	cmp	r0, #0
 8003656:	d1d1      	bne.n	80035fc <dir_sdi.constprop.18+0xc0>
 8003658:	f8c5 8034 	str.w	r8, [r5, #52]	; 0x34
 800365c:	00a4      	lsls	r4, r4, #2
 800365e:	f404 74fe 	and.w	r4, r4, #508	; 0x1fc
 8003662:	eb09 0204 	add.w	r2, r9, r4
 8003666:	f819 4004 	ldrb.w	r4, [r9, r4]
 800366a:	8851      	ldrh	r1, [r2, #2]
 800366c:	7853      	ldrb	r3, [r2, #1]
 800366e:	ea43 2301 	orr.w	r3, r3, r1, lsl #8
 8003672:	ea44 2403 	orr.w	r4, r4, r3, lsl #8
 8003676:	f024 4470 	bic.w	r4, r4, #4026531840	; 0xf0000000
 800367a:	2c01      	cmp	r4, #1
 800367c:	f67f af7c 	bls.w	8003578 <dir_sdi.constprop.18+0x3c>
 8003680:	69fb      	ldr	r3, [r7, #28]
 8003682:	42a3      	cmp	r3, r4
 8003684:	f67f af78 	bls.w	8003578 <dir_sdi.constprop.18+0x3c>
 8003688:	6835      	ldr	r5, [r6, #0]
 800368a:	69eb      	ldr	r3, [r5, #28]
 800368c:	42a3      	cmp	r3, r4
 800368e:	f67f af73 	bls.w	8003578 <dir_sdi.constprop.18+0x3c>
 8003692:	f895 8000 	ldrb.w	r8, [r5]
 8003696:	f1b8 0f02 	cmp.w	r8, #2
 800369a:	d183      	bne.n	80035a4 <dir_sdi.constprop.18+0x68>
 800369c:	6aab      	ldr	r3, [r5, #40]	; 0x28
 800369e:	6b6a      	ldr	r2, [r5, #52]	; 0x34
 80036a0:	eb03 2814 	add.w	r8, r3, r4, lsr #8
 80036a4:	4590      	cmp	r8, r2
 80036a6:	f105 0938 	add.w	r9, r5, #56	; 0x38
 80036aa:	d01c      	beq.n	80036e6 <dir_sdi.constprop.18+0x1aa>
 80036ac:	78eb      	ldrb	r3, [r5, #3]
 80036ae:	7868      	ldrb	r0, [r5, #1]
 80036b0:	b183      	cbz	r3, 80036d4 <dir_sdi.constprop.18+0x198>
 80036b2:	2301      	movs	r3, #1
 80036b4:	4649      	mov	r1, r9
 80036b6:	f7ff fc99 	bl	8002fec <disk_write>
 80036ba:	2800      	cmp	r0, #0
 80036bc:	d1a1      	bne.n	8003602 <dir_sdi.constprop.18+0xc6>
 80036be:	6b69      	ldr	r1, [r5, #52]	; 0x34
 80036c0:	6aab      	ldr	r3, [r5, #40]	; 0x28
 80036c2:	6a2a      	ldr	r2, [r5, #32]
 80036c4:	70e8      	strb	r0, [r5, #3]
 80036c6:	1acb      	subs	r3, r1, r3
 80036c8:	4293      	cmp	r3, r2
 80036ca:	d202      	bcs.n	80036d2 <dir_sdi.constprop.18+0x196>
 80036cc:	78ab      	ldrb	r3, [r5, #2]
 80036ce:	2b02      	cmp	r3, #2
 80036d0:	d05d      	beq.n	800378e <dir_sdi.constprop.18+0x252>
 80036d2:	7868      	ldrb	r0, [r5, #1]
 80036d4:	2301      	movs	r3, #1
 80036d6:	4642      	mov	r2, r8
 80036d8:	4649      	mov	r1, r9
 80036da:	f7ff fc69 	bl	8002fb0 <disk_read>
 80036de:	2800      	cmp	r0, #0
 80036e0:	d18c      	bne.n	80035fc <dir_sdi.constprop.18+0xc0>
 80036e2:	f8c5 8034 	str.w	r8, [r5, #52]	; 0x34
 80036e6:	0064      	lsls	r4, r4, #1
 80036e8:	f404 74ff 	and.w	r4, r4, #510	; 0x1fe
 80036ec:	eb09 0304 	add.w	r3, r9, r4
 80036f0:	f819 4004 	ldrb.w	r4, [r9, r4]
 80036f4:	785b      	ldrb	r3, [r3, #1]
 80036f6:	ea44 2403 	orr.w	r4, r4, r3, lsl #8
 80036fa:	e7be      	b.n	800367a <dir_sdi.constprop.18+0x13e>
 80036fc:	6aa9      	ldr	r1, [r5, #40]	; 0x28
 80036fe:	f8c5 b034 	str.w	fp, [r5, #52]	; 0x34
 8003702:	465a      	mov	r2, fp
 8003704:	f3c9 0308 	ubfx	r3, r9, #0, #9
 8003708:	f109 0901 	add.w	r9, r9, #1
 800370c:	442b      	add	r3, r5
 800370e:	eb01 2a59 	add.w	sl, r1, r9, lsr #9
 8003712:	4592      	cmp	sl, r2
 8003714:	f893 8038 	ldrb.w	r8, [r3, #56]	; 0x38
 8003718:	d026      	beq.n	8003768 <dir_sdi.constprop.18+0x22c>
 800371a:	78eb      	ldrb	r3, [r5, #3]
 800371c:	7868      	ldrb	r0, [r5, #1]
 800371e:	f105 0b38 	add.w	fp, r5, #56	; 0x38
 8003722:	b1bb      	cbz	r3, 8003754 <dir_sdi.constprop.18+0x218>
 8003724:	2301      	movs	r3, #1
 8003726:	4659      	mov	r1, fp
 8003728:	f7ff fc60 	bl	8002fec <disk_write>
 800372c:	2800      	cmp	r0, #0
 800372e:	f47f af68 	bne.w	8003602 <dir_sdi.constprop.18+0xc6>
 8003732:	6b69      	ldr	r1, [r5, #52]	; 0x34
 8003734:	6aab      	ldr	r3, [r5, #40]	; 0x28
 8003736:	6a2a      	ldr	r2, [r5, #32]
 8003738:	70e8      	strb	r0, [r5, #3]
 800373a:	1acb      	subs	r3, r1, r3
 800373c:	4293      	cmp	r3, r2
 800373e:	7868      	ldrb	r0, [r5, #1]
 8003740:	d208      	bcs.n	8003754 <dir_sdi.constprop.18+0x218>
 8003742:	78ab      	ldrb	r3, [r5, #2]
 8003744:	2b02      	cmp	r3, #2
 8003746:	d105      	bne.n	8003754 <dir_sdi.constprop.18+0x218>
 8003748:	440a      	add	r2, r1
 800374a:	2301      	movs	r3, #1
 800374c:	4659      	mov	r1, fp
 800374e:	f7ff fc4d 	bl	8002fec <disk_write>
 8003752:	7868      	ldrb	r0, [r5, #1]
 8003754:	4659      	mov	r1, fp
 8003756:	2301      	movs	r3, #1
 8003758:	4652      	mov	r2, sl
 800375a:	f7ff fc29 	bl	8002fb0 <disk_read>
 800375e:	2800      	cmp	r0, #0
 8003760:	f47f af4c 	bne.w	80035fc <dir_sdi.constprop.18+0xc0>
 8003764:	f8c5 a034 	str.w	sl, [r5, #52]	; 0x34
 8003768:	f3c9 0908 	ubfx	r9, r9, #0, #9
 800376c:	444d      	add	r5, r9
 800376e:	f895 3038 	ldrb.w	r3, [r5, #56]	; 0x38
 8003772:	ea48 2803 	orr.w	r8, r8, r3, lsl #8
 8003776:	07e3      	lsls	r3, r4, #31
 8003778:	bf4c      	ite	mi
 800377a:	ea4f 1418 	movmi.w	r4, r8, lsr #4
 800377e:	f3c8 040b 	ubfxpl	r4, r8, #0, #12
 8003782:	e77a      	b.n	800367a <dir_sdi.constprop.18+0x13e>
 8003784:	6b3a      	ldr	r2, [r7, #48]	; 0x30
 8003786:	fb01 2303 	mla	r3, r1, r3, r2
 800378a:	6183      	str	r3, [r0, #24]
 800378c:	e6e4      	b.n	8003558 <dir_sdi.constprop.18+0x1c>
 800378e:	440a      	add	r2, r1
 8003790:	2301      	movs	r3, #1
 8003792:	4649      	mov	r1, r9
 8003794:	7868      	ldrb	r0, [r5, #1]
 8003796:	f7ff fc29 	bl	8002fec <disk_write>
 800379a:	e79a      	b.n	80036d2 <dir_sdi.constprop.18+0x196>
 800379c:	440a      	add	r2, r1
 800379e:	4643      	mov	r3, r8
 80037a0:	4651      	mov	r1, sl
 80037a2:	7868      	ldrb	r0, [r5, #1]
 80037a4:	f7ff fc22 	bl	8002fec <disk_write>
 80037a8:	e720      	b.n	80035ec <dir_sdi.constprop.18+0xb0>
 80037aa:	bf00      	nop

080037ac <mount_volume>:
 80037ac:	e92d 41f0 	stmdb	sp!, {r4, r5, r6, r7, r8, lr}
 80037b0:	2300      	movs	r3, #0
 80037b2:	b084      	sub	sp, #16
 80037b4:	600b      	str	r3, [r1, #0]
 80037b6:	460f      	mov	r7, r1
 80037b8:	4615      	mov	r5, r2
 80037ba:	f7ff fc49 	bl	8003050 <get_ldnumber>
 80037be:	1e06      	subs	r6, r0, #0
 80037c0:	f2c0 8113 	blt.w	80039ea <mount_volume+0x23e>
 80037c4:	f240 231c 	movw	r3, #540	; 0x21c
 80037c8:	f2c2 0300 	movt	r3, #8192	; 0x2000
 80037cc:	f853 4026 	ldr.w	r4, [r3, r6, lsl #2]
 80037d0:	2c00      	cmp	r4, #0
 80037d2:	f000 8150 	beq.w	8003a76 <mount_volume+0x2ca>
 80037d6:	603c      	str	r4, [r7, #0]
 80037d8:	7823      	ldrb	r3, [r4, #0]
 80037da:	f005 05fe 	and.w	r5, r5, #254	; 0xfe
 80037de:	b17b      	cbz	r3, 8003800 <mount_volume+0x54>
 80037e0:	7860      	ldrb	r0, [r4, #1]
 80037e2:	f7ff fbc9 	bl	8002f78 <disk_status>
 80037e6:	07c3      	lsls	r3, r0, #31
 80037e8:	d40a      	bmi.n	8003800 <mount_volume+0x54>
 80037ea:	2d00      	cmp	r5, #0
 80037ec:	f000 8147 	beq.w	8003a7e <mount_volume+0x2d2>
 80037f0:	f010 0004 	ands.w	r0, r0, #4
 80037f4:	f000 80fa 	beq.w	80039ec <mount_volume+0x240>
 80037f8:	200a      	movs	r0, #10
 80037fa:	b004      	add	sp, #16
 80037fc:	e8bd 81f0 	ldmia.w	sp!, {r4, r5, r6, r7, r8, pc}
 8003800:	b2f0      	uxtb	r0, r6
 8003802:	2300      	movs	r3, #0
 8003804:	7060      	strb	r0, [r4, #1]
 8003806:	7023      	strb	r3, [r4, #0]
 8003808:	f7ff fbc4 	bl	8002f94 <disk_initialize>
 800380c:	07c7      	lsls	r7, r0, #31
 800380e:	f100 80f0 	bmi.w	80039f2 <mount_volume+0x246>
 8003812:	b10d      	cbz	r5, 8003818 <mount_volume+0x6c>
 8003814:	0746      	lsls	r6, r0, #29
 8003816:	d4ef      	bmi.n	80037f8 <mount_volume+0x4c>
 8003818:	2200      	movs	r2, #0
 800381a:	f04f 35ff 	mov.w	r5, #4294967295
 800381e:	f104 0638 	add.w	r6, r4, #56	; 0x38
 8003822:	70e2      	strb	r2, [r4, #3]
 8003824:	6365      	str	r5, [r4, #52]	; 0x34
 8003826:	4631      	mov	r1, r6
 8003828:	2301      	movs	r3, #1
 800382a:	7860      	ldrb	r0, [r4, #1]
 800382c:	f7ff fbc0 	bl	8002fb0 <disk_read>
 8003830:	2800      	cmp	r0, #0
 8003832:	f040 80e2 	bne.w	80039fa <mount_volume+0x24e>
 8003836:	f894 2237 	ldrb.w	r2, [r4, #567]	; 0x237
 800383a:	f894 3236 	ldrb.w	r3, [r4, #566]	; 0x236
 800383e:	6360      	str	r0, [r4, #52]	; 0x34
 8003840:	ea43 2302 	orr.w	r3, r3, r2, lsl #8
 8003844:	f64a 2255 	movw	r2, #43605	; 0xaa55
 8003848:	4293      	cmp	r3, r2
 800384a:	f040 8110 	bne.w	8003a6e <mount_volume+0x2c2>
 800384e:	f894 7038 	ldrb.w	r7, [r4, #56]	; 0x38
 8003852:	2feb      	cmp	r7, #235	; 0xeb
 8003854:	d005      	beq.n	8003862 <mount_volume+0xb6>
 8003856:	f107 0318 	add.w	r3, r7, #24
 800385a:	b2db      	uxtb	r3, r3
 800385c:	2b01      	cmp	r3, #1
 800385e:	f200 80d1 	bhi.w	8003a04 <mount_volume+0x258>
 8003862:	f894 306e 	ldrb.w	r3, [r4, #110]	; 0x6e
 8003866:	2b46      	cmp	r3, #70	; 0x46
 8003868:	d107      	bne.n	800387a <mount_volume+0xce>
 800386a:	f894 306f 	ldrb.w	r3, [r4, #111]	; 0x6f
 800386e:	2b41      	cmp	r3, #65	; 0x41
 8003870:	d103      	bne.n	800387a <mount_volume+0xce>
 8003872:	f894 3070 	ldrb.w	r3, [r4, #112]	; 0x70
 8003876:	2b54      	cmp	r3, #84	; 0x54
 8003878:	d018      	beq.n	80038ac <mount_volume+0x100>
 800387a:	f894 308a 	ldrb.w	r3, [r4, #138]	; 0x8a
 800387e:	2b46      	cmp	r3, #70	; 0x46
 8003880:	f040 80c0 	bne.w	8003a04 <mount_volume+0x258>
 8003884:	f894 308b 	ldrb.w	r3, [r4, #139]	; 0x8b
 8003888:	2b41      	cmp	r3, #65	; 0x41
 800388a:	f040 80bb 	bne.w	8003a04 <mount_volume+0x258>
 800388e:	f894 308c 	ldrb.w	r3, [r4, #140]	; 0x8c
 8003892:	2b54      	cmp	r3, #84	; 0x54
 8003894:	f040 80b6 	bne.w	8003a04 <mount_volume+0x258>
 8003898:	f894 308d 	ldrb.w	r3, [r4, #141]	; 0x8d
 800389c:	2b33      	cmp	r3, #51	; 0x33
 800389e:	f040 80b1 	bne.w	8003a04 <mount_volume+0x258>
 80038a2:	f894 308e 	ldrb.w	r3, [r4, #142]	; 0x8e
 80038a6:	2b32      	cmp	r3, #50	; 0x32
 80038a8:	f040 80ac 	bne.w	8003a04 <mount_volume+0x258>
 80038ac:	2100      	movs	r1, #0
 80038ae:	f894 2044 	ldrb.w	r2, [r4, #68]	; 0x44
 80038b2:	f894 3043 	ldrb.w	r3, [r4, #67]	; 0x43
 80038b6:	ea43 2302 	orr.w	r3, r3, r2, lsl #8
 80038ba:	f5b3 7f00 	cmp.w	r3, #512	; 0x200
 80038be:	f040 80d6 	bne.w	8003a6e <mount_volume+0x2c2>
 80038c2:	f894 204f 	ldrb.w	r2, [r4, #79]	; 0x4f
 80038c6:	f894 304e 	ldrb.w	r3, [r4, #78]	; 0x4e
 80038ca:	ea53 2302 	orrs.w	r3, r3, r2, lsl #8
 80038ce:	d109      	bne.n	80038e4 <mount_volume+0x138>
 80038d0:	f8b4 005e 	ldrh.w	r0, [r4, #94]	; 0x5e
 80038d4:	f894 305d 	ldrb.w	r3, [r4, #93]	; 0x5d
 80038d8:	f894 205c 	ldrb.w	r2, [r4, #92]	; 0x5c
 80038dc:	ea43 2300 	orr.w	r3, r3, r0, lsl #8
 80038e0:	ea42 2303 	orr.w	r3, r2, r3, lsl #8
 80038e4:	f894 2048 	ldrb.w	r2, [r4, #72]	; 0x48
 80038e8:	6223      	str	r3, [r4, #32]
 80038ea:	1e50      	subs	r0, r2, #1
 80038ec:	2801      	cmp	r0, #1
 80038ee:	70a2      	strb	r2, [r4, #2]
 80038f0:	f200 80bd 	bhi.w	8003a6e <mount_volume+0x2c2>
 80038f4:	f894 0045 	ldrb.w	r0, [r4, #69]	; 0x45
 80038f8:	b285      	uxth	r5, r0
 80038fa:	8165      	strh	r5, [r4, #10]
 80038fc:	2d00      	cmp	r5, #0
 80038fe:	f000 80b6 	beq.w	8003a6e <mount_volume+0x2c2>
 8003902:	1e45      	subs	r5, r0, #1
 8003904:	4205      	tst	r5, r0
 8003906:	f040 80b2 	bne.w	8003a6e <mount_volume+0x2c2>
 800390a:	f894 504a 	ldrb.w	r5, [r4, #74]	; 0x4a
 800390e:	f894 6049 	ldrb.w	r6, [r4, #73]	; 0x49
 8003912:	ea46 2605 	orr.w	r6, r6, r5, lsl #8
 8003916:	0735      	lsls	r5, r6, #28
 8003918:	8126      	strh	r6, [r4, #8]
 800391a:	f040 80a8 	bne.w	8003a6e <mount_volume+0x2c2>
 800391e:	f894 704c 	ldrb.w	r7, [r4, #76]	; 0x4c
 8003922:	f894 504b 	ldrb.w	r5, [r4, #75]	; 0x4b
 8003926:	ea55 2507 	orrs.w	r5, r5, r7, lsl #8
 800392a:	d109      	bne.n	8003940 <mount_volume+0x194>
 800392c:	f8b4 c05a 	ldrh.w	ip, [r4, #90]	; 0x5a
 8003930:	f894 7059 	ldrb.w	r7, [r4, #89]	; 0x59
 8003934:	f894 5058 	ldrb.w	r5, [r4, #88]	; 0x58
 8003938:	ea47 270c 	orr.w	r7, r7, ip, lsl #8
 800393c:	ea45 2507 	orr.w	r5, r5, r7, lsl #8
 8003940:	f894 c047 	ldrb.w	ip, [r4, #71]	; 0x47
 8003944:	f894 7046 	ldrb.w	r7, [r4, #70]	; 0x46
 8003948:	ea57 2c0c 	orrs.w	ip, r7, ip, lsl #8
 800394c:	f000 808f 	beq.w	8003a6e <mount_volume+0x2c2>
 8003950:	fb03 fe02 	mul.w	lr, r3, r2
 8003954:	eb0c 1716 	add.w	r7, ip, r6, lsr #4
 8003958:	4477      	add	r7, lr
 800395a:	42bd      	cmp	r5, r7
 800395c:	f0c0 8087 	bcc.w	8003a6e <mount_volume+0x2c2>
 8003960:	f64f 72f4 	movw	r2, #65524	; 0xfff4
 8003964:	1bed      	subs	r5, r5, r7
 8003966:	f6c0 72ff 	movt	r2, #4095	; 0xfff
 800396a:	fbb5 f0f0 	udiv	r0, r5, r0
 800396e:	1e45      	subs	r5, r0, #1
 8003970:	4295      	cmp	r5, r2
 8003972:	d87c      	bhi.n	8003a6e <mount_volume+0x2c2>
 8003974:	f64f 78f5 	movw	r8, #65525	; 0xfff5
 8003978:	4540      	cmp	r0, r8
 800397a:	eb0c 0501 	add.w	r5, ip, r1
 800397e:	440f      	add	r7, r1
 8003980:	f100 0202 	add.w	r2, r0, #2
 8003984:	f200 81b5 	bhi.w	8003cf2 <mount_volume+0x546>
 8003988:	f640 7cf5 	movw	ip, #4085	; 0xff5
 800398c:	4560      	cmp	r0, ip
 800398e:	61e2      	str	r2, [r4, #28]
 8003990:	e9c4 1509 	strd	r1, r5, [r4, #36]	; 0x24
 8003994:	6327      	str	r7, [r4, #48]	; 0x30
 8003996:	f200 81dd 	bhi.w	8003d54 <mount_volume+0x5a8>
 800399a:	2e00      	cmp	r6, #0
 800399c:	d067      	beq.n	8003a6e <mount_volume+0x2c2>
 800399e:	eb02 0142 	add.w	r1, r2, r2, lsl #1
 80039a2:	4475      	add	r5, lr
 80039a4:	f002 0201 	and.w	r2, r2, #1
 80039a8:	eb02 0251 	add.w	r2, r2, r1, lsr #1
 80039ac:	62e5      	str	r5, [r4, #44]	; 0x2c
 80039ae:	2101      	movs	r1, #1
 80039b0:	f202 12ff 	addw	r2, r2, #511	; 0x1ff
 80039b4:	ebb3 2f52 	cmp.w	r3, r2, lsr #9
 80039b8:	d359      	bcc.n	8003a6e <mount_volume+0x2c2>
 80039ba:	f04f 33ff 	mov.w	r3, #4294967295
 80039be:	e9c4 3304 	strd	r3, r3, [r4, #16]
 80039c2:	2280      	movs	r2, #128	; 0x80
 80039c4:	7122      	strb	r2, [r4, #4]
 80039c6:	f240 2224 	movw	r2, #548	; 0x224
 80039ca:	f2c2 0200 	movt	r2, #8192	; 0x2000
 80039ce:	f240 2528 	movw	r5, #552	; 0x228
 80039d2:	8813      	ldrh	r3, [r2, #0]
 80039d4:	7021      	strb	r1, [r4, #0]
 80039d6:	3301      	adds	r3, #1
 80039d8:	b29b      	uxth	r3, r3
 80039da:	f2c2 0500 	movt	r5, #8192	; 0x2000
 80039de:	2000      	movs	r0, #0
 80039e0:	8013      	strh	r3, [r2, #0]
 80039e2:	80e3      	strh	r3, [r4, #6]
 80039e4:	60e5      	str	r5, [r4, #12]
 80039e6:	61a0      	str	r0, [r4, #24]
 80039e8:	e000      	b.n	80039ec <mount_volume+0x240>
 80039ea:	200b      	movs	r0, #11
 80039ec:	b004      	add	sp, #16
 80039ee:	e8bd 81f0 	ldmia.w	sp!, {r4, r5, r6, r7, r8, pc}
 80039f2:	2003      	movs	r0, #3
 80039f4:	b004      	add	sp, #16
 80039f6:	e8bd 81f0 	ldmia.w	sp!, {r4, r5, r6, r7, r8, pc}
 80039fa:	2001      	movs	r0, #1
 80039fc:	6365      	str	r5, [r4, #52]	; 0x34
 80039fe:	b004      	add	sp, #16
 8003a00:	e8bd 81f0 	ldmia.w	sp!, {r4, r5, r6, r7, r8, pc}
 8003a04:	f8b4 2210 	ldrh.w	r2, [r4, #528]	; 0x210
 8003a08:	f894 c20f 	ldrb.w	ip, [r4, #527]	; 0x20f
 8003a0c:	f894 021f 	ldrb.w	r0, [r4, #543]	; 0x21f
 8003a10:	f8b4 3220 	ldrh.w	r3, [r4, #544]	; 0x220
 8003a14:	f8b4 1230 	ldrh.w	r1, [r4, #560]	; 0x230
 8003a18:	f894 520e 	ldrb.w	r5, [r4, #526]	; 0x20e
 8003a1c:	ea4c 2c02 	orr.w	ip, ip, r2, lsl #8
 8003a20:	f894 222f 	ldrb.w	r2, [r4, #559]	; 0x22f
 8003a24:	ea40 2303 	orr.w	r3, r0, r3, lsl #8
 8003a28:	ea42 2101 	orr.w	r1, r2, r1, lsl #8
 8003a2c:	f894 021e 	ldrb.w	r0, [r4, #542]	; 0x21e
 8003a30:	f894 222e 	ldrb.w	r2, [r4, #558]	; 0x22e
 8003a34:	ea45 250c 	orr.w	r5, r5, ip, lsl #8
 8003a38:	ea40 2003 	orr.w	r0, r0, r3, lsl #8
 8003a3c:	ea42 2201 	orr.w	r2, r2, r1, lsl #8
 8003a40:	9501      	str	r5, [sp, #4]
 8003a42:	f894 31ff 	ldrb.w	r3, [r4, #511]	; 0x1ff
 8003a46:	f8b4 5200 	ldrh.w	r5, [r4, #512]	; 0x200
 8003a4a:	9203      	str	r2, [sp, #12]
 8003a4c:	f894 21fe 	ldrb.w	r2, [r4, #510]	; 0x1fe
 8003a50:	9002      	str	r0, [sp, #8]
 8003a52:	ea43 2305 	orr.w	r3, r3, r5, lsl #8
 8003a56:	ea52 2503 	orrs.w	r5, r2, r3, lsl #8
 8003a5a:	d112      	bne.n	8003a82 <mount_volume+0x2d6>
 8003a5c:	9d01      	ldr	r5, [sp, #4]
 8003a5e:	bb2d      	cbnz	r5, 8003aac <mount_volume+0x300>
 8003a60:	9d02      	ldr	r5, [sp, #8]
 8003a62:	2d00      	cmp	r5, #0
 8003a64:	d156      	bne.n	8003b14 <mount_volume+0x368>
 8003a66:	9d03      	ldr	r5, [sp, #12]
 8003a68:	2d00      	cmp	r5, #0
 8003a6a:	f040 809b 	bne.w	8003ba4 <mount_volume+0x3f8>
 8003a6e:	200d      	movs	r0, #13
 8003a70:	b004      	add	sp, #16
 8003a72:	e8bd 81f0 	ldmia.w	sp!, {r4, r5, r6, r7, r8, pc}
 8003a76:	200c      	movs	r0, #12
 8003a78:	b004      	add	sp, #16
 8003a7a:	e8bd 81f0 	ldmia.w	sp!, {r4, r5, r6, r7, r8, pc}
 8003a7e:	4628      	mov	r0, r5
 8003a80:	e7b4      	b.n	80039ec <mount_volume+0x240>
 8003a82:	f04f 38ff 	mov.w	r8, #4294967295
 8003a86:	2300      	movs	r3, #0
 8003a88:	4545      	cmp	r5, r8
 8003a8a:	70e3      	strb	r3, [r4, #3]
 8003a8c:	f8c4 8034 	str.w	r8, [r4, #52]	; 0x34
 8003a90:	f000 80e2 	beq.w	8003c58 <mount_volume+0x4ac>
 8003a94:	2301      	movs	r3, #1
 8003a96:	462a      	mov	r2, r5
 8003a98:	4631      	mov	r1, r6
 8003a9a:	7860      	ldrb	r0, [r4, #1]
 8003a9c:	f7ff fa88 	bl	8002fb0 <disk_read>
 8003aa0:	2800      	cmp	r0, #0
 8003aa2:	f000 80cb 	beq.w	8003c3c <mount_volume+0x490>
 8003aa6:	f8c4 8034 	str.w	r8, [r4, #52]	; 0x34
 8003aaa:	e7d7      	b.n	8003a5c <mount_volume+0x2b0>
 8003aac:	f04f 37ff 	mov.w	r7, #4294967295
 8003ab0:	2300      	movs	r3, #0
 8003ab2:	42bd      	cmp	r5, r7
 8003ab4:	70e3      	strb	r3, [r4, #3]
 8003ab6:	6367      	str	r7, [r4, #52]	; 0x34
 8003ab8:	d009      	beq.n	8003ace <mount_volume+0x322>
 8003aba:	2301      	movs	r3, #1
 8003abc:	462a      	mov	r2, r5
 8003abe:	4631      	mov	r1, r6
 8003ac0:	7860      	ldrb	r0, [r4, #1]
 8003ac2:	f7ff fa75 	bl	8002fb0 <disk_read>
 8003ac6:	2800      	cmp	r0, #0
 8003ac8:	f040 810f 	bne.w	8003cea <mount_volume+0x53e>
 8003acc:	6365      	str	r5, [r4, #52]	; 0x34
 8003ace:	f894 1237 	ldrb.w	r1, [r4, #567]	; 0x237
 8003ad2:	f894 3236 	ldrb.w	r3, [r4, #566]	; 0x236
 8003ad6:	f64a 2255 	movw	r2, #43605	; 0xaa55
 8003ada:	ea43 2301 	orr.w	r3, r3, r1, lsl #8
 8003ade:	4293      	cmp	r3, r2
 8003ae0:	d1be      	bne.n	8003a60 <mount_volume+0x2b4>
 8003ae2:	f894 3038 	ldrb.w	r3, [r4, #56]	; 0x38
 8003ae6:	2beb      	cmp	r3, #235	; 0xeb
 8003ae8:	d003      	beq.n	8003af2 <mount_volume+0x346>
 8003aea:	3318      	adds	r3, #24
 8003aec:	b2db      	uxtb	r3, r3
 8003aee:	2b01      	cmp	r3, #1
 8003af0:	d8b6      	bhi.n	8003a60 <mount_volume+0x2b4>
 8003af2:	f894 306e 	ldrb.w	r3, [r4, #110]	; 0x6e
 8003af6:	2b46      	cmp	r3, #70	; 0x46
 8003af8:	f040 80dd 	bne.w	8003cb6 <mount_volume+0x50a>
 8003afc:	f894 306f 	ldrb.w	r3, [r4, #111]	; 0x6f
 8003b00:	2b41      	cmp	r3, #65	; 0x41
 8003b02:	f040 80d8 	bne.w	8003cb6 <mount_volume+0x50a>
 8003b06:	f894 3070 	ldrb.w	r3, [r4, #112]	; 0x70
 8003b0a:	2b54      	cmp	r3, #84	; 0x54
 8003b0c:	f040 80d3 	bne.w	8003cb6 <mount_volume+0x50a>
 8003b10:	6b61      	ldr	r1, [r4, #52]	; 0x34
 8003b12:	e6cc      	b.n	80038ae <mount_volume+0x102>
 8003b14:	f04f 37ff 	mov.w	r7, #4294967295
 8003b18:	2300      	movs	r3, #0
 8003b1a:	42bd      	cmp	r5, r7
 8003b1c:	70e3      	strb	r3, [r4, #3]
 8003b1e:	6367      	str	r7, [r4, #52]	; 0x34
 8003b20:	d009      	beq.n	8003b36 <mount_volume+0x38a>
 8003b22:	2301      	movs	r3, #1
 8003b24:	462a      	mov	r2, r5
 8003b26:	4631      	mov	r1, r6
 8003b28:	7860      	ldrb	r0, [r4, #1]
 8003b2a:	f7ff fa41 	bl	8002fb0 <disk_read>
 8003b2e:	2800      	cmp	r0, #0
 8003b30:	f040 80dd 	bne.w	8003cee <mount_volume+0x542>
 8003b34:	6365      	str	r5, [r4, #52]	; 0x34
 8003b36:	f894 1237 	ldrb.w	r1, [r4, #567]	; 0x237
 8003b3a:	f894 3236 	ldrb.w	r3, [r4, #566]	; 0x236
 8003b3e:	f64a 2255 	movw	r2, #43605	; 0xaa55
 8003b42:	ea43 2301 	orr.w	r3, r3, r1, lsl #8
 8003b46:	4293      	cmp	r3, r2
 8003b48:	d18d      	bne.n	8003a66 <mount_volume+0x2ba>
 8003b4a:	f894 3038 	ldrb.w	r3, [r4, #56]	; 0x38
 8003b4e:	2beb      	cmp	r3, #235	; 0xeb
 8003b50:	d003      	beq.n	8003b5a <mount_volume+0x3ae>
 8003b52:	3318      	adds	r3, #24
 8003b54:	b2db      	uxtb	r3, r3
 8003b56:	2b01      	cmp	r3, #1
 8003b58:	d885      	bhi.n	8003a66 <mount_volume+0x2ba>
 8003b5a:	f894 306e 	ldrb.w	r3, [r4, #110]	; 0x6e
 8003b5e:	2b46      	cmp	r3, #70	; 0x46
 8003b60:	d107      	bne.n	8003b72 <mount_volume+0x3c6>
 8003b62:	f894 306f 	ldrb.w	r3, [r4, #111]	; 0x6f
 8003b66:	2b41      	cmp	r3, #65	; 0x41
 8003b68:	d103      	bne.n	8003b72 <mount_volume+0x3c6>
 8003b6a:	f894 3070 	ldrb.w	r3, [r4, #112]	; 0x70
 8003b6e:	2b54      	cmp	r3, #84	; 0x54
 8003b70:	d0ce      	beq.n	8003b10 <mount_volume+0x364>
 8003b72:	f894 308a 	ldrb.w	r3, [r4, #138]	; 0x8a
 8003b76:	2b46      	cmp	r3, #70	; 0x46
 8003b78:	f47f af75 	bne.w	8003a66 <mount_volume+0x2ba>
 8003b7c:	f894 308b 	ldrb.w	r3, [r4, #139]	; 0x8b
 8003b80:	2b41      	cmp	r3, #65	; 0x41
 8003b82:	f47f af70 	bne.w	8003a66 <mount_volume+0x2ba>
 8003b86:	f894 308c 	ldrb.w	r3, [r4, #140]	; 0x8c
 8003b8a:	2b54      	cmp	r3, #84	; 0x54
 8003b8c:	f47f af6b 	bne.w	8003a66 <mount_volume+0x2ba>
 8003b90:	f894 308d 	ldrb.w	r3, [r4, #141]	; 0x8d
 8003b94:	2b33      	cmp	r3, #51	; 0x33
 8003b96:	f47f af66 	bne.w	8003a66 <mount_volume+0x2ba>
 8003b9a:	f894 308e 	ldrb.w	r3, [r4, #142]	; 0x8e
 8003b9e:	2b32      	cmp	r3, #50	; 0x32
 8003ba0:	d0b6      	beq.n	8003b10 <mount_volume+0x364>
 8003ba2:	e760      	b.n	8003a66 <mount_volume+0x2ba>
 8003ba4:	f04f 37ff 	mov.w	r7, #4294967295
 8003ba8:	2300      	movs	r3, #0
 8003baa:	42bd      	cmp	r5, r7
 8003bac:	70e3      	strb	r3, [r4, #3]
 8003bae:	6367      	str	r7, [r4, #52]	; 0x34
 8003bb0:	d00a      	beq.n	8003bc8 <mount_volume+0x41c>
 8003bb2:	4631      	mov	r1, r6
 8003bb4:	2301      	movs	r3, #1
 8003bb6:	462a      	mov	r2, r5
 8003bb8:	7860      	ldrb	r0, [r4, #1]
 8003bba:	f7ff f9f9 	bl	8002fb0 <disk_read>
 8003bbe:	b110      	cbz	r0, 8003bc6 <mount_volume+0x41a>
 8003bc0:	6367      	str	r7, [r4, #52]	; 0x34
 8003bc2:	2001      	movs	r0, #1
 8003bc4:	e712      	b.n	80039ec <mount_volume+0x240>
 8003bc6:	6365      	str	r5, [r4, #52]	; 0x34
 8003bc8:	f894 1237 	ldrb.w	r1, [r4, #567]	; 0x237
 8003bcc:	f894 3236 	ldrb.w	r3, [r4, #566]	; 0x236
 8003bd0:	f64a 2255 	movw	r2, #43605	; 0xaa55
 8003bd4:	ea43 2301 	orr.w	r3, r3, r1, lsl #8
 8003bd8:	4293      	cmp	r3, r2
 8003bda:	f47f af48 	bne.w	8003a6e <mount_volume+0x2c2>
 8003bde:	f894 3038 	ldrb.w	r3, [r4, #56]	; 0x38
 8003be2:	2beb      	cmp	r3, #235	; 0xeb
 8003be4:	d004      	beq.n	8003bf0 <mount_volume+0x444>
 8003be6:	3318      	adds	r3, #24
 8003be8:	b2db      	uxtb	r3, r3
 8003bea:	2b01      	cmp	r3, #1
 8003bec:	f63f af3f 	bhi.w	8003a6e <mount_volume+0x2c2>
 8003bf0:	f894 306e 	ldrb.w	r3, [r4, #110]	; 0x6e
 8003bf4:	2b46      	cmp	r3, #70	; 0x46
 8003bf6:	d107      	bne.n	8003c08 <mount_volume+0x45c>
 8003bf8:	f894 306f 	ldrb.w	r3, [r4, #111]	; 0x6f
 8003bfc:	2b41      	cmp	r3, #65	; 0x41
 8003bfe:	d103      	bne.n	8003c08 <mount_volume+0x45c>
 8003c00:	f894 3070 	ldrb.w	r3, [r4, #112]	; 0x70
 8003c04:	2b54      	cmp	r3, #84	; 0x54
 8003c06:	d083      	beq.n	8003b10 <mount_volume+0x364>
 8003c08:	f894 308a 	ldrb.w	r3, [r4, #138]	; 0x8a
 8003c0c:	2b46      	cmp	r3, #70	; 0x46
 8003c0e:	f47f af2e 	bne.w	8003a6e <mount_volume+0x2c2>
 8003c12:	f894 308b 	ldrb.w	r3, [r4, #139]	; 0x8b
 8003c16:	2b41      	cmp	r3, #65	; 0x41
 8003c18:	f47f af29 	bne.w	8003a6e <mount_volume+0x2c2>
 8003c1c:	f894 308c 	ldrb.w	r3, [r4, #140]	; 0x8c
 8003c20:	2b54      	cmp	r3, #84	; 0x54
 8003c22:	f47f af24 	bne.w	8003a6e <mount_volume+0x2c2>
 8003c26:	f894 308d 	ldrb.w	r3, [r4, #141]	; 0x8d
 8003c2a:	2b33      	cmp	r3, #51	; 0x33
 8003c2c:	f47f af1f 	bne.w	8003a6e <mount_volume+0x2c2>
 8003c30:	f894 308e 	ldrb.w	r3, [r4, #142]	; 0x8e
 8003c34:	2b32      	cmp	r3, #50	; 0x32
 8003c36:	f43f af6b 	beq.w	8003b10 <mount_volume+0x364>
 8003c3a:	e718      	b.n	8003a6e <mount_volume+0x2c2>
 8003c3c:	f894 2237 	ldrb.w	r2, [r4, #567]	; 0x237
 8003c40:	f894 3236 	ldrb.w	r3, [r4, #566]	; 0x236
 8003c44:	6365      	str	r5, [r4, #52]	; 0x34
 8003c46:	ea43 2302 	orr.w	r3, r3, r2, lsl #8
 8003c4a:	f64a 2255 	movw	r2, #43605	; 0xaa55
 8003c4e:	4293      	cmp	r3, r2
 8003c50:	f47f af04 	bne.w	8003a5c <mount_volume+0x2b0>
 8003c54:	f894 7038 	ldrb.w	r7, [r4, #56]	; 0x38
 8003c58:	2feb      	cmp	r7, #235	; 0xeb
 8003c5a:	d005      	beq.n	8003c68 <mount_volume+0x4bc>
 8003c5c:	f107 0318 	add.w	r3, r7, #24
 8003c60:	b2db      	uxtb	r3, r3
 8003c62:	2b01      	cmp	r3, #1
 8003c64:	f63f aefa 	bhi.w	8003a5c <mount_volume+0x2b0>
 8003c68:	f894 306e 	ldrb.w	r3, [r4, #110]	; 0x6e
 8003c6c:	2b46      	cmp	r3, #70	; 0x46
 8003c6e:	d108      	bne.n	8003c82 <mount_volume+0x4d6>
 8003c70:	f894 306f 	ldrb.w	r3, [r4, #111]	; 0x6f
 8003c74:	2b41      	cmp	r3, #65	; 0x41
 8003c76:	d104      	bne.n	8003c82 <mount_volume+0x4d6>
 8003c78:	f894 3070 	ldrb.w	r3, [r4, #112]	; 0x70
 8003c7c:	2b54      	cmp	r3, #84	; 0x54
 8003c7e:	f43f af47 	beq.w	8003b10 <mount_volume+0x364>
 8003c82:	f894 308a 	ldrb.w	r3, [r4, #138]	; 0x8a
 8003c86:	2b46      	cmp	r3, #70	; 0x46
 8003c88:	f47f aee8 	bne.w	8003a5c <mount_volume+0x2b0>
 8003c8c:	f894 308b 	ldrb.w	r3, [r4, #139]	; 0x8b
 8003c90:	2b41      	cmp	r3, #65	; 0x41
 8003c92:	f47f aee3 	bne.w	8003a5c <mount_volume+0x2b0>
 8003c96:	f894 308c 	ldrb.w	r3, [r4, #140]	; 0x8c
 8003c9a:	2b54      	cmp	r3, #84	; 0x54
 8003c9c:	f47f aede 	bne.w	8003a5c <mount_volume+0x2b0>
 8003ca0:	f894 308d 	ldrb.w	r3, [r4, #141]	; 0x8d
 8003ca4:	2b33      	cmp	r3, #51	; 0x33
 8003ca6:	f47f aed9 	bne.w	8003a5c <mount_volume+0x2b0>
 8003caa:	f894 308e 	ldrb.w	r3, [r4, #142]	; 0x8e
 8003cae:	2b32      	cmp	r3, #50	; 0x32
 8003cb0:	f43f af2e 	beq.w	8003b10 <mount_volume+0x364>
 8003cb4:	e6d2      	b.n	8003a5c <mount_volume+0x2b0>
 8003cb6:	f894 308a 	ldrb.w	r3, [r4, #138]	; 0x8a
 8003cba:	2b46      	cmp	r3, #70	; 0x46
 8003cbc:	f47f aed0 	bne.w	8003a60 <mount_volume+0x2b4>
 8003cc0:	f894 308b 	ldrb.w	r3, [r4, #139]	; 0x8b
 8003cc4:	2b41      	cmp	r3, #65	; 0x41
 8003cc6:	f47f aecb 	bne.w	8003a60 <mount_volume+0x2b4>
 8003cca:	f894 308c 	ldrb.w	r3, [r4, #140]	; 0x8c
 8003cce:	2b54      	cmp	r3, #84	; 0x54
 8003cd0:	f47f aec6 	bne.w	8003a60 <mount_volume+0x2b4>
 8003cd4:	f894 308d 	ldrb.w	r3, [r4, #141]	; 0x8d
 8003cd8:	2b33      	cmp	r3, #51	; 0x33
 8003cda:	f47f aec1 	bne.w	8003a60 <mount_volume+0x2b4>
 8003cde:	f894 308e 	ldrb.w	r3, [r4, #142]	; 0x8e
 8003ce2:	2b32      	cmp	r3, #50	; 0x32
 8003ce4:	f43f af14 	beq.w	8003b10 <mount_volume+0x364>
 8003ce8:	e6ba      	b.n	8003a60 <mount_volume+0x2b4>
 8003cea:	6367      	str	r7, [r4, #52]	; 0x34
 8003cec:	e6b8      	b.n	8003a60 <mount_volume+0x2b4>
 8003cee:	6367      	str	r7, [r4, #52]	; 0x34
 8003cf0:	e6b9      	b.n	8003a66 <mount_volume+0x2ba>
 8003cf2:	f894 c063 	ldrb.w	ip, [r4, #99]	; 0x63
 8003cf6:	f894 0062 	ldrb.w	r0, [r4, #98]	; 0x62
 8003cfa:	61e2      	str	r2, [r4, #28]
 8003cfc:	ea50 200c 	orrs.w	r0, r0, ip, lsl #8
 8003d00:	e9c4 1509 	strd	r1, r5, [r4, #36]	; 0x24
 8003d04:	6327      	str	r7, [r4, #48]	; 0x30
 8003d06:	f47f aeb2 	bne.w	8003a6e <mount_volume+0x2c2>
 8003d0a:	2e00      	cmp	r6, #0
 8003d0c:	f47f aeaf 	bne.w	8003a6e <mount_volume+0x2c2>
 8003d10:	f8b4 7066 	ldrh.w	r7, [r4, #102]	; 0x66
 8003d14:	f894 5065 	ldrb.w	r5, [r4, #101]	; 0x65
 8003d18:	f894 0064 	ldrb.w	r0, [r4, #100]	; 0x64
 8003d1c:	0092      	lsls	r2, r2, #2
 8003d1e:	ea45 2507 	orr.w	r5, r5, r7, lsl #8
 8003d22:	f202 12ff 	addw	r2, r2, #511	; 0x1ff
 8003d26:	ea40 2005 	orr.w	r0, r0, r5, lsl #8
 8003d2a:	ebb3 2f52 	cmp.w	r3, r2, lsr #9
 8003d2e:	62e0      	str	r0, [r4, #44]	; 0x2c
 8003d30:	f4ff ae9d 	bcc.w	8003a6e <mount_volume+0x2c2>
 8003d34:	f894 2069 	ldrb.w	r2, [r4, #105]	; 0x69
 8003d38:	f894 3068 	ldrb.w	r3, [r4, #104]	; 0x68
 8003d3c:	ea43 2302 	orr.w	r3, r3, r2, lsl #8
 8003d40:	2080      	movs	r0, #128	; 0x80
 8003d42:	f04f 32ff 	mov.w	r2, #4294967295
 8003d46:	2b01      	cmp	r3, #1
 8003d48:	e9c4 2204 	strd	r2, r2, [r4, #16]
 8003d4c:	7120      	strb	r0, [r4, #4]
 8003d4e:	d009      	beq.n	8003d64 <mount_volume+0x5b8>
 8003d50:	2103      	movs	r1, #3
 8003d52:	e638      	b.n	80039c6 <mount_volume+0x21a>
 8003d54:	2e00      	cmp	r6, #0
 8003d56:	f43f ae8a 	beq.w	8003a6e <mount_volume+0x2c2>
 8003d5a:	4475      	add	r5, lr
 8003d5c:	62e5      	str	r5, [r4, #44]	; 0x2c
 8003d5e:	0052      	lsls	r2, r2, #1
 8003d60:	2102      	movs	r1, #2
 8003d62:	e625      	b.n	80039b0 <mount_volume+0x204>
 8003d64:	3101      	adds	r1, #1
 8003d66:	4620      	mov	r0, r4
 8003d68:	f7ff fa3e 	bl	80031e8 <move_window.part.4>
 8003d6c:	2800      	cmp	r0, #0
 8003d6e:	d1ef      	bne.n	8003d50 <mount_volume+0x5a4>
 8003d70:	f894 2237 	ldrb.w	r2, [r4, #567]	; 0x237
 8003d74:	f894 3236 	ldrb.w	r3, [r4, #566]	; 0x236
 8003d78:	7126      	strb	r6, [r4, #4]
 8003d7a:	ea43 2302 	orr.w	r3, r3, r2, lsl #8
 8003d7e:	f64a 2255 	movw	r2, #43605	; 0xaa55
 8003d82:	4293      	cmp	r3, r2
 8003d84:	d1e4      	bne.n	8003d50 <mount_volume+0x5a4>
 8003d86:	8f61      	ldrh	r1, [r4, #58]	; 0x3a
 8003d88:	f894 2039 	ldrb.w	r2, [r4, #57]	; 0x39
 8003d8c:	f894 3038 	ldrb.w	r3, [r4, #56]	; 0x38
 8003d90:	ea42 2201 	orr.w	r2, r2, r1, lsl #8
 8003d94:	f245 2152 	movw	r1, #21074	; 0x5252
 8003d98:	ea43 2302 	orr.w	r3, r3, r2, lsl #8
 8003d9c:	f2c4 1161 	movt	r1, #16737	; 0x4161
 8003da0:	428b      	cmp	r3, r1
 8003da2:	d1d5      	bne.n	8003d50 <mount_volume+0x5a4>
 8003da4:	f8b4 121e 	ldrh.w	r1, [r4, #542]	; 0x21e
 8003da8:	f894 221d 	ldrb.w	r2, [r4, #541]	; 0x21d
 8003dac:	f894 321c 	ldrb.w	r3, [r4, #540]	; 0x21c
 8003db0:	ea42 2201 	orr.w	r2, r2, r1, lsl #8
 8003db4:	f247 2172 	movw	r1, #29298	; 0x7272
 8003db8:	ea43 2302 	orr.w	r3, r3, r2, lsl #8
 8003dbc:	f2c6 1141 	movt	r1, #24897	; 0x6141
 8003dc0:	428b      	cmp	r3, r1
 8003dc2:	d1c5      	bne.n	8003d50 <mount_volume+0x5a4>
 8003dc4:	f8b4 1222 	ldrh.w	r1, [r4, #546]	; 0x222
 8003dc8:	f894 2221 	ldrb.w	r2, [r4, #545]	; 0x221
 8003dcc:	f894 3220 	ldrb.w	r3, [r4, #544]	; 0x220
 8003dd0:	ea42 2201 	orr.w	r2, r2, r1, lsl #8
 8003dd4:	ea43 2302 	orr.w	r3, r3, r2, lsl #8
 8003dd8:	6163      	str	r3, [r4, #20]
 8003dda:	e7b9      	b.n	8003d50 <mount_volume+0x5a4>

08003ddc <get_fat.isra.7>:
 8003ddc:	2901      	cmp	r1, #1
 8003dde:	d930      	bls.n	8003e42 <get_fat.isra.7+0x66>
 8003de0:	e92d 43f8 	stmdb	sp!, {r3, r4, r5, r6, r7, r8, r9, lr}
 8003de4:	69c3      	ldr	r3, [r0, #28]
 8003de6:	4299      	cmp	r1, r3
 8003de8:	d228      	bcs.n	8003e3c <get_fat.isra.7+0x60>
 8003dea:	7803      	ldrb	r3, [r0, #0]
 8003dec:	2b02      	cmp	r3, #2
 8003dee:	4606      	mov	r6, r0
 8003df0:	460c      	mov	r4, r1
 8003df2:	d03e      	beq.n	8003e72 <get_fat.isra.7+0x96>
 8003df4:	2b03      	cmp	r3, #3
 8003df6:	d026      	beq.n	8003e46 <get_fat.isra.7+0x6a>
 8003df8:	2b01      	cmp	r3, #1
 8003dfa:	d11f      	bne.n	8003e3c <get_fat.isra.7+0x60>
 8003dfc:	6a81      	ldr	r1, [r0, #40]	; 0x28
 8003dfe:	6b42      	ldr	r2, [r0, #52]	; 0x34
 8003e00:	eb04 0554 	add.w	r5, r4, r4, lsr #1
 8003e04:	eb01 2755 	add.w	r7, r1, r5, lsr #9
 8003e08:	4297      	cmp	r7, r2
 8003e0a:	d17c      	bne.n	8003f06 <get_fat.isra.7+0x12a>
 8003e0c:	f3c5 0308 	ubfx	r3, r5, #0, #9
 8003e10:	1c6f      	adds	r7, r5, #1
 8003e12:	4433      	add	r3, r6
 8003e14:	eb01 2857 	add.w	r8, r1, r7, lsr #9
 8003e18:	4590      	cmp	r8, r2
 8003e1a:	f893 5038 	ldrb.w	r5, [r3, #56]	; 0x38
 8003e1e:	f040 8091 	bne.w	8003f44 <get_fat.isra.7+0x168>
 8003e22:	f3c7 0008 	ubfx	r0, r7, #0, #9
 8003e26:	4430      	add	r0, r6
 8003e28:	07e3      	lsls	r3, r4, #31
 8003e2a:	f890 0038 	ldrb.w	r0, [r0, #56]	; 0x38
 8003e2e:	ea45 2000 	orr.w	r0, r5, r0, lsl #8
 8003e32:	bf4c      	ite	mi
 8003e34:	0900      	lsrmi	r0, r0, #4
 8003e36:	f3c0 000b 	ubfxpl	r0, r0, #0, #12
 8003e3a:	e000      	b.n	8003e3e <get_fat.isra.7+0x62>
 8003e3c:	2001      	movs	r0, #1
 8003e3e:	e8bd 83f8 	ldmia.w	sp!, {r3, r4, r5, r6, r7, r8, r9, pc}
 8003e42:	2001      	movs	r0, #1
 8003e44:	4770      	bx	lr
 8003e46:	6a85      	ldr	r5, [r0, #40]	; 0x28
 8003e48:	6b42      	ldr	r2, [r0, #52]	; 0x34
 8003e4a:	eb05 15d1 	add.w	r5, r5, r1, lsr #7
 8003e4e:	4295      	cmp	r5, r2
 8003e50:	f100 0738 	add.w	r7, r0, #56	; 0x38
 8003e54:	d13a      	bne.n	8003ecc <get_fat.isra.7+0xf0>
 8003e56:	00a1      	lsls	r1, r4, #2
 8003e58:	f401 71fe 	and.w	r1, r1, #508	; 0x1fc
 8003e5c:	187a      	adds	r2, r7, r1
 8003e5e:	5c78      	ldrb	r0, [r7, r1]
 8003e60:	7853      	ldrb	r3, [r2, #1]
 8003e62:	8851      	ldrh	r1, [r2, #2]
 8003e64:	ea43 2301 	orr.w	r3, r3, r1, lsl #8
 8003e68:	ea40 2003 	orr.w	r0, r0, r3, lsl #8
 8003e6c:	f020 4070 	bic.w	r0, r0, #4026531840	; 0xf0000000
 8003e70:	e7e5      	b.n	8003e3e <get_fat.isra.7+0x62>
 8003e72:	6a85      	ldr	r5, [r0, #40]	; 0x28
 8003e74:	6b42      	ldr	r2, [r0, #52]	; 0x34
 8003e76:	eb05 2511 	add.w	r5, r5, r1, lsr #8
 8003e7a:	4295      	cmp	r5, r2
 8003e7c:	f100 0738 	add.w	r7, r0, #56	; 0x38
 8003e80:	d01b      	beq.n	8003eba <get_fat.isra.7+0xde>
 8003e82:	78c3      	ldrb	r3, [r0, #3]
 8003e84:	7840      	ldrb	r0, [r0, #1]
 8003e86:	b183      	cbz	r3, 8003eaa <get_fat.isra.7+0xce>
 8003e88:	2301      	movs	r3, #1
 8003e8a:	4639      	mov	r1, r7
 8003e8c:	f7ff f8ae 	bl	8002fec <disk_write>
 8003e90:	2800      	cmp	r0, #0
 8003e92:	d179      	bne.n	8003f88 <get_fat.isra.7+0x1ac>
 8003e94:	6b71      	ldr	r1, [r6, #52]	; 0x34
 8003e96:	6ab3      	ldr	r3, [r6, #40]	; 0x28
 8003e98:	6a32      	ldr	r2, [r6, #32]
 8003e9a:	70f0      	strb	r0, [r6, #3]
 8003e9c:	1acb      	subs	r3, r1, r3
 8003e9e:	4293      	cmp	r3, r2
 8003ea0:	d202      	bcs.n	8003ea8 <get_fat.isra.7+0xcc>
 8003ea2:	78b3      	ldrb	r3, [r6, #2]
 8003ea4:	2b02      	cmp	r3, #2
 8003ea6:	d072      	beq.n	8003f8e <get_fat.isra.7+0x1b2>
 8003ea8:	7870      	ldrb	r0, [r6, #1]
 8003eaa:	2301      	movs	r3, #1
 8003eac:	462a      	mov	r2, r5
 8003eae:	4639      	mov	r1, r7
 8003eb0:	f7ff f87e 	bl	8002fb0 <disk_read>
 8003eb4:	2800      	cmp	r0, #0
 8003eb6:	d163      	bne.n	8003f80 <get_fat.isra.7+0x1a4>
 8003eb8:	6375      	str	r5, [r6, #52]	; 0x34
 8003eba:	0061      	lsls	r1, r4, #1
 8003ebc:	f401 71ff 	and.w	r1, r1, #510	; 0x1fe
 8003ec0:	187b      	adds	r3, r7, r1
 8003ec2:	5c78      	ldrb	r0, [r7, r1]
 8003ec4:	785b      	ldrb	r3, [r3, #1]
 8003ec6:	ea40 2003 	orr.w	r0, r0, r3, lsl #8
 8003eca:	e7b8      	b.n	8003e3e <get_fat.isra.7+0x62>
 8003ecc:	78c3      	ldrb	r3, [r0, #3]
 8003ece:	7840      	ldrb	r0, [r0, #1]
 8003ed0:	b183      	cbz	r3, 8003ef4 <get_fat.isra.7+0x118>
 8003ed2:	2301      	movs	r3, #1
 8003ed4:	4639      	mov	r1, r7
 8003ed6:	f7ff f889 	bl	8002fec <disk_write>
 8003eda:	2800      	cmp	r0, #0
 8003edc:	d154      	bne.n	8003f88 <get_fat.isra.7+0x1ac>
 8003ede:	6b71      	ldr	r1, [r6, #52]	; 0x34
 8003ee0:	6ab3      	ldr	r3, [r6, #40]	; 0x28
 8003ee2:	6a32      	ldr	r2, [r6, #32]
 8003ee4:	70f0      	strb	r0, [r6, #3]
 8003ee6:	1acb      	subs	r3, r1, r3
 8003ee8:	4293      	cmp	r3, r2
 8003eea:	7870      	ldrb	r0, [r6, #1]
 8003eec:	d202      	bcs.n	8003ef4 <get_fat.isra.7+0x118>
 8003eee:	78b3      	ldrb	r3, [r6, #2]
 8003ef0:	2b02      	cmp	r3, #2
 8003ef2:	d05a      	beq.n	8003faa <get_fat.isra.7+0x1ce>
 8003ef4:	2301      	movs	r3, #1
 8003ef6:	462a      	mov	r2, r5
 8003ef8:	4639      	mov	r1, r7
 8003efa:	f7ff f859 	bl	8002fb0 <disk_read>
 8003efe:	2800      	cmp	r0, #0
 8003f00:	d13e      	bne.n	8003f80 <get_fat.isra.7+0x1a4>
 8003f02:	6375      	str	r5, [r6, #52]	; 0x34
 8003f04:	e7a7      	b.n	8003e56 <get_fat.isra.7+0x7a>
 8003f06:	78c1      	ldrb	r1, [r0, #3]
 8003f08:	7840      	ldrb	r0, [r0, #1]
 8003f0a:	f106 0838 	add.w	r8, r6, #56	; 0x38
 8003f0e:	b179      	cbz	r1, 8003f30 <get_fat.isra.7+0x154>
 8003f10:	4641      	mov	r1, r8
 8003f12:	f7ff f86b 	bl	8002fec <disk_write>
 8003f16:	2800      	cmp	r0, #0
 8003f18:	d136      	bne.n	8003f88 <get_fat.isra.7+0x1ac>
 8003f1a:	6b71      	ldr	r1, [r6, #52]	; 0x34
 8003f1c:	6ab3      	ldr	r3, [r6, #40]	; 0x28
 8003f1e:	6a32      	ldr	r2, [r6, #32]
 8003f20:	70f0      	strb	r0, [r6, #3]
 8003f22:	1acb      	subs	r3, r1, r3
 8003f24:	4293      	cmp	r3, r2
 8003f26:	d202      	bcs.n	8003f2e <get_fat.isra.7+0x152>
 8003f28:	78b3      	ldrb	r3, [r6, #2]
 8003f2a:	2b02      	cmp	r3, #2
 8003f2c:	d036      	beq.n	8003f9c <get_fat.isra.7+0x1c0>
 8003f2e:	7870      	ldrb	r0, [r6, #1]
 8003f30:	4641      	mov	r1, r8
 8003f32:	2301      	movs	r3, #1
 8003f34:	463a      	mov	r2, r7
 8003f36:	f7ff f83b 	bl	8002fb0 <disk_read>
 8003f3a:	bb08      	cbnz	r0, 8003f80 <get_fat.isra.7+0x1a4>
 8003f3c:	6ab1      	ldr	r1, [r6, #40]	; 0x28
 8003f3e:	6377      	str	r7, [r6, #52]	; 0x34
 8003f40:	463a      	mov	r2, r7
 8003f42:	e763      	b.n	8003e0c <get_fat.isra.7+0x30>
 8003f44:	78f3      	ldrb	r3, [r6, #3]
 8003f46:	7870      	ldrb	r0, [r6, #1]
 8003f48:	f106 0938 	add.w	r9, r6, #56	; 0x38
 8003f4c:	b17b      	cbz	r3, 8003f6e <get_fat.isra.7+0x192>
 8003f4e:	2301      	movs	r3, #1
 8003f50:	4649      	mov	r1, r9
 8003f52:	f7ff f84b 	bl	8002fec <disk_write>
 8003f56:	b9b8      	cbnz	r0, 8003f88 <get_fat.isra.7+0x1ac>
 8003f58:	6b71      	ldr	r1, [r6, #52]	; 0x34
 8003f5a:	6ab3      	ldr	r3, [r6, #40]	; 0x28
 8003f5c:	6a32      	ldr	r2, [r6, #32]
 8003f5e:	70f0      	strb	r0, [r6, #3]
 8003f60:	1acb      	subs	r3, r1, r3
 8003f62:	4293      	cmp	r3, r2
 8003f64:	7870      	ldrb	r0, [r6, #1]
 8003f66:	d202      	bcs.n	8003f6e <get_fat.isra.7+0x192>
 8003f68:	78b3      	ldrb	r3, [r6, #2]
 8003f6a:	2b02      	cmp	r3, #2
 8003f6c:	d024      	beq.n	8003fb8 <get_fat.isra.7+0x1dc>
 8003f6e:	4649      	mov	r1, r9
 8003f70:	2301      	movs	r3, #1
 8003f72:	4642      	mov	r2, r8
 8003f74:	f7ff f81c 	bl	8002fb0 <disk_read>
 8003f78:	b910      	cbnz	r0, 8003f80 <get_fat.isra.7+0x1a4>
 8003f7a:	f8c6 8034 	str.w	r8, [r6, #52]	; 0x34
 8003f7e:	e750      	b.n	8003e22 <get_fat.isra.7+0x46>
 8003f80:	f04f 30ff 	mov.w	r0, #4294967295
 8003f84:	6370      	str	r0, [r6, #52]	; 0x34
 8003f86:	e75a      	b.n	8003e3e <get_fat.isra.7+0x62>
 8003f88:	f04f 30ff 	mov.w	r0, #4294967295
 8003f8c:	e757      	b.n	8003e3e <get_fat.isra.7+0x62>
 8003f8e:	440a      	add	r2, r1
 8003f90:	2301      	movs	r3, #1
 8003f92:	4639      	mov	r1, r7
 8003f94:	7870      	ldrb	r0, [r6, #1]
 8003f96:	f7ff f829 	bl	8002fec <disk_write>
 8003f9a:	e785      	b.n	8003ea8 <get_fat.isra.7+0xcc>
 8003f9c:	440a      	add	r2, r1
 8003f9e:	2301      	movs	r3, #1
 8003fa0:	4641      	mov	r1, r8
 8003fa2:	7870      	ldrb	r0, [r6, #1]
 8003fa4:	f7ff f822 	bl	8002fec <disk_write>
 8003fa8:	e7c1      	b.n	8003f2e <get_fat.isra.7+0x152>
 8003faa:	440a      	add	r2, r1
 8003fac:	2301      	movs	r3, #1
 8003fae:	4639      	mov	r1, r7
 8003fb0:	f7ff f81c 	bl	8002fec <disk_write>
 8003fb4:	7870      	ldrb	r0, [r6, #1]
 8003fb6:	e79d      	b.n	8003ef4 <get_fat.isra.7+0x118>
 8003fb8:	440a      	add	r2, r1
 8003fba:	2301      	movs	r3, #1
 8003fbc:	4649      	mov	r1, r9
 8003fbe:	f7ff f815 	bl	8002fec <disk_write>
 8003fc2:	7870      	ldrb	r0, [r6, #1]
 8003fc4:	e7d3      	b.n	8003f6e <get_fat.isra.7+0x192>
 8003fc6:	bf00      	nop

08003fc8 <create_chain>:
 8003fc8:	e92d 4ff0 	stmdb	sp!, {r4, r5, r6, r7, r8, r9, sl, fp, lr}
 8003fcc:	4681      	mov	r9, r0
 8003fce:	b083      	sub	sp, #12
 8003fd0:	468b      	mov	fp, r1
 8003fd2:	f8d0 8000 	ldr.w	r8, [r0]
 8003fd6:	bb91      	cbnz	r1, 800403e <create_chain+0x76>
 8003fd8:	f8d8 7010 	ldr.w	r7, [r8, #16]
 8003fdc:	b167      	cbz	r7, 8003ff8 <create_chain+0x30>
 8003fde:	f8d8 301c 	ldr.w	r3, [r8, #28]
 8003fe2:	42bb      	cmp	r3, r7
 8003fe4:	bf98      	it	ls
 8003fe6:	2701      	movls	r7, #1
 8003fe8:	f8d8 3014 	ldr.w	r3, [r8, #20]
 8003fec:	b94b      	cbnz	r3, 8004002 <create_chain+0x3a>
 8003fee:	2400      	movs	r4, #0
 8003ff0:	4620      	mov	r0, r4
 8003ff2:	b003      	add	sp, #12
 8003ff4:	e8bd 8ff0 	ldmia.w	sp!, {r4, r5, r6, r7, r8, r9, sl, fp, pc}
 8003ff8:	f8d8 3014 	ldr.w	r3, [r8, #20]
 8003ffc:	2701      	movs	r7, #1
 8003ffe:	2b00      	cmp	r3, #0
 8004000:	d0f5      	beq.n	8003fee <create_chain+0x26>
 8004002:	f8d8 301c 	ldr.w	r3, [r8, #28]
 8004006:	f8cd b000 	str.w	fp, [sp]
 800400a:	463c      	mov	r4, r7
 800400c:	3401      	adds	r4, #1
 800400e:	429c      	cmp	r4, r3
 8004010:	f0c0 8081 	bcc.w	8004116 <create_chain+0x14e>
 8004014:	2f01      	cmp	r7, #1
 8004016:	d9ea      	bls.n	8003fee <create_chain+0x26>
 8004018:	f8d9 5000 	ldr.w	r5, [r9]
 800401c:	2402      	movs	r4, #2
 800401e:	69eb      	ldr	r3, [r5, #28]
 8004020:	42a3      	cmp	r3, r4
 8004022:	d907      	bls.n	8004034 <create_chain+0x6c>
 8004024:	782e      	ldrb	r6, [r5, #0]
 8004026:	2e02      	cmp	r6, #2
 8004028:	f000 809f 	beq.w	800416a <create_chain+0x1a2>
 800402c:	2e03      	cmp	r6, #3
 800402e:	d079      	beq.n	8004124 <create_chain+0x15c>
 8004030:	2e01      	cmp	r6, #1
 8004032:	d032      	beq.n	800409a <create_chain+0xd2>
 8004034:	2401      	movs	r4, #1
 8004036:	4620      	mov	r0, r4
 8004038:	b003      	add	sp, #12
 800403a:	e8bd 8ff0 	ldmia.w	sp!, {r4, r5, r6, r7, r8, r9, sl, fp, pc}
 800403e:	4640      	mov	r0, r8
 8004040:	f7ff fecc 	bl	8003ddc <get_fat.isra.7>
 8004044:	2801      	cmp	r0, #1
 8004046:	4604      	mov	r4, r0
 8004048:	d9f4      	bls.n	8004034 <create_chain+0x6c>
 800404a:	1c41      	adds	r1, r0, #1
 800404c:	f000 8115 	beq.w	800427a <create_chain+0x2b2>
 8004050:	f8d8 301c 	ldr.w	r3, [r8, #28]
 8004054:	4283      	cmp	r3, r0
 8004056:	d8cb      	bhi.n	8003ff0 <create_chain+0x28>
 8004058:	f8d8 2014 	ldr.w	r2, [r8, #20]
 800405c:	2a00      	cmp	r2, #0
 800405e:	d0c6      	beq.n	8003fee <create_chain+0x26>
 8004060:	f10b 0401 	add.w	r4, fp, #1
 8004064:	42a3      	cmp	r3, r4
 8004066:	bf98      	it	ls
 8004068:	2402      	movls	r4, #2
 800406a:	4621      	mov	r1, r4
 800406c:	f8d9 0000 	ldr.w	r0, [r9]
 8004070:	f7ff feb4 	bl	8003ddc <get_fat.isra.7>
 8004074:	2801      	cmp	r0, #1
 8004076:	d0dd      	beq.n	8004034 <create_chain+0x6c>
 8004078:	1c42      	adds	r2, r0, #1
 800407a:	f000 80fe 	beq.w	800427a <create_chain+0x2b2>
 800407e:	2800      	cmp	r0, #0
 8004080:	f000 810d 	beq.w	800429e <create_chain+0x2d6>
 8004084:	f8d8 7010 	ldr.w	r7, [r8, #16]
 8004088:	f8d8 301c 	ldr.w	r3, [r8, #28]
 800408c:	2f01      	cmp	r7, #1
 800408e:	f240 810f 	bls.w	80042b0 <create_chain+0x2e8>
 8004092:	429f      	cmp	r7, r3
 8004094:	bf28      	it	cs
 8004096:	465f      	movcs	r7, fp
 8004098:	e7b5      	b.n	8004006 <create_chain+0x3e>
 800409a:	6aa9      	ldr	r1, [r5, #40]	; 0x28
 800409c:	6b6a      	ldr	r2, [r5, #52]	; 0x34
 800409e:	eb04 0a54 	add.w	sl, r4, r4, lsr #1
 80040a2:	eb01 2b5a 	add.w	fp, r1, sl, lsr #9
 80040a6:	4593      	cmp	fp, r2
 80040a8:	f040 8090 	bne.w	80041cc <create_chain+0x204>
 80040ac:	f3ca 0308 	ubfx	r3, sl, #0, #9
 80040b0:	f10a 0a01 	add.w	sl, sl, #1
 80040b4:	442b      	add	r3, r5
 80040b6:	eb01 265a 	add.w	r6, r1, sl, lsr #9
 80040ba:	4296      	cmp	r6, r2
 80040bc:	f893 b038 	ldrb.w	fp, [r3, #56]	; 0x38
 80040c0:	f000 80df 	beq.w	8004282 <create_chain+0x2ba>
 80040c4:	78eb      	ldrb	r3, [r5, #3]
 80040c6:	7868      	ldrb	r0, [r5, #1]
 80040c8:	f105 0138 	add.w	r1, r5, #56	; 0x38
 80040cc:	9101      	str	r1, [sp, #4]
 80040ce:	b1b3      	cbz	r3, 80040fe <create_chain+0x136>
 80040d0:	2301      	movs	r3, #1
 80040d2:	f7fe ff8b 	bl	8002fec <disk_write>
 80040d6:	2800      	cmp	r0, #0
 80040d8:	f040 80cf 	bne.w	800427a <create_chain+0x2b2>
 80040dc:	6b69      	ldr	r1, [r5, #52]	; 0x34
 80040de:	6aab      	ldr	r3, [r5, #40]	; 0x28
 80040e0:	6a2a      	ldr	r2, [r5, #32]
 80040e2:	70e8      	strb	r0, [r5, #3]
 80040e4:	1acb      	subs	r3, r1, r3
 80040e6:	4293      	cmp	r3, r2
 80040e8:	7868      	ldrb	r0, [r5, #1]
 80040ea:	d208      	bcs.n	80040fe <create_chain+0x136>
 80040ec:	78ab      	ldrb	r3, [r5, #2]
 80040ee:	2b02      	cmp	r3, #2
 80040f0:	d105      	bne.n	80040fe <create_chain+0x136>
 80040f2:	440a      	add	r2, r1
 80040f4:	2301      	movs	r3, #1
 80040f6:	9901      	ldr	r1, [sp, #4]
 80040f8:	f7fe ff78 	bl	8002fec <disk_write>
 80040fc:	7868      	ldrb	r0, [r5, #1]
 80040fe:	9901      	ldr	r1, [sp, #4]
 8004100:	2301      	movs	r3, #1
 8004102:	4632      	mov	r2, r6
 8004104:	f7fe ff54 	bl	8002fb0 <disk_read>
 8004108:	2800      	cmp	r0, #0
 800410a:	f000 80b9 	beq.w	8004280 <create_chain+0x2b8>
 800410e:	f04f 34ff 	mov.w	r4, #4294967295
 8004112:	636c      	str	r4, [r5, #52]	; 0x34
 8004114:	e76c      	b.n	8003ff0 <create_chain+0x28>
 8004116:	2c01      	cmp	r4, #1
 8004118:	f8d9 5000 	ldr.w	r5, [r9]
 800411c:	f63f af7f 	bhi.w	800401e <create_chain+0x56>
 8004120:	2401      	movs	r4, #1
 8004122:	e788      	b.n	8004036 <create_chain+0x6e>
 8004124:	6aae      	ldr	r6, [r5, #40]	; 0x28
 8004126:	6b6a      	ldr	r2, [r5, #52]	; 0x34
 8004128:	eb06 16d4 	add.w	r6, r6, r4, lsr #7
 800412c:	4296      	cmp	r6, r2
 800412e:	f105 0a38 	add.w	sl, r5, #56	; 0x38
 8004132:	d16e      	bne.n	8004212 <create_chain+0x24a>
 8004134:	00a3      	lsls	r3, r4, #2
 8004136:	f403 73fe 	and.w	r3, r3, #508	; 0x1fc
 800413a:	eb0a 0203 	add.w	r2, sl, r3
 800413e:	f81a 3003 	ldrb.w	r3, [sl, r3]
 8004142:	8851      	ldrh	r1, [r2, #2]
 8004144:	f892 b001 	ldrb.w	fp, [r2, #1]
 8004148:	ea4b 2b01 	orr.w	fp, fp, r1, lsl #8
 800414c:	ea43 230b 	orr.w	r3, r3, fp, lsl #8
 8004150:	f023 4370 	bic.w	r3, r3, #4026531840	; 0xf0000000
 8004154:	2b00      	cmp	r3, #0
 8004156:	d07f      	beq.n	8004258 <create_chain+0x290>
 8004158:	2b01      	cmp	r3, #1
 800415a:	f43f af6b 	beq.w	8004034 <create_chain+0x6c>
 800415e:	42a7      	cmp	r7, r4
 8004160:	f43f af45 	beq.w	8003fee <create_chain+0x26>
 8004164:	f8d8 301c 	ldr.w	r3, [r8, #28]
 8004168:	e750      	b.n	800400c <create_chain+0x44>
 800416a:	6aae      	ldr	r6, [r5, #40]	; 0x28
 800416c:	6b6a      	ldr	r2, [r5, #52]	; 0x34
 800416e:	eb06 2614 	add.w	r6, r6, r4, lsr #8
 8004172:	4296      	cmp	r6, r2
 8004174:	f105 0a38 	add.w	sl, r5, #56	; 0x38
 8004178:	d01c      	beq.n	80041b4 <create_chain+0x1ec>
 800417a:	78eb      	ldrb	r3, [r5, #3]
 800417c:	7868      	ldrb	r0, [r5, #1]
 800417e:	b18b      	cbz	r3, 80041a4 <create_chain+0x1dc>
 8004180:	2301      	movs	r3, #1
 8004182:	4651      	mov	r1, sl
 8004184:	f7fe ff32 	bl	8002fec <disk_write>
 8004188:	2800      	cmp	r0, #0
 800418a:	d176      	bne.n	800427a <create_chain+0x2b2>
 800418c:	6b69      	ldr	r1, [r5, #52]	; 0x34
 800418e:	6aab      	ldr	r3, [r5, #40]	; 0x28
 8004190:	6a2a      	ldr	r2, [r5, #32]
 8004192:	70e8      	strb	r0, [r5, #3]
 8004194:	1acb      	subs	r3, r1, r3
 8004196:	4293      	cmp	r3, r2
 8004198:	d203      	bcs.n	80041a2 <create_chain+0x1da>
 800419a:	78ab      	ldrb	r3, [r5, #2]
 800419c:	2b02      	cmp	r3, #2
 800419e:	f000 80af 	beq.w	8004300 <create_chain+0x338>
 80041a2:	7868      	ldrb	r0, [r5, #1]
 80041a4:	2301      	movs	r3, #1
 80041a6:	4632      	mov	r2, r6
 80041a8:	4651      	mov	r1, sl
 80041aa:	f7fe ff01 	bl	8002fb0 <disk_read>
 80041ae:	2800      	cmp	r0, #0
 80041b0:	d1ad      	bne.n	800410e <create_chain+0x146>
 80041b2:	636e      	str	r6, [r5, #52]	; 0x34
 80041b4:	0063      	lsls	r3, r4, #1
 80041b6:	f403 73ff 	and.w	r3, r3, #510	; 0x1fe
 80041ba:	eb0a 0203 	add.w	r2, sl, r3
 80041be:	f81a 3003 	ldrb.w	r3, [sl, r3]
 80041c2:	f892 b001 	ldrb.w	fp, [r2, #1]
 80041c6:	ea43 230b 	orr.w	r3, r3, fp, lsl #8
 80041ca:	e7c3      	b.n	8004154 <create_chain+0x18c>
 80041cc:	78eb      	ldrb	r3, [r5, #3]
 80041ce:	7868      	ldrb	r0, [r5, #1]
 80041d0:	f105 0138 	add.w	r1, r5, #56	; 0x38
 80041d4:	9101      	str	r1, [sp, #4]
 80041d6:	b18b      	cbz	r3, 80041fc <create_chain+0x234>
 80041d8:	4633      	mov	r3, r6
 80041da:	f7fe ff07 	bl	8002fec <disk_write>
 80041de:	2800      	cmp	r0, #0
 80041e0:	d14b      	bne.n	800427a <create_chain+0x2b2>
 80041e2:	6b69      	ldr	r1, [r5, #52]	; 0x34
 80041e4:	6aab      	ldr	r3, [r5, #40]	; 0x28
 80041e6:	6a2a      	ldr	r2, [r5, #32]
 80041e8:	70e8      	strb	r0, [r5, #3]
 80041ea:	1acb      	subs	r3, r1, r3
 80041ec:	4293      	cmp	r3, r2
 80041ee:	d203      	bcs.n	80041f8 <create_chain+0x230>
 80041f0:	78ab      	ldrb	r3, [r5, #2]
 80041f2:	2b02      	cmp	r3, #2
 80041f4:	f000 808b 	beq.w	800430e <create_chain+0x346>
 80041f8:	7868      	ldrb	r0, [r5, #1]
 80041fa:	9901      	ldr	r1, [sp, #4]
 80041fc:	2301      	movs	r3, #1
 80041fe:	465a      	mov	r2, fp
 8004200:	f7fe fed6 	bl	8002fb0 <disk_read>
 8004204:	2800      	cmp	r0, #0
 8004206:	d182      	bne.n	800410e <create_chain+0x146>
 8004208:	6aa9      	ldr	r1, [r5, #40]	; 0x28
 800420a:	f8c5 b034 	str.w	fp, [r5, #52]	; 0x34
 800420e:	465a      	mov	r2, fp
 8004210:	e74c      	b.n	80040ac <create_chain+0xe4>
 8004212:	78eb      	ldrb	r3, [r5, #3]
 8004214:	7868      	ldrb	r0, [r5, #1]
 8004216:	b1ab      	cbz	r3, 8004244 <create_chain+0x27c>
 8004218:	2301      	movs	r3, #1
 800421a:	4651      	mov	r1, sl
 800421c:	f7fe fee6 	bl	8002fec <disk_write>
 8004220:	bb58      	cbnz	r0, 800427a <create_chain+0x2b2>
 8004222:	6b69      	ldr	r1, [r5, #52]	; 0x34
 8004224:	6aab      	ldr	r3, [r5, #40]	; 0x28
 8004226:	6a2a      	ldr	r2, [r5, #32]
 8004228:	70e8      	strb	r0, [r5, #3]
 800422a:	1acb      	subs	r3, r1, r3
 800422c:	4293      	cmp	r3, r2
 800422e:	7868      	ldrb	r0, [r5, #1]
 8004230:	d208      	bcs.n	8004244 <create_chain+0x27c>
 8004232:	78ab      	ldrb	r3, [r5, #2]
 8004234:	2b02      	cmp	r3, #2
 8004236:	d105      	bne.n	8004244 <create_chain+0x27c>
 8004238:	440a      	add	r2, r1
 800423a:	2301      	movs	r3, #1
 800423c:	4651      	mov	r1, sl
 800423e:	f7fe fed5 	bl	8002fec <disk_write>
 8004242:	7868      	ldrb	r0, [r5, #1]
 8004244:	2301      	movs	r3, #1
 8004246:	4632      	mov	r2, r6
 8004248:	4651      	mov	r1, sl
 800424a:	f7fe feb1 	bl	8002fb0 <disk_read>
 800424e:	2800      	cmp	r0, #0
 8004250:	f47f af5d 	bne.w	800410e <create_chain+0x146>
 8004254:	636e      	str	r6, [r5, #52]	; 0x34
 8004256:	e76d      	b.n	8004134 <create_chain+0x16c>
 8004258:	f8dd b000 	ldr.w	fp, [sp]
 800425c:	f8d8 301c 	ldr.w	r3, [r8, #28]
 8004260:	42a3      	cmp	r3, r4
 8004262:	f67f aee7 	bls.w	8004034 <create_chain+0x6c>
 8004266:	f04f 32ff 	mov.w	r2, #4294967295
 800426a:	4621      	mov	r1, r4
 800426c:	4640      	mov	r0, r8
 800426e:	f7ff f833 	bl	80032d8 <put_fat.part.6>
 8004272:	b1f8      	cbz	r0, 80042b4 <create_chain+0x2ec>
 8004274:	2801      	cmp	r0, #1
 8004276:	f47f aedd 	bne.w	8004034 <create_chain+0x6c>
 800427a:	f04f 34ff 	mov.w	r4, #4294967295
 800427e:	e6b7      	b.n	8003ff0 <create_chain+0x28>
 8004280:	636e      	str	r6, [r5, #52]	; 0x34
 8004282:	f3ca 0a08 	ubfx	sl, sl, #0, #9
 8004286:	4455      	add	r5, sl
 8004288:	f895 3038 	ldrb.w	r3, [r5, #56]	; 0x38
 800428c:	ea4b 2b03 	orr.w	fp, fp, r3, lsl #8
 8004290:	07e3      	lsls	r3, r4, #31
 8004292:	bf4c      	ite	mi
 8004294:	ea4f 131b 	movmi.w	r3, fp, lsr #4
 8004298:	f3cb 030b 	ubfxpl	r3, fp, #0, #12
 800429c:	e75a      	b.n	8004154 <create_chain+0x18c>
 800429e:	b91c      	cbnz	r4, 80042a8 <create_chain+0x2e0>
 80042a0:	f8d8 301c 	ldr.w	r3, [r8, #28]
 80042a4:	465f      	mov	r7, fp
 80042a6:	e6ae      	b.n	8004006 <create_chain+0x3e>
 80042a8:	2c01      	cmp	r4, #1
 80042aa:	f43f aec3 	beq.w	8004034 <create_chain+0x6c>
 80042ae:	e7d5      	b.n	800425c <create_chain+0x294>
 80042b0:	465f      	mov	r7, fp
 80042b2:	e6a8      	b.n	8004006 <create_chain+0x3e>
 80042b4:	f1bb 0f00 	cmp.w	fp, #0
 80042b8:	d00f      	beq.n	80042da <create_chain+0x312>
 80042ba:	f1bb 0f01 	cmp.w	fp, #1
 80042be:	f67f aeb9 	bls.w	8004034 <create_chain+0x6c>
 80042c2:	f8d8 301c 	ldr.w	r3, [r8, #28]
 80042c6:	459b      	cmp	fp, r3
 80042c8:	f4bf aeb4 	bcs.w	8004034 <create_chain+0x6c>
 80042cc:	4659      	mov	r1, fp
 80042ce:	4622      	mov	r2, r4
 80042d0:	4640      	mov	r0, r8
 80042d2:	f7ff f801 	bl	80032d8 <put_fat.part.6>
 80042d6:	2800      	cmp	r0, #0
 80042d8:	d1cc      	bne.n	8004274 <create_chain+0x2ac>
 80042da:	f8d8 301c 	ldr.w	r3, [r8, #28]
 80042de:	f8d8 2014 	ldr.w	r2, [r8, #20]
 80042e2:	f8c8 4010 	str.w	r4, [r8, #16]
 80042e6:	3b02      	subs	r3, #2
 80042e8:	429a      	cmp	r2, r3
 80042ea:	d802      	bhi.n	80042f2 <create_chain+0x32a>
 80042ec:	3a01      	subs	r2, #1
 80042ee:	f8c8 2014 	str.w	r2, [r8, #20]
 80042f2:	f898 3004 	ldrb.w	r3, [r8, #4]
 80042f6:	f043 0301 	orr.w	r3, r3, #1
 80042fa:	f888 3004 	strb.w	r3, [r8, #4]
 80042fe:	e677      	b.n	8003ff0 <create_chain+0x28>
 8004300:	440a      	add	r2, r1
 8004302:	2301      	movs	r3, #1
 8004304:	4651      	mov	r1, sl
 8004306:	7868      	ldrb	r0, [r5, #1]
 8004308:	f7fe fe70 	bl	8002fec <disk_write>
 800430c:	e749      	b.n	80041a2 <create_chain+0x1da>
 800430e:	440a      	add	r2, r1
 8004310:	4633      	mov	r3, r6
 8004312:	9901      	ldr	r1, [sp, #4]
 8004314:	7868      	ldrb	r0, [r5, #1]
 8004316:	f7fe fe69 	bl	8002fec <disk_write>
 800431a:	e76d      	b.n	80041f8 <create_chain+0x230>

0800431c <dir_alloc>:
 800431c:	e92d 4ff0 	stmdb	sp!, {r4, r5, r6, r7, r8, r9, sl, fp, lr}
 8004320:	b085      	sub	sp, #20
 8004322:	4604      	mov	r4, r0
 8004324:	468b      	mov	fp, r1
 8004326:	6807      	ldr	r7, [r0, #0]
 8004328:	f7ff f908 	bl	800353c <dir_sdi.constprop.18>
 800432c:	4681      	mov	r9, r0
 800432e:	b138      	cbz	r0, 8004340 <dir_alloc+0x24>
 8004330:	2804      	cmp	r0, #4
 8004332:	d101      	bne.n	8004338 <dir_alloc+0x1c>
 8004334:	f04f 0907 	mov.w	r9, #7
 8004338:	4648      	mov	r0, r9
 800433a:	b005      	add	sp, #20
 800433c:	e8bd 8ff0 	ldmia.w	sp!, {r4, r5, r6, r7, r8, r9, sl, fp, pc}
 8004340:	f64f 7aff 	movw	sl, #65535	; 0xffff
 8004344:	f107 0338 	add.w	r3, r7, #56	; 0x38
 8004348:	69a6      	ldr	r6, [r4, #24]
 800434a:	9001      	str	r0, [sp, #4]
 800434c:	f2c0 0a1f 	movt	sl, #31
 8004350:	4680      	mov	r8, r0
 8004352:	4699      	mov	r9, r3
 8004354:	6b7a      	ldr	r2, [r7, #52]	; 0x34
 8004356:	4296      	cmp	r6, r2
 8004358:	d022      	beq.n	80043a0 <dir_alloc+0x84>
 800435a:	78fb      	ldrb	r3, [r7, #3]
 800435c:	7878      	ldrb	r0, [r7, #1]
 800435e:	b17b      	cbz	r3, 8004380 <dir_alloc+0x64>
 8004360:	2301      	movs	r3, #1
 8004362:	4649      	mov	r1, r9
 8004364:	f7fe fe42 	bl	8002fec <disk_write>
 8004368:	b998      	cbnz	r0, 8004392 <dir_alloc+0x76>
 800436a:	6b79      	ldr	r1, [r7, #52]	; 0x34
 800436c:	6abb      	ldr	r3, [r7, #40]	; 0x28
 800436e:	6a3a      	ldr	r2, [r7, #32]
 8004370:	70f8      	strb	r0, [r7, #3]
 8004372:	1acb      	subs	r3, r1, r3
 8004374:	4293      	cmp	r3, r2
 8004376:	7878      	ldrb	r0, [r7, #1]
 8004378:	d202      	bcs.n	8004380 <dir_alloc+0x64>
 800437a:	78bb      	ldrb	r3, [r7, #2]
 800437c:	2b02      	cmp	r3, #2
 800437e:	d071      	beq.n	8004464 <dir_alloc+0x148>
 8004380:	2301      	movs	r3, #1
 8004382:	4632      	mov	r2, r6
 8004384:	4649      	mov	r1, r9
 8004386:	f7fe fe13 	bl	8002fb0 <disk_read>
 800438a:	b140      	cbz	r0, 800439e <dir_alloc+0x82>
 800438c:	f04f 33ff 	mov.w	r3, #4294967295
 8004390:	637b      	str	r3, [r7, #52]	; 0x34
 8004392:	f04f 0901 	mov.w	r9, #1
 8004396:	4648      	mov	r0, r9
 8004398:	b005      	add	sp, #20
 800439a:	e8bd 8ff0 	ldmia.w	sp!, {r4, r5, r6, r7, r8, r9, sl, fp, pc}
 800439e:	637e      	str	r6, [r7, #52]	; 0x34
 80043a0:	69e3      	ldr	r3, [r4, #28]
 80043a2:	781b      	ldrb	r3, [r3, #0]
 80043a4:	2be5      	cmp	r3, #229	; 0xe5
 80043a6:	d00b      	beq.n	80043c0 <dir_alloc+0xa4>
 80043a8:	b153      	cbz	r3, 80043c0 <dir_alloc+0xa4>
 80043aa:	f04f 0800 	mov.w	r8, #0
 80043ae:	6925      	ldr	r5, [r4, #16]
 80043b0:	3520      	adds	r5, #32
 80043b2:	4555      	cmp	r5, sl
 80043b4:	d90b      	bls.n	80043ce <dir_alloc+0xb2>
 80043b6:	2300      	movs	r3, #0
 80043b8:	61a3      	str	r3, [r4, #24]
 80043ba:	f04f 0907 	mov.w	r9, #7
 80043be:	e7bb      	b.n	8004338 <dir_alloc+0x1c>
 80043c0:	f108 0801 	add.w	r8, r8, #1
 80043c4:	45d8      	cmp	r8, fp
 80043c6:	d1f2      	bne.n	80043ae <dir_alloc+0x92>
 80043c8:	f8dd 9004 	ldr.w	r9, [sp, #4]
 80043cc:	e7b4      	b.n	8004338 <dir_alloc+0x1c>
 80043ce:	69a6      	ldr	r6, [r4, #24]
 80043d0:	2e00      	cmp	r6, #0
 80043d2:	d0af      	beq.n	8004334 <dir_alloc+0x18>
 80043d4:	f3c5 0208 	ubfx	r2, r5, #0, #9
 80043d8:	6823      	ldr	r3, [r4, #0]
 80043da:	b93a      	cbnz	r2, 80043ec <dir_alloc+0xd0>
 80043dc:	6961      	ldr	r1, [r4, #20]
 80043de:	3601      	adds	r6, #1
 80043e0:	61a6      	str	r6, [r4, #24]
 80043e2:	b941      	cbnz	r1, 80043f6 <dir_alloc+0xda>
 80043e4:	8919      	ldrh	r1, [r3, #8]
 80043e6:	ebb1 1f55 	cmp.w	r1, r5, lsr #5
 80043ea:	d9e4      	bls.n	80043b6 <dir_alloc+0x9a>
 80043ec:	3338      	adds	r3, #56	; 0x38
 80043ee:	441a      	add	r2, r3
 80043f0:	61e2      	str	r2, [r4, #28]
 80043f2:	6125      	str	r5, [r4, #16]
 80043f4:	e7ae      	b.n	8004354 <dir_alloc+0x38>
 80043f6:	8958      	ldrh	r0, [r3, #10]
 80043f8:	3801      	subs	r0, #1
 80043fa:	ea10 2055 	ands.w	r0, r0, r5, lsr #9
 80043fe:	d1f5      	bne.n	80043ec <dir_alloc+0xd0>
 8004400:	4618      	mov	r0, r3
 8004402:	9203      	str	r2, [sp, #12]
 8004404:	9302      	str	r3, [sp, #8]
 8004406:	f7ff fce9 	bl	8003ddc <get_fat.isra.7>
 800440a:	2801      	cmp	r0, #1
 800440c:	4606      	mov	r6, r0
 800440e:	e9dd 3202 	ldrd	r3, r2, [sp, #8]
 8004412:	d92e      	bls.n	8004472 <dir_alloc+0x156>
 8004414:	1c41      	adds	r1, r0, #1
 8004416:	d0bc      	beq.n	8004392 <dir_alloc+0x76>
 8004418:	69d9      	ldr	r1, [r3, #28]
 800441a:	4288      	cmp	r0, r1
 800441c:	d315      	bcc.n	800444a <dir_alloc+0x12e>
 800441e:	6961      	ldr	r1, [r4, #20]
 8004420:	4620      	mov	r0, r4
 8004422:	e9cd 3202 	strd	r3, r2, [sp, #8]
 8004426:	f7ff fdcf 	bl	8003fc8 <create_chain>
 800442a:	4606      	mov	r6, r0
 800442c:	2800      	cmp	r0, #0
 800442e:	d081      	beq.n	8004334 <dir_alloc+0x18>
 8004430:	2801      	cmp	r0, #1
 8004432:	d01e      	beq.n	8004472 <dir_alloc+0x156>
 8004434:	1c43      	adds	r3, r0, #1
 8004436:	d0ac      	beq.n	8004392 <dir_alloc+0x76>
 8004438:	9b02      	ldr	r3, [sp, #8]
 800443a:	4601      	mov	r1, r0
 800443c:	4618      	mov	r0, r3
 800443e:	f7fe ff03 	bl	8003248 <dir_clear>
 8004442:	e9dd 3202 	ldrd	r3, r2, [sp, #8]
 8004446:	2800      	cmp	r0, #0
 8004448:	d1a3      	bne.n	8004392 <dir_alloc+0x76>
 800444a:	6166      	str	r6, [r4, #20]
 800444c:	69d9      	ldr	r1, [r3, #28]
 800444e:	3e02      	subs	r6, #2
 8004450:	3902      	subs	r1, #2
 8004452:	428e      	cmp	r6, r1
 8004454:	bf3b      	ittet	cc
 8004456:	8958      	ldrhcc	r0, [r3, #10]
 8004458:	6b19      	ldrcc	r1, [r3, #48]	; 0x30
 800445a:	2600      	movcs	r6, #0
 800445c:	fb06 1600 	mlacc	r6, r6, r0, r1
 8004460:	61a6      	str	r6, [r4, #24]
 8004462:	e7c3      	b.n	80043ec <dir_alloc+0xd0>
 8004464:	440a      	add	r2, r1
 8004466:	2301      	movs	r3, #1
 8004468:	4649      	mov	r1, r9
 800446a:	f7fe fdbf 	bl	8002fec <disk_write>
 800446e:	7878      	ldrb	r0, [r7, #1]
 8004470:	e786      	b.n	8004380 <dir_alloc+0x64>
 8004472:	f04f 0902 	mov.w	r9, #2
 8004476:	e75f      	b.n	8004338 <dir_alloc+0x1c>

08004478 <dir_read>:
 8004478:	e92d 4ff0 	stmdb	sp!, {r4, r5, r6, r7, r8, r9, sl, fp, lr}
 800447c:	6986      	ldr	r6, [r0, #24]
 800447e:	6807      	ldr	r7, [r0, #0]
 8004480:	b085      	sub	sp, #20
 8004482:	4604      	mov	r4, r0
 8004484:	2e00      	cmp	r6, #0
 8004486:	d076      	beq.n	8004576 <dir_read+0xfe>
 8004488:	23ff      	movs	r3, #255	; 0xff
 800448a:	f64f 79ff 	movw	r9, #65535	; 0xffff
 800448e:	468b      	mov	fp, r1
 8004490:	9301      	str	r3, [sp, #4]
 8004492:	4698      	mov	r8, r3
 8004494:	f2c0 091f 	movt	r9, #31
 8004498:	f107 0a38 	add.w	sl, r7, #56	; 0x38
 800449c:	6b7a      	ldr	r2, [r7, #52]	; 0x34
 800449e:	4296      	cmp	r6, r2
 80044a0:	d023      	beq.n	80044ea <dir_read+0x72>
 80044a2:	78fb      	ldrb	r3, [r7, #3]
 80044a4:	7878      	ldrb	r0, [r7, #1]
 80044a6:	b183      	cbz	r3, 80044ca <dir_read+0x52>
 80044a8:	2301      	movs	r3, #1
 80044aa:	4651      	mov	r1, sl
 80044ac:	f7fe fd9e 	bl	8002fec <disk_write>
 80044b0:	b9a0      	cbnz	r0, 80044dc <dir_read+0x64>
 80044b2:	6b79      	ldr	r1, [r7, #52]	; 0x34
 80044b4:	6abb      	ldr	r3, [r7, #40]	; 0x28
 80044b6:	6a3a      	ldr	r2, [r7, #32]
 80044b8:	70f8      	strb	r0, [r7, #3]
 80044ba:	1acb      	subs	r3, r1, r3
 80044bc:	4293      	cmp	r3, r2
 80044be:	7878      	ldrb	r0, [r7, #1]
 80044c0:	d203      	bcs.n	80044ca <dir_read+0x52>
 80044c2:	78bb      	ldrb	r3, [r7, #2]
 80044c4:	2b02      	cmp	r3, #2
 80044c6:	f000 8147 	beq.w	8004758 <dir_read+0x2e0>
 80044ca:	2301      	movs	r3, #1
 80044cc:	4632      	mov	r2, r6
 80044ce:	4651      	mov	r1, sl
 80044d0:	f7fe fd6e 	bl	8002fb0 <disk_read>
 80044d4:	b140      	cbz	r0, 80044e8 <dir_read+0x70>
 80044d6:	f04f 33ff 	mov.w	r3, #4294967295
 80044da:	637b      	str	r3, [r7, #52]	; 0x34
 80044dc:	2001      	movs	r0, #1
 80044de:	2300      	movs	r3, #0
 80044e0:	61a3      	str	r3, [r4, #24]
 80044e2:	b005      	add	sp, #20
 80044e4:	e8bd 8ff0 	ldmia.w	sp!, {r4, r5, r6, r7, r8, r9, sl, fp, pc}
 80044e8:	637e      	str	r6, [r7, #52]	; 0x34
 80044ea:	69e3      	ldr	r3, [r4, #28]
 80044ec:	7819      	ldrb	r1, [r3, #0]
 80044ee:	2900      	cmp	r1, #0
 80044f0:	d041      	beq.n	8004576 <dir_read+0xfe>
 80044f2:	7ada      	ldrb	r2, [r3, #11]
 80044f4:	29e5      	cmp	r1, #229	; 0xe5
 80044f6:	f002 023f 	and.w	r2, r2, #63	; 0x3f
 80044fa:	71a2      	strb	r2, [r4, #6]
 80044fc:	d00a      	beq.n	8004514 <dir_read+0x9c>
 80044fe:	292e      	cmp	r1, #46	; 0x2e
 8004500:	d008      	beq.n	8004514 <dir_read+0x9c>
 8004502:	f022 0020 	bic.w	r0, r2, #32
 8004506:	f1a0 0008 	sub.w	r0, r0, #8
 800450a:	fab0 f080 	clz	r0, r0
 800450e:	0940      	lsrs	r0, r0, #5
 8004510:	4558      	cmp	r0, fp
 8004512:	d037      	beq.n	8004584 <dir_read+0x10c>
 8004514:	f04f 08ff 	mov.w	r8, #255	; 0xff
 8004518:	6925      	ldr	r5, [r4, #16]
 800451a:	3520      	adds	r5, #32
 800451c:	454d      	cmp	r5, r9
 800451e:	d82a      	bhi.n	8004576 <dir_read+0xfe>
 8004520:	69a6      	ldr	r6, [r4, #24]
 8004522:	b346      	cbz	r6, 8004576 <dir_read+0xfe>
 8004524:	f3c5 0208 	ubfx	r2, r5, #0, #9
 8004528:	6823      	ldr	r3, [r4, #0]
 800452a:	bb32      	cbnz	r2, 800457a <dir_read+0x102>
 800452c:	6961      	ldr	r1, [r4, #20]
 800452e:	3601      	adds	r6, #1
 8004530:	61a6      	str	r6, [r4, #24]
 8004532:	b961      	cbnz	r1, 800454e <dir_read+0xd6>
 8004534:	891a      	ldrh	r2, [r3, #8]
 8004536:	ebb2 1f55 	cmp.w	r2, r5, lsr #5
 800453a:	d91c      	bls.n	8004576 <dir_read+0xfe>
 800453c:	3338      	adds	r3, #56	; 0x38
 800453e:	61e3      	str	r3, [r4, #28]
 8004540:	6125      	str	r5, [r4, #16]
 8004542:	2e00      	cmp	r6, #0
 8004544:	d1aa      	bne.n	800449c <dir_read+0x24>
 8004546:	2000      	movs	r0, #0
 8004548:	b005      	add	sp, #20
 800454a:	e8bd 8ff0 	ldmia.w	sp!, {r4, r5, r6, r7, r8, r9, sl, fp, pc}
 800454e:	895a      	ldrh	r2, [r3, #10]
 8004550:	3a01      	subs	r2, #1
 8004552:	ea12 2255 	ands.w	r2, r2, r5, lsr #9
 8004556:	d1f1      	bne.n	800453c <dir_read+0xc4>
 8004558:	4618      	mov	r0, r3
 800455a:	9203      	str	r2, [sp, #12]
 800455c:	9302      	str	r3, [sp, #8]
 800455e:	f7ff fc3d 	bl	8003ddc <get_fat.isra.7>
 8004562:	2801      	cmp	r0, #1
 8004564:	f240 80ff 	bls.w	8004766 <dir_read+0x2ee>
 8004568:	1c43      	adds	r3, r0, #1
 800456a:	d0b7      	beq.n	80044dc <dir_read+0x64>
 800456c:	9b02      	ldr	r3, [sp, #8]
 800456e:	69d9      	ldr	r1, [r3, #28]
 8004570:	4288      	cmp	r0, r1
 8004572:	f0c0 80e3 	bcc.w	800473c <dir_read+0x2c4>
 8004576:	2004      	movs	r0, #4
 8004578:	e7b1      	b.n	80044de <dir_read+0x66>
 800457a:	3338      	adds	r3, #56	; 0x38
 800457c:	441a      	add	r2, r3
 800457e:	61e2      	str	r2, [r4, #28]
 8004580:	6125      	str	r5, [r4, #16]
 8004582:	e78b      	b.n	800449c <dir_read+0x24>
 8004584:	2a0f      	cmp	r2, #15
 8004586:	f040 8168 	bne.w	800485a <dir_read+0x3e2>
 800458a:	0648      	lsls	r0, r1, #25
 800458c:	f140 80d2 	bpl.w	8004734 <dir_read+0x2bc>
 8004590:	7b58      	ldrb	r0, [r3, #13]
 8004592:	6922      	ldr	r2, [r4, #16]
 8004594:	9001      	str	r0, [sp, #4]
 8004596:	62e2      	str	r2, [r4, #44]	; 0x2c
 8004598:	f001 08bf 	and.w	r8, r1, #191	; 0xbf
 800459c:	7b5a      	ldrb	r2, [r3, #13]
 800459e:	9901      	ldr	r1, [sp, #4]
 80045a0:	428a      	cmp	r2, r1
 80045a2:	d1b7      	bne.n	8004514 <dir_read+0x9c>
 80045a4:	7ed9      	ldrb	r1, [r3, #27]
 80045a6:	7e9a      	ldrb	r2, [r3, #26]
 80045a8:	ea52 2201 	orrs.w	r2, r2, r1, lsl #8
 80045ac:	d1b2      	bne.n	8004514 <dir_read+0x9c>
 80045ae:	781a      	ldrb	r2, [r3, #0]
 80045b0:	7898      	ldrb	r0, [r3, #2]
 80045b2:	7859      	ldrb	r1, [r3, #1]
 80045b4:	f022 0240 	bic.w	r2, r2, #64	; 0x40
 80045b8:	3a01      	subs	r2, #1
 80045ba:	eb02 0542 	add.w	r5, r2, r2, lsl #1
 80045be:	eb02 0285 	add.w	r2, r2, r5, lsl #2
 80045c2:	2aff      	cmp	r2, #255	; 0xff
 80045c4:	ea41 2100 	orr.w	r1, r1, r0, lsl #8
 80045c8:	d8a4      	bhi.n	8004514 <dir_read+0x9c>
 80045ca:	68fd      	ldr	r5, [r7, #12]
 80045cc:	f825 1012 	strh.w	r1, [r5, r2, lsl #1]
 80045d0:	791e      	ldrb	r6, [r3, #4]
 80045d2:	78d8      	ldrb	r0, [r3, #3]
 80045d4:	ea40 2006 	orr.w	r0, r0, r6, lsl #8
 80045d8:	0056      	lsls	r6, r2, #1
 80045da:	2900      	cmp	r1, #0
 80045dc:	f000 80cb 	beq.w	8004776 <dir_read+0x2fe>
 80045e0:	1c51      	adds	r1, r2, #1
 80045e2:	f5b1 7f80 	cmp.w	r1, #256	; 0x100
 80045e6:	d095      	beq.n	8004514 <dir_read+0x9c>
 80045e8:	f825 0011 	strh.w	r0, [r5, r1, lsl #1]
 80045ec:	f893 c006 	ldrb.w	ip, [r3, #6]
 80045f0:	f893 e005 	ldrb.w	lr, [r3, #5]
 80045f4:	0049      	lsls	r1, r1, #1
 80045f6:	ea4e 2e0c 	orr.w	lr, lr, ip, lsl #8
 80045fa:	2800      	cmp	r0, #0
 80045fc:	f000 80c5 	beq.w	800478a <dir_read+0x312>
 8004600:	2afe      	cmp	r2, #254	; 0xfe
 8004602:	d087      	beq.n	8004514 <dir_read+0x9c>
 8004604:	4429      	add	r1, r5
 8004606:	f8a1 e002 	strh.w	lr, [r1, #2]
 800460a:	7a18      	ldrb	r0, [r3, #8]
 800460c:	f893 c007 	ldrb.w	ip, [r3, #7]
 8004610:	ea4c 2c00 	orr.w	ip, ip, r0, lsl #8
 8004614:	f1be 0f00 	cmp.w	lr, #0
 8004618:	f000 80c1 	beq.w	800479e <dir_read+0x326>
 800461c:	2afd      	cmp	r2, #253	; 0xfd
 800461e:	f43f af79 	beq.w	8004514 <dir_read+0x9c>
 8004622:	f8a1 c004 	strh.w	ip, [r1, #4]
 8004626:	f893 e00a 	ldrb.w	lr, [r3, #10]
 800462a:	7a58      	ldrb	r0, [r3, #9]
 800462c:	ea40 200e 	orr.w	r0, r0, lr, lsl #8
 8004630:	f1bc 0f00 	cmp.w	ip, #0
 8004634:	f000 80bc 	beq.w	80047b0 <dir_read+0x338>
 8004638:	2afc      	cmp	r2, #252	; 0xfc
 800463a:	f43f af6b 	beq.w	8004514 <dir_read+0x9c>
 800463e:	80c8      	strh	r0, [r1, #6]
 8004640:	f893 e00f 	ldrb.w	lr, [r3, #15]
 8004644:	f893 c00e 	ldrb.w	ip, [r3, #14]
 8004648:	ea4c 2c0e 	orr.w	ip, ip, lr, lsl #8
 800464c:	2800      	cmp	r0, #0
 800464e:	f000 80b9 	beq.w	80047c4 <dir_read+0x34c>
 8004652:	2afb      	cmp	r2, #251	; 0xfb
 8004654:	f43f af5e 	beq.w	8004514 <dir_read+0x9c>
 8004658:	f8a1 c008 	strh.w	ip, [r1, #8]
 800465c:	f893 e011 	ldrb.w	lr, [r3, #17]
 8004660:	7c18      	ldrb	r0, [r3, #16]
 8004662:	ea40 200e 	orr.w	r0, r0, lr, lsl #8
 8004666:	f1bc 0f00 	cmp.w	ip, #0
 800466a:	f000 80b4 	beq.w	80047d6 <dir_read+0x35e>
 800466e:	2afa      	cmp	r2, #250	; 0xfa
 8004670:	f43f af50 	beq.w	8004514 <dir_read+0x9c>
 8004674:	8148      	strh	r0, [r1, #10]
 8004676:	f893 e013 	ldrb.w	lr, [r3, #19]
 800467a:	f893 c012 	ldrb.w	ip, [r3, #18]
 800467e:	ea4c 2c0e 	orr.w	ip, ip, lr, lsl #8
 8004682:	2800      	cmp	r0, #0
 8004684:	f000 80b1 	beq.w	80047ea <dir_read+0x372>
 8004688:	2af9      	cmp	r2, #249	; 0xf9
 800468a:	f43f af43 	beq.w	8004514 <dir_read+0x9c>
 800468e:	f8a1 c00c 	strh.w	ip, [r1, #12]
 8004692:	f893 e015 	ldrb.w	lr, [r3, #21]
 8004696:	7d18      	ldrb	r0, [r3, #20]
 8004698:	ea40 200e 	orr.w	r0, r0, lr, lsl #8
 800469c:	f1bc 0f00 	cmp.w	ip, #0
 80046a0:	f000 80ac 	beq.w	80047fc <dir_read+0x384>
 80046a4:	2af8      	cmp	r2, #248	; 0xf8
 80046a6:	f43f af35 	beq.w	8004514 <dir_read+0x9c>
 80046aa:	81c8      	strh	r0, [r1, #14]
 80046ac:	f893 e017 	ldrb.w	lr, [r3, #23]
 80046b0:	f893 c016 	ldrb.w	ip, [r3, #22]
 80046b4:	ea4c 2c0e 	orr.w	ip, ip, lr, lsl #8
 80046b8:	2800      	cmp	r0, #0
 80046ba:	f000 80a9 	beq.w	8004810 <dir_read+0x398>
 80046be:	2af7      	cmp	r2, #247	; 0xf7
 80046c0:	f43f af28 	beq.w	8004514 <dir_read+0x9c>
 80046c4:	f8a1 c010 	strh.w	ip, [r1, #16]
 80046c8:	f893 e019 	ldrb.w	lr, [r3, #25]
 80046cc:	7e18      	ldrb	r0, [r3, #24]
 80046ce:	ea40 200e 	orr.w	r0, r0, lr, lsl #8
 80046d2:	f1bc 0f00 	cmp.w	ip, #0
 80046d6:	f000 80a4 	beq.w	8004822 <dir_read+0x3aa>
 80046da:	2af6      	cmp	r2, #246	; 0xf6
 80046dc:	f43f af1a 	beq.w	8004514 <dir_read+0x9c>
 80046e0:	8248      	strh	r0, [r1, #18]
 80046e2:	f893 e01d 	ldrb.w	lr, [r3, #29]
 80046e6:	f893 c01c 	ldrb.w	ip, [r3, #28]
 80046ea:	ea4c 2c0e 	orr.w	ip, ip, lr, lsl #8
 80046ee:	2800      	cmp	r0, #0
 80046f0:	f000 80a0 	beq.w	8004834 <dir_read+0x3bc>
 80046f4:	2af5      	cmp	r2, #245	; 0xf5
 80046f6:	f43f af0d 	beq.w	8004514 <dir_read+0x9c>
 80046fa:	f8a1 c014 	strh.w	ip, [r1, #20]
 80046fe:	f893 e01f 	ldrb.w	lr, [r3, #31]
 8004702:	7f98      	ldrb	r0, [r3, #30]
 8004704:	ea40 200e 	orr.w	r0, r0, lr, lsl #8
 8004708:	f1bc 0f00 	cmp.w	ip, #0
 800470c:	f000 809b 	beq.w	8004846 <dir_read+0x3ce>
 8004710:	2af4      	cmp	r2, #244	; 0xf4
 8004712:	f43f aeff 	beq.w	8004514 <dir_read+0x9c>
 8004716:	82c8      	strh	r0, [r1, #22]
 8004718:	781b      	ldrb	r3, [r3, #0]
 800471a:	0659      	lsls	r1, r3, #25
 800471c:	f140 8098 	bpl.w	8004850 <dir_read+0x3d8>
 8004720:	2800      	cmp	r0, #0
 8004722:	f000 8095 	beq.w	8004850 <dir_read+0x3d8>
 8004726:	2af3      	cmp	r2, #243	; 0xf3
 8004728:	f43f aef4 	beq.w	8004514 <dir_read+0x9c>
 800472c:	4435      	add	r5, r6
 800472e:	2300      	movs	r3, #0
 8004730:	836b      	strh	r3, [r5, #26]
 8004732:	e08d      	b.n	8004850 <dir_read+0x3d8>
 8004734:	4541      	cmp	r1, r8
 8004736:	f47f aeed 	bne.w	8004514 <dir_read+0x9c>
 800473a:	e72f      	b.n	800459c <dir_read+0x124>
 800473c:	6160      	str	r0, [r4, #20]
 800473e:	69d9      	ldr	r1, [r3, #28]
 8004740:	3802      	subs	r0, #2
 8004742:	3902      	subs	r1, #2
 8004744:	4288      	cmp	r0, r1
 8004746:	d310      	bcc.n	800476a <dir_read+0x2f2>
 8004748:	4629      	mov	r1, r5
 800474a:	9a03      	ldr	r2, [sp, #12]
 800474c:	6121      	str	r1, [r4, #16]
 800474e:	461d      	mov	r5, r3
 8004750:	3538      	adds	r5, #56	; 0x38
 8004752:	e9c4 2506 	strd	r2, r5, [r4, #24]
 8004756:	e6f6      	b.n	8004546 <dir_read+0xce>
 8004758:	440a      	add	r2, r1
 800475a:	2301      	movs	r3, #1
 800475c:	4651      	mov	r1, sl
 800475e:	f7fe fc45 	bl	8002fec <disk_write>
 8004762:	7878      	ldrb	r0, [r7, #1]
 8004764:	e6b1      	b.n	80044ca <dir_read+0x52>
 8004766:	2002      	movs	r0, #2
 8004768:	e6b9      	b.n	80044de <dir_read+0x66>
 800476a:	895e      	ldrh	r6, [r3, #10]
 800476c:	6b1a      	ldr	r2, [r3, #48]	; 0x30
 800476e:	fb00 2606 	mla	r6, r0, r6, r2
 8004772:	61a6      	str	r6, [r4, #24]
 8004774:	e6e2      	b.n	800453c <dir_read+0xc4>
 8004776:	f64f 72ff 	movw	r2, #65535	; 0xffff
 800477a:	4290      	cmp	r0, r2
 800477c:	f47f aeca 	bne.w	8004514 <dir_read+0x9c>
 8004780:	799a      	ldrb	r2, [r3, #6]
 8004782:	f893 e005 	ldrb.w	lr, [r3, #5]
 8004786:	ea4e 2e02 	orr.w	lr, lr, r2, lsl #8
 800478a:	f64f 72ff 	movw	r2, #65535	; 0xffff
 800478e:	4596      	cmp	lr, r2
 8004790:	f47f aec0 	bne.w	8004514 <dir_read+0x9c>
 8004794:	7a1a      	ldrb	r2, [r3, #8]
 8004796:	f893 c007 	ldrb.w	ip, [r3, #7]
 800479a:	ea4c 2c02 	orr.w	ip, ip, r2, lsl #8
 800479e:	f64f 72ff 	movw	r2, #65535	; 0xffff
 80047a2:	4594      	cmp	ip, r2
 80047a4:	f47f aeb6 	bne.w	8004514 <dir_read+0x9c>
 80047a8:	7a9a      	ldrb	r2, [r3, #10]
 80047aa:	7a58      	ldrb	r0, [r3, #9]
 80047ac:	ea40 2002 	orr.w	r0, r0, r2, lsl #8
 80047b0:	f64f 72ff 	movw	r2, #65535	; 0xffff
 80047b4:	4290      	cmp	r0, r2
 80047b6:	f47f aead 	bne.w	8004514 <dir_read+0x9c>
 80047ba:	7bda      	ldrb	r2, [r3, #15]
 80047bc:	f893 c00e 	ldrb.w	ip, [r3, #14]
 80047c0:	ea4c 2c02 	orr.w	ip, ip, r2, lsl #8
 80047c4:	f64f 72ff 	movw	r2, #65535	; 0xffff
 80047c8:	4594      	cmp	ip, r2
 80047ca:	f47f aea3 	bne.w	8004514 <dir_read+0x9c>
 80047ce:	7c5a      	ldrb	r2, [r3, #17]
 80047d0:	7c18      	ldrb	r0, [r3, #16]
 80047d2:	ea40 2002 	orr.w	r0, r0, r2, lsl #8
 80047d6:	f64f 72ff 	movw	r2, #65535	; 0xffff
 80047da:	4290      	cmp	r0, r2
 80047dc:	f47f ae9a 	bne.w	8004514 <dir_read+0x9c>
 80047e0:	7cda      	ldrb	r2, [r3, #19]
 80047e2:	f893 c012 	ldrb.w	ip, [r3, #18]
 80047e6:	ea4c 2c02 	orr.w	ip, ip, r2, lsl #8
 80047ea:	f64f 72ff 	movw	r2, #65535	; 0xffff
 80047ee:	4594      	cmp	ip, r2
 80047f0:	f47f ae90 	bne.w	8004514 <dir_read+0x9c>
 80047f4:	7d5a      	ldrb	r2, [r3, #21]
 80047f6:	7d18      	ldrb	r0, [r3, #20]
 80047f8:	ea40 2002 	orr.w	r0, r0, r2, lsl #8
 80047fc:	f64f 72ff 	movw	r2, #65535	; 0xffff
 8004800:	4290      	cmp	r0, r2
 8004802:	f47f ae87 	bne.w	8004514 <dir_read+0x9c>
 8004806:	7dda      	ldrb	r2, [r3, #23]
 8004808:	f893 c016 	ldrb.w	ip, [r3, #22]
 800480c:	ea4c 2c02 	orr.w	ip, ip, r2, lsl #8
 8004810:	f64f 72ff 	movw	r2, #65535	; 0xffff
 8004814:	4594      	cmp	ip, r2
 8004816:	f47f ae7d 	bne.w	8004514 <dir_read+0x9c>
 800481a:	7e59      	ldrb	r1, [r3, #25]
 800481c:	7e1a      	ldrb	r2, [r3, #24]
 800481e:	ea42 2001 	orr.w	r0, r2, r1, lsl #8
 8004822:	f64f 72ff 	movw	r2, #65535	; 0xffff
 8004826:	4290      	cmp	r0, r2
 8004828:	f47f ae74 	bne.w	8004514 <dir_read+0x9c>
 800482c:	7f59      	ldrb	r1, [r3, #29]
 800482e:	7f1a      	ldrb	r2, [r3, #28]
 8004830:	ea42 2c01 	orr.w	ip, r2, r1, lsl #8
 8004834:	f64f 72ff 	movw	r2, #65535	; 0xffff
 8004838:	4594      	cmp	ip, r2
 800483a:	f47f ae6b 	bne.w	8004514 <dir_read+0x9c>
 800483e:	7fda      	ldrb	r2, [r3, #31]
 8004840:	7f9b      	ldrb	r3, [r3, #30]
 8004842:	ea43 2002 	orr.w	r0, r3, r2, lsl #8
 8004846:	f64f 73ff 	movw	r3, #65535	; 0xffff
 800484a:	4298      	cmp	r0, r3
 800484c:	f47f ae62 	bne.w	8004514 <dir_read+0x9c>
 8004850:	f108 38ff 	add.w	r8, r8, #4294967295
 8004854:	fa5f f888 	uxtb.w	r8, r8
 8004858:	e65e      	b.n	8004518 <dir_read+0xa0>
 800485a:	f1b8 0f00 	cmp.w	r8, #0
 800485e:	d149      	bne.n	80048f4 <dir_read+0x47c>
 8004860:	7819      	ldrb	r1, [r3, #0]
 8004862:	7858      	ldrb	r0, [r3, #1]
 8004864:	7a5d      	ldrb	r5, [r3, #9]
 8004866:	01ca      	lsls	r2, r1, #7
 8004868:	ea42 0251 	orr.w	r2, r2, r1, lsr #1
 800486c:	1811      	adds	r1, r2, r0
 800486e:	f3c1 0246 	ubfx	r2, r1, #1, #7
 8004872:	7898      	ldrb	r0, [r3, #2]
 8004874:	ea42 12c1 	orr.w	r2, r2, r1, lsl #7
 8004878:	fa50 f182 	uxtab	r1, r0, r2
 800487c:	f3c1 0246 	ubfx	r2, r1, #1, #7
 8004880:	78d8      	ldrb	r0, [r3, #3]
 8004882:	ea42 12c1 	orr.w	r2, r2, r1, lsl #7
 8004886:	fa50 f182 	uxtab	r1, r0, r2
 800488a:	f3c1 0246 	ubfx	r2, r1, #1, #7
 800488e:	7918      	ldrb	r0, [r3, #4]
 8004890:	ea42 12c1 	orr.w	r2, r2, r1, lsl #7
 8004894:	fa50 f182 	uxtab	r1, r0, r2
 8004898:	f3c1 0246 	ubfx	r2, r1, #1, #7
 800489c:	7958      	ldrb	r0, [r3, #5]
 800489e:	ea42 12c1 	orr.w	r2, r2, r1, lsl #7
 80048a2:	fa50 f182 	uxtab	r1, r0, r2
 80048a6:	f3c1 0246 	ubfx	r2, r1, #1, #7
 80048aa:	7998      	ldrb	r0, [r3, #6]
 80048ac:	ea42 12c1 	orr.w	r2, r2, r1, lsl #7
 80048b0:	fa50 f182 	uxtab	r1, r0, r2
 80048b4:	f3c1 0246 	ubfx	r2, r1, #1, #7
 80048b8:	79d8      	ldrb	r0, [r3, #7]
 80048ba:	ea42 12c1 	orr.w	r2, r2, r1, lsl #7
 80048be:	fa50 f282 	uxtab	r2, r0, r2
 80048c2:	f3c2 0146 	ubfx	r1, r2, #1, #7
 80048c6:	7a18      	ldrb	r0, [r3, #8]
 80048c8:	ea41 11c2 	orr.w	r1, r1, r2, lsl #7
 80048cc:	fa50 f181 	uxtab	r1, r0, r1
 80048d0:	f3c1 0246 	ubfx	r2, r1, #1, #7
 80048d4:	7a98      	ldrb	r0, [r3, #10]
 80048d6:	ea42 13c1 	orr.w	r3, r2, r1, lsl #7
 80048da:	fa55 f283 	uxtab	r2, r5, r3
 80048de:	f3c2 0346 	ubfx	r3, r2, #1, #7
 80048e2:	ea43 13c2 	orr.w	r3, r3, r2, lsl #7
 80048e6:	fa50 f383 	uxtab	r3, r0, r3
 80048ea:	9a01      	ldr	r2, [sp, #4]
 80048ec:	b2db      	uxtb	r3, r3
 80048ee:	4293      	cmp	r3, r2
 80048f0:	f43f ae29 	beq.w	8004546 <dir_read+0xce>
 80048f4:	f04f 33ff 	mov.w	r3, #4294967295
 80048f8:	62e3      	str	r3, [r4, #44]	; 0x2c
 80048fa:	e624      	b.n	8004546 <dir_read+0xce>

080048fc <f_mount>:
 80048fc:	b510      	push	{r4, lr}
 80048fe:	b084      	sub	sp, #16
 8004900:	ab04      	add	r3, sp, #16
 8004902:	9001      	str	r0, [sp, #4]
 8004904:	f843 1d04 	str.w	r1, [r3, #-4]!
 8004908:	4618      	mov	r0, r3
 800490a:	9100      	str	r1, [sp, #0]
 800490c:	4614      	mov	r4, r2
 800490e:	f7fe fb9f 	bl	8003050 <get_ldnumber>
 8004912:	2800      	cmp	r0, #0
 8004914:	db1a      	blt.n	800494c <f_mount+0x50>
 8004916:	f240 231c 	movw	r3, #540	; 0x21c
 800491a:	f2c2 0300 	movt	r3, #8192	; 0x2000
 800491e:	f853 2020 	ldr.w	r2, [r3, r0, lsl #2]
 8004922:	b10a      	cbz	r2, 8004928 <f_mount+0x2c>
 8004924:	2100      	movs	r1, #0
 8004926:	7011      	strb	r1, [r2, #0]
 8004928:	9a01      	ldr	r2, [sp, #4]
 800492a:	b112      	cbz	r2, 8004932 <f_mount+0x36>
 800492c:	2100      	movs	r1, #0
 800492e:	7011      	strb	r1, [r2, #0]
 8004930:	9a01      	ldr	r2, [sp, #4]
 8004932:	f843 2020 	str.w	r2, [r3, r0, lsl #2]
 8004936:	b914      	cbnz	r4, 800493e <f_mount+0x42>
 8004938:	4620      	mov	r0, r4
 800493a:	b004      	add	sp, #16
 800493c:	bd10      	pop	{r4, pc}
 800493e:	2200      	movs	r2, #0
 8004940:	a901      	add	r1, sp, #4
 8004942:	4668      	mov	r0, sp
 8004944:	f7fe ff32 	bl	80037ac <mount_volume>
 8004948:	b004      	add	sp, #16
 800494a:	bd10      	pop	{r4, pc}
 800494c:	200b      	movs	r0, #11
 800494e:	b004      	add	sp, #16
 8004950:	bd10      	pop	{r4, pc}
 8004952:	bf00      	nop

08004954 <f_chdrive>:
 8004954:	b500      	push	{lr}
 8004956:	b083      	sub	sp, #12
 8004958:	ab02      	add	r3, sp, #8
 800495a:	f843 0d04 	str.w	r0, [r3, #-4]!
 800495e:	4618      	mov	r0, r3
 8004960:	f7fe fb76 	bl	8003050 <get_ldnumber>
 8004964:	1e02      	subs	r2, r0, #0
 8004966:	db08      	blt.n	800497a <f_chdrive+0x26>
 8004968:	f240 2318 	movw	r3, #536	; 0x218
 800496c:	f2c2 0300 	movt	r3, #8192	; 0x2000
 8004970:	2000      	movs	r0, #0
 8004972:	701a      	strb	r2, [r3, #0]
 8004974:	b003      	add	sp, #12
 8004976:	f85d fb04 	ldr.w	pc, [sp], #4
 800497a:	200b      	movs	r0, #11
 800497c:	b003      	add	sp, #12
 800497e:	f85d fb04 	ldr.w	pc, [sp], #4
 8004982:	bf00      	nop

08004984 <f_getfree>:
 8004984:	e92d 4ff0 	stmdb	sp!, {r4, r5, r6, r7, r8, r9, sl, fp, lr}
 8004988:	b085      	sub	sp, #20
 800498a:	460e      	mov	r6, r1
 800498c:	9001      	str	r0, [sp, #4]
 800498e:	9100      	str	r1, [sp, #0]
 8004990:	4615      	mov	r5, r2
 8004992:	a903      	add	r1, sp, #12
 8004994:	2200      	movs	r2, #0
 8004996:	a801      	add	r0, sp, #4
 8004998:	f7fe ff08 	bl	80037ac <mount_volume>
 800499c:	4680      	mov	r8, r0
 800499e:	2800      	cmp	r0, #0
 80049a0:	d145      	bne.n	8004a2e <f_getfree+0xaa>
 80049a2:	9c03      	ldr	r4, [sp, #12]
 80049a4:	602c      	str	r4, [r5, #0]
 80049a6:	69e5      	ldr	r5, [r4, #28]
 80049a8:	6963      	ldr	r3, [r4, #20]
 80049aa:	1eaa      	subs	r2, r5, #2
 80049ac:	4293      	cmp	r3, r2
 80049ae:	d942      	bls.n	8004a36 <f_getfree+0xb2>
 80049b0:	f894 9000 	ldrb.w	r9, [r4]
 80049b4:	f1b9 0f01 	cmp.w	r9, #1
 80049b8:	d042      	beq.n	8004a40 <f_getfree+0xbc>
 80049ba:	f8d4 a028 	ldr.w	sl, [r4, #40]	; 0x28
 80049be:	f104 0738 	add.w	r7, r4, #56	; 0x38
 80049c2:	4626      	mov	r6, r4
 80049c4:	4683      	mov	fp, r0
 80049c6:	4604      	mov	r4, r0
 80049c8:	4648      	mov	r0, r9
 80049ca:	2c00      	cmp	r4, #0
 80049cc:	d14d      	bne.n	8004a6a <f_getfree+0xe6>
 80049ce:	6b72      	ldr	r2, [r6, #52]	; 0x34
 80049d0:	4592      	cmp	sl, r2
 80049d2:	f10a 0901 	add.w	r9, sl, #1
 80049d6:	d047      	beq.n	8004a68 <f_getfree+0xe4>
 80049d8:	78f3      	ldrb	r3, [r6, #3]
 80049da:	7870      	ldrb	r0, [r6, #1]
 80049dc:	b18b      	cbz	r3, 8004a02 <f_getfree+0x7e>
 80049de:	2301      	movs	r3, #1
 80049e0:	4639      	mov	r1, r7
 80049e2:	f7fe fb03 	bl	8002fec <disk_write>
 80049e6:	2800      	cmp	r0, #0
 80049e8:	d166      	bne.n	8004ab8 <f_getfree+0x134>
 80049ea:	6b71      	ldr	r1, [r6, #52]	; 0x34
 80049ec:	6ab3      	ldr	r3, [r6, #40]	; 0x28
 80049ee:	6a32      	ldr	r2, [r6, #32]
 80049f0:	70f4      	strb	r4, [r6, #3]
 80049f2:	1acb      	subs	r3, r1, r3
 80049f4:	4293      	cmp	r3, r2
 80049f6:	7870      	ldrb	r0, [r6, #1]
 80049f8:	d203      	bcs.n	8004a02 <f_getfree+0x7e>
 80049fa:	78b3      	ldrb	r3, [r6, #2]
 80049fc:	2b02      	cmp	r3, #2
 80049fe:	f000 813d 	beq.w	8004c7c <f_getfree+0x2f8>
 8004a02:	4639      	mov	r1, r7
 8004a04:	2301      	movs	r3, #1
 8004a06:	4652      	mov	r2, sl
 8004a08:	f7fe fad2 	bl	8002fb0 <disk_read>
 8004a0c:	2800      	cmp	r0, #0
 8004a0e:	d048      	beq.n	8004aa2 <f_getfree+0x11e>
 8004a10:	f04f 33ff 	mov.w	r3, #4294967295
 8004a14:	6373      	str	r3, [r6, #52]	; 0x34
 8004a16:	9e03      	ldr	r6, [sp, #12]
 8004a18:	f04f 0801 	mov.w	r8, #1
 8004a1c:	9b00      	ldr	r3, [sp, #0]
 8004a1e:	f8c3 b000 	str.w	fp, [r3]
 8004a22:	7933      	ldrb	r3, [r6, #4]
 8004a24:	f8c6 b014 	str.w	fp, [r6, #20]
 8004a28:	f043 0301 	orr.w	r3, r3, #1
 8004a2c:	7133      	strb	r3, [r6, #4]
 8004a2e:	4640      	mov	r0, r8
 8004a30:	b005      	add	sp, #20
 8004a32:	e8bd 8ff0 	ldmia.w	sp!, {r4, r5, r6, r7, r8, r9, sl, fp, pc}
 8004a36:	4640      	mov	r0, r8
 8004a38:	6033      	str	r3, [r6, #0]
 8004a3a:	b005      	add	sp, #20
 8004a3c:	e8bd 8ff0 	ldmia.w	sp!, {r4, r5, r6, r7, r8, r9, sl, fp, pc}
 8004a40:	2d02      	cmp	r5, #2
 8004a42:	f240 8116 	bls.w	8004c72 <f_getfree+0x2ee>
 8004a46:	4626      	mov	r6, r4
 8004a48:	2502      	movs	r5, #2
 8004a4a:	4683      	mov	fp, r0
 8004a4c:	f104 0a38 	add.w	sl, r4, #56	; 0x38
 8004a50:	f1b9 0f02 	cmp.w	r9, #2
 8004a54:	d07d      	beq.n	8004b52 <f_getfree+0x1ce>
 8004a56:	f1b9 0f03 	cmp.w	r9, #3
 8004a5a:	d053      	beq.n	8004b04 <f_getfree+0x180>
 8004a5c:	f1b9 0f01 	cmp.w	r9, #1
 8004a60:	d02e      	beq.n	8004ac0 <f_getfree+0x13c>
 8004a62:	f04f 0802 	mov.w	r8, #2
 8004a66:	e7d9      	b.n	8004a1c <f_getfree+0x98>
 8004a68:	46ca      	mov	sl, r9
 8004a6a:	1939      	adds	r1, r7, r4
 8004a6c:	2802      	cmp	r0, #2
 8004a6e:	5d3b      	ldrb	r3, [r7, r4]
 8004a70:	784a      	ldrb	r2, [r1, #1]
 8004a72:	d00f      	beq.n	8004a94 <f_getfree+0x110>
 8004a74:	8849      	ldrh	r1, [r1, #2]
 8004a76:	ea42 2201 	orr.w	r2, r2, r1, lsl #8
 8004a7a:	ea43 2302 	orr.w	r3, r3, r2, lsl #8
 8004a7e:	f033 4370 	bics.w	r3, r3, #4026531840	; 0xf0000000
 8004a82:	bf08      	it	eq
 8004a84:	f10b 0b01 	addeq.w	fp, fp, #1
 8004a88:	3404      	adds	r4, #4
 8004a8a:	3d01      	subs	r5, #1
 8004a8c:	f3c4 0408 	ubfx	r4, r4, #0, #9
 8004a90:	d19b      	bne.n	80049ca <f_getfree+0x46>
 8004a92:	e7c3      	b.n	8004a1c <f_getfree+0x98>
 8004a94:	ea53 2302 	orrs.w	r3, r3, r2, lsl #8
 8004a98:	bf08      	it	eq
 8004a9a:	f10b 0b01 	addeq.w	fp, fp, #1
 8004a9e:	3402      	adds	r4, #2
 8004aa0:	e7f3      	b.n	8004a8a <f_getfree+0x106>
 8004aa2:	f8c6 a034 	str.w	sl, [r6, #52]	; 0x34
 8004aa6:	9e03      	ldr	r6, [sp, #12]
 8004aa8:	4637      	mov	r7, r6
 8004aaa:	46ca      	mov	sl, r9
 8004aac:	f817 0b38 	ldrb.w	r0, [r7], #56
 8004ab0:	e7db      	b.n	8004a6a <f_getfree+0xe6>
 8004ab2:	f04f 33ff 	mov.w	r3, #4294967295
 8004ab6:	6363      	str	r3, [r4, #52]	; 0x34
 8004ab8:	9e03      	ldr	r6, [sp, #12]
 8004aba:	f04f 0801 	mov.w	r8, #1
 8004abe:	e7ad      	b.n	8004a1c <f_getfree+0x98>
 8004ac0:	6aa1      	ldr	r1, [r4, #40]	; 0x28
 8004ac2:	6b62      	ldr	r2, [r4, #52]	; 0x34
 8004ac4:	eb05 0655 	add.w	r6, r5, r5, lsr #1
 8004ac8:	eb01 2756 	add.w	r7, r1, r6, lsr #9
 8004acc:	4297      	cmp	r7, r2
 8004ace:	f040 808f 	bne.w	8004bf0 <f_getfree+0x26c>
 8004ad2:	f3c6 0308 	ubfx	r3, r6, #0, #9
 8004ad6:	3601      	adds	r6, #1
 8004ad8:	4423      	add	r3, r4
 8004ada:	eb01 2956 	add.w	r9, r1, r6, lsr #9
 8004ade:	4591      	cmp	r9, r2
 8004ae0:	f893 7038 	ldrb.w	r7, [r3, #56]	; 0x38
 8004ae4:	f040 80a5 	bne.w	8004c32 <f_getfree+0x2ae>
 8004ae8:	f3c6 0608 	ubfx	r6, r6, #0, #9
 8004aec:	19a3      	adds	r3, r4, r6
 8004aee:	07ea      	lsls	r2, r5, #31
 8004af0:	f893 3038 	ldrb.w	r3, [r3, #56]	; 0x38
 8004af4:	9e03      	ldr	r6, [sp, #12]
 8004af6:	ea47 2303 	orr.w	r3, r7, r3, lsl #8
 8004afa:	bf4c      	ite	mi
 8004afc:	091b      	lsrmi	r3, r3, #4
 8004afe:	f3c3 030b 	ubfxpl	r3, r3, #0, #12
 8004b02:	e014      	b.n	8004b2e <f_getfree+0x1aa>
 8004b04:	6aa7      	ldr	r7, [r4, #40]	; 0x28
 8004b06:	6b62      	ldr	r2, [r4, #52]	; 0x34
 8004b08:	eb07 17d5 	add.w	r7, r7, r5, lsr #7
 8004b0c:	4297      	cmp	r7, r2
 8004b0e:	d14f      	bne.n	8004bb0 <f_getfree+0x22c>
 8004b10:	00ab      	lsls	r3, r5, #2
 8004b12:	f403 73fe 	and.w	r3, r3, #508	; 0x1fc
 8004b16:	eb0a 0103 	add.w	r1, sl, r3
 8004b1a:	f81a 3003 	ldrb.w	r3, [sl, r3]
 8004b1e:	8848      	ldrh	r0, [r1, #2]
 8004b20:	784a      	ldrb	r2, [r1, #1]
 8004b22:	ea42 2200 	orr.w	r2, r2, r0, lsl #8
 8004b26:	ea43 2302 	orr.w	r3, r3, r2, lsl #8
 8004b2a:	f023 4370 	bic.w	r3, r3, #4026531840	; 0xf0000000
 8004b2e:	2b01      	cmp	r3, #1
 8004b30:	d097      	beq.n	8004a62 <f_getfree+0xde>
 8004b32:	b90b      	cbnz	r3, 8004b38 <f_getfree+0x1b4>
 8004b34:	f10b 0b01 	add.w	fp, fp, #1
 8004b38:	69f3      	ldr	r3, [r6, #28]
 8004b3a:	3501      	adds	r5, #1
 8004b3c:	42ab      	cmp	r3, r5
 8004b3e:	f67f af6d 	bls.w	8004a1c <f_getfree+0x98>
 8004b42:	2d01      	cmp	r5, #1
 8004b44:	d98d      	bls.n	8004a62 <f_getfree+0xde>
 8004b46:	69e3      	ldr	r3, [r4, #28]
 8004b48:	429d      	cmp	r5, r3
 8004b4a:	d28a      	bcs.n	8004a62 <f_getfree+0xde>
 8004b4c:	f894 9000 	ldrb.w	r9, [r4]
 8004b50:	e77e      	b.n	8004a50 <f_getfree+0xcc>
 8004b52:	6aa7      	ldr	r7, [r4, #40]	; 0x28
 8004b54:	6b62      	ldr	r2, [r4, #52]	; 0x34
 8004b56:	eb07 2715 	add.w	r7, r7, r5, lsr #8
 8004b5a:	4297      	cmp	r7, r2
 8004b5c:	d01d      	beq.n	8004b9a <f_getfree+0x216>
 8004b5e:	78e3      	ldrb	r3, [r4, #3]
 8004b60:	7860      	ldrb	r0, [r4, #1]
 8004b62:	b18b      	cbz	r3, 8004b88 <f_getfree+0x204>
 8004b64:	2301      	movs	r3, #1
 8004b66:	4651      	mov	r1, sl
 8004b68:	f7fe fa40 	bl	8002fec <disk_write>
 8004b6c:	2800      	cmp	r0, #0
 8004b6e:	d1a3      	bne.n	8004ab8 <f_getfree+0x134>
 8004b70:	6b61      	ldr	r1, [r4, #52]	; 0x34
 8004b72:	6aa3      	ldr	r3, [r4, #40]	; 0x28
 8004b74:	6a22      	ldr	r2, [r4, #32]
 8004b76:	70e0      	strb	r0, [r4, #3]
 8004b78:	1acb      	subs	r3, r1, r3
 8004b7a:	4293      	cmp	r3, r2
 8004b7c:	d203      	bcs.n	8004b86 <f_getfree+0x202>
 8004b7e:	78a3      	ldrb	r3, [r4, #2]
 8004b80:	2b02      	cmp	r3, #2
 8004b82:	f000 8082 	beq.w	8004c8a <f_getfree+0x306>
 8004b86:	7860      	ldrb	r0, [r4, #1]
 8004b88:	2301      	movs	r3, #1
 8004b8a:	463a      	mov	r2, r7
 8004b8c:	4651      	mov	r1, sl
 8004b8e:	f7fe fa0f 	bl	8002fb0 <disk_read>
 8004b92:	2800      	cmp	r0, #0
 8004b94:	d18d      	bne.n	8004ab2 <f_getfree+0x12e>
 8004b96:	9e03      	ldr	r6, [sp, #12]
 8004b98:	6367      	str	r7, [r4, #52]	; 0x34
 8004b9a:	006b      	lsls	r3, r5, #1
 8004b9c:	f403 73ff 	and.w	r3, r3, #510	; 0x1fe
 8004ba0:	eb0a 0203 	add.w	r2, sl, r3
 8004ba4:	f81a 3003 	ldrb.w	r3, [sl, r3]
 8004ba8:	7852      	ldrb	r2, [r2, #1]
 8004baa:	ea43 2302 	orr.w	r3, r3, r2, lsl #8
 8004bae:	e7be      	b.n	8004b2e <f_getfree+0x1aa>
 8004bb0:	78e3      	ldrb	r3, [r4, #3]
 8004bb2:	7860      	ldrb	r0, [r4, #1]
 8004bb4:	b18b      	cbz	r3, 8004bda <f_getfree+0x256>
 8004bb6:	2301      	movs	r3, #1
 8004bb8:	4651      	mov	r1, sl
 8004bba:	f7fe fa17 	bl	8002fec <disk_write>
 8004bbe:	2800      	cmp	r0, #0
 8004bc0:	f47f af7a 	bne.w	8004ab8 <f_getfree+0x134>
 8004bc4:	6b61      	ldr	r1, [r4, #52]	; 0x34
 8004bc6:	6aa3      	ldr	r3, [r4, #40]	; 0x28
 8004bc8:	6a22      	ldr	r2, [r4, #32]
 8004bca:	70e0      	strb	r0, [r4, #3]
 8004bcc:	1acb      	subs	r3, r1, r3
 8004bce:	4293      	cmp	r3, r2
 8004bd0:	7860      	ldrb	r0, [r4, #1]
 8004bd2:	d202      	bcs.n	8004bda <f_getfree+0x256>
 8004bd4:	78a3      	ldrb	r3, [r4, #2]
 8004bd6:	2b02      	cmp	r3, #2
 8004bd8:	d05e      	beq.n	8004c98 <f_getfree+0x314>
 8004bda:	2301      	movs	r3, #1
 8004bdc:	463a      	mov	r2, r7
 8004bde:	4651      	mov	r1, sl
 8004be0:	f7fe f9e6 	bl	8002fb0 <disk_read>
 8004be4:	2800      	cmp	r0, #0
 8004be6:	f47f af64 	bne.w	8004ab2 <f_getfree+0x12e>
 8004bea:	9e03      	ldr	r6, [sp, #12]
 8004bec:	6367      	str	r7, [r4, #52]	; 0x34
 8004bee:	e78f      	b.n	8004b10 <f_getfree+0x18c>
 8004bf0:	78e3      	ldrb	r3, [r4, #3]
 8004bf2:	7860      	ldrb	r0, [r4, #1]
 8004bf4:	b18b      	cbz	r3, 8004c1a <f_getfree+0x296>
 8004bf6:	464b      	mov	r3, r9
 8004bf8:	4651      	mov	r1, sl
 8004bfa:	f7fe f9f7 	bl	8002fec <disk_write>
 8004bfe:	2800      	cmp	r0, #0
 8004c00:	f47f af09 	bne.w	8004a16 <f_getfree+0x92>
 8004c04:	6b61      	ldr	r1, [r4, #52]	; 0x34
 8004c06:	6aa3      	ldr	r3, [r4, #40]	; 0x28
 8004c08:	6a22      	ldr	r2, [r4, #32]
 8004c0a:	70e0      	strb	r0, [r4, #3]
 8004c0c:	1acb      	subs	r3, r1, r3
 8004c0e:	4293      	cmp	r3, r2
 8004c10:	d202      	bcs.n	8004c18 <f_getfree+0x294>
 8004c12:	78a3      	ldrb	r3, [r4, #2]
 8004c14:	2b02      	cmp	r3, #2
 8004c16:	d046      	beq.n	8004ca6 <f_getfree+0x322>
 8004c18:	7860      	ldrb	r0, [r4, #1]
 8004c1a:	2301      	movs	r3, #1
 8004c1c:	463a      	mov	r2, r7
 8004c1e:	4651      	mov	r1, sl
 8004c20:	f7fe f9c6 	bl	8002fb0 <disk_read>
 8004c24:	2800      	cmp	r0, #0
 8004c26:	f47f af44 	bne.w	8004ab2 <f_getfree+0x12e>
 8004c2a:	6aa1      	ldr	r1, [r4, #40]	; 0x28
 8004c2c:	6367      	str	r7, [r4, #52]	; 0x34
 8004c2e:	463a      	mov	r2, r7
 8004c30:	e74f      	b.n	8004ad2 <f_getfree+0x14e>
 8004c32:	78e3      	ldrb	r3, [r4, #3]
 8004c34:	7860      	ldrb	r0, [r4, #1]
 8004c36:	b18b      	cbz	r3, 8004c5c <f_getfree+0x2d8>
 8004c38:	2301      	movs	r3, #1
 8004c3a:	4651      	mov	r1, sl
 8004c3c:	f7fe f9d6 	bl	8002fec <disk_write>
 8004c40:	2800      	cmp	r0, #0
 8004c42:	f47f af39 	bne.w	8004ab8 <f_getfree+0x134>
 8004c46:	6b61      	ldr	r1, [r4, #52]	; 0x34
 8004c48:	6aa3      	ldr	r3, [r4, #40]	; 0x28
 8004c4a:	6a22      	ldr	r2, [r4, #32]
 8004c4c:	70e0      	strb	r0, [r4, #3]
 8004c4e:	1acb      	subs	r3, r1, r3
 8004c50:	4293      	cmp	r3, r2
 8004c52:	7860      	ldrb	r0, [r4, #1]
 8004c54:	d202      	bcs.n	8004c5c <f_getfree+0x2d8>
 8004c56:	78a3      	ldrb	r3, [r4, #2]
 8004c58:	2b02      	cmp	r3, #2
 8004c5a:	d02b      	beq.n	8004cb4 <f_getfree+0x330>
 8004c5c:	2301      	movs	r3, #1
 8004c5e:	464a      	mov	r2, r9
 8004c60:	4651      	mov	r1, sl
 8004c62:	f7fe f9a5 	bl	8002fb0 <disk_read>
 8004c66:	2800      	cmp	r0, #0
 8004c68:	f47f af23 	bne.w	8004ab2 <f_getfree+0x12e>
 8004c6c:	f8c4 9034 	str.w	r9, [r4, #52]	; 0x34
 8004c70:	e73a      	b.n	8004ae8 <f_getfree+0x164>
 8004c72:	4683      	mov	fp, r0
 8004c74:	4626      	mov	r6, r4
 8004c76:	f04f 0802 	mov.w	r8, #2
 8004c7a:	e6cf      	b.n	8004a1c <f_getfree+0x98>
 8004c7c:	440a      	add	r2, r1
 8004c7e:	2301      	movs	r3, #1
 8004c80:	4639      	mov	r1, r7
 8004c82:	f7fe f9b3 	bl	8002fec <disk_write>
 8004c86:	7870      	ldrb	r0, [r6, #1]
 8004c88:	e6bb      	b.n	8004a02 <f_getfree+0x7e>
 8004c8a:	440a      	add	r2, r1
 8004c8c:	2301      	movs	r3, #1
 8004c8e:	4651      	mov	r1, sl
 8004c90:	7860      	ldrb	r0, [r4, #1]
 8004c92:	f7fe f9ab 	bl	8002fec <disk_write>
 8004c96:	e776      	b.n	8004b86 <f_getfree+0x202>
 8004c98:	440a      	add	r2, r1
 8004c9a:	2301      	movs	r3, #1
 8004c9c:	4651      	mov	r1, sl
 8004c9e:	f7fe f9a5 	bl	8002fec <disk_write>
 8004ca2:	7860      	ldrb	r0, [r4, #1]
 8004ca4:	e799      	b.n	8004bda <f_getfree+0x256>
 8004ca6:	440a      	add	r2, r1
 8004ca8:	464b      	mov	r3, r9
 8004caa:	4651      	mov	r1, sl
 8004cac:	7860      	ldrb	r0, [r4, #1]
 8004cae:	f7fe f99d 	bl	8002fec <disk_write>
 8004cb2:	e7b1      	b.n	8004c18 <f_getfree+0x294>
 8004cb4:	440a      	add	r2, r1
 8004cb6:	2301      	movs	r3, #1
 8004cb8:	4651      	mov	r1, sl
 8004cba:	f7fe f997 	bl	8002fec <disk_write>
 8004cbe:	7860      	ldrb	r0, [r4, #1]
 8004cc0:	e7cc      	b.n	8004c5c <f_getfree+0x2d8>
 8004cc2:	bf00      	nop

08004cc4 <f_setlabel>:
 8004cc4:	b530      	push	{r4, r5, lr}
 8004cc6:	b097      	sub	sp, #92	; 0x5c
 8004cc8:	2202      	movs	r2, #2
 8004cca:	9001      	str	r0, [sp, #4]
 8004ccc:	a902      	add	r1, sp, #8
 8004cce:	a801      	add	r0, sp, #4
 8004cd0:	f7fe fd6c 	bl	80037ac <mount_volume>
 8004cd4:	4605      	mov	r5, r0
 8004cd6:	2800      	cmp	r0, #0
 8004cd8:	f040 80dd 	bne.w	8004e96 <f_setlabel+0x1d2>
 8004cdc:	9901      	ldr	r1, [sp, #4]
 8004cde:	780b      	ldrb	r3, [r1, #0]
 8004ce0:	f04f 3220 	mov.w	r2, #538976288	; 0x20202020
 8004ce4:	2b1f      	cmp	r3, #31
 8004ce6:	e9cd 2203 	strd	r2, r2, [sp, #12]
 8004cea:	f8cd 2013 	str.w	r2, [sp, #19]
 8004cee:	f240 80e4 	bls.w	8004eba <f_setlabel+0x1f6>
 8004cf2:	4604      	mov	r4, r0
 8004cf4:	2b80      	cmp	r3, #128	; 0x80
 8004cf6:	f101 0501 	add.w	r5, r1, #1
 8004cfa:	b298      	uxth	r0, r3
 8004cfc:	d907      	bls.n	8004d0e <f_setlabel+0x4a>
 8004cfe:	2b9f      	cmp	r3, #159	; 0x9f
 8004d00:	f240 80b8 	bls.w	8004e74 <f_setlabel+0x1b0>
 8004d04:	3320      	adds	r3, #32
 8004d06:	b2db      	uxtb	r3, r3
 8004d08:	2b1c      	cmp	r3, #28
 8004d0a:	f240 80b3 	bls.w	8004e74 <f_setlabel+0x1b0>
 8004d0e:	f44f 7169 	mov.w	r1, #932	; 0x3a4
 8004d12:	f000 fea3 	bl	8005a5c <ff_oem2uni>
 8004d16:	2800      	cmp	r0, #0
 8004d18:	f000 80bc 	beq.w	8004e94 <f_setlabel+0x1d0>
 8004d1c:	9501      	str	r5, [sp, #4]
 8004d1e:	f000 ff6f 	bl	8005c00 <ff_wtoupper>
 8004d22:	f44f 7169 	mov.w	r1, #932	; 0x3a4
 8004d26:	f000 fdc3 	bl	80058b0 <ff_uni2oem>
 8004d2a:	2800      	cmp	r0, #0
 8004d2c:	f000 80b2 	beq.w	8004e94 <f_setlabel+0x1d0>
 8004d30:	282b      	cmp	r0, #43	; 0x2b
 8004d32:	f000 80af 	beq.w	8004e94 <f_setlabel+0x1d0>
 8004d36:	f248 3285 	movw	r2, #33669	; 0x8385
 8004d3a:	f6c0 0200 	movt	r2, #2048	; 0x800
 8004d3e:	232e      	movs	r3, #46	; 0x2e
 8004d40:	4298      	cmp	r0, r3
 8004d42:	f000 80a7 	beq.w	8004e94 <f_setlabel+0x1d0>
 8004d46:	f812 3f01 	ldrb.w	r3, [r2, #1]!
 8004d4a:	2b00      	cmp	r3, #0
 8004d4c:	d1f8      	bne.n	8004d40 <f_setlabel+0x7c>
 8004d4e:	28ff      	cmp	r0, #255	; 0xff
 8004d50:	f240 80a4 	bls.w	8004e9c <f_setlabel+0x1d8>
 8004d54:	2c09      	cmp	r4, #9
 8004d56:	f200 809d 	bhi.w	8004e94 <f_setlabel+0x1d0>
 8004d5a:	ab16      	add	r3, sp, #88	; 0x58
 8004d5c:	191a      	adds	r2, r3, r4
 8004d5e:	0a03      	lsrs	r3, r0, #8
 8004d60:	1c65      	adds	r5, r4, #1
 8004d62:	f802 3c4c 	strb.w	r3, [r2, #-76]
 8004d66:	9901      	ldr	r1, [sp, #4]
 8004d68:	aa16      	add	r2, sp, #88	; 0x58
 8004d6a:	780b      	ldrb	r3, [r1, #0]
 8004d6c:	442a      	add	r2, r5
 8004d6e:	b2c0      	uxtb	r0, r0
 8004d70:	2b1f      	cmp	r3, #31
 8004d72:	f802 0c4c 	strb.w	r0, [r2, #-76]
 8004d76:	f105 0401 	add.w	r4, r5, #1
 8004d7a:	d8bb      	bhi.n	8004cf4 <f_setlabel+0x30>
 8004d7c:	f89d 300c 	ldrb.w	r3, [sp, #12]
 8004d80:	2be5      	cmp	r3, #229	; 0xe5
 8004d82:	f000 8087 	beq.w	8004e94 <f_setlabel+0x1d0>
 8004d86:	2820      	cmp	r0, #32
 8004d88:	d159      	bne.n	8004e3e <f_setlabel+0x17a>
 8004d8a:	2d00      	cmp	r5, #0
 8004d8c:	f000 8099 	beq.w	8004ec2 <f_setlabel+0x1fe>
 8004d90:	1e6c      	subs	r4, r5, #1
 8004d92:	aa16      	add	r2, sp, #88	; 0x58
 8004d94:	4422      	add	r2, r4
 8004d96:	f812 2c4c 	ldrb.w	r2, [r2, #-76]
 8004d9a:	2a20      	cmp	r2, #32
 8004d9c:	f040 8091 	bne.w	8004ec2 <f_setlabel+0x1fe>
 8004da0:	2c00      	cmp	r4, #0
 8004da2:	d04c      	beq.n	8004e3e <f_setlabel+0x17a>
 8004da4:	1eaa      	subs	r2, r5, #2
 8004da6:	a916      	add	r1, sp, #88	; 0x58
 8004da8:	4411      	add	r1, r2
 8004daa:	f811 1c4c 	ldrb.w	r1, [r1, #-76]
 8004dae:	2920      	cmp	r1, #32
 8004db0:	d145      	bne.n	8004e3e <f_setlabel+0x17a>
 8004db2:	2a00      	cmp	r2, #0
 8004db4:	d07f      	beq.n	8004eb6 <f_setlabel+0x1f2>
 8004db6:	1eec      	subs	r4, r5, #3
 8004db8:	a916      	add	r1, sp, #88	; 0x58
 8004dba:	4421      	add	r1, r4
 8004dbc:	f811 1c4c 	ldrb.w	r1, [r1, #-76]
 8004dc0:	2920      	cmp	r1, #32
 8004dc2:	d178      	bne.n	8004eb6 <f_setlabel+0x1f2>
 8004dc4:	2c00      	cmp	r4, #0
 8004dc6:	d03a      	beq.n	8004e3e <f_setlabel+0x17a>
 8004dc8:	1f2a      	subs	r2, r5, #4
 8004dca:	a916      	add	r1, sp, #88	; 0x58
 8004dcc:	4411      	add	r1, r2
 8004dce:	f811 1c4c 	ldrb.w	r1, [r1, #-76]
 8004dd2:	2920      	cmp	r1, #32
 8004dd4:	d133      	bne.n	8004e3e <f_setlabel+0x17a>
 8004dd6:	2a00      	cmp	r2, #0
 8004dd8:	d06d      	beq.n	8004eb6 <f_setlabel+0x1f2>
 8004dda:	1f6c      	subs	r4, r5, #5
 8004ddc:	a916      	add	r1, sp, #88	; 0x58
 8004dde:	4421      	add	r1, r4
 8004de0:	f811 1c4c 	ldrb.w	r1, [r1, #-76]
 8004de4:	2920      	cmp	r1, #32
 8004de6:	d166      	bne.n	8004eb6 <f_setlabel+0x1f2>
 8004de8:	b34c      	cbz	r4, 8004e3e <f_setlabel+0x17a>
 8004dea:	1fa9      	subs	r1, r5, #6
 8004dec:	aa16      	add	r2, sp, #88	; 0x58
 8004dee:	440a      	add	r2, r1
 8004df0:	f812 2c4c 	ldrb.w	r2, [r2, #-76]
 8004df4:	2a20      	cmp	r2, #32
 8004df6:	d122      	bne.n	8004e3e <f_setlabel+0x17a>
 8004df8:	2900      	cmp	r1, #0
 8004dfa:	f000 808a 	beq.w	8004f12 <f_setlabel+0x24e>
 8004dfe:	1fea      	subs	r2, r5, #7
 8004e00:	a816      	add	r0, sp, #88	; 0x58
 8004e02:	4410      	add	r0, r2
 8004e04:	f810 0c4c 	ldrb.w	r0, [r0, #-76]
 8004e08:	2820      	cmp	r0, #32
 8004e0a:	f040 8082 	bne.w	8004f12 <f_setlabel+0x24e>
 8004e0e:	2a00      	cmp	r2, #0
 8004e10:	d051      	beq.n	8004eb6 <f_setlabel+0x1f2>
 8004e12:	f1a5 0408 	sub.w	r4, r5, #8
 8004e16:	a916      	add	r1, sp, #88	; 0x58
 8004e18:	4421      	add	r1, r4
 8004e1a:	f811 1c4c 	ldrb.w	r1, [r1, #-76]
 8004e1e:	2920      	cmp	r1, #32
 8004e20:	d149      	bne.n	8004eb6 <f_setlabel+0x1f2>
 8004e22:	b164      	cbz	r4, 8004e3e <f_setlabel+0x17a>
 8004e24:	3d09      	subs	r5, #9
 8004e26:	aa16      	add	r2, sp, #88	; 0x58
 8004e28:	442a      	add	r2, r5
 8004e2a:	f812 2c4c 	ldrb.w	r2, [r2, #-76]
 8004e2e:	2a20      	cmp	r2, #32
 8004e30:	d105      	bne.n	8004e3e <f_setlabel+0x17a>
 8004e32:	2d00      	cmp	r5, #0
 8004e34:	d045      	beq.n	8004ec2 <f_setlabel+0x1fe>
 8004e36:	f1b3 0420 	subs.w	r4, r3, #32
 8004e3a:	bf18      	it	ne
 8004e3c:	2401      	movne	r4, #1
 8004e3e:	9b02      	ldr	r3, [sp, #8]
 8004e40:	9309      	str	r3, [sp, #36]	; 0x24
 8004e42:	a809      	add	r0, sp, #36	; 0x24
 8004e44:	2300      	movs	r3, #0
 8004e46:	930b      	str	r3, [sp, #44]	; 0x2c
 8004e48:	f7fe fb78 	bl	800353c <dir_sdi.constprop.18>
 8004e4c:	4605      	mov	r5, r0
 8004e4e:	bb10      	cbnz	r0, 8004e96 <f_setlabel+0x1d2>
 8004e50:	2101      	movs	r1, #1
 8004e52:	a809      	add	r0, sp, #36	; 0x24
 8004e54:	f7ff fb10 	bl	8004478 <dir_read>
 8004e58:	bba8      	cbnz	r0, 8004ec6 <f_setlabel+0x202>
 8004e5a:	9a10      	ldr	r2, [sp, #64]	; 0x40
 8004e5c:	2c00      	cmp	r4, #0
 8004e5e:	d15a      	bne.n	8004f16 <f_setlabel+0x252>
 8004e60:	23e5      	movs	r3, #229	; 0xe5
 8004e62:	7013      	strb	r3, [r2, #0]
 8004e64:	9b02      	ldr	r3, [sp, #8]
 8004e66:	2201      	movs	r2, #1
 8004e68:	70da      	strb	r2, [r3, #3]
 8004e6a:	9802      	ldr	r0, [sp, #8]
 8004e6c:	f7fe f948 	bl	8003100 <sync_fs>
 8004e70:	4605      	mov	r5, r0
 8004e72:	e010      	b.n	8004e96 <f_setlabel+0x1d2>
 8004e74:	784b      	ldrb	r3, [r1, #1]
 8004e76:	2b3f      	cmp	r3, #63	; 0x3f
 8004e78:	d90c      	bls.n	8004e94 <f_setlabel+0x1d0>
 8004e7a:	2b7e      	cmp	r3, #126	; 0x7e
 8004e7c:	d812      	bhi.n	8004ea4 <f_setlabel+0x1e0>
 8004e7e:	eb03 2000 	add.w	r0, r3, r0, lsl #8
 8004e82:	b280      	uxth	r0, r0
 8004e84:	1c8d      	adds	r5, r1, #2
 8004e86:	f44f 7169 	mov.w	r1, #932	; 0x3a4
 8004e8a:	f000 fde7 	bl	8005a5c <ff_oem2uni>
 8004e8e:	2800      	cmp	r0, #0
 8004e90:	f47f af44 	bne.w	8004d1c <f_setlabel+0x58>
 8004e94:	2506      	movs	r5, #6
 8004e96:	4628      	mov	r0, r5
 8004e98:	b017      	add	sp, #92	; 0x5c
 8004e9a:	bd30      	pop	{r4, r5, pc}
 8004e9c:	2c0a      	cmp	r4, #10
 8004e9e:	d8f9      	bhi.n	8004e94 <f_setlabel+0x1d0>
 8004ea0:	4625      	mov	r5, r4
 8004ea2:	e760      	b.n	8004d66 <f_setlabel+0xa2>
 8004ea4:	f083 0280 	eor.w	r2, r3, #128	; 0x80
 8004ea8:	2a7c      	cmp	r2, #124	; 0x7c
 8004eaa:	d8f3      	bhi.n	8004e94 <f_setlabel+0x1d0>
 8004eac:	eb03 2000 	add.w	r0, r3, r0, lsl #8
 8004eb0:	b280      	uxth	r0, r0
 8004eb2:	1c8d      	adds	r5, r1, #2
 8004eb4:	e7e7      	b.n	8004e86 <f_setlabel+0x1c2>
 8004eb6:	4614      	mov	r4, r2
 8004eb8:	e7c1      	b.n	8004e3e <f_setlabel+0x17a>
 8004eba:	f89d 300c 	ldrb.w	r3, [sp, #12]
 8004ebe:	2be5      	cmp	r3, #229	; 0xe5
 8004ec0:	d0e8      	beq.n	8004e94 <f_setlabel+0x1d0>
 8004ec2:	462c      	mov	r4, r5
 8004ec4:	e7bb      	b.n	8004e3e <f_setlabel+0x17a>
 8004ec6:	2804      	cmp	r0, #4
 8004ec8:	d001      	beq.n	8004ece <f_setlabel+0x20a>
 8004eca:	4605      	mov	r5, r0
 8004ecc:	e7e3      	b.n	8004e96 <f_setlabel+0x1d2>
 8004ece:	2c00      	cmp	r4, #0
 8004ed0:	d0e1      	beq.n	8004e96 <f_setlabel+0x1d2>
 8004ed2:	a809      	add	r0, sp, #36	; 0x24
 8004ed4:	2101      	movs	r1, #1
 8004ed6:	f7ff fa21 	bl	800431c <dir_alloc>
 8004eda:	4605      	mov	r5, r0
 8004edc:	2800      	cmp	r0, #0
 8004ede:	d1da      	bne.n	8004e96 <f_setlabel+0x1d2>
 8004ee0:	4601      	mov	r1, r0
 8004ee2:	2220      	movs	r2, #32
 8004ee4:	9810      	ldr	r0, [sp, #64]	; 0x40
 8004ee6:	f000 ff26 	bl	8005d36 <memset>
 8004eea:	9a10      	ldr	r2, [sp, #64]	; 0x40
 8004eec:	2108      	movs	r1, #8
 8004eee:	ab03      	add	r3, sp, #12
 8004ef0:	72d1      	strb	r1, [r2, #11]
 8004ef2:	cb03      	ldmia	r3!, {r0, r1}
 8004ef4:	9a10      	ldr	r2, [sp, #64]	; 0x40
 8004ef6:	881d      	ldrh	r5, [r3, #0]
 8004ef8:	6010      	str	r0, [r2, #0]
 8004efa:	9802      	ldr	r0, [sp, #8]
 8004efc:	789c      	ldrb	r4, [r3, #2]
 8004efe:	8115      	strh	r5, [r2, #8]
 8004f00:	2301      	movs	r3, #1
 8004f02:	6051      	str	r1, [r2, #4]
 8004f04:	7294      	strb	r4, [r2, #10]
 8004f06:	70c3      	strb	r3, [r0, #3]
 8004f08:	9802      	ldr	r0, [sp, #8]
 8004f0a:	f7fe f8f9 	bl	8003100 <sync_fs>
 8004f0e:	4605      	mov	r5, r0
 8004f10:	e7c1      	b.n	8004e96 <f_setlabel+0x1d2>
 8004f12:	460c      	mov	r4, r1
 8004f14:	e793      	b.n	8004e3e <f_setlabel+0x17a>
 8004f16:	ab03      	add	r3, sp, #12
 8004f18:	cb03      	ldmia	r3!, {r0, r1}
 8004f1a:	881c      	ldrh	r4, [r3, #0]
 8004f1c:	789b      	ldrb	r3, [r3, #2]
 8004f1e:	6010      	str	r0, [r2, #0]
 8004f20:	6051      	str	r1, [r2, #4]
 8004f22:	8114      	strh	r4, [r2, #8]
 8004f24:	7293      	strb	r3, [r2, #10]
 8004f26:	e79d      	b.n	8004e64 <f_setlabel+0x1a0>

08004f28 <f_mkfs>:
 8004f28:	e92d 4ff0 	stmdb	sp!, {r4, r5, r6, r7, r8, r9, sl, fp, lr}
 8004f2c:	b097      	sub	sp, #92	; 0x5c
 8004f2e:	ac16      	add	r4, sp, #88	; 0x58
 8004f30:	468b      	mov	fp, r1
 8004f32:	f844 0d1c 	str.w	r0, [r4, #-28]!
 8004f36:	4620      	mov	r0, r4
 8004f38:	4690      	mov	r8, r2
 8004f3a:	461d      	mov	r5, r3
 8004f3c:	f7fe f888 	bl	8003050 <get_ldnumber>
 8004f40:	2800      	cmp	r0, #0
 8004f42:	db79      	blt.n	8005038 <f_mkfs+0x110>
 8004f44:	f240 231c 	movw	r3, #540	; 0x21c
 8004f48:	f2c2 0300 	movt	r3, #8192	; 0x2000
 8004f4c:	f853 3020 	ldr.w	r3, [r3, r0, lsl #2]
 8004f50:	b10b      	cbz	r3, 8004f56 <f_mkfs+0x2e>
 8004f52:	2200      	movs	r2, #0
 8004f54:	701a      	strb	r2, [r3, #0]
 8004f56:	b2c4      	uxtb	r4, r0
 8004f58:	f248 3398 	movw	r3, #33688	; 0x8398
 8004f5c:	f6c0 0300 	movt	r3, #2048	; 0x800
 8004f60:	4620      	mov	r0, r4
 8004f62:	f1bb 0f00 	cmp.w	fp, #0
 8004f66:	bf08      	it	eq
 8004f68:	469b      	moveq	fp, r3
 8004f6a:	f7fe f813 	bl	8002f94 <disk_initialize>
 8004f6e:	07c6      	lsls	r6, r0, #31
 8004f70:	d45e      	bmi.n	8005030 <f_mkfs+0x108>
 8004f72:	0740      	lsls	r0, r0, #29
 8004f74:	d477      	bmi.n	8005066 <f_mkfs+0x13e>
 8004f76:	f8db 3004 	ldr.w	r3, [fp, #4]
 8004f7a:	9311      	str	r3, [sp, #68]	; 0x44
 8004f7c:	2b00      	cmp	r3, #0
 8004f7e:	f000 8081 	beq.w	8005084 <f_mkfs+0x15c>
 8004f82:	1e5a      	subs	r2, r3, #1
 8004f84:	f5b2 4f00 	cmp.w	r2, #32768	; 0x8000
 8004f88:	d371      	bcc.n	800506e <f_mkfs+0x146>
 8004f8a:	2301      	movs	r3, #1
 8004f8c:	9311      	str	r3, [sp, #68]	; 0x44
 8004f8e:	f89b 9001 	ldrb.w	r9, [fp, #1]
 8004f92:	f8db 7008 	ldr.w	r7, [fp, #8]
 8004f96:	f109 33ff 	add.w	r3, r9, #4294967295
 8004f9a:	2b01      	cmp	r3, #1
 8004f9c:	bf88      	it	hi
 8004f9e:	f04f 0a01 	movhi.w	sl, #1
 8004fa2:	f107 33ff 	add.w	r3, r7, #4294967295
 8004fa6:	bf94      	ite	ls
 8004fa8:	46ca      	movls	sl, r9
 8004faa:	46d1      	movhi	r9, sl
 8004fac:	f5b3 4f00 	cmp.w	r3, #32768	; 0x8000
 8004fb0:	d346      	bcc.n	8005040 <f_mkfs+0x118>
 8004fb2:	f8db 600c 	ldr.w	r6, [fp, #12]
 8004fb6:	f1b6 7f80 	cmp.w	r6, #16777216	; 0x1000000
 8004fba:	f44f 7700 	mov.w	r7, #512	; 0x200
 8004fbe:	d849      	bhi.n	8005054 <f_mkfs+0x12c>
 8004fc0:	1e73      	subs	r3, r6, #1
 8004fc2:	4233      	tst	r3, r6
 8004fc4:	d146      	bne.n	8005054 <f_mkfs+0x12c>
 8004fc6:	0a6b      	lsrs	r3, r5, #9
 8004fc8:	ea4f 2656 	mov.w	r6, r6, lsr #9
 8004fcc:	9302      	str	r3, [sp, #8]
 8004fce:	d046      	beq.n	800505e <f_mkfs+0x136>
 8004fd0:	f1b8 0f00 	cmp.w	r8, #0
 8004fd4:	d043      	beq.n	800505e <f_mkfs+0x136>
 8004fd6:	aa16      	add	r2, sp, #88	; 0x58
 8004fd8:	2300      	movs	r3, #0
 8004fda:	f842 3d10 	str.w	r3, [r2, #-16]!
 8004fde:	2101      	movs	r1, #1
 8004fe0:	4620      	mov	r0, r4
 8004fe2:	f89b b000 	ldrb.w	fp, [fp]
 8004fe6:	f7fe f81f 	bl	8003028 <disk_ioctl>
 8004fea:	2800      	cmp	r0, #0
 8004fec:	f040 8147 	bne.w	800527e <f_mkfs+0x356>
 8004ff0:	f01b 0208 	ands.w	r2, fp, #8
 8004ff4:	9b12      	ldr	r3, [sp, #72]	; 0x48
 8004ff6:	920d      	str	r2, [sp, #52]	; 0x34
 8004ff8:	f040 8143 	bne.w	8005282 <f_mkfs+0x35a>
 8004ffc:	2b3f      	cmp	r3, #63	; 0x3f
 8004ffe:	d93f      	bls.n	8005080 <f_mkfs+0x158>
 8005000:	225f      	movs	r2, #95	; 0x5f
 8005002:	920c      	str	r2, [sp, #48]	; 0x30
 8005004:	f240 12c1 	movw	r2, #449	; 0x1c1
 8005008:	9205      	str	r2, [sp, #20]
 800500a:	2201      	movs	r2, #1
 800500c:	9203      	str	r2, [sp, #12]
 800500e:	f06f 022e 	mvn.w	r2, #46	; 0x2e
 8005012:	9206      	str	r2, [sp, #24]
 8005014:	22c1      	movs	r2, #193	; 0xc1
 8005016:	3b3f      	subs	r3, #63	; 0x3f
 8005018:	9201      	str	r2, [sp, #4]
 800501a:	2140      	movs	r1, #64	; 0x40
 800501c:	223f      	movs	r2, #63	; 0x3f
 800501e:	9312      	str	r3, [sp, #72]	; 0x48
 8005020:	f240 3ec1 	movw	lr, #961	; 0x3c1
 8005024:	f06f 0c1e 	mvn.w	ip, #30
 8005028:	2041      	movs	r0, #65	; 0x41
 800502a:	e9cd 210a 	strd	r2, r1, [sp, #40]	; 0x28
 800502e:	e13b      	b.n	80052a8 <f_mkfs+0x380>
 8005030:	2003      	movs	r0, #3
 8005032:	b017      	add	sp, #92	; 0x5c
 8005034:	e8bd 8ff0 	ldmia.w	sp!, {r4, r5, r6, r7, r8, r9, sl, fp, pc}
 8005038:	200b      	movs	r0, #11
 800503a:	b017      	add	sp, #92	; 0x5c
 800503c:	e8bd 8ff0 	ldmia.w	sp!, {r4, r5, r6, r7, r8, r9, sl, fp, pc}
 8005040:	f8db 600c 	ldr.w	r6, [fp, #12]
 8005044:	f017 0f0f 	tst.w	r7, #15
 8005048:	bf18      	it	ne
 800504a:	f44f 7700 	movne.w	r7, #512	; 0x200
 800504e:	f1b6 7f80 	cmp.w	r6, #16777216	; 0x1000000
 8005052:	d9b5      	bls.n	8004fc0 <f_mkfs+0x98>
 8005054:	0a6b      	lsrs	r3, r5, #9
 8005056:	f04f 0600 	mov.w	r6, #0
 800505a:	9302      	str	r3, [sp, #8]
 800505c:	d1b8      	bne.n	8004fd0 <f_mkfs+0xa8>
 800505e:	2011      	movs	r0, #17
 8005060:	b017      	add	sp, #92	; 0x5c
 8005062:	e8bd 8ff0 	ldmia.w	sp!, {r4, r5, r6, r7, r8, r9, sl, fp, pc}
 8005066:	200a      	movs	r0, #10
 8005068:	b017      	add	sp, #92	; 0x5c
 800506a:	e8bd 8ff0 	ldmia.w	sp!, {r4, r5, r6, r7, r8, r9, sl, fp, pc}
 800506e:	421a      	tst	r2, r3
 8005070:	d18b      	bne.n	8004f8a <f_mkfs+0x62>
 8005072:	e78c      	b.n	8004f8e <f_mkfs+0x66>
 8005074:	9a04      	ldr	r2, [sp, #16]
 8005076:	b91a      	cbnz	r2, 8005080 <f_mkfs+0x158>
 8005078:	0872      	lsrs	r2, r6, #1
 800507a:	9204      	str	r2, [sp, #16]
 800507c:	f040 8204 	bne.w	8005488 <f_mkfs+0x560>
 8005080:	200e      	movs	r0, #14
 8005082:	e7d6      	b.n	8005032 <f_mkfs+0x10a>
 8005084:	aa11      	add	r2, sp, #68	; 0x44
 8005086:	2103      	movs	r1, #3
 8005088:	4620      	mov	r0, r4
 800508a:	f7fd ffcd 	bl	8003028 <disk_ioctl>
 800508e:	2800      	cmp	r0, #0
 8005090:	f47f af7b 	bne.w	8004f8a <f_mkfs+0x62>
 8005094:	9b11      	ldr	r3, [sp, #68]	; 0x44
 8005096:	e774      	b.n	8004f82 <f_mkfs+0x5a>
 8005098:	f64f 71f5 	movw	r1, #65525	; 0xfff5
 800509c:	458b      	cmp	fp, r1
 800509e:	d9e9      	bls.n	8005074 <f_mkfs+0x14c>
 80050a0:	f44f 7200 	mov.w	r2, #512	; 0x200
 80050a4:	2100      	movs	r1, #0
 80050a6:	4640      	mov	r0, r8
 80050a8:	9304      	str	r3, [sp, #16]
 80050aa:	f000 fe44 	bl	8005d36 <memset>
 80050ae:	f244 4253 	movw	r2, #17491	; 0x4453
 80050b2:	f2c5 324f 	movt	r2, #21327	; 0x534f
 80050b6:	f8c8 2004 	str.w	r2, [r8, #4]
 80050ba:	2230      	movs	r2, #48	; 0x30
 80050bc:	f888 200a 	strb.w	r2, [r8, #10]
 80050c0:	9a03      	ldr	r2, [sp, #12]
 80050c2:	9b04      	ldr	r3, [sp, #16]
 80050c4:	f888 600d 	strb.w	r6, [r8, #13]
 80050c8:	2a03      	cmp	r2, #3
 80050ca:	bf08      	it	eq
 80050cc:	2700      	moveq	r7, #0
 80050ce:	f64f 61eb 	movw	r1, #65259	; 0xfeeb
 80050d2:	f3c7 2207 	ubfx	r2, r7, #8, #8
 80050d6:	f6c4 5190 	movt	r1, #19856	; 0x4d90
 80050da:	f888 7011 	strb.w	r7, [r8, #17]
 80050de:	9f06      	ldr	r7, [sp, #24]
 80050e0:	f8c8 1000 	str.w	r1, [r8]
 80050e4:	2035      	movs	r0, #53	; 0x35
 80050e6:	212e      	movs	r1, #46	; 0x2e
 80050e8:	f888 0008 	strb.w	r0, [r8, #8]
 80050ec:	f888 1009 	strb.w	r1, [r8, #9]
 80050f0:	f3c7 2007 	ubfx	r0, r7, #8, #8
 80050f4:	f888 2012 	strb.w	r2, [r8, #18]
 80050f8:	2100      	movs	r1, #0
 80050fa:	2202      	movs	r2, #2
 80050fc:	f5b3 3f80 	cmp.w	r3, #65536	; 0x10000
 8005100:	f888 200c 	strb.w	r2, [r8, #12]
 8005104:	f888 700e 	strb.w	r7, [r8, #14]
 8005108:	f888 000f 	strb.w	r0, [r8, #15]
 800510c:	f888 9010 	strb.w	r9, [r8, #16]
 8005110:	f888 100b 	strb.w	r1, [r8, #11]
 8005114:	b2da      	uxtb	r2, r3
 8005116:	f080 81d8 	bcs.w	80054ca <f_mkfs+0x5a2>
 800511a:	f3c3 2307 	ubfx	r3, r3, #8, #8
 800511e:	f888 3014 	strb.w	r3, [r8, #20]
 8005122:	f888 2013 	strb.w	r2, [r8, #19]
 8005126:	233f      	movs	r3, #63	; 0x3f
 8005128:	f2c0 03ff 	movt	r3, #255	; 0xff
 800512c:	f8c8 3018 	str.w	r3, [r8, #24]
 8005130:	2300      	movs	r3, #0
 8005132:	f888 301d 	strb.w	r3, [r8, #29]
 8005136:	f888 301e 	strb.w	r3, [r8, #30]
 800513a:	f888 301f 	strb.w	r3, [r8, #31]
 800513e:	9b03      	ldr	r3, [sp, #12]
 8005140:	990a      	ldr	r1, [sp, #40]	; 0x28
 8005142:	f888 101c 	strb.w	r1, [r8, #28]
 8005146:	22f8      	movs	r2, #248	; 0xf8
 8005148:	2b03      	cmp	r3, #3
 800514a:	f888 2015 	strb.w	r2, [r8, #21]
 800514e:	f89d 7004 	ldrb.w	r7, [sp, #4]
 8005152:	f000 822c 	beq.w	80055ae <f_mkfs+0x686>
 8005156:	f7fd fdc1 	bl	8002cdc <get_fattime>
 800515a:	0a02      	lsrs	r2, r0, #8
 800515c:	f888 2028 	strb.w	r2, [r8, #40]	; 0x28
 8005160:	0c02      	lsrs	r2, r0, #16
 8005162:	f888 2029 	strb.w	r2, [r8, #41]	; 0x29
 8005166:	9a01      	ldr	r2, [sp, #4]
 8005168:	f888 0027 	strb.w	r0, [r8, #39]	; 0x27
 800516c:	f3c2 2207 	ubfx	r2, r2, #8, #8
 8005170:	f248 33a8 	movw	r3, #33704	; 0x83a8
 8005174:	0e00      	lsrs	r0, r0, #24
 8005176:	f6c0 0300 	movt	r3, #2048	; 0x800
 800517a:	f888 2017 	strb.w	r2, [r8, #23]
 800517e:	f108 022f 	add.w	r2, r8, #47	; 0x2f
 8005182:	f888 002a 	strb.w	r0, [r8, #42]	; 0x2a
 8005186:	2129      	movs	r1, #41	; 0x29
 8005188:	2080      	movs	r0, #128	; 0x80
 800518a:	429a      	cmp	r2, r3
 800518c:	f888 7016 	strb.w	r7, [r8, #22]
 8005190:	f888 0024 	strb.w	r0, [r8, #36]	; 0x24
 8005194:	f888 1026 	strb.w	r1, [r8, #38]	; 0x26
 8005198:	d905      	bls.n	80051a6 <f_mkfs+0x27e>
 800519a:	f108 022b 	add.w	r2, r8, #43	; 0x2b
 800519e:	1d19      	adds	r1, r3, #4
 80051a0:	428a      	cmp	r2, r1
 80051a2:	f0c0 82d2 	bcc.w	800574a <f_mkfs+0x822>
 80051a6:	f644 734e 	movw	r3, #20302	; 0x4f4e
 80051aa:	f6c4 6320 	movt	r3, #20000	; 0x4e20
 80051ae:	f644 5241 	movw	r2, #19777	; 0x4d41
 80051b2:	f2c2 0245 	movt	r2, #8261	; 0x2045
 80051b6:	f8c8 302b 	str.w	r3, [r8, #43]	; 0x2b
 80051ba:	f242 0320 	movw	r3, #8224	; 0x2020
 80051be:	f2c4 6320 	movt	r3, #17952	; 0x4620
 80051c2:	f8c8 202f 	str.w	r2, [r8, #47]	; 0x2f
 80051c6:	f245 4241 	movw	r2, #21569	; 0x5441
 80051ca:	f2c2 0220 	movt	r2, #8224	; 0x2020
 80051ce:	f8c8 3033 	str.w	r3, [r8, #51]	; 0x33
 80051d2:	2320      	movs	r3, #32
 80051d4:	f8c8 2037 	str.w	r2, [r8, #55]	; 0x37
 80051d8:	f888 303b 	strb.w	r3, [r8, #59]	; 0x3b
 80051dc:	f888 303c 	strb.w	r3, [r8, #60]	; 0x3c
 80051e0:	f888 303d 	strb.w	r3, [r8, #61]	; 0x3d
 80051e4:	2155      	movs	r1, #85	; 0x55
 80051e6:	23aa      	movs	r3, #170	; 0xaa
 80051e8:	f888 11fe 	strb.w	r1, [r8, #510]	; 0x1fe
 80051ec:	f888 31ff 	strb.w	r3, [r8, #511]	; 0x1ff
 80051f0:	9a0a      	ldr	r2, [sp, #40]	; 0x28
 80051f2:	2301      	movs	r3, #1
 80051f4:	4641      	mov	r1, r8
 80051f6:	4620      	mov	r0, r4
 80051f8:	f7fd fef8 	bl	8002fec <disk_write>
 80051fc:	2800      	cmp	r0, #0
 80051fe:	d13e      	bne.n	800527e <f_mkfs+0x356>
 8005200:	f425 72ff 	bic.w	r2, r5, #510	; 0x1fe
 8005204:	f022 0201 	bic.w	r2, r2, #1
 8005208:	2100      	movs	r1, #0
 800520a:	4640      	mov	r0, r8
 800520c:	f000 fd93 	bl	8005d36 <memset>
 8005210:	9b03      	ldr	r3, [sp, #12]
 8005212:	f8cd a020 	str.w	sl, [sp, #32]
 8005216:	2b01      	cmp	r3, #1
 8005218:	bf14      	ite	ne
 800521a:	23ff      	movne	r3, #255	; 0xff
 800521c:	2300      	moveq	r3, #0
 800521e:	f8dd b008 	ldr.w	fp, [sp, #8]
 8005222:	f8dd a014 	ldr.w	sl, [sp, #20]
 8005226:	9304      	str	r3, [sp, #16]
 8005228:	2700      	movs	r7, #0
 800522a:	f04f 09ff 	mov.w	r9, #255	; 0xff
 800522e:	9606      	str	r6, [sp, #24]
 8005230:	9b03      	ldr	r3, [sp, #12]
 8005232:	2b03      	cmp	r3, #3
 8005234:	f000 826a 	beq.w	800570c <f_mkfs+0x7e4>
 8005238:	f06f 0307 	mvn.w	r3, #7
 800523c:	f888 3000 	strb.w	r3, [r8]
 8005240:	9b04      	ldr	r3, [sp, #16]
 8005242:	f888 9001 	strb.w	r9, [r8, #1]
 8005246:	f888 9002 	strb.w	r9, [r8, #2]
 800524a:	f888 3003 	strb.w	r3, [r8, #3]
 800524e:	9e01      	ldr	r6, [sp, #4]
 8005250:	e005      	b.n	800525e <f_mkfs+0x336>
 8005252:	4640      	mov	r0, r8
 8005254:	f000 fd6f 	bl	8005d36 <memset>
 8005258:	1b76      	subs	r6, r6, r5
 800525a:	f000 8146 	beq.w	80054ea <f_mkfs+0x5c2>
 800525e:	455e      	cmp	r6, fp
 8005260:	4635      	mov	r5, r6
 8005262:	bf28      	it	cs
 8005264:	465d      	movcs	r5, fp
 8005266:	4652      	mov	r2, sl
 8005268:	4641      	mov	r1, r8
 800526a:	462b      	mov	r3, r5
 800526c:	4620      	mov	r0, r4
 800526e:	f7fd febd 	bl	8002fec <disk_write>
 8005272:	44aa      	add	sl, r5
 8005274:	4601      	mov	r1, r0
 8005276:	f44f 7200 	mov.w	r2, #512	; 0x200
 800527a:	2800      	cmp	r0, #0
 800527c:	d0e9      	beq.n	8005252 <f_mkfs+0x32a>
 800527e:	2001      	movs	r0, #1
 8005280:	e6d7      	b.n	8005032 <f_mkfs+0x10a>
 8005282:	2220      	movs	r2, #32
 8005284:	920c      	str	r2, [sp, #48]	; 0x30
 8005286:	4694      	mov	ip, r2
 8005288:	f44f 7200 	mov.w	r2, #512	; 0x200
 800528c:	9205      	str	r2, [sp, #20]
 800528e:	2240      	movs	r2, #64	; 0x40
 8005290:	9203      	str	r2, [sp, #12]
 8005292:	2210      	movs	r2, #16
 8005294:	9206      	str	r2, [sp, #24]
 8005296:	f44f 7280 	mov.w	r2, #256	; 0x100
 800529a:	9201      	str	r2, [sp, #4]
 800529c:	2201      	movs	r2, #1
 800529e:	900a      	str	r0, [sp, #40]	; 0x28
 80052a0:	f44f 6e80 	mov.w	lr, #1024	; 0x400
 80052a4:	2080      	movs	r0, #128	; 0x80
 80052a6:	920b      	str	r2, [sp, #44]	; 0x2c
 80052a8:	2b7f      	cmp	r3, #127	; 0x7f
 80052aa:	f67f aee9 	bls.w	8005080 <f_mkfs+0x158>
 80052ae:	2e80      	cmp	r6, #128	; 0x80
 80052b0:	4632      	mov	r2, r6
 80052b2:	bf28      	it	cs
 80052b4:	2280      	movcs	r2, #128	; 0x80
 80052b6:	9204      	str	r2, [sp, #16]
 80052b8:	f01b 0202 	ands.w	r2, fp, #2
 80052bc:	f00b 0101 	and.w	r1, fp, #1
 80052c0:	920e      	str	r2, [sp, #56]	; 0x38
 80052c2:	f040 8089 	bne.w	80053d8 <f_mkfs+0x4b0>
 80052c6:	2900      	cmp	r1, #0
 80052c8:	f000 80e6 	beq.w	8005498 <f_mkfs+0x570>
 80052cc:	9911      	ldr	r1, [sp, #68]	; 0x44
 80052ce:	424a      	negs	r2, r1
 80052d0:	9208      	str	r2, [sp, #32]
 80052d2:	1e4a      	subs	r2, r1, #1
 80052d4:	9209      	str	r2, [sp, #36]	; 0x24
 80052d6:	2e00      	cmp	r6, #0
 80052d8:	f040 80e0 	bne.w	800549c <f_mkfs+0x574>
 80052dc:	0b1a      	lsrs	r2, r3, #12
 80052de:	f000 80e4 	beq.w	80054aa <f_mkfs+0x582>
 80052e2:	2a03      	cmp	r2, #3
 80052e4:	f240 80e7 	bls.w	80054b6 <f_mkfs+0x58e>
 80052e8:	2a0f      	cmp	r2, #15
 80052ea:	f240 80e9 	bls.w	80054c0 <f_mkfs+0x598>
 80052ee:	2a3f      	cmp	r2, #63	; 0x3f
 80052f0:	f240 80f7 	bls.w	80054e2 <f_mkfs+0x5ba>
 80052f4:	2aff      	cmp	r2, #255	; 0xff
 80052f6:	f240 814b 	bls.w	8005590 <f_mkfs+0x668>
 80052fa:	f5b2 7f00 	cmp.w	r2, #512	; 0x200
 80052fe:	f0c0 8151 	bcc.w	80055a4 <f_mkfs+0x67c>
 8005302:	0999      	lsrs	r1, r3, #6
 8005304:	2640      	movs	r6, #64	; 0x40
 8005306:	2200      	movs	r2, #0
 8005308:	9204      	str	r2, [sp, #16]
 800530a:	3102      	adds	r1, #2
 800530c:	2202      	movs	r2, #2
 800530e:	0049      	lsls	r1, r1, #1
 8005310:	9203      	str	r2, [sp, #12]
 8005312:	f201 11ff 	addw	r1, r1, #511	; 0x1ff
 8005316:	0a4a      	lsrs	r2, r1, #9
 8005318:	9201      	str	r2, [sp, #4]
 800531a:	f3c7 1216 	ubfx	r2, r7, #4, #23
 800531e:	9207      	str	r2, [sp, #28]
 8005320:	2201      	movs	r2, #1
 8005322:	9206      	str	r2, [sp, #24]
 8005324:	9a0b      	ldr	r2, [sp, #44]	; 0x2c
 8005326:	9205      	str	r2, [sp, #20]
 8005328:	f04f 0b02 	mov.w	fp, #2
 800532c:	4610      	mov	r0, r2
 800532e:	9907      	ldr	r1, [sp, #28]
 8005330:	9a08      	ldr	r2, [sp, #32]
 8005332:	4401      	add	r1, r0
 8005334:	9801      	ldr	r0, [sp, #4]
 8005336:	fb0a 1100 	mla	r1, sl, r0, r1
 800533a:	9809      	ldr	r0, [sp, #36]	; 0x24
 800533c:	1808      	adds	r0, r1, r0
 800533e:	4010      	ands	r0, r2
 8005340:	9a03      	ldr	r2, [sp, #12]
 8005342:	2a03      	cmp	r2, #3
 8005344:	eba0 0001 	sub.w	r0, r0, r1
 8005348:	f000 8097 	beq.w	800547a <f_mkfs+0x552>
 800534c:	fbb0 fcfa 	udiv	ip, r0, sl
 8005350:	fb0a 021c 	mls	r2, sl, ip, r0
 8005354:	b132      	cbz	r2, 8005364 <f_mkfs+0x43c>
 8005356:	9a05      	ldr	r2, [sp, #20]
 8005358:	3201      	adds	r2, #1
 800535a:	e9cd 2b05 	strd	r2, fp, [sp, #20]
 800535e:	3801      	subs	r0, #1
 8005360:	fbb0 fcfa 	udiv	ip, r0, sl
 8005364:	9a01      	ldr	r2, [sp, #4]
 8005366:	4462      	add	r2, ip
 8005368:	9201      	str	r2, [sp, #4]
 800536a:	4471      	add	r1, lr
 800536c:	4299      	cmp	r1, r3
 800536e:	f63f ae87 	bhi.w	8005080 <f_mkfs+0x158>
 8005372:	9a06      	ldr	r2, [sp, #24]
 8005374:	eba3 0b02 	sub.w	fp, r3, r2
 8005378:	9a01      	ldr	r2, [sp, #4]
 800537a:	fb0a bb12 	mls	fp, sl, r2, fp
 800537e:	9a07      	ldr	r2, [sp, #28]
 8005380:	ebab 0b02 	sub.w	fp, fp, r2
 8005384:	9a03      	ldr	r2, [sp, #12]
 8005386:	fbbb fbf6 	udiv	fp, fp, r6
 800538a:	2a03      	cmp	r2, #3
 800538c:	f43f ae84 	beq.w	8005098 <f_mkfs+0x170>
 8005390:	2a02      	cmp	r2, #2
 8005392:	f040 80f5 	bne.w	8005580 <f_mkfs+0x658>
 8005396:	f64f 71f5 	movw	r1, #65525	; 0xfff5
 800539a:	458b      	cmp	fp, r1
 800539c:	d962      	bls.n	8005464 <f_mkfs+0x53c>
 800539e:	9a04      	ldr	r2, [sp, #16]
 80053a0:	2a00      	cmp	r2, #0
 80053a2:	d175      	bne.n	8005490 <f_mkfs+0x568>
 80053a4:	0076      	lsls	r6, r6, #1
 80053a6:	2e40      	cmp	r6, #64	; 0x40
 80053a8:	d904      	bls.n	80053b4 <f_mkfs+0x48c>
 80053aa:	9a0e      	ldr	r2, [sp, #56]	; 0x38
 80053ac:	b9d2      	cbnz	r2, 80053e4 <f_mkfs+0x4bc>
 80053ae:	2e80      	cmp	r6, #128	; 0x80
 80053b0:	f63f ae66 	bhi.w	8005080 <f_mkfs+0x158>
 80053b4:	fbb3 f1f6 	udiv	r1, r3, r6
 80053b8:	9a0a      	ldr	r2, [sp, #40]	; 0x28
 80053ba:	9604      	str	r6, [sp, #16]
 80053bc:	ebc2 1e06 	rsb	lr, r2, r6, lsl #4
 80053c0:	f640 70f5 	movw	r0, #4085	; 0xff5
 80053c4:	4281      	cmp	r1, r0
 80053c6:	d8a0      	bhi.n	800530a <f_mkfs+0x3e2>
 80053c8:	eb01 0141 	add.w	r1, r1, r1, lsl #1
 80053cc:	3101      	adds	r1, #1
 80053ce:	0849      	lsrs	r1, r1, #1
 80053d0:	2201      	movs	r2, #1
 80053d2:	3103      	adds	r1, #3
 80053d4:	9203      	str	r2, [sp, #12]
 80053d6:	e79c      	b.n	8005312 <f_mkfs+0x3ea>
 80053d8:	2900      	cmp	r1, #0
 80053da:	f47f af77 	bne.w	80052cc <f_mkfs+0x3a4>
 80053de:	9a04      	ldr	r2, [sp, #16]
 80053e0:	2a00      	cmp	r2, #0
 80053e2:	d151      	bne.n	8005488 <f_mkfs+0x560>
 80053e4:	0c58      	lsrs	r0, r3, #17
 80053e6:	f000 80d8 	beq.w	800559a <f_mkfs+0x672>
 80053ea:	2801      	cmp	r0, #1
 80053ec:	f000 8188 	beq.w	8005700 <f_mkfs+0x7d8>
 80053f0:	2803      	cmp	r0, #3
 80053f2:	f240 8198 	bls.w	8005726 <f_mkfs+0x7fe>
 80053f6:	2807      	cmp	r0, #7
 80053f8:	f240 819b 	bls.w	8005732 <f_mkfs+0x80a>
 80053fc:	280f      	cmp	r0, #15
 80053fe:	f240 819e 	bls.w	800573e <f_mkfs+0x816>
 8005402:	2820      	cmp	r0, #32
 8005404:	bf34      	ite	cc
 8005406:	2220      	movcc	r2, #32
 8005408:	2240      	movcs	r2, #64	; 0x40
 800540a:	9204      	str	r2, [sp, #16]
 800540c:	f04f 0b00 	mov.w	fp, #0
 8005410:	4610      	mov	r0, r2
 8005412:	fbb3 f1f0 	udiv	r1, r3, r0
 8005416:	f64f 76ff 	movw	r6, #65535	; 0xffff
 800541a:	ea4f 0c81 	mov.w	ip, r1, lsl #2
 800541e:	f5a1 417f 	sub.w	r1, r1, #65280	; 0xff00
 8005422:	f20c 2c07 	addw	ip, ip, #519	; 0x207
 8005426:	39f6      	subs	r1, #246	; 0xf6
 8005428:	f6c0 76fe 	movt	r6, #4094	; 0xffe
 800542c:	ea4f 225c 	mov.w	r2, ip, lsr #9
 8005430:	42b1      	cmp	r1, r6
 8005432:	9201      	str	r2, [sp, #4]
 8005434:	f63f ae24 	bhi.w	8005080 <f_mkfs+0x158>
 8005438:	9911      	ldr	r1, [sp, #68]	; 0x44
 800543a:	9a0a      	ldr	r2, [sp, #40]	; 0x28
 800543c:	ebc2 1e00 	rsb	lr, r2, r0, lsl #4
 8005440:	424a      	negs	r2, r1
 8005442:	9208      	str	r2, [sp, #32]
 8005444:	1e4a      	subs	r2, r1, #1
 8005446:	9209      	str	r2, [sp, #36]	; 0x24
 8005448:	9a0c      	ldr	r2, [sp, #48]	; 0x30
 800544a:	e9cd b204 	strd	fp, r2, [sp, #16]
 800544e:	2100      	movs	r1, #0
 8005450:	2220      	movs	r2, #32
 8005452:	e9cd 2106 	strd	r2, r1, [sp, #24]
 8005456:	2203      	movs	r2, #3
 8005458:	4606      	mov	r6, r0
 800545a:	f04f 0b21 	mov.w	fp, #33	; 0x21
 800545e:	9203      	str	r2, [sp, #12]
 8005460:	9805      	ldr	r0, [sp, #20]
 8005462:	e764      	b.n	800532e <f_mkfs+0x406>
 8005464:	f640 71f5 	movw	r1, #4085	; 0xff5
 8005468:	458b      	cmp	fp, r1
 800546a:	f63f ae19 	bhi.w	80050a0 <f_mkfs+0x178>
 800546e:	9a04      	ldr	r2, [sp, #16]
 8005470:	2a00      	cmp	r2, #0
 8005472:	f47f ae05 	bne.w	8005080 <f_mkfs+0x158>
 8005476:	0076      	lsls	r6, r6, #1
 8005478:	e799      	b.n	80053ae <f_mkfs+0x486>
 800547a:	9a06      	ldr	r2, [sp, #24]
 800547c:	4402      	add	r2, r0
 800547e:	9206      	str	r2, [sp, #24]
 8005480:	9a05      	ldr	r2, [sp, #20]
 8005482:	4402      	add	r2, r0
 8005484:	9205      	str	r2, [sp, #20]
 8005486:	e770      	b.n	800536a <f_mkfs+0x442>
 8005488:	f8dd b010 	ldr.w	fp, [sp, #16]
 800548c:	4658      	mov	r0, fp
 800548e:	e7c0      	b.n	8005412 <f_mkfs+0x4ea>
 8005490:	9a0e      	ldr	r2, [sp, #56]	; 0x38
 8005492:	2a00      	cmp	r2, #0
 8005494:	d1a3      	bne.n	80053de <f_mkfs+0x4b6>
 8005496:	e5f3      	b.n	8005080 <f_mkfs+0x158>
 8005498:	2013      	movs	r0, #19
 800549a:	e5ca      	b.n	8005032 <f_mkfs+0x10a>
 800549c:	9e04      	ldr	r6, [sp, #16]
 800549e:	9a0a      	ldr	r2, [sp, #40]	; 0x28
 80054a0:	fbb3 f1f6 	udiv	r1, r3, r6
 80054a4:	ebc2 1e06 	rsb	lr, r2, r6, lsl #4
 80054a8:	e78a      	b.n	80053c0 <f_mkfs+0x498>
 80054aa:	9604      	str	r6, [sp, #16]
 80054ac:	f8dd e018 	ldr.w	lr, [sp, #24]
 80054b0:	4619      	mov	r1, r3
 80054b2:	2601      	movs	r6, #1
 80054b4:	e784      	b.n	80053c0 <f_mkfs+0x498>
 80054b6:	9604      	str	r6, [sp, #16]
 80054b8:	46e6      	mov	lr, ip
 80054ba:	0859      	lsrs	r1, r3, #1
 80054bc:	2602      	movs	r6, #2
 80054be:	e77f      	b.n	80053c0 <f_mkfs+0x498>
 80054c0:	f8dd e00c 	ldr.w	lr, [sp, #12]
 80054c4:	0899      	lsrs	r1, r3, #2
 80054c6:	2604      	movs	r6, #4
 80054c8:	e71d      	b.n	8005306 <f_mkfs+0x3de>
 80054ca:	0a19      	lsrs	r1, r3, #8
 80054cc:	f888 2020 	strb.w	r2, [r8, #32]
 80054d0:	0c1a      	lsrs	r2, r3, #16
 80054d2:	0e1b      	lsrs	r3, r3, #24
 80054d4:	f888 1021 	strb.w	r1, [r8, #33]	; 0x21
 80054d8:	f888 2022 	strb.w	r2, [r8, #34]	; 0x22
 80054dc:	f888 3023 	strb.w	r3, [r8, #35]	; 0x23
 80054e0:	e621      	b.n	8005126 <f_mkfs+0x1fe>
 80054e2:	4686      	mov	lr, r0
 80054e4:	08d9      	lsrs	r1, r3, #3
 80054e6:	2608      	movs	r6, #8
 80054e8:	e70d      	b.n	8005306 <f_mkfs+0x3de>
 80054ea:	9b08      	ldr	r3, [sp, #32]
 80054ec:	3701      	adds	r7, #1
 80054ee:	429f      	cmp	r7, r3
 80054f0:	f47f ae9e 	bne.w	8005230 <f_mkfs+0x308>
 80054f4:	e9dd 6306 	ldrd	r6, r3, [sp, #24]
 80054f8:	9a03      	ldr	r2, [sp, #12]
 80054fa:	2a03      	cmp	r2, #3
 80054fc:	bf08      	it	eq
 80054fe:	4633      	moveq	r3, r6
 8005500:	4657      	mov	r7, sl
 8005502:	461e      	mov	r6, r3
 8005504:	9b02      	ldr	r3, [sp, #8]
 8005506:	42b3      	cmp	r3, r6
 8005508:	bf28      	it	cs
 800550a:	4633      	movcs	r3, r6
 800550c:	463a      	mov	r2, r7
 800550e:	4641      	mov	r1, r8
 8005510:	4620      	mov	r0, r4
 8005512:	461d      	mov	r5, r3
 8005514:	f7fd fd6a 	bl	8002fec <disk_write>
 8005518:	442f      	add	r7, r5
 800551a:	2800      	cmp	r0, #0
 800551c:	f47f aeaf 	bne.w	800527e <f_mkfs+0x356>
 8005520:	1b76      	subs	r6, r6, r5
 8005522:	d1ef      	bne.n	8005504 <f_mkfs+0x5dc>
 8005524:	9a03      	ldr	r2, [sp, #12]
 8005526:	2a03      	cmp	r2, #3
 8005528:	f000 81bf 	beq.w	80058aa <f_mkfs+0x982>
 800552c:	9b12      	ldr	r3, [sp, #72]	; 0x48
 800552e:	f5b3 3f80 	cmp.w	r3, #65536	; 0x10000
 8005532:	f080 81b7 	bcs.w	80058a4 <f_mkfs+0x97c>
 8005536:	2a02      	cmp	r2, #2
 8005538:	bf14      	ite	ne
 800553a:	2301      	movne	r3, #1
 800553c:	2304      	moveq	r3, #4
 800553e:	9301      	str	r3, [sp, #4]
 8005540:	9a0d      	ldr	r2, [sp, #52]	; 0x34
 8005542:	2a00      	cmp	r2, #0
 8005544:	f040 81a4 	bne.w	8005890 <f_mkfs+0x968>
 8005548:	9b12      	ldr	r3, [sp, #72]	; 0x48
 800554a:	9215      	str	r2, [sp, #84]	; 0x54
 800554c:	2101      	movs	r1, #1
 800554e:	aa13      	add	r2, sp, #76	; 0x4c
 8005550:	4620      	mov	r0, r4
 8005552:	9314      	str	r3, [sp, #80]	; 0x50
 8005554:	f7fd fd68 	bl	8003028 <disk_ioctl>
 8005558:	2800      	cmp	r0, #0
 800555a:	f47f ae90 	bne.w	800527e <f_mkfs+0x356>
 800555e:	9e13      	ldr	r6, [sp, #76]	; 0x4c
 8005560:	2305      	movs	r3, #5
 8005562:	2508      	movs	r5, #8
 8005564:	f64f 423e 	movw	r2, #64574	; 0xfc3e
 8005568:	e003      	b.n	8005572 <f_mkfs+0x64a>
 800556a:	3b01      	subs	r3, #1
 800556c:	b2c5      	uxtb	r5, r0
 800556e:	f000 8103 	beq.w	8005778 <f_mkfs+0x850>
 8005572:	fbb6 f1f5 	udiv	r1, r6, r5
 8005576:	4291      	cmp	r1, r2
 8005578:	ea4f 0045 	mov.w	r0, r5, lsl #1
 800557c:	d8f5      	bhi.n	800556a <f_mkfs+0x642>
 800557e:	e0fc      	b.n	800577a <f_mkfs+0x852>
 8005580:	f640 72f5 	movw	r2, #4085	; 0xff5
 8005584:	4593      	cmp	fp, r2
 8005586:	f63f ad7b 	bhi.w	8005080 <f_mkfs+0x158>
 800558a:	2201      	movs	r2, #1
 800558c:	9203      	str	r2, [sp, #12]
 800558e:	e587      	b.n	80050a0 <f_mkfs+0x178>
 8005590:	f8dd e004 	ldr.w	lr, [sp, #4]
 8005594:	0919      	lsrs	r1, r3, #4
 8005596:	2610      	movs	r6, #16
 8005598:	e6b5      	b.n	8005306 <f_mkfs+0x3de>
 800559a:	2201      	movs	r2, #1
 800559c:	4683      	mov	fp, r0
 800559e:	9204      	str	r2, [sp, #16]
 80055a0:	4610      	mov	r0, r2
 80055a2:	e736      	b.n	8005412 <f_mkfs+0x4ea>
 80055a4:	f8dd e014 	ldr.w	lr, [sp, #20]
 80055a8:	0959      	lsrs	r1, r3, #5
 80055aa:	2620      	movs	r6, #32
 80055ac:	e6ab      	b.n	8005306 <f_mkfs+0x3de>
 80055ae:	f7fd fb95 	bl	8002cdc <get_fattime>
 80055b2:	0a03      	lsrs	r3, r0, #8
 80055b4:	f888 0043 	strb.w	r0, [r8, #67]	; 0x43
 80055b8:	f888 3044 	strb.w	r3, [r8, #68]	; 0x44
 80055bc:	0c03      	lsrs	r3, r0, #16
 80055be:	0e00      	lsrs	r0, r0, #24
 80055c0:	f888 0046 	strb.w	r0, [r8, #70]	; 0x46
 80055c4:	9801      	ldr	r0, [sp, #4]
 80055c6:	f888 3045 	strb.w	r3, [r8, #69]	; 0x45
 80055ca:	0a02      	lsrs	r2, r0, #8
 80055cc:	2101      	movs	r1, #1
 80055ce:	f2c0 0106 	movt	r1, #6
 80055d2:	f888 2025 	strb.w	r2, [r8, #37]	; 0x25
 80055d6:	0e02      	lsrs	r2, r0, #24
 80055d8:	f248 33c8 	movw	r3, #33736	; 0x83c8
 80055dc:	f8c8 1030 	str.w	r1, [r8, #48]	; 0x30
 80055e0:	f888 2027 	strb.w	r2, [r8, #39]	; 0x27
 80055e4:	0c01      	lsrs	r1, r0, #16
 80055e6:	2280      	movs	r2, #128	; 0x80
 80055e8:	f6c0 0300 	movt	r3, #2048	; 0x800
 80055ec:	f888 1026 	strb.w	r1, [r8, #38]	; 0x26
 80055f0:	f888 2040 	strb.w	r2, [r8, #64]	; 0x40
 80055f4:	2102      	movs	r1, #2
 80055f6:	f108 024b 	add.w	r2, r8, #75	; 0x4b
 80055fa:	f8c8 102c 	str.w	r1, [r8, #44]	; 0x2c
 80055fe:	429a      	cmp	r2, r3
 8005600:	f04f 0129 	mov.w	r1, #41	; 0x29
 8005604:	f888 7024 	strb.w	r7, [r8, #36]	; 0x24
 8005608:	f888 1042 	strb.w	r1, [r8, #66]	; 0x42
 800560c:	d905      	bls.n	800561a <f_mkfs+0x6f2>
 800560e:	f108 0247 	add.w	r2, r8, #71	; 0x47
 8005612:	1d19      	adds	r1, r3, #4
 8005614:	428a      	cmp	r2, r1
 8005616:	f0c0 80a3 	bcc.w	8005760 <f_mkfs+0x838>
 800561a:	f644 734e 	movw	r3, #20302	; 0x4f4e
 800561e:	f6c4 6320 	movt	r3, #20000	; 0x4e20
 8005622:	f644 5241 	movw	r2, #19777	; 0x4d41
 8005626:	f2c2 0245 	movt	r2, #8261	; 0x2045
 800562a:	f8c8 3047 	str.w	r3, [r8, #71]	; 0x47
 800562e:	f242 0320 	movw	r3, #8224	; 0x2020
 8005632:	f2c4 6320 	movt	r3, #17952	; 0x4620
 8005636:	f8c8 204b 	str.w	r2, [r8, #75]	; 0x4b
 800563a:	f245 4241 	movw	r2, #21569	; 0x5441
 800563e:	f2c3 2233 	movt	r2, #12851	; 0x3233
 8005642:	f8c8 304f 	str.w	r3, [r8, #79]	; 0x4f
 8005646:	2320      	movs	r3, #32
 8005648:	f8c8 2053 	str.w	r2, [r8, #83]	; 0x53
 800564c:	f888 3057 	strb.w	r3, [r8, #87]	; 0x57
 8005650:	f888 3058 	strb.w	r3, [r8, #88]	; 0x58
 8005654:	f888 3059 	strb.w	r3, [r8, #89]	; 0x59
 8005658:	f06f 0355 	mvn.w	r3, #85	; 0x55
 800565c:	f04f 0955 	mov.w	r9, #85	; 0x55
 8005660:	f888 31ff 	strb.w	r3, [r8, #511]	; 0x1ff
 8005664:	f888 91fe 	strb.w	r9, [r8, #510]	; 0x1fe
 8005668:	2301      	movs	r3, #1
 800566a:	9a0a      	ldr	r2, [sp, #40]	; 0x28
 800566c:	4641      	mov	r1, r8
 800566e:	4620      	mov	r0, r4
 8005670:	f7fd fcbc 	bl	8002fec <disk_write>
 8005674:	4607      	mov	r7, r0
 8005676:	2800      	cmp	r0, #0
 8005678:	f47f ae01 	bne.w	800527e <f_mkfs+0x356>
 800567c:	9a0a      	ldr	r2, [sp, #40]	; 0x28
 800567e:	2301      	movs	r3, #1
 8005680:	4641      	mov	r1, r8
 8005682:	3206      	adds	r2, #6
 8005684:	4620      	mov	r0, r4
 8005686:	f7fd fcb1 	bl	8002fec <disk_write>
 800568a:	f10b 3bff 	add.w	fp, fp, #4294967295
 800568e:	4639      	mov	r1, r7
 8005690:	f44f 7200 	mov.w	r2, #512	; 0x200
 8005694:	4640      	mov	r0, r8
 8005696:	f000 fb4e 	bl	8005d36 <memset>
 800569a:	f36b 0707 	bfi	r7, fp, #0, #8
 800569e:	ea4f 231b 	mov.w	r3, fp, lsr #8
 80056a2:	f363 270f 	bfi	r7, r3, #8, #8
 80056a6:	ea4f 431b 	mov.w	r3, fp, lsr #16
 80056aa:	9a0a      	ldr	r2, [sp, #40]	; 0x28
 80056ac:	f888 91fe 	strb.w	r9, [r8, #510]	; 0x1fe
 80056b0:	f363 4717 	bfi	r7, r3, #16, #8
 80056b4:	ea4f 6b1b 	mov.w	fp, fp, lsr #24
 80056b8:	f245 2152 	movw	r1, #21074	; 0x5252
 80056bc:	f247 2372 	movw	r3, #29298	; 0x7272
 80056c0:	f06f 0c55 	mvn.w	ip, #85	; 0x55
 80056c4:	f36b 671f 	bfi	r7, fp, #24, #8
 80056c8:	f2c4 1161 	movt	r1, #16737	; 0x4161
 80056cc:	f2c6 1341 	movt	r3, #24897	; 0x6141
 80056d0:	2002      	movs	r0, #2
 80056d2:	f8c8 1000 	str.w	r1, [r8]
 80056d6:	f8c8 31e4 	str.w	r3, [r8, #484]	; 0x1e4
 80056da:	f8c8 01ec 	str.w	r0, [r8, #492]	; 0x1ec
 80056de:	4641      	mov	r1, r8
 80056e0:	f888 c1ff 	strb.w	ip, [r8, #511]	; 0x1ff
 80056e4:	3207      	adds	r2, #7
 80056e6:	f8c8 71e8 	str.w	r7, [r8, #488]	; 0x1e8
 80056ea:	2301      	movs	r3, #1
 80056ec:	4620      	mov	r0, r4
 80056ee:	f7fd fc7d 	bl	8002fec <disk_write>
 80056f2:	9a0b      	ldr	r2, [sp, #44]	; 0x2c
 80056f4:	2301      	movs	r3, #1
 80056f6:	4641      	mov	r1, r8
 80056f8:	4620      	mov	r0, r4
 80056fa:	f7fd fc77 	bl	8002fec <disk_write>
 80056fe:	e57f      	b.n	8005200 <f_mkfs+0x2d8>
 8005700:	2202      	movs	r2, #2
 8005702:	f04f 0b00 	mov.w	fp, #0
 8005706:	9204      	str	r2, [sp, #16]
 8005708:	4610      	mov	r0, r2
 800570a:	e682      	b.n	8005412 <f_mkfs+0x4ea>
 800570c:	f04f 32ff 	mov.w	r2, #4294967295
 8005710:	f06f 4370 	mvn.w	r3, #4026531840	; 0xf0000000
 8005714:	f06f 0107 	mvn.w	r1, #7
 8005718:	f8c8 1000 	str.w	r1, [r8]
 800571c:	f8c8 2004 	str.w	r2, [r8, #4]
 8005720:	f8c8 3008 	str.w	r3, [r8, #8]
 8005724:	e593      	b.n	800524e <f_mkfs+0x326>
 8005726:	2204      	movs	r2, #4
 8005728:	f04f 0b00 	mov.w	fp, #0
 800572c:	9204      	str	r2, [sp, #16]
 800572e:	4610      	mov	r0, r2
 8005730:	e66f      	b.n	8005412 <f_mkfs+0x4ea>
 8005732:	2208      	movs	r2, #8
 8005734:	f04f 0b00 	mov.w	fp, #0
 8005738:	9204      	str	r2, [sp, #16]
 800573a:	4610      	mov	r0, r2
 800573c:	e669      	b.n	8005412 <f_mkfs+0x4ea>
 800573e:	2210      	movs	r2, #16
 8005740:	f04f 0b00 	mov.w	fp, #0
 8005744:	9204      	str	r2, [sp, #16]
 8005746:	4610      	mov	r0, r2
 8005748:	e663      	b.n	8005412 <f_mkfs+0x4ea>
 800574a:	f103 0113 	add.w	r1, r3, #19
 800574e:	f108 022a 	add.w	r2, r8, #42	; 0x2a
 8005752:	f813 0b01 	ldrb.w	r0, [r3], #1
 8005756:	f802 0f01 	strb.w	r0, [r2, #1]!
 800575a:	428b      	cmp	r3, r1
 800575c:	d1f9      	bne.n	8005752 <f_mkfs+0x82a>
 800575e:	e541      	b.n	80051e4 <f_mkfs+0x2bc>
 8005760:	3b01      	subs	r3, #1
 8005762:	f108 0246 	add.w	r2, r8, #70	; 0x46
 8005766:	f108 0159 	add.w	r1, r8, #89	; 0x59
 800576a:	f813 0f01 	ldrb.w	r0, [r3, #1]!
 800576e:	f802 0f01 	strb.w	r0, [r2, #1]!
 8005772:	4291      	cmp	r1, r2
 8005774:	d1f9      	bne.n	800576a <f_mkfs+0x842>
 8005776:	e76f      	b.n	8005658 <f_mkfs+0x730>
 8005778:	25ff      	movs	r5, #255	; 0xff
 800577a:	f44f 7200 	mov.w	r2, #512	; 0x200
 800577e:	2100      	movs	r1, #0
 8005780:	4640      	mov	r0, r8
 8005782:	f000 fad8 	bl	8005d36 <memset>
 8005786:	2164      	movs	r1, #100	; 0x64
 8005788:	223f      	movs	r2, #63	; 0x3f
 800578a:	fbb6 f1f1 	udiv	r1, r6, r1
 800578e:	f508 73df 	add.w	r3, r8, #446	; 0x1be
 8005792:	9102      	str	r1, [sp, #8]
 8005794:	f04f 0e00 	mov.w	lr, #0
 8005798:	42b2      	cmp	r2, r6
 800579a:	d26a      	bcs.n	8005872 <f_mkfs+0x94a>
 800579c:	a914      	add	r1, sp, #80	; 0x50
 800579e:	f851 102e 	ldr.w	r1, [r1, lr, lsl #2]
 80057a2:	2964      	cmp	r1, #100	; 0x64
 80057a4:	d803      	bhi.n	80057ae <f_mkfs+0x886>
 80057a6:	bf16      	itet	ne
 80057a8:	9802      	ldrne	r0, [sp, #8]
 80057aa:	4631      	moveq	r1, r6
 80057ac:	4341      	mulne	r1, r0
 80057ae:	1850      	adds	r0, r2, r1
 80057b0:	bf2c      	ite	cs
 80057b2:	2701      	movcs	r7, #1
 80057b4:	2700      	movcc	r7, #0
 80057b6:	4286      	cmp	r6, r0
 80057b8:	d301      	bcc.n	80057be <f_mkfs+0x896>
 80057ba:	2f00      	cmp	r7, #0
 80057bc:	d057      	beq.n	800586e <f_mkfs+0x946>
 80057be:	1ab1      	subs	r1, r6, r2
 80057c0:	1850      	adds	r0, r2, r1
 80057c2:	273f      	movs	r7, #63	; 0x3f
 80057c4:	fbb2 f7f7 	udiv	r7, r2, r7
 80057c8:	ebc7 1b87 	rsb	fp, r7, r7, lsl #6
 80057cc:	ea4f 2a12 	mov.w	sl, r2, lsr #8
 80057d0:	ea4f 4912 	mov.w	r9, r2, lsr #16
 80057d4:	721a      	strb	r2, [r3, #8]
 80057d6:	eba2 0b0b 	sub.w	fp, r2, fp
 80057da:	0e12      	lsrs	r2, r2, #24
 80057dc:	9203      	str	r2, [sp, #12]
 80057de:	4602      	mov	r2, r0
 80057e0:	fbb7 f0f5 	udiv	r0, r7, r5
 80057e4:	fb05 7710 	mls	r7, r5, r0, r7
 80057e8:	9704      	str	r7, [sp, #16]
 80057ea:	70d8      	strb	r0, [r3, #3]
 80057ec:	9f01      	ldr	r7, [sp, #4]
 80057ee:	711f      	strb	r7, [r3, #4]
 80057f0:	0880      	lsrs	r0, r0, #2
 80057f2:	f10b 0b01 	add.w	fp, fp, #1
 80057f6:	9f04      	ldr	r7, [sp, #16]
 80057f8:	705f      	strb	r7, [r3, #1]
 80057fa:	f020 003f 	bic.w	r0, r0, #63	; 0x3f
 80057fe:	ea4b 0000 	orr.w	r0, fp, r0
 8005802:	f102 3cff 	add.w	ip, r2, #4294967295
 8005806:	273f      	movs	r7, #63	; 0x3f
 8005808:	fbbc f7f7 	udiv	r7, ip, r7
 800580c:	ebc7 1b87 	rsb	fp, r7, r7, lsl #6
 8005810:	ebac 0c0b 	sub.w	ip, ip, fp
 8005814:	7098      	strb	r0, [r3, #2]
 8005816:	f883 a009 	strb.w	sl, [r3, #9]
 800581a:	fbb7 f0f5 	udiv	r0, r7, r5
 800581e:	ea4f 0a90 	mov.w	sl, r0, lsr #2
 8005822:	f02a 0a3f 	bic.w	sl, sl, #63	; 0x3f
 8005826:	f10e 0e01 	add.w	lr, lr, #1
 800582a:	f10c 0c01 	add.w	ip, ip, #1
 800582e:	7319      	strb	r1, [r3, #12]
 8005830:	fb05 7b10 	mls	fp, r5, r0, r7
 8005834:	ea4c 0c0a 	orr.w	ip, ip, sl
 8005838:	f883 900a 	strb.w	r9, [r3, #10]
 800583c:	ea4f 4a11 	mov.w	sl, r1, lsr #16
 8005840:	ea4f 2911 	mov.w	r9, r1, lsr #8
 8005844:	9f03      	ldr	r7, [sp, #12]
 8005846:	72df      	strb	r7, [r3, #11]
 8005848:	0e09      	lsrs	r1, r1, #24
 800584a:	f1be 0f04 	cmp.w	lr, #4
 800584e:	f883 b005 	strb.w	fp, [r3, #5]
 8005852:	71d8      	strb	r0, [r3, #7]
 8005854:	f883 c006 	strb.w	ip, [r3, #6]
 8005858:	f883 900d 	strb.w	r9, [r3, #13]
 800585c:	f883 a00e 	strb.w	sl, [r3, #14]
 8005860:	73d9      	strb	r1, [r3, #15]
 8005862:	f103 0310 	add.w	r3, r3, #16
 8005866:	d004      	beq.n	8005872 <f_mkfs+0x94a>
 8005868:	2a00      	cmp	r2, #0
 800586a:	d195      	bne.n	8005798 <f_mkfs+0x870>
 800586c:	e001      	b.n	8005872 <f_mkfs+0x94a>
 800586e:	2900      	cmp	r1, #0
 8005870:	d1a7      	bne.n	80057c2 <f_mkfs+0x89a>
 8005872:	2255      	movs	r2, #85	; 0x55
 8005874:	23aa      	movs	r3, #170	; 0xaa
 8005876:	f888 21fe 	strb.w	r2, [r8, #510]	; 0x1fe
 800587a:	f888 31ff 	strb.w	r3, [r8, #511]	; 0x1ff
 800587e:	4641      	mov	r1, r8
 8005880:	2301      	movs	r3, #1
 8005882:	2200      	movs	r2, #0
 8005884:	4620      	mov	r0, r4
 8005886:	f7fd fbb1 	bl	8002fec <disk_write>
 800588a:	2800      	cmp	r0, #0
 800588c:	f47f acf7 	bne.w	800527e <f_mkfs+0x356>
 8005890:	2200      	movs	r2, #0
 8005892:	4620      	mov	r0, r4
 8005894:	4611      	mov	r1, r2
 8005896:	f7fd fbc7 	bl	8003028 <disk_ioctl>
 800589a:	3000      	adds	r0, #0
 800589c:	bf18      	it	ne
 800589e:	2001      	movne	r0, #1
 80058a0:	f7ff bbc7 	b.w	8005032 <f_mkfs+0x10a>
 80058a4:	2306      	movs	r3, #6
 80058a6:	9301      	str	r3, [sp, #4]
 80058a8:	e64a      	b.n	8005540 <f_mkfs+0x618>
 80058aa:	230c      	movs	r3, #12
 80058ac:	9301      	str	r3, [sp, #4]
 80058ae:	e647      	b.n	8005540 <f_mkfs+0x618>

080058b0 <ff_uni2oem>:
 80058b0:	287f      	cmp	r0, #127	; 0x7f
 80058b2:	d907      	bls.n	80058c4 <ff_uni2oem+0x14>
 80058b4:	f5b0 3f80 	cmp.w	r0, #65536	; 0x10000
 80058b8:	d202      	bcs.n	80058c0 <ff_uni2oem+0x10>
 80058ba:	f5b1 7f69 	cmp.w	r1, #932	; 0x3a4
 80058be:	d003      	beq.n	80058c8 <ff_uni2oem+0x18>
 80058c0:	2000      	movs	r0, #0
 80058c2:	4770      	bx	lr
 80058c4:	b280      	uxth	r0, r0
 80058c6:	4770      	bx	lr
 80058c8:	f247 0385 	movw	r3, #28805	; 0x7085
 80058cc:	4298      	cmp	r0, r3
 80058ce:	b281      	uxth	r1, r0
 80058d0:	f000 80bb 	beq.w	8005a4a <ff_uni2oem+0x19a>
 80058d4:	4299      	cmp	r1, r3
 80058d6:	b470      	push	{r4, r5, r6}
 80058d8:	f640 636e 	movw	r3, #3694	; 0xe6e
 80058dc:	f641 45dd 	movw	r5, #7389	; 0x1cdd
 80058e0:	bf9c      	itt	ls
 80058e2:	461d      	movls	r5, r3
 80058e4:	2300      	movls	r3, #0
 80058e6:	1aec      	subs	r4, r5, r3
 80058e8:	f64f 220c 	movw	r2, #64012	; 0xfa0c
 80058ec:	eb03 0454 	add.w	r4, r3, r4, lsr #1
 80058f0:	f6c0 0200 	movt	r2, #2048	; 0x800
 80058f4:	00a0      	lsls	r0, r4, #2
 80058f6:	f832 6024 	ldrh.w	r6, [r2, r4, lsl #2]
 80058fa:	428e      	cmp	r6, r1
 80058fc:	f000 809e 	beq.w	8005a3c <ff_uni2oem+0x18c>
 8005900:	bf3c      	itt	cc
 8005902:	4623      	movcc	r3, r4
 8005904:	462c      	movcc	r4, r5
 8005906:	1ae5      	subs	r5, r4, r3
 8005908:	eb03 0555 	add.w	r5, r3, r5, lsr #1
 800590c:	00a8      	lsls	r0, r5, #2
 800590e:	f832 6025 	ldrh.w	r6, [r2, r5, lsl #2]
 8005912:	42b1      	cmp	r1, r6
 8005914:	f000 8092 	beq.w	8005a3c <ff_uni2oem+0x18c>
 8005918:	bf84      	itt	hi
 800591a:	462b      	movhi	r3, r5
 800591c:	4625      	movhi	r5, r4
 800591e:	1aec      	subs	r4, r5, r3
 8005920:	eb03 0454 	add.w	r4, r3, r4, lsr #1
 8005924:	00a0      	lsls	r0, r4, #2
 8005926:	f832 6024 	ldrh.w	r6, [r2, r4, lsl #2]
 800592a:	42b1      	cmp	r1, r6
 800592c:	f000 8086 	beq.w	8005a3c <ff_uni2oem+0x18c>
 8005930:	bf84      	itt	hi
 8005932:	4623      	movhi	r3, r4
 8005934:	462c      	movhi	r4, r5
 8005936:	1ae5      	subs	r5, r4, r3
 8005938:	eb03 0555 	add.w	r5, r3, r5, lsr #1
 800593c:	00a8      	lsls	r0, r5, #2
 800593e:	f832 6025 	ldrh.w	r6, [r2, r5, lsl #2]
 8005942:	42b1      	cmp	r1, r6
 8005944:	d07a      	beq.n	8005a3c <ff_uni2oem+0x18c>
 8005946:	bf84      	itt	hi
 8005948:	462b      	movhi	r3, r5
 800594a:	4625      	movhi	r5, r4
 800594c:	1aec      	subs	r4, r5, r3
 800594e:	eb03 0454 	add.w	r4, r3, r4, lsr #1
 8005952:	00a0      	lsls	r0, r4, #2
 8005954:	f832 6024 	ldrh.w	r6, [r2, r4, lsl #2]
 8005958:	42b1      	cmp	r1, r6
 800595a:	d06f      	beq.n	8005a3c <ff_uni2oem+0x18c>
 800595c:	bf84      	itt	hi
 800595e:	4623      	movhi	r3, r4
 8005960:	462c      	movhi	r4, r5
 8005962:	1ae5      	subs	r5, r4, r3
 8005964:	eb03 0555 	add.w	r5, r3, r5, lsr #1
 8005968:	00a8      	lsls	r0, r5, #2
 800596a:	f832 6025 	ldrh.w	r6, [r2, r5, lsl #2]
 800596e:	42b1      	cmp	r1, r6
 8005970:	d064      	beq.n	8005a3c <ff_uni2oem+0x18c>
 8005972:	bf84      	itt	hi
 8005974:	462b      	movhi	r3, r5
 8005976:	4625      	movhi	r5, r4
 8005978:	1aec      	subs	r4, r5, r3
 800597a:	eb03 0454 	add.w	r4, r3, r4, lsr #1
 800597e:	00a0      	lsls	r0, r4, #2
 8005980:	f832 6024 	ldrh.w	r6, [r2, r4, lsl #2]
 8005984:	42b1      	cmp	r1, r6
 8005986:	d059      	beq.n	8005a3c <ff_uni2oem+0x18c>
 8005988:	bf84      	itt	hi
 800598a:	4623      	movhi	r3, r4
 800598c:	462c      	movhi	r4, r5
 800598e:	1ae5      	subs	r5, r4, r3
 8005990:	eb03 0555 	add.w	r5, r3, r5, lsr #1
 8005994:	00a8      	lsls	r0, r5, #2
 8005996:	f832 6025 	ldrh.w	r6, [r2, r5, lsl #2]
 800599a:	42b1      	cmp	r1, r6
 800599c:	d04e      	beq.n	8005a3c <ff_uni2oem+0x18c>
 800599e:	bf84      	itt	hi
 80059a0:	462b      	movhi	r3, r5
 80059a2:	4625      	movhi	r5, r4
 80059a4:	1aec      	subs	r4, r5, r3
 80059a6:	eb03 0454 	add.w	r4, r3, r4, lsr #1
 80059aa:	00a0      	lsls	r0, r4, #2
 80059ac:	f832 6024 	ldrh.w	r6, [r2, r4, lsl #2]
 80059b0:	42b1      	cmp	r1, r6
 80059b2:	d043      	beq.n	8005a3c <ff_uni2oem+0x18c>
 80059b4:	bf84      	itt	hi
 80059b6:	4623      	movhi	r3, r4
 80059b8:	462c      	movhi	r4, r5
 80059ba:	1ae5      	subs	r5, r4, r3
 80059bc:	eb03 0555 	add.w	r5, r3, r5, lsr #1
 80059c0:	00a8      	lsls	r0, r5, #2
 80059c2:	f832 6025 	ldrh.w	r6, [r2, r5, lsl #2]
 80059c6:	42b1      	cmp	r1, r6
 80059c8:	d038      	beq.n	8005a3c <ff_uni2oem+0x18c>
 80059ca:	bf84      	itt	hi
 80059cc:	462b      	movhi	r3, r5
 80059ce:	4625      	movhi	r5, r4
 80059d0:	1aec      	subs	r4, r5, r3
 80059d2:	eb03 0454 	add.w	r4, r3, r4, lsr #1
 80059d6:	00a0      	lsls	r0, r4, #2
 80059d8:	f832 6024 	ldrh.w	r6, [r2, r4, lsl #2]
 80059dc:	42b1      	cmp	r1, r6
 80059de:	d02d      	beq.n	8005a3c <ff_uni2oem+0x18c>
 80059e0:	bf84      	itt	hi
 80059e2:	4623      	movhi	r3, r4
 80059e4:	462c      	movhi	r4, r5
 80059e6:	1ae5      	subs	r5, r4, r3
 80059e8:	eb03 0555 	add.w	r5, r3, r5, lsr #1
 80059ec:	00a8      	lsls	r0, r5, #2
 80059ee:	f832 6025 	ldrh.w	r6, [r2, r5, lsl #2]
 80059f2:	42b1      	cmp	r1, r6
 80059f4:	d022      	beq.n	8005a3c <ff_uni2oem+0x18c>
 80059f6:	bf84      	itt	hi
 80059f8:	462b      	movhi	r3, r5
 80059fa:	4625      	movhi	r5, r4
 80059fc:	1aee      	subs	r6, r5, r3
 80059fe:	eb03 0656 	add.w	r6, r3, r6, lsr #1
 8005a02:	00b0      	lsls	r0, r6, #2
 8005a04:	f832 4026 	ldrh.w	r4, [r2, r6, lsl #2]
 8005a08:	42a1      	cmp	r1, r4
 8005a0a:	d017      	beq.n	8005a3c <ff_uni2oem+0x18c>
 8005a0c:	bf84      	itt	hi
 8005a0e:	4633      	movhi	r3, r6
 8005a10:	462e      	movhi	r6, r5
 8005a12:	1af4      	subs	r4, r6, r3
 8005a14:	eb03 0454 	add.w	r4, r3, r4, lsr #1
 8005a18:	00a0      	lsls	r0, r4, #2
 8005a1a:	f832 5024 	ldrh.w	r5, [r2, r4, lsl #2]
 8005a1e:	42a9      	cmp	r1, r5
 8005a20:	d00c      	beq.n	8005a3c <ff_uni2oem+0x18c>
 8005a22:	bf84      	itt	hi
 8005a24:	4623      	movhi	r3, r4
 8005a26:	4634      	movhi	r4, r6
 8005a28:	1ae4      	subs	r4, r4, r3
 8005a2a:	eb03 0354 	add.w	r3, r3, r4, lsr #1
 8005a2e:	0098      	lsls	r0, r3, #2
 8005a30:	f832 3023 	ldrh.w	r3, [r2, r3, lsl #2]
 8005a34:	428b      	cmp	r3, r1
 8005a36:	d001      	beq.n	8005a3c <ff_uni2oem+0x18c>
 8005a38:	2000      	movs	r0, #0
 8005a3a:	e004      	b.n	8005a46 <ff_uni2oem+0x196>
 8005a3c:	f64f 230e 	movw	r3, #64014	; 0xfa0e
 8005a40:	f6c0 0300 	movt	r3, #2048	; 0x800
 8005a44:	5ac0      	ldrh	r0, [r0, r3]
 8005a46:	bc70      	pop	{r4, r5, r6}
 8005a48:	4770      	bx	lr
 8005a4a:	f64f 230e 	movw	r3, #64014	; 0xfa0e
 8005a4e:	f6c0 0300 	movt	r3, #2048	; 0x800
 8005a52:	f643 10b8 	movw	r0, #14776	; 0x39b8
 8005a56:	5ac0      	ldrh	r0, [r0, r3]
 8005a58:	4770      	bx	lr
 8005a5a:	bf00      	nop

08005a5c <ff_oem2uni>:
 8005a5c:	287f      	cmp	r0, #127	; 0x7f
 8005a5e:	f240 80c6 	bls.w	8005bee <ff_oem2uni+0x192>
 8005a62:	f5b1 7f69 	cmp.w	r1, #932	; 0x3a4
 8005a66:	d001      	beq.n	8005a6c <ff_oem2uni+0x10>
 8005a68:	2000      	movs	r0, #0
 8005a6a:	4770      	bx	lr
 8005a6c:	f649 03e3 	movw	r3, #39139	; 0x98e3
 8005a70:	4298      	cmp	r0, r3
 8005a72:	f000 80bd 	beq.w	8005bf0 <ff_oem2uni+0x194>
 8005a76:	b470      	push	{r4, r5, r6}
 8005a78:	bf8b      	itete	hi
 8005a7a:	f640 636e 	movwhi	r3, #3694	; 0xe6e
 8005a7e:	2300      	movls	r3, #0
 8005a80:	f641 45dd 	movwhi	r5, #7389	; 0x1cdd
 8005a84:	f640 656e 	movwls	r5, #3694	; 0xe6e
 8005a88:	1aec      	subs	r4, r5, r3
 8005a8a:	f248 6294 	movw	r2, #34452	; 0x8694
 8005a8e:	eb03 0454 	add.w	r4, r3, r4, lsr #1
 8005a92:	f6c0 0200 	movt	r2, #2048	; 0x800
 8005a96:	00a1      	lsls	r1, r4, #2
 8005a98:	f832 6024 	ldrh.w	r6, [r2, r4, lsl #2]
 8005a9c:	4286      	cmp	r6, r0
 8005a9e:	f000 809f 	beq.w	8005be0 <ff_oem2uni+0x184>
 8005aa2:	bf3c      	itt	cc
 8005aa4:	4623      	movcc	r3, r4
 8005aa6:	462c      	movcc	r4, r5
 8005aa8:	1ae5      	subs	r5, r4, r3
 8005aaa:	eb03 0555 	add.w	r5, r3, r5, lsr #1
 8005aae:	00a9      	lsls	r1, r5, #2
 8005ab0:	f832 6025 	ldrh.w	r6, [r2, r5, lsl #2]
 8005ab4:	42b0      	cmp	r0, r6
 8005ab6:	f000 8093 	beq.w	8005be0 <ff_oem2uni+0x184>
 8005aba:	bf84      	itt	hi
 8005abc:	462b      	movhi	r3, r5
 8005abe:	4625      	movhi	r5, r4
 8005ac0:	1aec      	subs	r4, r5, r3
 8005ac2:	eb03 0454 	add.w	r4, r3, r4, lsr #1
 8005ac6:	00a1      	lsls	r1, r4, #2
 8005ac8:	f832 6024 	ldrh.w	r6, [r2, r4, lsl #2]
 8005acc:	42b0      	cmp	r0, r6
 8005ace:	f000 8087 	beq.w	8005be0 <ff_oem2uni+0x184>
 8005ad2:	bf84      	itt	hi
 8005ad4:	4623      	movhi	r3, r4
 8005ad6:	462c      	movhi	r4, r5
 8005ad8:	1ae5      	subs	r5, r4, r3
 8005ada:	eb03 0555 	add.w	r5, r3, r5, lsr #1
 8005ade:	00a9      	lsls	r1, r5, #2
 8005ae0:	f832 6025 	ldrh.w	r6, [r2, r5, lsl #2]
 8005ae4:	42b0      	cmp	r0, r6
 8005ae6:	d07b      	beq.n	8005be0 <ff_oem2uni+0x184>
 8005ae8:	bf84      	itt	hi
 8005aea:	462b      	movhi	r3, r5
 8005aec:	4625      	movhi	r5, r4
 8005aee:	1aec      	subs	r4, r5, r3
 8005af0:	eb03 0454 	add.w	r4, r3, r4, lsr #1
 8005af4:	00a1      	lsls	r1, r4, #2
 8005af6:	f832 6024 	ldrh.w	r6, [r2, r4, lsl #2]
 8005afa:	42b0      	cmp	r0, r6
 8005afc:	d070      	beq.n	8005be0 <ff_oem2uni+0x184>
 8005afe:	bf84      	itt	hi
 8005b00:	4623      	movhi	r3, r4
 8005b02:	462c      	movhi	r4, r5
 8005b04:	1ae5      	subs	r5, r4, r3
 8005b06:	eb03 0555 	add.w	r5, r3, r5, lsr #1
 8005b0a:	00a9      	lsls	r1, r5, #2
 8005b0c:	f832 6025 	ldrh.w	r6, [r2, r5, lsl #2]
 8005b10:	42b0      	cmp	r0, r6
 8005b12:	d065      	beq.n	8005be0 <ff_oem2uni+0x184>
 8005b14:	bf84      	itt	hi
 8005b16:	462b      	movhi	r3, r5
 8005b18:	4625      	movhi	r5, r4
 8005b1a:	1aec      	subs	r4, r5, r3
 8005b1c:	eb03 0454 	add.w	r4, r3, r4, lsr #1
 8005b20:	00a1      	lsls	r1, r4, #2
 8005b22:	f832 6024 	ldrh.w	r6, [r2, r4, lsl #2]
 8005b26:	42b0      	cmp	r0, r6
 8005b28:	d05a      	beq.n	8005be0 <ff_oem2uni+0x184>
 8005b2a:	bf84      	itt	hi
 8005b2c:	4623      	movhi	r3, r4
 8005b2e:	462c      	movhi	r4, r5
 8005b30:	1ae5      	subs	r5, r4, r3
 8005b32:	eb03 0555 	add.w	r5, r3, r5, lsr #1
 8005b36:	00a9      	lsls	r1, r5, #2
 8005b38:	f832 6025 	ldrh.w	r6, [r2, r5, lsl #2]
 8005b3c:	42b0      	cmp	r0, r6
 8005b3e:	d04f      	beq.n	8005be0 <ff_oem2uni+0x184>
 8005b40:	bf84      	itt	hi
 8005b42:	462b      	movhi	r3, r5
 8005b44:	4625      	movhi	r5, r4
 8005b46:	1aec      	subs	r4, r5, r3
 8005b48:	eb03 0454 	add.w	r4, r3, r4, lsr #1
 8005b4c:	00a1      	lsls	r1, r4, #2
 8005b4e:	f832 6024 	ldrh.w	r6, [r2, r4, lsl #2]
 8005b52:	42b0      	cmp	r0, r6
 8005b54:	d044      	beq.n	8005be0 <ff_oem2uni+0x184>
 8005b56:	bf84      	itt	hi
 8005b58:	4623      	movhi	r3, r4
 8005b5a:	462c      	movhi	r4, r5
 8005b5c:	1ae5      	subs	r5, r4, r3
 8005b5e:	eb03 0555 	add.w	r5, r3, r5, lsr #1
 8005b62:	00a9      	lsls	r1, r5, #2
 8005b64:	f832 6025 	ldrh.w	r6, [r2, r5, lsl #2]
 8005b68:	42b0      	cmp	r0, r6
 8005b6a:	d039      	beq.n	8005be0 <ff_oem2uni+0x184>
 8005b6c:	bf84      	itt	hi
 8005b6e:	462b      	movhi	r3, r5
 8005b70:	4625      	movhi	r5, r4
 8005b72:	1aec      	subs	r4, r5, r3
 8005b74:	eb03 0454 	add.w	r4, r3, r4, lsr #1
 8005b78:	00a1      	lsls	r1, r4, #2
 8005b7a:	f832 6024 	ldrh.w	r6, [r2, r4, lsl #2]
 8005b7e:	42b0      	cmp	r0, r6
 8005b80:	d02e      	beq.n	8005be0 <ff_oem2uni+0x184>
 8005b82:	bf84      	itt	hi
 8005b84:	4623      	movhi	r3, r4
 8005b86:	462c      	movhi	r4, r5
 8005b88:	1ae5      	subs	r5, r4, r3
 8005b8a:	eb03 0555 	add.w	r5, r3, r5, lsr #1
 8005b8e:	00a9      	lsls	r1, r5, #2
 8005b90:	f832 6025 	ldrh.w	r6, [r2, r5, lsl #2]
 8005b94:	42b0      	cmp	r0, r6
 8005b96:	d023      	beq.n	8005be0 <ff_oem2uni+0x184>
 8005b98:	bf84      	itt	hi
 8005b9a:	462b      	movhi	r3, r5
 8005b9c:	4625      	movhi	r5, r4
 8005b9e:	1aee      	subs	r6, r5, r3
 8005ba0:	eb03 0656 	add.w	r6, r3, r6, lsr #1
 8005ba4:	00b1      	lsls	r1, r6, #2
 8005ba6:	f832 4026 	ldrh.w	r4, [r2, r6, lsl #2]
 8005baa:	42a0      	cmp	r0, r4
 8005bac:	d018      	beq.n	8005be0 <ff_oem2uni+0x184>
 8005bae:	bf84      	itt	hi
 8005bb0:	4633      	movhi	r3, r6
 8005bb2:	462e      	movhi	r6, r5
 8005bb4:	1af4      	subs	r4, r6, r3
 8005bb6:	eb03 0454 	add.w	r4, r3, r4, lsr #1
 8005bba:	00a1      	lsls	r1, r4, #2
 8005bbc:	f832 5024 	ldrh.w	r5, [r2, r4, lsl #2]
 8005bc0:	42a8      	cmp	r0, r5
 8005bc2:	d00d      	beq.n	8005be0 <ff_oem2uni+0x184>
 8005bc4:	bf84      	itt	hi
 8005bc6:	4623      	movhi	r3, r4
 8005bc8:	4634      	movhi	r4, r6
 8005bca:	1ae4      	subs	r4, r4, r3
 8005bcc:	eb03 0354 	add.w	r3, r3, r4, lsr #1
 8005bd0:	0099      	lsls	r1, r3, #2
 8005bd2:	f832 3023 	ldrh.w	r3, [r2, r3, lsl #2]
 8005bd6:	4283      	cmp	r3, r0
 8005bd8:	d002      	beq.n	8005be0 <ff_oem2uni+0x184>
 8005bda:	2000      	movs	r0, #0
 8005bdc:	bc70      	pop	{r4, r5, r6}
 8005bde:	4770      	bx	lr
 8005be0:	f248 6396 	movw	r3, #34454	; 0x8696
 8005be4:	f6c0 0300 	movt	r3, #2048	; 0x800
 8005be8:	bc70      	pop	{r4, r5, r6}
 8005bea:	5ac8      	ldrh	r0, [r1, r3]
 8005bec:	4770      	bx	lr
 8005bee:	4770      	bx	lr
 8005bf0:	f248 6396 	movw	r3, #34454	; 0x8696
 8005bf4:	f643 11b8 	movw	r1, #14776	; 0x39b8
 8005bf8:	f6c0 0300 	movt	r3, #2048	; 0x800
 8005bfc:	5ac8      	ldrh	r0, [r1, r3]
 8005bfe:	4770      	bx	lr

08005c00 <ff_wtoupper>:
 8005c00:	f5b0 3f80 	cmp.w	r0, #65536	; 0x10000
 8005c04:	d223      	bcs.n	8005c4e <ff_wtoupper+0x4e>
 8005c06:	f248 33e4 	movw	r3, #33764	; 0x83e4
 8005c0a:	f248 52d8 	movw	r2, #34264	; 0x85d8
 8005c0e:	f6c0 0300 	movt	r3, #2048	; 0x800
 8005c12:	f6c0 0200 	movt	r2, #2048	; 0x800
 8005c16:	b4f0      	push	{r4, r5, r6, r7}
 8005c18:	f5b0 5f80 	cmp.w	r0, #4096	; 0x1000
 8005c1c:	bf28      	it	cs
 8005c1e:	4613      	movcs	r3, r2
 8005c20:	b286      	uxth	r6, r0
 8005c22:	3304      	adds	r3, #4
 8005c24:	e00b      	b.n	8005c3e <ff_wtoupper+0x3e>
 8005c26:	428e      	cmp	r6, r1
 8005c28:	d30e      	bcc.n	8005c48 <ff_wtoupper+0x48>
 8005c2a:	f833 2c02 	ldrh.w	r2, [r3, #-2]
 8005c2e:	b2d4      	uxtb	r4, r2
 8005c30:	1865      	adds	r5, r4, r1
 8005c32:	42a8      	cmp	r0, r5
 8005c34:	ea4f 2212 	mov.w	r2, r2, lsr #8
 8005c38:	db0a      	blt.n	8005c50 <ff_wtoupper+0x50>
 8005c3a:	3304      	adds	r3, #4
 8005c3c:	b18a      	cbz	r2, 8005c62 <ff_wtoupper+0x62>
 8005c3e:	f833 1c04 	ldrh.w	r1, [r3, #-4]
 8005c42:	461f      	mov	r7, r3
 8005c44:	2900      	cmp	r1, #0
 8005c46:	d1ee      	bne.n	8005c26 <ff_wtoupper+0x26>
 8005c48:	4630      	mov	r0, r6
 8005c4a:	bcf0      	pop	{r4, r5, r6, r7}
 8005c4c:	4770      	bx	lr
 8005c4e:	4770      	bx	lr
 8005c50:	2a08      	cmp	r2, #8
 8005c52:	d8f9      	bhi.n	8005c48 <ff_wtoupper+0x48>
 8005c54:	e8df f002 	tbb	[pc, r2]
 8005c58:	181b1e24 	.word	0x181b1e24
 8005c5c:	0c0f1215 	.word	0x0c0f1215
 8005c60:	08          	.byte	0x08
 8005c61:	00          	.byte	0x00
 8005c62:	eb07 0344 	add.w	r3, r7, r4, lsl #1
 8005c66:	e7dc      	b.n	8005c22 <ff_wtoupper+0x22>
 8005c68:	f5a6 56e3 	sub.w	r6, r6, #7264	; 0x1c60
 8005c6c:	b2b6      	uxth	r6, r6
 8005c6e:	e7eb      	b.n	8005c48 <ff_wtoupper+0x48>
 8005c70:	3e50      	subs	r6, #80	; 0x50
 8005c72:	b2b6      	uxth	r6, r6
 8005c74:	e7e8      	b.n	8005c48 <ff_wtoupper+0x48>
 8005c76:	3608      	adds	r6, #8
 8005c78:	b2b6      	uxth	r6, r6
 8005c7a:	e7e5      	b.n	8005c48 <ff_wtoupper+0x48>
 8005c7c:	3e1a      	subs	r6, #26
 8005c7e:	b2b6      	uxth	r6, r6
 8005c80:	e7e2      	b.n	8005c48 <ff_wtoupper+0x48>
 8005c82:	3e30      	subs	r6, #48	; 0x30
 8005c84:	b2b6      	uxth	r6, r6
 8005c86:	e7df      	b.n	8005c48 <ff_wtoupper+0x48>
 8005c88:	3e20      	subs	r6, #32
 8005c8a:	b2b6      	uxth	r6, r6
 8005c8c:	e7dc      	b.n	8005c48 <ff_wtoupper+0x48>
 8005c8e:	3e10      	subs	r6, #16
 8005c90:	b2b6      	uxth	r6, r6
 8005c92:	e7d9      	b.n	8005c48 <ff_wtoupper+0x48>
 8005c94:	1a71      	subs	r1, r6, r1
 8005c96:	f001 0301 	and.w	r3, r1, #1
 8005c9a:	1af6      	subs	r6, r6, r3
 8005c9c:	b2b6      	uxth	r6, r6
 8005c9e:	e7d3      	b.n	8005c48 <ff_wtoupper+0x48>
 8005ca0:	1a40      	subs	r0, r0, r1
 8005ca2:	f833 6010 	ldrh.w	r6, [r3, r0, lsl #1]
 8005ca6:	e7cf      	b.n	8005c48 <ff_wtoupper+0x48>

08005ca8 <__errno>:
 8005ca8:	4b01      	ldr	r3, [pc, #4]	; (8005cb0 <__errno+0x8>)
 8005caa:	6818      	ldr	r0, [r3, #0]
 8005cac:	4770      	bx	lr
 8005cae:	bf00      	nop
 8005cb0:	2000000c 	.word	0x2000000c

08005cb4 <__libc_init_array>:
 8005cb4:	b570      	push	{r4, r5, r6, lr}
 8005cb6:	4e0d      	ldr	r6, [pc, #52]	; (8005cec <__libc_init_array+0x38>)
 8005cb8:	4c0d      	ldr	r4, [pc, #52]	; (8005cf0 <__libc_init_array+0x3c>)
 8005cba:	1ba4      	subs	r4, r4, r6
 8005cbc:	10a4      	asrs	r4, r4, #2
 8005cbe:	2500      	movs	r5, #0
 8005cc0:	42a5      	cmp	r5, r4
 8005cc2:	d109      	bne.n	8005cd8 <__libc_init_array+0x24>
 8005cc4:	4e0b      	ldr	r6, [pc, #44]	; (8005cf4 <__libc_init_array+0x40>)
 8005cc6:	4c0c      	ldr	r4, [pc, #48]	; (8005cf8 <__libc_init_array+0x44>)
 8005cc8:	f002 f862 	bl	8007d90 <_init>
 8005ccc:	1ba4      	subs	r4, r4, r6
 8005cce:	10a4      	asrs	r4, r4, #2
 8005cd0:	2500      	movs	r5, #0
 8005cd2:	42a5      	cmp	r5, r4
 8005cd4:	d105      	bne.n	8005ce2 <__libc_init_array+0x2e>
 8005cd6:	bd70      	pop	{r4, r5, r6, pc}
 8005cd8:	f856 3025 	ldr.w	r3, [r6, r5, lsl #2]
 8005cdc:	4798      	blx	r3
 8005cde:	3501      	adds	r5, #1
 8005ce0:	e7ee      	b.n	8005cc0 <__libc_init_array+0xc>
 8005ce2:	f856 3025 	ldr.w	r3, [r6, r5, lsl #2]
 8005ce6:	4798      	blx	r3
 8005ce8:	3501      	adds	r5, #1
 8005cea:	e7f2      	b.n	8005cd2 <__libc_init_array+0x1e>
 8005cec:	08016fe0 	.word	0x08016fe0
 8005cf0:	08016fe0 	.word	0x08016fe0
 8005cf4:	08016fe0 	.word	0x08016fe0
 8005cf8:	08016fe4 	.word	0x08016fe4

08005cfc <__ascii_mbtowc>:
 8005cfc:	b082      	sub	sp, #8
 8005cfe:	b901      	cbnz	r1, 8005d02 <__ascii_mbtowc+0x6>
 8005d00:	a901      	add	r1, sp, #4
 8005d02:	b142      	cbz	r2, 8005d16 <__ascii_mbtowc+0x1a>
 8005d04:	b14b      	cbz	r3, 8005d1a <__ascii_mbtowc+0x1e>
 8005d06:	7813      	ldrb	r3, [r2, #0]
 8005d08:	600b      	str	r3, [r1, #0]
 8005d0a:	7812      	ldrb	r2, [r2, #0]
 8005d0c:	1c10      	adds	r0, r2, #0
 8005d0e:	bf18      	it	ne
 8005d10:	2001      	movne	r0, #1
 8005d12:	b002      	add	sp, #8
 8005d14:	4770      	bx	lr
 8005d16:	4610      	mov	r0, r2
 8005d18:	e7fb      	b.n	8005d12 <__ascii_mbtowc+0x16>
 8005d1a:	f06f 0001 	mvn.w	r0, #1
 8005d1e:	e7f8      	b.n	8005d12 <__ascii_mbtowc+0x16>

08005d20 <memcpy>:
 8005d20:	b510      	push	{r4, lr}
 8005d22:	1e43      	subs	r3, r0, #1
 8005d24:	440a      	add	r2, r1
 8005d26:	4291      	cmp	r1, r2
 8005d28:	d100      	bne.n	8005d2c <memcpy+0xc>
 8005d2a:	bd10      	pop	{r4, pc}
 8005d2c:	f811 4b01 	ldrb.w	r4, [r1], #1
 8005d30:	f803 4f01 	strb.w	r4, [r3, #1]!
 8005d34:	e7f7      	b.n	8005d26 <memcpy+0x6>

08005d36 <memset>:
 8005d36:	4402      	add	r2, r0
 8005d38:	4603      	mov	r3, r0
 8005d3a:	4293      	cmp	r3, r2
 8005d3c:	d100      	bne.n	8005d40 <memset+0xa>
 8005d3e:	4770      	bx	lr
 8005d40:	f803 1b01 	strb.w	r1, [r3], #1
 8005d44:	e7f9      	b.n	8005d3a <memset+0x4>

08005d46 <__cvt>:
 8005d46:	e92d 47ff 	stmdb	sp!, {r0, r1, r2, r3, r4, r5, r6, r7, r8, r9, sl, lr}
 8005d4a:	ec55 4b10 	vmov	r4, r5, d0
 8005d4e:	9f0d      	ldr	r7, [sp, #52]	; 0x34
 8005d50:	f8dd a030 	ldr.w	sl, [sp, #48]	; 0x30
 8005d54:	2d00      	cmp	r5, #0
 8005d56:	460e      	mov	r6, r1
 8005d58:	4691      	mov	r9, r2
 8005d5a:	4619      	mov	r1, r3
 8005d5c:	bfb8      	it	lt
 8005d5e:	4622      	movlt	r2, r4
 8005d60:	462b      	mov	r3, r5
 8005d62:	f027 0720 	bic.w	r7, r7, #32
 8005d66:	bfbb      	ittet	lt
 8005d68:	f105 4300 	addlt.w	r3, r5, #2147483648	; 0x80000000
 8005d6c:	461d      	movlt	r5, r3
 8005d6e:	2300      	movge	r3, #0
 8005d70:	232d      	movlt	r3, #45	; 0x2d
 8005d72:	bfb8      	it	lt
 8005d74:	4614      	movlt	r4, r2
 8005d76:	2f46      	cmp	r7, #70	; 0x46
 8005d78:	700b      	strb	r3, [r1, #0]
 8005d7a:	d004      	beq.n	8005d86 <__cvt+0x40>
 8005d7c:	2f45      	cmp	r7, #69	; 0x45
 8005d7e:	d100      	bne.n	8005d82 <__cvt+0x3c>
 8005d80:	3601      	adds	r6, #1
 8005d82:	2102      	movs	r1, #2
 8005d84:	e000      	b.n	8005d88 <__cvt+0x42>
 8005d86:	2103      	movs	r1, #3
 8005d88:	ab03      	add	r3, sp, #12
 8005d8a:	9301      	str	r3, [sp, #4]
 8005d8c:	ab02      	add	r3, sp, #8
 8005d8e:	9300      	str	r3, [sp, #0]
 8005d90:	4632      	mov	r2, r6
 8005d92:	4653      	mov	r3, sl
 8005d94:	ec45 4b10 	vmov	d0, r4, r5
 8005d98:	f000 fcee 	bl	8006778 <_dtoa_r>
 8005d9c:	2f47      	cmp	r7, #71	; 0x47
 8005d9e:	4680      	mov	r8, r0
 8005da0:	d102      	bne.n	8005da8 <__cvt+0x62>
 8005da2:	f019 0f01 	tst.w	r9, #1
 8005da6:	d026      	beq.n	8005df6 <__cvt+0xb0>
 8005da8:	2f46      	cmp	r7, #70	; 0x46
 8005daa:	eb08 0906 	add.w	r9, r8, r6
 8005dae:	d111      	bne.n	8005dd4 <__cvt+0x8e>
 8005db0:	f898 3000 	ldrb.w	r3, [r8]
 8005db4:	2b30      	cmp	r3, #48	; 0x30
 8005db6:	d10a      	bne.n	8005dce <__cvt+0x88>
 8005db8:	2200      	movs	r2, #0
 8005dba:	2300      	movs	r3, #0
 8005dbc:	4620      	mov	r0, r4
 8005dbe:	4629      	mov	r1, r5
 8005dc0:	f7fa fe9a 	bl	8000af8 <__aeabi_dcmpeq>
 8005dc4:	b918      	cbnz	r0, 8005dce <__cvt+0x88>
 8005dc6:	f1c6 0601 	rsb	r6, r6, #1
 8005dca:	f8ca 6000 	str.w	r6, [sl]
 8005dce:	f8da 3000 	ldr.w	r3, [sl]
 8005dd2:	4499      	add	r9, r3
 8005dd4:	2200      	movs	r2, #0
 8005dd6:	2300      	movs	r3, #0
 8005dd8:	4620      	mov	r0, r4
 8005dda:	4629      	mov	r1, r5
 8005ddc:	f7fa fe8c 	bl	8000af8 <__aeabi_dcmpeq>
 8005de0:	b938      	cbnz	r0, 8005df2 <__cvt+0xac>
 8005de2:	2230      	movs	r2, #48	; 0x30
 8005de4:	9b03      	ldr	r3, [sp, #12]
 8005de6:	454b      	cmp	r3, r9
 8005de8:	d205      	bcs.n	8005df6 <__cvt+0xb0>
 8005dea:	1c59      	adds	r1, r3, #1
 8005dec:	9103      	str	r1, [sp, #12]
 8005dee:	701a      	strb	r2, [r3, #0]
 8005df0:	e7f8      	b.n	8005de4 <__cvt+0x9e>
 8005df2:	f8cd 900c 	str.w	r9, [sp, #12]
 8005df6:	9b03      	ldr	r3, [sp, #12]
 8005df8:	9a0e      	ldr	r2, [sp, #56]	; 0x38
 8005dfa:	eba3 0308 	sub.w	r3, r3, r8
 8005dfe:	4640      	mov	r0, r8
 8005e00:	6013      	str	r3, [r2, #0]
 8005e02:	b004      	add	sp, #16
 8005e04:	e8bd 87f0 	ldmia.w	sp!, {r4, r5, r6, r7, r8, r9, sl, pc}

08005e08 <__exponent>:
 8005e08:	b5f7      	push	{r0, r1, r2, r4, r5, r6, r7, lr}
 8005e0a:	2900      	cmp	r1, #0
 8005e0c:	4604      	mov	r4, r0
 8005e0e:	bfba      	itte	lt
 8005e10:	4249      	neglt	r1, r1
 8005e12:	232d      	movlt	r3, #45	; 0x2d
 8005e14:	232b      	movge	r3, #43	; 0x2b
 8005e16:	2909      	cmp	r1, #9
 8005e18:	f804 2b02 	strb.w	r2, [r4], #2
 8005e1c:	7043      	strb	r3, [r0, #1]
 8005e1e:	dd20      	ble.n	8005e62 <__exponent+0x5a>
 8005e20:	f10d 0307 	add.w	r3, sp, #7
 8005e24:	461f      	mov	r7, r3
 8005e26:	260a      	movs	r6, #10
 8005e28:	fb91 f5f6 	sdiv	r5, r1, r6
 8005e2c:	fb06 1115 	mls	r1, r6, r5, r1
 8005e30:	3130      	adds	r1, #48	; 0x30
 8005e32:	2d09      	cmp	r5, #9
 8005e34:	f803 1c01 	strb.w	r1, [r3, #-1]
 8005e38:	f103 32ff 	add.w	r2, r3, #4294967295
 8005e3c:	4629      	mov	r1, r5
 8005e3e:	dc09      	bgt.n	8005e54 <__exponent+0x4c>
 8005e40:	3130      	adds	r1, #48	; 0x30
 8005e42:	3b02      	subs	r3, #2
 8005e44:	f802 1c01 	strb.w	r1, [r2, #-1]
 8005e48:	42bb      	cmp	r3, r7
 8005e4a:	4622      	mov	r2, r4
 8005e4c:	d304      	bcc.n	8005e58 <__exponent+0x50>
 8005e4e:	1a10      	subs	r0, r2, r0
 8005e50:	b003      	add	sp, #12
 8005e52:	bdf0      	pop	{r4, r5, r6, r7, pc}
 8005e54:	4613      	mov	r3, r2
 8005e56:	e7e7      	b.n	8005e28 <__exponent+0x20>
 8005e58:	f813 2b01 	ldrb.w	r2, [r3], #1
 8005e5c:	f804 2b01 	strb.w	r2, [r4], #1
 8005e60:	e7f2      	b.n	8005e48 <__exponent+0x40>
 8005e62:	2330      	movs	r3, #48	; 0x30
 8005e64:	4419      	add	r1, r3
 8005e66:	7083      	strb	r3, [r0, #2]
 8005e68:	1d02      	adds	r2, r0, #4
 8005e6a:	70c1      	strb	r1, [r0, #3]
 8005e6c:	e7ef      	b.n	8005e4e <__exponent+0x46>
	...

08005e70 <_printf_float>:
 8005e70:	e92d 4ff0 	stmdb	sp!, {r4, r5, r6, r7, r8, r9, sl, fp, lr}
 8005e74:	b08d      	sub	sp, #52	; 0x34
 8005e76:	460c      	mov	r4, r1
 8005e78:	f8dd 8058 	ldr.w	r8, [sp, #88]	; 0x58
 8005e7c:	4616      	mov	r6, r2
 8005e7e:	461f      	mov	r7, r3
 8005e80:	4605      	mov	r5, r0
 8005e82:	f001 fa31 	bl	80072e8 <_localeconv_r>
 8005e86:	6803      	ldr	r3, [r0, #0]
 8005e88:	9304      	str	r3, [sp, #16]
 8005e8a:	4618      	mov	r0, r3
 8005e8c:	f7fa f9b8 	bl	8000200 <strlen>
 8005e90:	2300      	movs	r3, #0
 8005e92:	930a      	str	r3, [sp, #40]	; 0x28
 8005e94:	f8d8 3000 	ldr.w	r3, [r8]
 8005e98:	9005      	str	r0, [sp, #20]
 8005e9a:	3307      	adds	r3, #7
 8005e9c:	f023 0307 	bic.w	r3, r3, #7
 8005ea0:	f103 0208 	add.w	r2, r3, #8
 8005ea4:	f894 a018 	ldrb.w	sl, [r4, #24]
 8005ea8:	f8d4 b000 	ldr.w	fp, [r4]
 8005eac:	f8c8 2000 	str.w	r2, [r8]
 8005eb0:	e9d3 2300 	ldrd	r2, r3, [r3]
 8005eb4:	e9c4 2312 	strd	r2, r3, [r4, #72]	; 0x48
 8005eb8:	e9d4 8912 	ldrd	r8, r9, [r4, #72]	; 0x48
 8005ebc:	f029 4300 	bic.w	r3, r9, #2147483648	; 0x80000000
 8005ec0:	9307      	str	r3, [sp, #28]
 8005ec2:	f8cd 8018 	str.w	r8, [sp, #24]
 8005ec6:	f04f 32ff 	mov.w	r2, #4294967295
 8005eca:	4ba7      	ldr	r3, [pc, #668]	; (8006168 <_printf_float+0x2f8>)
 8005ecc:	e9dd 0106 	ldrd	r0, r1, [sp, #24]
 8005ed0:	f7fa fe44 	bl	8000b5c <__aeabi_dcmpun>
 8005ed4:	bb70      	cbnz	r0, 8005f34 <_printf_float+0xc4>
 8005ed6:	f04f 32ff 	mov.w	r2, #4294967295
 8005eda:	4ba3      	ldr	r3, [pc, #652]	; (8006168 <_printf_float+0x2f8>)
 8005edc:	e9dd 0106 	ldrd	r0, r1, [sp, #24]
 8005ee0:	f7fa fe1e 	bl	8000b20 <__aeabi_dcmple>
 8005ee4:	bb30      	cbnz	r0, 8005f34 <_printf_float+0xc4>
 8005ee6:	2200      	movs	r2, #0
 8005ee8:	2300      	movs	r3, #0
 8005eea:	4640      	mov	r0, r8
 8005eec:	4649      	mov	r1, r9
 8005eee:	f7fa fe0d 	bl	8000b0c <__aeabi_dcmplt>
 8005ef2:	b110      	cbz	r0, 8005efa <_printf_float+0x8a>
 8005ef4:	232d      	movs	r3, #45	; 0x2d
 8005ef6:	f884 3043 	strb.w	r3, [r4, #67]	; 0x43
 8005efa:	4a9c      	ldr	r2, [pc, #624]	; (800616c <_printf_float+0x2fc>)
 8005efc:	4b9c      	ldr	r3, [pc, #624]	; (8006170 <_printf_float+0x300>)
 8005efe:	f1ba 0f47 	cmp.w	sl, #71	; 0x47
 8005f02:	bf8c      	ite	hi
 8005f04:	4690      	movhi	r8, r2
 8005f06:	4698      	movls	r8, r3
 8005f08:	2303      	movs	r3, #3
 8005f0a:	f02b 0204 	bic.w	r2, fp, #4
 8005f0e:	6123      	str	r3, [r4, #16]
 8005f10:	6022      	str	r2, [r4, #0]
 8005f12:	f04f 0900 	mov.w	r9, #0
 8005f16:	9700      	str	r7, [sp, #0]
 8005f18:	4633      	mov	r3, r6
 8005f1a:	aa0b      	add	r2, sp, #44	; 0x2c
 8005f1c:	4621      	mov	r1, r4
 8005f1e:	4628      	mov	r0, r5
 8005f20:	f000 f9e6 	bl	80062f0 <_printf_common>
 8005f24:	3001      	adds	r0, #1
 8005f26:	f040 808d 	bne.w	8006044 <_printf_float+0x1d4>
 8005f2a:	f04f 30ff 	mov.w	r0, #4294967295
 8005f2e:	b00d      	add	sp, #52	; 0x34
 8005f30:	e8bd 8ff0 	ldmia.w	sp!, {r4, r5, r6, r7, r8, r9, sl, fp, pc}
 8005f34:	4642      	mov	r2, r8
 8005f36:	464b      	mov	r3, r9
 8005f38:	4640      	mov	r0, r8
 8005f3a:	4649      	mov	r1, r9
 8005f3c:	f7fa fe0e 	bl	8000b5c <__aeabi_dcmpun>
 8005f40:	b110      	cbz	r0, 8005f48 <_printf_float+0xd8>
 8005f42:	4a8c      	ldr	r2, [pc, #560]	; (8006174 <_printf_float+0x304>)
 8005f44:	4b8c      	ldr	r3, [pc, #560]	; (8006178 <_printf_float+0x308>)
 8005f46:	e7da      	b.n	8005efe <_printf_float+0x8e>
 8005f48:	6861      	ldr	r1, [r4, #4]
 8005f4a:	1c4b      	adds	r3, r1, #1
 8005f4c:	f44b 6280 	orr.w	r2, fp, #1024	; 0x400
 8005f50:	a80a      	add	r0, sp, #40	; 0x28
 8005f52:	d13e      	bne.n	8005fd2 <_printf_float+0x162>
 8005f54:	2306      	movs	r3, #6
 8005f56:	6063      	str	r3, [r4, #4]
 8005f58:	2300      	movs	r3, #0
 8005f5a:	e9cd 0302 	strd	r0, r3, [sp, #8]
 8005f5e:	ab09      	add	r3, sp, #36	; 0x24
 8005f60:	9300      	str	r3, [sp, #0]
 8005f62:	ec49 8b10 	vmov	d0, r8, r9
 8005f66:	f10d 0323 	add.w	r3, sp, #35	; 0x23
 8005f6a:	6022      	str	r2, [r4, #0]
 8005f6c:	f8cd a004 	str.w	sl, [sp, #4]
 8005f70:	6861      	ldr	r1, [r4, #4]
 8005f72:	4628      	mov	r0, r5
 8005f74:	f7ff fee7 	bl	8005d46 <__cvt>
 8005f78:	f00a 03df 	and.w	r3, sl, #223	; 0xdf
 8005f7c:	2b47      	cmp	r3, #71	; 0x47
 8005f7e:	4680      	mov	r8, r0
 8005f80:	d109      	bne.n	8005f96 <_printf_float+0x126>
 8005f82:	9b09      	ldr	r3, [sp, #36]	; 0x24
 8005f84:	1cd8      	adds	r0, r3, #3
 8005f86:	db02      	blt.n	8005f8e <_printf_float+0x11e>
 8005f88:	6862      	ldr	r2, [r4, #4]
 8005f8a:	4293      	cmp	r3, r2
 8005f8c:	dd47      	ble.n	800601e <_printf_float+0x1ae>
 8005f8e:	f1aa 0a02 	sub.w	sl, sl, #2
 8005f92:	fa5f fa8a 	uxtb.w	sl, sl
 8005f96:	f1ba 0f65 	cmp.w	sl, #101	; 0x65
 8005f9a:	9909      	ldr	r1, [sp, #36]	; 0x24
 8005f9c:	d824      	bhi.n	8005fe8 <_printf_float+0x178>
 8005f9e:	3901      	subs	r1, #1
 8005fa0:	4652      	mov	r2, sl
 8005fa2:	f104 0050 	add.w	r0, r4, #80	; 0x50
 8005fa6:	9109      	str	r1, [sp, #36]	; 0x24
 8005fa8:	f7ff ff2e 	bl	8005e08 <__exponent>
 8005fac:	9a0a      	ldr	r2, [sp, #40]	; 0x28
 8005fae:	1813      	adds	r3, r2, r0
 8005fb0:	2a01      	cmp	r2, #1
 8005fb2:	4681      	mov	r9, r0
 8005fb4:	6123      	str	r3, [r4, #16]
 8005fb6:	dc02      	bgt.n	8005fbe <_printf_float+0x14e>
 8005fb8:	6822      	ldr	r2, [r4, #0]
 8005fba:	07d1      	lsls	r1, r2, #31
 8005fbc:	d501      	bpl.n	8005fc2 <_printf_float+0x152>
 8005fbe:	3301      	adds	r3, #1
 8005fc0:	6123      	str	r3, [r4, #16]
 8005fc2:	f89d 3023 	ldrb.w	r3, [sp, #35]	; 0x23
 8005fc6:	2b00      	cmp	r3, #0
 8005fc8:	d0a5      	beq.n	8005f16 <_printf_float+0xa6>
 8005fca:	232d      	movs	r3, #45	; 0x2d
 8005fcc:	f884 3043 	strb.w	r3, [r4, #67]	; 0x43
 8005fd0:	e7a1      	b.n	8005f16 <_printf_float+0xa6>
 8005fd2:	f1ba 0f67 	cmp.w	sl, #103	; 0x67
 8005fd6:	f000 8177 	beq.w	80062c8 <_printf_float+0x458>
 8005fda:	f1ba 0f47 	cmp.w	sl, #71	; 0x47
 8005fde:	d1bb      	bne.n	8005f58 <_printf_float+0xe8>
 8005fe0:	2900      	cmp	r1, #0
 8005fe2:	d1b9      	bne.n	8005f58 <_printf_float+0xe8>
 8005fe4:	2301      	movs	r3, #1
 8005fe6:	e7b6      	b.n	8005f56 <_printf_float+0xe6>
 8005fe8:	f1ba 0f66 	cmp.w	sl, #102	; 0x66
 8005fec:	d119      	bne.n	8006022 <_printf_float+0x1b2>
 8005fee:	2900      	cmp	r1, #0
 8005ff0:	6863      	ldr	r3, [r4, #4]
 8005ff2:	dd0c      	ble.n	800600e <_printf_float+0x19e>
 8005ff4:	6121      	str	r1, [r4, #16]
 8005ff6:	b913      	cbnz	r3, 8005ffe <_printf_float+0x18e>
 8005ff8:	6822      	ldr	r2, [r4, #0]
 8005ffa:	07d2      	lsls	r2, r2, #31
 8005ffc:	d502      	bpl.n	8006004 <_printf_float+0x194>
 8005ffe:	3301      	adds	r3, #1
 8006000:	440b      	add	r3, r1
 8006002:	6123      	str	r3, [r4, #16]
 8006004:	9b09      	ldr	r3, [sp, #36]	; 0x24
 8006006:	65a3      	str	r3, [r4, #88]	; 0x58
 8006008:	f04f 0900 	mov.w	r9, #0
 800600c:	e7d9      	b.n	8005fc2 <_printf_float+0x152>
 800600e:	b913      	cbnz	r3, 8006016 <_printf_float+0x1a6>
 8006010:	6822      	ldr	r2, [r4, #0]
 8006012:	07d0      	lsls	r0, r2, #31
 8006014:	d501      	bpl.n	800601a <_printf_float+0x1aa>
 8006016:	3302      	adds	r3, #2
 8006018:	e7f3      	b.n	8006002 <_printf_float+0x192>
 800601a:	2301      	movs	r3, #1
 800601c:	e7f1      	b.n	8006002 <_printf_float+0x192>
 800601e:	f04f 0a67 	mov.w	sl, #103	; 0x67
 8006022:	e9dd 3209 	ldrd	r3, r2, [sp, #36]	; 0x24
 8006026:	4293      	cmp	r3, r2
 8006028:	db05      	blt.n	8006036 <_printf_float+0x1c6>
 800602a:	6822      	ldr	r2, [r4, #0]
 800602c:	6123      	str	r3, [r4, #16]
 800602e:	07d1      	lsls	r1, r2, #31
 8006030:	d5e8      	bpl.n	8006004 <_printf_float+0x194>
 8006032:	3301      	adds	r3, #1
 8006034:	e7e5      	b.n	8006002 <_printf_float+0x192>
 8006036:	2b00      	cmp	r3, #0
 8006038:	bfd4      	ite	le
 800603a:	f1c3 0302 	rsble	r3, r3, #2
 800603e:	2301      	movgt	r3, #1
 8006040:	4413      	add	r3, r2
 8006042:	e7de      	b.n	8006002 <_printf_float+0x192>
 8006044:	6823      	ldr	r3, [r4, #0]
 8006046:	055a      	lsls	r2, r3, #21
 8006048:	d407      	bmi.n	800605a <_printf_float+0x1ea>
 800604a:	6923      	ldr	r3, [r4, #16]
 800604c:	4642      	mov	r2, r8
 800604e:	4631      	mov	r1, r6
 8006050:	4628      	mov	r0, r5
 8006052:	47b8      	blx	r7
 8006054:	3001      	adds	r0, #1
 8006056:	d12b      	bne.n	80060b0 <_printf_float+0x240>
 8006058:	e767      	b.n	8005f2a <_printf_float+0xba>
 800605a:	f1ba 0f65 	cmp.w	sl, #101	; 0x65
 800605e:	f240 80dc 	bls.w	800621a <_printf_float+0x3aa>
 8006062:	2200      	movs	r2, #0
 8006064:	2300      	movs	r3, #0
 8006066:	e9d4 0112 	ldrd	r0, r1, [r4, #72]	; 0x48
 800606a:	f7fa fd45 	bl	8000af8 <__aeabi_dcmpeq>
 800606e:	2800      	cmp	r0, #0
 8006070:	d033      	beq.n	80060da <_printf_float+0x26a>
 8006072:	2301      	movs	r3, #1
 8006074:	4a41      	ldr	r2, [pc, #260]	; (800617c <_printf_float+0x30c>)
 8006076:	4631      	mov	r1, r6
 8006078:	4628      	mov	r0, r5
 800607a:	47b8      	blx	r7
 800607c:	3001      	adds	r0, #1
 800607e:	f43f af54 	beq.w	8005f2a <_printf_float+0xba>
 8006082:	e9dd 2309 	ldrd	r2, r3, [sp, #36]	; 0x24
 8006086:	429a      	cmp	r2, r3
 8006088:	db02      	blt.n	8006090 <_printf_float+0x220>
 800608a:	6823      	ldr	r3, [r4, #0]
 800608c:	07d8      	lsls	r0, r3, #31
 800608e:	d50f      	bpl.n	80060b0 <_printf_float+0x240>
 8006090:	e9dd 2304 	ldrd	r2, r3, [sp, #16]
 8006094:	4631      	mov	r1, r6
 8006096:	4628      	mov	r0, r5
 8006098:	47b8      	blx	r7
 800609a:	3001      	adds	r0, #1
 800609c:	f43f af45 	beq.w	8005f2a <_printf_float+0xba>
 80060a0:	f04f 0800 	mov.w	r8, #0
 80060a4:	f104 091a 	add.w	r9, r4, #26
 80060a8:	9b0a      	ldr	r3, [sp, #40]	; 0x28
 80060aa:	3b01      	subs	r3, #1
 80060ac:	4543      	cmp	r3, r8
 80060ae:	dc09      	bgt.n	80060c4 <_printf_float+0x254>
 80060b0:	6823      	ldr	r3, [r4, #0]
 80060b2:	079b      	lsls	r3, r3, #30
 80060b4:	f100 8103 	bmi.w	80062be <_printf_float+0x44e>
 80060b8:	68e0      	ldr	r0, [r4, #12]
 80060ba:	9b0b      	ldr	r3, [sp, #44]	; 0x2c
 80060bc:	4298      	cmp	r0, r3
 80060be:	bfb8      	it	lt
 80060c0:	4618      	movlt	r0, r3
 80060c2:	e734      	b.n	8005f2e <_printf_float+0xbe>
 80060c4:	2301      	movs	r3, #1
 80060c6:	464a      	mov	r2, r9
 80060c8:	4631      	mov	r1, r6
 80060ca:	4628      	mov	r0, r5
 80060cc:	47b8      	blx	r7
 80060ce:	3001      	adds	r0, #1
 80060d0:	f43f af2b 	beq.w	8005f2a <_printf_float+0xba>
 80060d4:	f108 0801 	add.w	r8, r8, #1
 80060d8:	e7e6      	b.n	80060a8 <_printf_float+0x238>
 80060da:	9b09      	ldr	r3, [sp, #36]	; 0x24
 80060dc:	2b00      	cmp	r3, #0
 80060de:	dc2b      	bgt.n	8006138 <_printf_float+0x2c8>
 80060e0:	2301      	movs	r3, #1
 80060e2:	4a26      	ldr	r2, [pc, #152]	; (800617c <_printf_float+0x30c>)
 80060e4:	4631      	mov	r1, r6
 80060e6:	4628      	mov	r0, r5
 80060e8:	47b8      	blx	r7
 80060ea:	3001      	adds	r0, #1
 80060ec:	f43f af1d 	beq.w	8005f2a <_printf_float+0xba>
 80060f0:	9b09      	ldr	r3, [sp, #36]	; 0x24
 80060f2:	b923      	cbnz	r3, 80060fe <_printf_float+0x28e>
 80060f4:	9b0a      	ldr	r3, [sp, #40]	; 0x28
 80060f6:	b913      	cbnz	r3, 80060fe <_printf_float+0x28e>
 80060f8:	6823      	ldr	r3, [r4, #0]
 80060fa:	07d9      	lsls	r1, r3, #31
 80060fc:	d5d8      	bpl.n	80060b0 <_printf_float+0x240>
 80060fe:	e9dd 2304 	ldrd	r2, r3, [sp, #16]
 8006102:	4631      	mov	r1, r6
 8006104:	4628      	mov	r0, r5
 8006106:	47b8      	blx	r7
 8006108:	3001      	adds	r0, #1
 800610a:	f43f af0e 	beq.w	8005f2a <_printf_float+0xba>
 800610e:	f04f 0900 	mov.w	r9, #0
 8006112:	f104 0a1a 	add.w	sl, r4, #26
 8006116:	9b09      	ldr	r3, [sp, #36]	; 0x24
 8006118:	425b      	negs	r3, r3
 800611a:	454b      	cmp	r3, r9
 800611c:	dc01      	bgt.n	8006122 <_printf_float+0x2b2>
 800611e:	9b0a      	ldr	r3, [sp, #40]	; 0x28
 8006120:	e794      	b.n	800604c <_printf_float+0x1dc>
 8006122:	2301      	movs	r3, #1
 8006124:	4652      	mov	r2, sl
 8006126:	4631      	mov	r1, r6
 8006128:	4628      	mov	r0, r5
 800612a:	47b8      	blx	r7
 800612c:	3001      	adds	r0, #1
 800612e:	f43f aefc 	beq.w	8005f2a <_printf_float+0xba>
 8006132:	f109 0901 	add.w	r9, r9, #1
 8006136:	e7ee      	b.n	8006116 <_printf_float+0x2a6>
 8006138:	9a0a      	ldr	r2, [sp, #40]	; 0x28
 800613a:	6da3      	ldr	r3, [r4, #88]	; 0x58
 800613c:	429a      	cmp	r2, r3
 800613e:	bfa8      	it	ge
 8006140:	461a      	movge	r2, r3
 8006142:	2a00      	cmp	r2, #0
 8006144:	4691      	mov	r9, r2
 8006146:	dd07      	ble.n	8006158 <_printf_float+0x2e8>
 8006148:	4613      	mov	r3, r2
 800614a:	4631      	mov	r1, r6
 800614c:	4642      	mov	r2, r8
 800614e:	4628      	mov	r0, r5
 8006150:	47b8      	blx	r7
 8006152:	3001      	adds	r0, #1
 8006154:	f43f aee9 	beq.w	8005f2a <_printf_float+0xba>
 8006158:	f104 031a 	add.w	r3, r4, #26
 800615c:	f04f 0b00 	mov.w	fp, #0
 8006160:	ea29 79e9 	bic.w	r9, r9, r9, asr #31
 8006164:	9306      	str	r3, [sp, #24]
 8006166:	e015      	b.n	8006194 <_printf_float+0x324>
 8006168:	7fefffff 	.word	0x7fefffff
 800616c:	08016d92 	.word	0x08016d92
 8006170:	08016d8e 	.word	0x08016d8e
 8006174:	08016d9a 	.word	0x08016d9a
 8006178:	08016d96 	.word	0x08016d96
 800617c:	08016d9e 	.word	0x08016d9e
 8006180:	2301      	movs	r3, #1
 8006182:	9a06      	ldr	r2, [sp, #24]
 8006184:	4631      	mov	r1, r6
 8006186:	4628      	mov	r0, r5
 8006188:	47b8      	blx	r7
 800618a:	3001      	adds	r0, #1
 800618c:	f43f aecd 	beq.w	8005f2a <_printf_float+0xba>
 8006190:	f10b 0b01 	add.w	fp, fp, #1
 8006194:	f8d4 a058 	ldr.w	sl, [r4, #88]	; 0x58
 8006198:	ebaa 0309 	sub.w	r3, sl, r9
 800619c:	455b      	cmp	r3, fp
 800619e:	dcef      	bgt.n	8006180 <_printf_float+0x310>
 80061a0:	e9dd 2309 	ldrd	r2, r3, [sp, #36]	; 0x24
 80061a4:	429a      	cmp	r2, r3
 80061a6:	44d0      	add	r8, sl
 80061a8:	db15      	blt.n	80061d6 <_printf_float+0x366>
 80061aa:	6823      	ldr	r3, [r4, #0]
 80061ac:	07da      	lsls	r2, r3, #31
 80061ae:	d412      	bmi.n	80061d6 <_printf_float+0x366>
 80061b0:	9b0a      	ldr	r3, [sp, #40]	; 0x28
 80061b2:	9909      	ldr	r1, [sp, #36]	; 0x24
 80061b4:	eba3 020a 	sub.w	r2, r3, sl
 80061b8:	eba3 0a01 	sub.w	sl, r3, r1
 80061bc:	4592      	cmp	sl, r2
 80061be:	bfa8      	it	ge
 80061c0:	4692      	movge	sl, r2
 80061c2:	f1ba 0f00 	cmp.w	sl, #0
 80061c6:	dc0e      	bgt.n	80061e6 <_printf_float+0x376>
 80061c8:	f04f 0800 	mov.w	r8, #0
 80061cc:	ea2a 7aea 	bic.w	sl, sl, sl, asr #31
 80061d0:	f104 091a 	add.w	r9, r4, #26
 80061d4:	e019      	b.n	800620a <_printf_float+0x39a>
 80061d6:	e9dd 2304 	ldrd	r2, r3, [sp, #16]
 80061da:	4631      	mov	r1, r6
 80061dc:	4628      	mov	r0, r5
 80061de:	47b8      	blx	r7
 80061e0:	3001      	adds	r0, #1
 80061e2:	d1e5      	bne.n	80061b0 <_printf_float+0x340>
 80061e4:	e6a1      	b.n	8005f2a <_printf_float+0xba>
 80061e6:	4653      	mov	r3, sl
 80061e8:	4642      	mov	r2, r8
 80061ea:	4631      	mov	r1, r6
 80061ec:	4628      	mov	r0, r5
 80061ee:	47b8      	blx	r7
 80061f0:	3001      	adds	r0, #1
 80061f2:	d1e9      	bne.n	80061c8 <_printf_float+0x358>
 80061f4:	e699      	b.n	8005f2a <_printf_float+0xba>
 80061f6:	2301      	movs	r3, #1
 80061f8:	464a      	mov	r2, r9
 80061fa:	4631      	mov	r1, r6
 80061fc:	4628      	mov	r0, r5
 80061fe:	47b8      	blx	r7
 8006200:	3001      	adds	r0, #1
 8006202:	f43f ae92 	beq.w	8005f2a <_printf_float+0xba>
 8006206:	f108 0801 	add.w	r8, r8, #1
 800620a:	e9dd 2309 	ldrd	r2, r3, [sp, #36]	; 0x24
 800620e:	1a9b      	subs	r3, r3, r2
 8006210:	eba3 030a 	sub.w	r3, r3, sl
 8006214:	4543      	cmp	r3, r8
 8006216:	dcee      	bgt.n	80061f6 <_printf_float+0x386>
 8006218:	e74a      	b.n	80060b0 <_printf_float+0x240>
 800621a:	9a0a      	ldr	r2, [sp, #40]	; 0x28
 800621c:	2a01      	cmp	r2, #1
 800621e:	dc01      	bgt.n	8006224 <_printf_float+0x3b4>
 8006220:	07db      	lsls	r3, r3, #31
 8006222:	d53a      	bpl.n	800629a <_printf_float+0x42a>
 8006224:	2301      	movs	r3, #1
 8006226:	4642      	mov	r2, r8
 8006228:	4631      	mov	r1, r6
 800622a:	4628      	mov	r0, r5
 800622c:	47b8      	blx	r7
 800622e:	3001      	adds	r0, #1
 8006230:	f43f ae7b 	beq.w	8005f2a <_printf_float+0xba>
 8006234:	e9dd 2304 	ldrd	r2, r3, [sp, #16]
 8006238:	4631      	mov	r1, r6
 800623a:	4628      	mov	r0, r5
 800623c:	47b8      	blx	r7
 800623e:	3001      	adds	r0, #1
 8006240:	f108 0801 	add.w	r8, r8, #1
 8006244:	f43f ae71 	beq.w	8005f2a <_printf_float+0xba>
 8006248:	9b0a      	ldr	r3, [sp, #40]	; 0x28
 800624a:	2200      	movs	r2, #0
 800624c:	f103 3aff 	add.w	sl, r3, #4294967295
 8006250:	e9d4 0112 	ldrd	r0, r1, [r4, #72]	; 0x48
 8006254:	2300      	movs	r3, #0
 8006256:	f7fa fc4f 	bl	8000af8 <__aeabi_dcmpeq>
 800625a:	b9c8      	cbnz	r0, 8006290 <_printf_float+0x420>
 800625c:	4653      	mov	r3, sl
 800625e:	4642      	mov	r2, r8
 8006260:	4631      	mov	r1, r6
 8006262:	4628      	mov	r0, r5
 8006264:	47b8      	blx	r7
 8006266:	3001      	adds	r0, #1
 8006268:	d10e      	bne.n	8006288 <_printf_float+0x418>
 800626a:	e65e      	b.n	8005f2a <_printf_float+0xba>
 800626c:	2301      	movs	r3, #1
 800626e:	4652      	mov	r2, sl
 8006270:	4631      	mov	r1, r6
 8006272:	4628      	mov	r0, r5
 8006274:	47b8      	blx	r7
 8006276:	3001      	adds	r0, #1
 8006278:	f43f ae57 	beq.w	8005f2a <_printf_float+0xba>
 800627c:	f108 0801 	add.w	r8, r8, #1
 8006280:	9b0a      	ldr	r3, [sp, #40]	; 0x28
 8006282:	3b01      	subs	r3, #1
 8006284:	4543      	cmp	r3, r8
 8006286:	dcf1      	bgt.n	800626c <_printf_float+0x3fc>
 8006288:	464b      	mov	r3, r9
 800628a:	f104 0250 	add.w	r2, r4, #80	; 0x50
 800628e:	e6de      	b.n	800604e <_printf_float+0x1de>
 8006290:	f04f 0800 	mov.w	r8, #0
 8006294:	f104 0a1a 	add.w	sl, r4, #26
 8006298:	e7f2      	b.n	8006280 <_printf_float+0x410>
 800629a:	2301      	movs	r3, #1
 800629c:	e7df      	b.n	800625e <_printf_float+0x3ee>
 800629e:	2301      	movs	r3, #1
 80062a0:	464a      	mov	r2, r9
 80062a2:	4631      	mov	r1, r6
 80062a4:	4628      	mov	r0, r5
 80062a6:	47b8      	blx	r7
 80062a8:	3001      	adds	r0, #1
 80062aa:	f43f ae3e 	beq.w	8005f2a <_printf_float+0xba>
 80062ae:	f108 0801 	add.w	r8, r8, #1
 80062b2:	68e3      	ldr	r3, [r4, #12]
 80062b4:	9a0b      	ldr	r2, [sp, #44]	; 0x2c
 80062b6:	1a9b      	subs	r3, r3, r2
 80062b8:	4543      	cmp	r3, r8
 80062ba:	dcf0      	bgt.n	800629e <_printf_float+0x42e>
 80062bc:	e6fc      	b.n	80060b8 <_printf_float+0x248>
 80062be:	f04f 0800 	mov.w	r8, #0
 80062c2:	f104 0919 	add.w	r9, r4, #25
 80062c6:	e7f4      	b.n	80062b2 <_printf_float+0x442>
 80062c8:	2900      	cmp	r1, #0
 80062ca:	f43f ae8b 	beq.w	8005fe4 <_printf_float+0x174>
 80062ce:	2300      	movs	r3, #0
 80062d0:	e9cd 0302 	strd	r0, r3, [sp, #8]
 80062d4:	ab09      	add	r3, sp, #36	; 0x24
 80062d6:	9300      	str	r3, [sp, #0]
 80062d8:	ec49 8b10 	vmov	d0, r8, r9
 80062dc:	6022      	str	r2, [r4, #0]
 80062de:	f8cd a004 	str.w	sl, [sp, #4]
 80062e2:	f10d 0323 	add.w	r3, sp, #35	; 0x23
 80062e6:	4628      	mov	r0, r5
 80062e8:	f7ff fd2d 	bl	8005d46 <__cvt>
 80062ec:	4680      	mov	r8, r0
 80062ee:	e648      	b.n	8005f82 <_printf_float+0x112>

080062f0 <_printf_common>:
 80062f0:	e92d 47f0 	stmdb	sp!, {r4, r5, r6, r7, r8, r9, sl, lr}
 80062f4:	4691      	mov	r9, r2
 80062f6:	461f      	mov	r7, r3
 80062f8:	688a      	ldr	r2, [r1, #8]
 80062fa:	690b      	ldr	r3, [r1, #16]
 80062fc:	f8dd 8020 	ldr.w	r8, [sp, #32]
 8006300:	4293      	cmp	r3, r2
 8006302:	bfb8      	it	lt
 8006304:	4613      	movlt	r3, r2
 8006306:	f8c9 3000 	str.w	r3, [r9]
 800630a:	f891 2043 	ldrb.w	r2, [r1, #67]	; 0x43
 800630e:	4606      	mov	r6, r0
 8006310:	460c      	mov	r4, r1
 8006312:	b112      	cbz	r2, 800631a <_printf_common+0x2a>
 8006314:	3301      	adds	r3, #1
 8006316:	f8c9 3000 	str.w	r3, [r9]
 800631a:	6823      	ldr	r3, [r4, #0]
 800631c:	0699      	lsls	r1, r3, #26
 800631e:	bf42      	ittt	mi
 8006320:	f8d9 3000 	ldrmi.w	r3, [r9]
 8006324:	3302      	addmi	r3, #2
 8006326:	f8c9 3000 	strmi.w	r3, [r9]
 800632a:	6825      	ldr	r5, [r4, #0]
 800632c:	f015 0506 	ands.w	r5, r5, #6
 8006330:	d107      	bne.n	8006342 <_printf_common+0x52>
 8006332:	f104 0a19 	add.w	sl, r4, #25
 8006336:	68e3      	ldr	r3, [r4, #12]
 8006338:	f8d9 2000 	ldr.w	r2, [r9]
 800633c:	1a9b      	subs	r3, r3, r2
 800633e:	42ab      	cmp	r3, r5
 8006340:	dc28      	bgt.n	8006394 <_printf_common+0xa4>
 8006342:	f894 3043 	ldrb.w	r3, [r4, #67]	; 0x43
 8006346:	6822      	ldr	r2, [r4, #0]
 8006348:	3300      	adds	r3, #0
 800634a:	bf18      	it	ne
 800634c:	2301      	movne	r3, #1
 800634e:	0692      	lsls	r2, r2, #26
 8006350:	d42d      	bmi.n	80063ae <_printf_common+0xbe>
 8006352:	f104 0243 	add.w	r2, r4, #67	; 0x43
 8006356:	4639      	mov	r1, r7
 8006358:	4630      	mov	r0, r6
 800635a:	47c0      	blx	r8
 800635c:	3001      	adds	r0, #1
 800635e:	d020      	beq.n	80063a2 <_printf_common+0xb2>
 8006360:	6823      	ldr	r3, [r4, #0]
 8006362:	68e5      	ldr	r5, [r4, #12]
 8006364:	f8d9 2000 	ldr.w	r2, [r9]
 8006368:	f003 0306 	and.w	r3, r3, #6
 800636c:	2b04      	cmp	r3, #4
 800636e:	bf08      	it	eq
 8006370:	1aad      	subeq	r5, r5, r2
 8006372:	68a3      	ldr	r3, [r4, #8]
 8006374:	6922      	ldr	r2, [r4, #16]
 8006376:	bf0c      	ite	eq
 8006378:	ea25 75e5 	biceq.w	r5, r5, r5, asr #31
 800637c:	2500      	movne	r5, #0
 800637e:	4293      	cmp	r3, r2
 8006380:	bfc4      	itt	gt
 8006382:	1a9b      	subgt	r3, r3, r2
 8006384:	18ed      	addgt	r5, r5, r3
 8006386:	f04f 0900 	mov.w	r9, #0
 800638a:	341a      	adds	r4, #26
 800638c:	454d      	cmp	r5, r9
 800638e:	d11a      	bne.n	80063c6 <_printf_common+0xd6>
 8006390:	2000      	movs	r0, #0
 8006392:	e008      	b.n	80063a6 <_printf_common+0xb6>
 8006394:	2301      	movs	r3, #1
 8006396:	4652      	mov	r2, sl
 8006398:	4639      	mov	r1, r7
 800639a:	4630      	mov	r0, r6
 800639c:	47c0      	blx	r8
 800639e:	3001      	adds	r0, #1
 80063a0:	d103      	bne.n	80063aa <_printf_common+0xba>
 80063a2:	f04f 30ff 	mov.w	r0, #4294967295
 80063a6:	e8bd 87f0 	ldmia.w	sp!, {r4, r5, r6, r7, r8, r9, sl, pc}
 80063aa:	3501      	adds	r5, #1
 80063ac:	e7c3      	b.n	8006336 <_printf_common+0x46>
 80063ae:	18e1      	adds	r1, r4, r3
 80063b0:	1c5a      	adds	r2, r3, #1
 80063b2:	2030      	movs	r0, #48	; 0x30
 80063b4:	f881 0043 	strb.w	r0, [r1, #67]	; 0x43
 80063b8:	4422      	add	r2, r4
 80063ba:	f894 1045 	ldrb.w	r1, [r4, #69]	; 0x45
 80063be:	f882 1043 	strb.w	r1, [r2, #67]	; 0x43
 80063c2:	3302      	adds	r3, #2
 80063c4:	e7c5      	b.n	8006352 <_printf_common+0x62>
 80063c6:	2301      	movs	r3, #1
 80063c8:	4622      	mov	r2, r4
 80063ca:	4639      	mov	r1, r7
 80063cc:	4630      	mov	r0, r6
 80063ce:	47c0      	blx	r8
 80063d0:	3001      	adds	r0, #1
 80063d2:	d0e6      	beq.n	80063a2 <_printf_common+0xb2>
 80063d4:	f109 0901 	add.w	r9, r9, #1
 80063d8:	e7d8      	b.n	800638c <_printf_common+0x9c>
	...

080063dc <_printf_i>:
 80063dc:	e92d 43f0 	stmdb	sp!, {r4, r5, r6, r7, r8, r9, lr}
 80063e0:	f101 0c43 	add.w	ip, r1, #67	; 0x43
 80063e4:	460c      	mov	r4, r1
 80063e6:	7e09      	ldrb	r1, [r1, #24]
 80063e8:	b085      	sub	sp, #20
 80063ea:	296e      	cmp	r1, #110	; 0x6e
 80063ec:	4617      	mov	r7, r2
 80063ee:	4606      	mov	r6, r0
 80063f0:	4698      	mov	r8, r3
 80063f2:	9a0c      	ldr	r2, [sp, #48]	; 0x30
 80063f4:	f000 80b3 	beq.w	800655e <_printf_i+0x182>
 80063f8:	d822      	bhi.n	8006440 <_printf_i+0x64>
 80063fa:	2963      	cmp	r1, #99	; 0x63
 80063fc:	d036      	beq.n	800646c <_printf_i+0x90>
 80063fe:	d80a      	bhi.n	8006416 <_printf_i+0x3a>
 8006400:	2900      	cmp	r1, #0
 8006402:	f000 80b9 	beq.w	8006578 <_printf_i+0x19c>
 8006406:	2958      	cmp	r1, #88	; 0x58
 8006408:	f000 8083 	beq.w	8006512 <_printf_i+0x136>
 800640c:	f104 0542 	add.w	r5, r4, #66	; 0x42
 8006410:	f884 1042 	strb.w	r1, [r4, #66]	; 0x42
 8006414:	e032      	b.n	800647c <_printf_i+0xa0>
 8006416:	2964      	cmp	r1, #100	; 0x64
 8006418:	d001      	beq.n	800641e <_printf_i+0x42>
 800641a:	2969      	cmp	r1, #105	; 0x69
 800641c:	d1f6      	bne.n	800640c <_printf_i+0x30>
 800641e:	6820      	ldr	r0, [r4, #0]
 8006420:	6813      	ldr	r3, [r2, #0]
 8006422:	0605      	lsls	r5, r0, #24
 8006424:	f103 0104 	add.w	r1, r3, #4
 8006428:	d52a      	bpl.n	8006480 <_printf_i+0xa4>
 800642a:	681b      	ldr	r3, [r3, #0]
 800642c:	6011      	str	r1, [r2, #0]
 800642e:	2b00      	cmp	r3, #0
 8006430:	da03      	bge.n	800643a <_printf_i+0x5e>
 8006432:	222d      	movs	r2, #45	; 0x2d
 8006434:	425b      	negs	r3, r3
 8006436:	f884 2043 	strb.w	r2, [r4, #67]	; 0x43
 800643a:	486f      	ldr	r0, [pc, #444]	; (80065f8 <_printf_i+0x21c>)
 800643c:	220a      	movs	r2, #10
 800643e:	e039      	b.n	80064b4 <_printf_i+0xd8>
 8006440:	2973      	cmp	r1, #115	; 0x73
 8006442:	f000 809d 	beq.w	8006580 <_printf_i+0x1a4>
 8006446:	d808      	bhi.n	800645a <_printf_i+0x7e>
 8006448:	296f      	cmp	r1, #111	; 0x6f
 800644a:	d020      	beq.n	800648e <_printf_i+0xb2>
 800644c:	2970      	cmp	r1, #112	; 0x70
 800644e:	d1dd      	bne.n	800640c <_printf_i+0x30>
 8006450:	6823      	ldr	r3, [r4, #0]
 8006452:	f043 0320 	orr.w	r3, r3, #32
 8006456:	6023      	str	r3, [r4, #0]
 8006458:	e003      	b.n	8006462 <_printf_i+0x86>
 800645a:	2975      	cmp	r1, #117	; 0x75
 800645c:	d017      	beq.n	800648e <_printf_i+0xb2>
 800645e:	2978      	cmp	r1, #120	; 0x78
 8006460:	d1d4      	bne.n	800640c <_printf_i+0x30>
 8006462:	2378      	movs	r3, #120	; 0x78
 8006464:	f884 3045 	strb.w	r3, [r4, #69]	; 0x45
 8006468:	4864      	ldr	r0, [pc, #400]	; (80065fc <_printf_i+0x220>)
 800646a:	e055      	b.n	8006518 <_printf_i+0x13c>
 800646c:	6813      	ldr	r3, [r2, #0]
 800646e:	1d19      	adds	r1, r3, #4
 8006470:	681b      	ldr	r3, [r3, #0]
 8006472:	6011      	str	r1, [r2, #0]
 8006474:	f104 0542 	add.w	r5, r4, #66	; 0x42
 8006478:	f884 3042 	strb.w	r3, [r4, #66]	; 0x42
 800647c:	2301      	movs	r3, #1
 800647e:	e08c      	b.n	800659a <_printf_i+0x1be>
 8006480:	681b      	ldr	r3, [r3, #0]
 8006482:	6011      	str	r1, [r2, #0]
 8006484:	f010 0f40 	tst.w	r0, #64	; 0x40
 8006488:	bf18      	it	ne
 800648a:	b21b      	sxthne	r3, r3
 800648c:	e7cf      	b.n	800642e <_printf_i+0x52>
 800648e:	6813      	ldr	r3, [r2, #0]
 8006490:	6825      	ldr	r5, [r4, #0]
 8006492:	1d18      	adds	r0, r3, #4
 8006494:	6010      	str	r0, [r2, #0]
 8006496:	0628      	lsls	r0, r5, #24
 8006498:	d501      	bpl.n	800649e <_printf_i+0xc2>
 800649a:	681b      	ldr	r3, [r3, #0]
 800649c:	e002      	b.n	80064a4 <_printf_i+0xc8>
 800649e:	0668      	lsls	r0, r5, #25
 80064a0:	d5fb      	bpl.n	800649a <_printf_i+0xbe>
 80064a2:	881b      	ldrh	r3, [r3, #0]
 80064a4:	4854      	ldr	r0, [pc, #336]	; (80065f8 <_printf_i+0x21c>)
 80064a6:	296f      	cmp	r1, #111	; 0x6f
 80064a8:	bf14      	ite	ne
 80064aa:	220a      	movne	r2, #10
 80064ac:	2208      	moveq	r2, #8
 80064ae:	2100      	movs	r1, #0
 80064b0:	f884 1043 	strb.w	r1, [r4, #67]	; 0x43
 80064b4:	6865      	ldr	r5, [r4, #4]
 80064b6:	60a5      	str	r5, [r4, #8]
 80064b8:	2d00      	cmp	r5, #0
 80064ba:	f2c0 8095 	blt.w	80065e8 <_printf_i+0x20c>
 80064be:	6821      	ldr	r1, [r4, #0]
 80064c0:	f021 0104 	bic.w	r1, r1, #4
 80064c4:	6021      	str	r1, [r4, #0]
 80064c6:	2b00      	cmp	r3, #0
 80064c8:	d13d      	bne.n	8006546 <_printf_i+0x16a>
 80064ca:	2d00      	cmp	r5, #0
 80064cc:	f040 808e 	bne.w	80065ec <_printf_i+0x210>
 80064d0:	4665      	mov	r5, ip
 80064d2:	2a08      	cmp	r2, #8
 80064d4:	d10b      	bne.n	80064ee <_printf_i+0x112>
 80064d6:	6823      	ldr	r3, [r4, #0]
 80064d8:	07db      	lsls	r3, r3, #31
 80064da:	d508      	bpl.n	80064ee <_printf_i+0x112>
 80064dc:	6923      	ldr	r3, [r4, #16]
 80064de:	6862      	ldr	r2, [r4, #4]
 80064e0:	429a      	cmp	r2, r3
 80064e2:	bfde      	ittt	le
 80064e4:	2330      	movle	r3, #48	; 0x30
 80064e6:	f805 3c01 	strble.w	r3, [r5, #-1]
 80064ea:	f105 35ff 	addle.w	r5, r5, #4294967295
 80064ee:	ebac 0305 	sub.w	r3, ip, r5
 80064f2:	6123      	str	r3, [r4, #16]
 80064f4:	f8cd 8000 	str.w	r8, [sp]
 80064f8:	463b      	mov	r3, r7
 80064fa:	aa03      	add	r2, sp, #12
 80064fc:	4621      	mov	r1, r4
 80064fe:	4630      	mov	r0, r6
 8006500:	f7ff fef6 	bl	80062f0 <_printf_common>
 8006504:	3001      	adds	r0, #1
 8006506:	d14d      	bne.n	80065a4 <_printf_i+0x1c8>
 8006508:	f04f 30ff 	mov.w	r0, #4294967295
 800650c:	b005      	add	sp, #20
 800650e:	e8bd 83f0 	ldmia.w	sp!, {r4, r5, r6, r7, r8, r9, pc}
 8006512:	4839      	ldr	r0, [pc, #228]	; (80065f8 <_printf_i+0x21c>)
 8006514:	f884 1045 	strb.w	r1, [r4, #69]	; 0x45
 8006518:	6813      	ldr	r3, [r2, #0]
 800651a:	6821      	ldr	r1, [r4, #0]
 800651c:	1d1d      	adds	r5, r3, #4
 800651e:	681b      	ldr	r3, [r3, #0]
 8006520:	6015      	str	r5, [r2, #0]
 8006522:	060a      	lsls	r2, r1, #24
 8006524:	d50b      	bpl.n	800653e <_printf_i+0x162>
 8006526:	07ca      	lsls	r2, r1, #31
 8006528:	bf44      	itt	mi
 800652a:	f041 0120 	orrmi.w	r1, r1, #32
 800652e:	6021      	strmi	r1, [r4, #0]
 8006530:	b91b      	cbnz	r3, 800653a <_printf_i+0x15e>
 8006532:	6822      	ldr	r2, [r4, #0]
 8006534:	f022 0220 	bic.w	r2, r2, #32
 8006538:	6022      	str	r2, [r4, #0]
 800653a:	2210      	movs	r2, #16
 800653c:	e7b7      	b.n	80064ae <_printf_i+0xd2>
 800653e:	064d      	lsls	r5, r1, #25
 8006540:	bf48      	it	mi
 8006542:	b29b      	uxthmi	r3, r3
 8006544:	e7ef      	b.n	8006526 <_printf_i+0x14a>
 8006546:	4665      	mov	r5, ip
 8006548:	fbb3 f1f2 	udiv	r1, r3, r2
 800654c:	fb02 3311 	mls	r3, r2, r1, r3
 8006550:	5cc3      	ldrb	r3, [r0, r3]
 8006552:	f805 3d01 	strb.w	r3, [r5, #-1]!
 8006556:	460b      	mov	r3, r1
 8006558:	2900      	cmp	r1, #0
 800655a:	d1f5      	bne.n	8006548 <_printf_i+0x16c>
 800655c:	e7b9      	b.n	80064d2 <_printf_i+0xf6>
 800655e:	6813      	ldr	r3, [r2, #0]
 8006560:	6825      	ldr	r5, [r4, #0]
 8006562:	6961      	ldr	r1, [r4, #20]
 8006564:	1d18      	adds	r0, r3, #4
 8006566:	6010      	str	r0, [r2, #0]
 8006568:	0628      	lsls	r0, r5, #24
 800656a:	681b      	ldr	r3, [r3, #0]
 800656c:	d501      	bpl.n	8006572 <_printf_i+0x196>
 800656e:	6019      	str	r1, [r3, #0]
 8006570:	e002      	b.n	8006578 <_printf_i+0x19c>
 8006572:	066a      	lsls	r2, r5, #25
 8006574:	d5fb      	bpl.n	800656e <_printf_i+0x192>
 8006576:	8019      	strh	r1, [r3, #0]
 8006578:	2300      	movs	r3, #0
 800657a:	6123      	str	r3, [r4, #16]
 800657c:	4665      	mov	r5, ip
 800657e:	e7b9      	b.n	80064f4 <_printf_i+0x118>
 8006580:	6813      	ldr	r3, [r2, #0]
 8006582:	1d19      	adds	r1, r3, #4
 8006584:	6011      	str	r1, [r2, #0]
 8006586:	681d      	ldr	r5, [r3, #0]
 8006588:	6862      	ldr	r2, [r4, #4]
 800658a:	2100      	movs	r1, #0
 800658c:	4628      	mov	r0, r5
 800658e:	f7f9 fe3f 	bl	8000210 <memchr>
 8006592:	b108      	cbz	r0, 8006598 <_printf_i+0x1bc>
 8006594:	1b40      	subs	r0, r0, r5
 8006596:	6060      	str	r0, [r4, #4]
 8006598:	6863      	ldr	r3, [r4, #4]
 800659a:	6123      	str	r3, [r4, #16]
 800659c:	2300      	movs	r3, #0
 800659e:	f884 3043 	strb.w	r3, [r4, #67]	; 0x43
 80065a2:	e7a7      	b.n	80064f4 <_printf_i+0x118>
 80065a4:	6923      	ldr	r3, [r4, #16]
 80065a6:	462a      	mov	r2, r5
 80065a8:	4639      	mov	r1, r7
 80065aa:	4630      	mov	r0, r6
 80065ac:	47c0      	blx	r8
 80065ae:	3001      	adds	r0, #1
 80065b0:	d0aa      	beq.n	8006508 <_printf_i+0x12c>
 80065b2:	6823      	ldr	r3, [r4, #0]
 80065b4:	079b      	lsls	r3, r3, #30
 80065b6:	d413      	bmi.n	80065e0 <_printf_i+0x204>
 80065b8:	68e0      	ldr	r0, [r4, #12]
 80065ba:	9b03      	ldr	r3, [sp, #12]
 80065bc:	4298      	cmp	r0, r3
 80065be:	bfb8      	it	lt
 80065c0:	4618      	movlt	r0, r3
 80065c2:	e7a3      	b.n	800650c <_printf_i+0x130>
 80065c4:	2301      	movs	r3, #1
 80065c6:	464a      	mov	r2, r9
 80065c8:	4639      	mov	r1, r7
 80065ca:	4630      	mov	r0, r6
 80065cc:	47c0      	blx	r8
 80065ce:	3001      	adds	r0, #1
 80065d0:	d09a      	beq.n	8006508 <_printf_i+0x12c>
 80065d2:	3501      	adds	r5, #1
 80065d4:	68e3      	ldr	r3, [r4, #12]
 80065d6:	9a03      	ldr	r2, [sp, #12]
 80065d8:	1a9b      	subs	r3, r3, r2
 80065da:	42ab      	cmp	r3, r5
 80065dc:	dcf2      	bgt.n	80065c4 <_printf_i+0x1e8>
 80065de:	e7eb      	b.n	80065b8 <_printf_i+0x1dc>
 80065e0:	2500      	movs	r5, #0
 80065e2:	f104 0919 	add.w	r9, r4, #25
 80065e6:	e7f5      	b.n	80065d4 <_printf_i+0x1f8>
 80065e8:	2b00      	cmp	r3, #0
 80065ea:	d1ac      	bne.n	8006546 <_printf_i+0x16a>
 80065ec:	7803      	ldrb	r3, [r0, #0]
 80065ee:	f884 3042 	strb.w	r3, [r4, #66]	; 0x42
 80065f2:	f104 0542 	add.w	r5, r4, #66	; 0x42
 80065f6:	e76c      	b.n	80064d2 <_printf_i+0xf6>
 80065f8:	08016da0 	.word	0x08016da0
 80065fc:	08016db1 	.word	0x08016db1

08006600 <siprintf>:
 8006600:	b40e      	push	{r1, r2, r3}
 8006602:	b500      	push	{lr}
 8006604:	b09c      	sub	sp, #112	; 0x70
 8006606:	ab1d      	add	r3, sp, #116	; 0x74
 8006608:	9002      	str	r0, [sp, #8]
 800660a:	9006      	str	r0, [sp, #24]
 800660c:	f06f 4100 	mvn.w	r1, #2147483648	; 0x80000000
 8006610:	4809      	ldr	r0, [pc, #36]	; (8006638 <siprintf+0x38>)
 8006612:	9107      	str	r1, [sp, #28]
 8006614:	9104      	str	r1, [sp, #16]
 8006616:	4909      	ldr	r1, [pc, #36]	; (800663c <siprintf+0x3c>)
 8006618:	f853 2b04 	ldr.w	r2, [r3], #4
 800661c:	9105      	str	r1, [sp, #20]
 800661e:	6800      	ldr	r0, [r0, #0]
 8006620:	9301      	str	r3, [sp, #4]
 8006622:	a902      	add	r1, sp, #8
 8006624:	f001 fa62 	bl	8007aec <_svfiprintf_r>
 8006628:	9b02      	ldr	r3, [sp, #8]
 800662a:	2200      	movs	r2, #0
 800662c:	701a      	strb	r2, [r3, #0]
 800662e:	b01c      	add	sp, #112	; 0x70
 8006630:	f85d eb04 	ldr.w	lr, [sp], #4
 8006634:	b003      	add	sp, #12
 8006636:	4770      	bx	lr
 8006638:	2000000c 	.word	0x2000000c
 800663c:	ffff0208 	.word	0xffff0208

08006640 <__ascii_wctomb>:
 8006640:	b149      	cbz	r1, 8006656 <__ascii_wctomb+0x16>
 8006642:	2aff      	cmp	r2, #255	; 0xff
 8006644:	bf85      	ittet	hi
 8006646:	238a      	movhi	r3, #138	; 0x8a
 8006648:	6003      	strhi	r3, [r0, #0]
 800664a:	700a      	strbls	r2, [r1, #0]
 800664c:	f04f 30ff 	movhi.w	r0, #4294967295
 8006650:	bf98      	it	ls
 8006652:	2001      	movls	r0, #1
 8006654:	4770      	bx	lr
 8006656:	4608      	mov	r0, r1
 8006658:	4770      	bx	lr

0800665a <quorem>:
 800665a:	e92d 4ff7 	stmdb	sp!, {r0, r1, r2, r4, r5, r6, r7, r8, r9, sl, fp, lr}
 800665e:	6903      	ldr	r3, [r0, #16]
 8006660:	690c      	ldr	r4, [r1, #16]
 8006662:	42a3      	cmp	r3, r4
 8006664:	4680      	mov	r8, r0
 8006666:	f2c0 8082 	blt.w	800676e <quorem+0x114>
 800666a:	3c01      	subs	r4, #1
 800666c:	f101 0714 	add.w	r7, r1, #20
 8006670:	ea4f 0c84 	mov.w	ip, r4, lsl #2
 8006674:	f100 0614 	add.w	r6, r0, #20
 8006678:	f857 5024 	ldr.w	r5, [r7, r4, lsl #2]
 800667c:	f856 0024 	ldr.w	r0, [r6, r4, lsl #2]
 8006680:	eb06 030c 	add.w	r3, r6, ip
 8006684:	3501      	adds	r5, #1
 8006686:	eb07 090c 	add.w	r9, r7, ip
 800668a:	9301      	str	r3, [sp, #4]
 800668c:	fbb0 f5f5 	udiv	r5, r0, r5
 8006690:	b395      	cbz	r5, 80066f8 <quorem+0x9e>
 8006692:	f04f 0a00 	mov.w	sl, #0
 8006696:	4638      	mov	r0, r7
 8006698:	46b6      	mov	lr, r6
 800669a:	46d3      	mov	fp, sl
 800669c:	f850 2b04 	ldr.w	r2, [r0], #4
 80066a0:	b293      	uxth	r3, r2
 80066a2:	fb05 a303 	mla	r3, r5, r3, sl
 80066a6:	ea4f 4a13 	mov.w	sl, r3, lsr #16
 80066aa:	b29b      	uxth	r3, r3
 80066ac:	ebab 0303 	sub.w	r3, fp, r3
 80066b0:	0c12      	lsrs	r2, r2, #16
 80066b2:	f8de b000 	ldr.w	fp, [lr]
 80066b6:	fb05 a202 	mla	r2, r5, r2, sl
 80066ba:	fa13 f38b 	uxtah	r3, r3, fp
 80066be:	ea4f 4a12 	mov.w	sl, r2, lsr #16
 80066c2:	fa1f fb82 	uxth.w	fp, r2
 80066c6:	f8de 2000 	ldr.w	r2, [lr]
 80066ca:	ebcb 4212 	rsb	r2, fp, r2, lsr #16
 80066ce:	eb02 4223 	add.w	r2, r2, r3, asr #16
 80066d2:	b29b      	uxth	r3, r3
 80066d4:	ea43 4302 	orr.w	r3, r3, r2, lsl #16
 80066d8:	4581      	cmp	r9, r0
 80066da:	ea4f 4b22 	mov.w	fp, r2, asr #16
 80066de:	f84e 3b04 	str.w	r3, [lr], #4
 80066e2:	d2db      	bcs.n	800669c <quorem+0x42>
 80066e4:	f856 300c 	ldr.w	r3, [r6, ip]
 80066e8:	b933      	cbnz	r3, 80066f8 <quorem+0x9e>
 80066ea:	9b01      	ldr	r3, [sp, #4]
 80066ec:	3b04      	subs	r3, #4
 80066ee:	429e      	cmp	r6, r3
 80066f0:	461a      	mov	r2, r3
 80066f2:	d330      	bcc.n	8006756 <quorem+0xfc>
 80066f4:	f8c8 4010 	str.w	r4, [r8, #16]
 80066f8:	4640      	mov	r0, r8
 80066fa:	f001 f821 	bl	8007740 <__mcmp>
 80066fe:	2800      	cmp	r0, #0
 8006700:	db25      	blt.n	800674e <quorem+0xf4>
 8006702:	3501      	adds	r5, #1
 8006704:	4630      	mov	r0, r6
 8006706:	f04f 0c00 	mov.w	ip, #0
 800670a:	f857 2b04 	ldr.w	r2, [r7], #4
 800670e:	f8d0 e000 	ldr.w	lr, [r0]
 8006712:	b293      	uxth	r3, r2
 8006714:	ebac 0303 	sub.w	r3, ip, r3
 8006718:	0c12      	lsrs	r2, r2, #16
 800671a:	fa13 f38e 	uxtah	r3, r3, lr
 800671e:	ebc2 421e 	rsb	r2, r2, lr, lsr #16
 8006722:	eb02 4223 	add.w	r2, r2, r3, asr #16
 8006726:	b29b      	uxth	r3, r3
 8006728:	ea43 4302 	orr.w	r3, r3, r2, lsl #16
 800672c:	45b9      	cmp	r9, r7
 800672e:	ea4f 4c22 	mov.w	ip, r2, asr #16
 8006732:	f840 3b04 	str.w	r3, [r0], #4
 8006736:	d2e8      	bcs.n	800670a <quorem+0xb0>
 8006738:	f856 2024 	ldr.w	r2, [r6, r4, lsl #2]
 800673c:	eb06 0384 	add.w	r3, r6, r4, lsl #2
 8006740:	b92a      	cbnz	r2, 800674e <quorem+0xf4>
 8006742:	3b04      	subs	r3, #4
 8006744:	429e      	cmp	r6, r3
 8006746:	461a      	mov	r2, r3
 8006748:	d30b      	bcc.n	8006762 <quorem+0x108>
 800674a:	f8c8 4010 	str.w	r4, [r8, #16]
 800674e:	4628      	mov	r0, r5
 8006750:	b003      	add	sp, #12
 8006752:	e8bd 8ff0 	ldmia.w	sp!, {r4, r5, r6, r7, r8, r9, sl, fp, pc}
 8006756:	6812      	ldr	r2, [r2, #0]
 8006758:	3b04      	subs	r3, #4
 800675a:	2a00      	cmp	r2, #0
 800675c:	d1ca      	bne.n	80066f4 <quorem+0x9a>
 800675e:	3c01      	subs	r4, #1
 8006760:	e7c5      	b.n	80066ee <quorem+0x94>
 8006762:	6812      	ldr	r2, [r2, #0]
 8006764:	3b04      	subs	r3, #4
 8006766:	2a00      	cmp	r2, #0
 8006768:	d1ef      	bne.n	800674a <quorem+0xf0>
 800676a:	3c01      	subs	r4, #1
 800676c:	e7ea      	b.n	8006744 <quorem+0xea>
 800676e:	2000      	movs	r0, #0
 8006770:	e7ee      	b.n	8006750 <quorem+0xf6>
 8006772:	0000      	movs	r0, r0
 8006774:	0000      	movs	r0, r0
	...

08006778 <_dtoa_r>:
 8006778:	e92d 4ff0 	stmdb	sp!, {r4, r5, r6, r7, r8, r9, sl, fp, lr}
 800677c:	ec57 6b10 	vmov	r6, r7, d0
 8006780:	b097      	sub	sp, #92	; 0x5c
 8006782:	6a45      	ldr	r5, [r0, #36]	; 0x24
 8006784:	9106      	str	r1, [sp, #24]
 8006786:	4604      	mov	r4, r0
 8006788:	920b      	str	r2, [sp, #44]	; 0x2c
 800678a:	9312      	str	r3, [sp, #72]	; 0x48
 800678c:	f8dd 8080 	ldr.w	r8, [sp, #128]	; 0x80
 8006790:	e9cd 6700 	strd	r6, r7, [sp]
 8006794:	b93d      	cbnz	r5, 80067a6 <_dtoa_r+0x2e>
 8006796:	2010      	movs	r0, #16
 8006798:	f000 fdb4 	bl	8007304 <malloc>
 800679c:	6260      	str	r0, [r4, #36]	; 0x24
 800679e:	e9c0 5501 	strd	r5, r5, [r0, #4]
 80067a2:	6005      	str	r5, [r0, #0]
 80067a4:	60c5      	str	r5, [r0, #12]
 80067a6:	6a63      	ldr	r3, [r4, #36]	; 0x24
 80067a8:	6819      	ldr	r1, [r3, #0]
 80067aa:	b151      	cbz	r1, 80067c2 <_dtoa_r+0x4a>
 80067ac:	685a      	ldr	r2, [r3, #4]
 80067ae:	604a      	str	r2, [r1, #4]
 80067b0:	2301      	movs	r3, #1
 80067b2:	4093      	lsls	r3, r2
 80067b4:	608b      	str	r3, [r1, #8]
 80067b6:	4620      	mov	r0, r4
 80067b8:	f000 fde0 	bl	800737c <_Bfree>
 80067bc:	6a63      	ldr	r3, [r4, #36]	; 0x24
 80067be:	2200      	movs	r2, #0
 80067c0:	601a      	str	r2, [r3, #0]
 80067c2:	1e3b      	subs	r3, r7, #0
 80067c4:	bfbb      	ittet	lt
 80067c6:	f023 4300 	biclt.w	r3, r3, #2147483648	; 0x80000000
 80067ca:	9301      	strlt	r3, [sp, #4]
 80067cc:	2300      	movge	r3, #0
 80067ce:	2201      	movlt	r2, #1
 80067d0:	bfac      	ite	ge
 80067d2:	f8c8 3000 	strge.w	r3, [r8]
 80067d6:	f8c8 2000 	strlt.w	r2, [r8]
 80067da:	4baf      	ldr	r3, [pc, #700]	; (8006a98 <_dtoa_r+0x320>)
 80067dc:	f8dd 8004 	ldr.w	r8, [sp, #4]
 80067e0:	ea33 0308 	bics.w	r3, r3, r8
 80067e4:	d114      	bne.n	8006810 <_dtoa_r+0x98>
 80067e6:	9a12      	ldr	r2, [sp, #72]	; 0x48
 80067e8:	f242 730f 	movw	r3, #9999	; 0x270f
 80067ec:	6013      	str	r3, [r2, #0]
 80067ee:	9b00      	ldr	r3, [sp, #0]
 80067f0:	b923      	cbnz	r3, 80067fc <_dtoa_r+0x84>
 80067f2:	f3c8 0013 	ubfx	r0, r8, #0, #20
 80067f6:	2800      	cmp	r0, #0
 80067f8:	f000 8542 	beq.w	8007280 <_dtoa_r+0xb08>
 80067fc:	9b21      	ldr	r3, [sp, #132]	; 0x84
 80067fe:	f8df b2ac 	ldr.w	fp, [pc, #684]	; 8006aac <_dtoa_r+0x334>
 8006802:	2b00      	cmp	r3, #0
 8006804:	f000 8544 	beq.w	8007290 <_dtoa_r+0xb18>
 8006808:	f10b 0303 	add.w	r3, fp, #3
 800680c:	f000 bd3e 	b.w	800728c <_dtoa_r+0xb14>
 8006810:	e9dd 6700 	ldrd	r6, r7, [sp]
 8006814:	2200      	movs	r2, #0
 8006816:	2300      	movs	r3, #0
 8006818:	4630      	mov	r0, r6
 800681a:	4639      	mov	r1, r7
 800681c:	f7fa f96c 	bl	8000af8 <__aeabi_dcmpeq>
 8006820:	4681      	mov	r9, r0
 8006822:	b168      	cbz	r0, 8006840 <_dtoa_r+0xc8>
 8006824:	9a12      	ldr	r2, [sp, #72]	; 0x48
 8006826:	2301      	movs	r3, #1
 8006828:	6013      	str	r3, [r2, #0]
 800682a:	9b21      	ldr	r3, [sp, #132]	; 0x84
 800682c:	2b00      	cmp	r3, #0
 800682e:	f000 8524 	beq.w	800727a <_dtoa_r+0xb02>
 8006832:	4b9a      	ldr	r3, [pc, #616]	; (8006a9c <_dtoa_r+0x324>)
 8006834:	9a21      	ldr	r2, [sp, #132]	; 0x84
 8006836:	f103 3bff 	add.w	fp, r3, #4294967295
 800683a:	6013      	str	r3, [r2, #0]
 800683c:	f000 bd28 	b.w	8007290 <_dtoa_r+0xb18>
 8006840:	aa14      	add	r2, sp, #80	; 0x50
 8006842:	a915      	add	r1, sp, #84	; 0x54
 8006844:	ec47 6b10 	vmov	d0, r6, r7
 8006848:	4620      	mov	r0, r4
 800684a:	f000 fff0 	bl	800782e <__d2b>
 800684e:	f3c8 550a 	ubfx	r5, r8, #20, #11
 8006852:	9004      	str	r0, [sp, #16]
 8006854:	2d00      	cmp	r5, #0
 8006856:	d07c      	beq.n	8006952 <_dtoa_r+0x1da>
 8006858:	f3c7 0313 	ubfx	r3, r7, #0, #20
 800685c:	f043 5b7f 	orr.w	fp, r3, #1069547520	; 0x3fc00000
 8006860:	46b2      	mov	sl, r6
 8006862:	f44b 1b40 	orr.w	fp, fp, #3145728	; 0x300000
 8006866:	f2a5 35ff 	subw	r5, r5, #1023	; 0x3ff
 800686a:	f8cd 904c 	str.w	r9, [sp, #76]	; 0x4c
 800686e:	2200      	movs	r2, #0
 8006870:	4b8b      	ldr	r3, [pc, #556]	; (8006aa0 <_dtoa_r+0x328>)
 8006872:	4650      	mov	r0, sl
 8006874:	4659      	mov	r1, fp
 8006876:	f7f9 fd1f 	bl	80002b8 <__aeabi_dsub>
 800687a:	a381      	add	r3, pc, #516	; (adr r3, 8006a80 <_dtoa_r+0x308>)
 800687c:	e9d3 2300 	ldrd	r2, r3, [r3]
 8006880:	f7f9 fed2 	bl	8000628 <__aeabi_dmul>
 8006884:	a380      	add	r3, pc, #512	; (adr r3, 8006a88 <_dtoa_r+0x310>)
 8006886:	e9d3 2300 	ldrd	r2, r3, [r3]
 800688a:	f7f9 fd17 	bl	80002bc <__adddf3>
 800688e:	4606      	mov	r6, r0
 8006890:	4628      	mov	r0, r5
 8006892:	460f      	mov	r7, r1
 8006894:	f7f9 fe5e 	bl	8000554 <__aeabi_i2d>
 8006898:	a37d      	add	r3, pc, #500	; (adr r3, 8006a90 <_dtoa_r+0x318>)
 800689a:	e9d3 2300 	ldrd	r2, r3, [r3]
 800689e:	f7f9 fec3 	bl	8000628 <__aeabi_dmul>
 80068a2:	4602      	mov	r2, r0
 80068a4:	460b      	mov	r3, r1
 80068a6:	4630      	mov	r0, r6
 80068a8:	4639      	mov	r1, r7
 80068aa:	f7f9 fd07 	bl	80002bc <__adddf3>
 80068ae:	4606      	mov	r6, r0
 80068b0:	460f      	mov	r7, r1
 80068b2:	f7fa f969 	bl	8000b88 <__aeabi_d2iz>
 80068b6:	2200      	movs	r2, #0
 80068b8:	4682      	mov	sl, r0
 80068ba:	2300      	movs	r3, #0
 80068bc:	4630      	mov	r0, r6
 80068be:	4639      	mov	r1, r7
 80068c0:	f7fa f924 	bl	8000b0c <__aeabi_dcmplt>
 80068c4:	b148      	cbz	r0, 80068da <_dtoa_r+0x162>
 80068c6:	4650      	mov	r0, sl
 80068c8:	f7f9 fe44 	bl	8000554 <__aeabi_i2d>
 80068cc:	4632      	mov	r2, r6
 80068ce:	463b      	mov	r3, r7
 80068d0:	f7fa f912 	bl	8000af8 <__aeabi_dcmpeq>
 80068d4:	b908      	cbnz	r0, 80068da <_dtoa_r+0x162>
 80068d6:	f10a 3aff 	add.w	sl, sl, #4294967295
 80068da:	f1ba 0f16 	cmp.w	sl, #22
 80068de:	d859      	bhi.n	8006994 <_dtoa_r+0x21c>
 80068e0:	4970      	ldr	r1, [pc, #448]	; (8006aa4 <_dtoa_r+0x32c>)
 80068e2:	eb01 01ca 	add.w	r1, r1, sl, lsl #3
 80068e6:	e9dd 2300 	ldrd	r2, r3, [sp]
 80068ea:	e9d1 0100 	ldrd	r0, r1, [r1]
 80068ee:	f7fa f92b 	bl	8000b48 <__aeabi_dcmpgt>
 80068f2:	2800      	cmp	r0, #0
 80068f4:	d050      	beq.n	8006998 <_dtoa_r+0x220>
 80068f6:	f10a 3aff 	add.w	sl, sl, #4294967295
 80068fa:	2300      	movs	r3, #0
 80068fc:	930f      	str	r3, [sp, #60]	; 0x3c
 80068fe:	9b14      	ldr	r3, [sp, #80]	; 0x50
 8006900:	1b5d      	subs	r5, r3, r5
 8006902:	f1b5 0801 	subs.w	r8, r5, #1
 8006906:	bf49      	itett	mi
 8006908:	f1c5 0301 	rsbmi	r3, r5, #1
 800690c:	2300      	movpl	r3, #0
 800690e:	9305      	strmi	r3, [sp, #20]
 8006910:	f04f 0800 	movmi.w	r8, #0
 8006914:	bf58      	it	pl
 8006916:	9305      	strpl	r3, [sp, #20]
 8006918:	f1ba 0f00 	cmp.w	sl, #0
 800691c:	db3e      	blt.n	800699c <_dtoa_r+0x224>
 800691e:	2300      	movs	r3, #0
 8006920:	44d0      	add	r8, sl
 8006922:	f8cd a038 	str.w	sl, [sp, #56]	; 0x38
 8006926:	9307      	str	r3, [sp, #28]
 8006928:	9b06      	ldr	r3, [sp, #24]
 800692a:	2b09      	cmp	r3, #9
 800692c:	f200 8090 	bhi.w	8006a50 <_dtoa_r+0x2d8>
 8006930:	2b05      	cmp	r3, #5
 8006932:	bfc4      	itt	gt
 8006934:	3b04      	subgt	r3, #4
 8006936:	9306      	strgt	r3, [sp, #24]
 8006938:	9b06      	ldr	r3, [sp, #24]
 800693a:	f1a3 0302 	sub.w	r3, r3, #2
 800693e:	bfcc      	ite	gt
 8006940:	2500      	movgt	r5, #0
 8006942:	2501      	movle	r5, #1
 8006944:	2b03      	cmp	r3, #3
 8006946:	f200 808f 	bhi.w	8006a68 <_dtoa_r+0x2f0>
 800694a:	e8df f003 	tbb	[pc, r3]
 800694e:	7f7d      	.short	0x7f7d
 8006950:	7131      	.short	0x7131
 8006952:	e9dd 5314 	ldrd	r5, r3, [sp, #80]	; 0x50
 8006956:	441d      	add	r5, r3
 8006958:	f205 4032 	addw	r0, r5, #1074	; 0x432
 800695c:	2820      	cmp	r0, #32
 800695e:	dd13      	ble.n	8006988 <_dtoa_r+0x210>
 8006960:	f1c0 0040 	rsb	r0, r0, #64	; 0x40
 8006964:	9b00      	ldr	r3, [sp, #0]
 8006966:	fa08 f800 	lsl.w	r8, r8, r0
 800696a:	f205 4012 	addw	r0, r5, #1042	; 0x412
 800696e:	fa23 f000 	lsr.w	r0, r3, r0
 8006972:	ea48 0000 	orr.w	r0, r8, r0
 8006976:	f7f9 fddd 	bl	8000534 <__aeabi_ui2d>
 800697a:	2301      	movs	r3, #1
 800697c:	4682      	mov	sl, r0
 800697e:	f1a1 7bf8 	sub.w	fp, r1, #32505856	; 0x1f00000
 8006982:	3d01      	subs	r5, #1
 8006984:	9313      	str	r3, [sp, #76]	; 0x4c
 8006986:	e772      	b.n	800686e <_dtoa_r+0xf6>
 8006988:	9b00      	ldr	r3, [sp, #0]
 800698a:	f1c0 0020 	rsb	r0, r0, #32
 800698e:	fa03 f000 	lsl.w	r0, r3, r0
 8006992:	e7f0      	b.n	8006976 <_dtoa_r+0x1fe>
 8006994:	2301      	movs	r3, #1
 8006996:	e7b1      	b.n	80068fc <_dtoa_r+0x184>
 8006998:	900f      	str	r0, [sp, #60]	; 0x3c
 800699a:	e7b0      	b.n	80068fe <_dtoa_r+0x186>
 800699c:	9b05      	ldr	r3, [sp, #20]
 800699e:	eba3 030a 	sub.w	r3, r3, sl
 80069a2:	9305      	str	r3, [sp, #20]
 80069a4:	f1ca 0300 	rsb	r3, sl, #0
 80069a8:	9307      	str	r3, [sp, #28]
 80069aa:	2300      	movs	r3, #0
 80069ac:	930e      	str	r3, [sp, #56]	; 0x38
 80069ae:	e7bb      	b.n	8006928 <_dtoa_r+0x1b0>
 80069b0:	2301      	movs	r3, #1
 80069b2:	930a      	str	r3, [sp, #40]	; 0x28
 80069b4:	9b0b      	ldr	r3, [sp, #44]	; 0x2c
 80069b6:	2b00      	cmp	r3, #0
 80069b8:	dd59      	ble.n	8006a6e <_dtoa_r+0x2f6>
 80069ba:	9302      	str	r3, [sp, #8]
 80069bc:	4699      	mov	r9, r3
 80069be:	6a66      	ldr	r6, [r4, #36]	; 0x24
 80069c0:	2200      	movs	r2, #0
 80069c2:	6072      	str	r2, [r6, #4]
 80069c4:	2204      	movs	r2, #4
 80069c6:	f102 0014 	add.w	r0, r2, #20
 80069ca:	4298      	cmp	r0, r3
 80069cc:	6871      	ldr	r1, [r6, #4]
 80069ce:	d953      	bls.n	8006a78 <_dtoa_r+0x300>
 80069d0:	4620      	mov	r0, r4
 80069d2:	f000 fc9f 	bl	8007314 <_Balloc>
 80069d6:	6a63      	ldr	r3, [r4, #36]	; 0x24
 80069d8:	6030      	str	r0, [r6, #0]
 80069da:	f1b9 0f0e 	cmp.w	r9, #14
 80069de:	f8d3 b000 	ldr.w	fp, [r3]
 80069e2:	f200 80e6 	bhi.w	8006bb2 <_dtoa_r+0x43a>
 80069e6:	2d00      	cmp	r5, #0
 80069e8:	f000 80e3 	beq.w	8006bb2 <_dtoa_r+0x43a>
 80069ec:	ed9d 7b00 	vldr	d7, [sp]
 80069f0:	f1ba 0f00 	cmp.w	sl, #0
 80069f4:	ed8d 7b10 	vstr	d7, [sp, #64]	; 0x40
 80069f8:	dd74      	ble.n	8006ae4 <_dtoa_r+0x36c>
 80069fa:	4a2a      	ldr	r2, [pc, #168]	; (8006aa4 <_dtoa_r+0x32c>)
 80069fc:	f00a 030f 	and.w	r3, sl, #15
 8006a00:	eb02 03c3 	add.w	r3, r2, r3, lsl #3
 8006a04:	ed93 7b00 	vldr	d7, [r3]
 8006a08:	ea4f 162a 	mov.w	r6, sl, asr #4
 8006a0c:	06f0      	lsls	r0, r6, #27
 8006a0e:	ed8d 7b08 	vstr	d7, [sp, #32]
 8006a12:	d565      	bpl.n	8006ae0 <_dtoa_r+0x368>
 8006a14:	4b24      	ldr	r3, [pc, #144]	; (8006aa8 <_dtoa_r+0x330>)
 8006a16:	e9dd 0110 	ldrd	r0, r1, [sp, #64]	; 0x40
 8006a1a:	e9d3 2308 	ldrd	r2, r3, [r3, #32]
 8006a1e:	f7f9 ff2d 	bl	800087c <__aeabi_ddiv>
 8006a22:	e9cd 0100 	strd	r0, r1, [sp]
 8006a26:	f006 060f 	and.w	r6, r6, #15
 8006a2a:	2503      	movs	r5, #3
 8006a2c:	4f1e      	ldr	r7, [pc, #120]	; (8006aa8 <_dtoa_r+0x330>)
 8006a2e:	e04c      	b.n	8006aca <_dtoa_r+0x352>
 8006a30:	2301      	movs	r3, #1
 8006a32:	930a      	str	r3, [sp, #40]	; 0x28
 8006a34:	9b0b      	ldr	r3, [sp, #44]	; 0x2c
 8006a36:	4453      	add	r3, sl
 8006a38:	f103 0901 	add.w	r9, r3, #1
 8006a3c:	9302      	str	r3, [sp, #8]
 8006a3e:	464b      	mov	r3, r9
 8006a40:	2b01      	cmp	r3, #1
 8006a42:	bfb8      	it	lt
 8006a44:	2301      	movlt	r3, #1
 8006a46:	e7ba      	b.n	80069be <_dtoa_r+0x246>
 8006a48:	2300      	movs	r3, #0
 8006a4a:	e7b2      	b.n	80069b2 <_dtoa_r+0x23a>
 8006a4c:	2300      	movs	r3, #0
 8006a4e:	e7f0      	b.n	8006a32 <_dtoa_r+0x2ba>
 8006a50:	2501      	movs	r5, #1
 8006a52:	2300      	movs	r3, #0
 8006a54:	9306      	str	r3, [sp, #24]
 8006a56:	950a      	str	r5, [sp, #40]	; 0x28
 8006a58:	f04f 33ff 	mov.w	r3, #4294967295
 8006a5c:	9302      	str	r3, [sp, #8]
 8006a5e:	4699      	mov	r9, r3
 8006a60:	2200      	movs	r2, #0
 8006a62:	2312      	movs	r3, #18
 8006a64:	920b      	str	r2, [sp, #44]	; 0x2c
 8006a66:	e7aa      	b.n	80069be <_dtoa_r+0x246>
 8006a68:	2301      	movs	r3, #1
 8006a6a:	930a      	str	r3, [sp, #40]	; 0x28
 8006a6c:	e7f4      	b.n	8006a58 <_dtoa_r+0x2e0>
 8006a6e:	2301      	movs	r3, #1
 8006a70:	9302      	str	r3, [sp, #8]
 8006a72:	4699      	mov	r9, r3
 8006a74:	461a      	mov	r2, r3
 8006a76:	e7f5      	b.n	8006a64 <_dtoa_r+0x2ec>
 8006a78:	3101      	adds	r1, #1
 8006a7a:	6071      	str	r1, [r6, #4]
 8006a7c:	0052      	lsls	r2, r2, #1
 8006a7e:	e7a2      	b.n	80069c6 <_dtoa_r+0x24e>
 8006a80:	636f4361 	.word	0x636f4361
 8006a84:	3fd287a7 	.word	0x3fd287a7
 8006a88:	8b60c8b3 	.word	0x8b60c8b3
 8006a8c:	3fc68a28 	.word	0x3fc68a28
 8006a90:	509f79fb 	.word	0x509f79fb
 8006a94:	3fd34413 	.word	0x3fd34413
 8006a98:	7ff00000 	.word	0x7ff00000
 8006a9c:	08016d9f 	.word	0x08016d9f
 8006aa0:	3ff80000 	.word	0x3ff80000
 8006aa4:	08016ef8 	.word	0x08016ef8
 8006aa8:	08016ed0 	.word	0x08016ed0
 8006aac:	08016ecc 	.word	0x08016ecc
 8006ab0:	07f1      	lsls	r1, r6, #31
 8006ab2:	d508      	bpl.n	8006ac6 <_dtoa_r+0x34e>
 8006ab4:	e9dd 0108 	ldrd	r0, r1, [sp, #32]
 8006ab8:	e9d7 2300 	ldrd	r2, r3, [r7]
 8006abc:	f7f9 fdb4 	bl	8000628 <__aeabi_dmul>
 8006ac0:	e9cd 0108 	strd	r0, r1, [sp, #32]
 8006ac4:	3501      	adds	r5, #1
 8006ac6:	1076      	asrs	r6, r6, #1
 8006ac8:	3708      	adds	r7, #8
 8006aca:	2e00      	cmp	r6, #0
 8006acc:	d1f0      	bne.n	8006ab0 <_dtoa_r+0x338>
 8006ace:	e9dd 2308 	ldrd	r2, r3, [sp, #32]
 8006ad2:	e9dd 0100 	ldrd	r0, r1, [sp]
 8006ad6:	f7f9 fed1 	bl	800087c <__aeabi_ddiv>
 8006ada:	e9cd 0100 	strd	r0, r1, [sp]
 8006ade:	e01a      	b.n	8006b16 <_dtoa_r+0x39e>
 8006ae0:	2502      	movs	r5, #2
 8006ae2:	e7a3      	b.n	8006a2c <_dtoa_r+0x2b4>
 8006ae4:	f000 80a0 	beq.w	8006c28 <_dtoa_r+0x4b0>
 8006ae8:	f1ca 0600 	rsb	r6, sl, #0
 8006aec:	4b9f      	ldr	r3, [pc, #636]	; (8006d6c <_dtoa_r+0x5f4>)
 8006aee:	4fa0      	ldr	r7, [pc, #640]	; (8006d70 <_dtoa_r+0x5f8>)
 8006af0:	f006 020f 	and.w	r2, r6, #15
 8006af4:	eb03 03c2 	add.w	r3, r3, r2, lsl #3
 8006af8:	e9d3 2300 	ldrd	r2, r3, [r3]
 8006afc:	e9dd 0110 	ldrd	r0, r1, [sp, #64]	; 0x40
 8006b00:	f7f9 fd92 	bl	8000628 <__aeabi_dmul>
 8006b04:	e9cd 0100 	strd	r0, r1, [sp]
 8006b08:	1136      	asrs	r6, r6, #4
 8006b0a:	2300      	movs	r3, #0
 8006b0c:	2502      	movs	r5, #2
 8006b0e:	2e00      	cmp	r6, #0
 8006b10:	d17f      	bne.n	8006c12 <_dtoa_r+0x49a>
 8006b12:	2b00      	cmp	r3, #0
 8006b14:	d1e1      	bne.n	8006ada <_dtoa_r+0x362>
 8006b16:	9b0f      	ldr	r3, [sp, #60]	; 0x3c
 8006b18:	2b00      	cmp	r3, #0
 8006b1a:	f000 8087 	beq.w	8006c2c <_dtoa_r+0x4b4>
 8006b1e:	e9dd 6700 	ldrd	r6, r7, [sp]
 8006b22:	2200      	movs	r2, #0
 8006b24:	4b93      	ldr	r3, [pc, #588]	; (8006d74 <_dtoa_r+0x5fc>)
 8006b26:	4630      	mov	r0, r6
 8006b28:	4639      	mov	r1, r7
 8006b2a:	f7f9 ffef 	bl	8000b0c <__aeabi_dcmplt>
 8006b2e:	2800      	cmp	r0, #0
 8006b30:	d07c      	beq.n	8006c2c <_dtoa_r+0x4b4>
 8006b32:	f1b9 0f00 	cmp.w	r9, #0
 8006b36:	d079      	beq.n	8006c2c <_dtoa_r+0x4b4>
 8006b38:	9b02      	ldr	r3, [sp, #8]
 8006b3a:	2b00      	cmp	r3, #0
 8006b3c:	dd35      	ble.n	8006baa <_dtoa_r+0x432>
 8006b3e:	f10a 33ff 	add.w	r3, sl, #4294967295
 8006b42:	9308      	str	r3, [sp, #32]
 8006b44:	4639      	mov	r1, r7
 8006b46:	2200      	movs	r2, #0
 8006b48:	4b8b      	ldr	r3, [pc, #556]	; (8006d78 <_dtoa_r+0x600>)
 8006b4a:	4630      	mov	r0, r6
 8006b4c:	f7f9 fd6c 	bl	8000628 <__aeabi_dmul>
 8006b50:	e9cd 0100 	strd	r0, r1, [sp]
 8006b54:	9f02      	ldr	r7, [sp, #8]
 8006b56:	3501      	adds	r5, #1
 8006b58:	4628      	mov	r0, r5
 8006b5a:	f7f9 fcfb 	bl	8000554 <__aeabi_i2d>
 8006b5e:	e9dd 2300 	ldrd	r2, r3, [sp]
 8006b62:	f7f9 fd61 	bl	8000628 <__aeabi_dmul>
 8006b66:	2200      	movs	r2, #0
 8006b68:	4b84      	ldr	r3, [pc, #528]	; (8006d7c <_dtoa_r+0x604>)
 8006b6a:	f7f9 fba7 	bl	80002bc <__adddf3>
 8006b6e:	4605      	mov	r5, r0
 8006b70:	f1a1 7650 	sub.w	r6, r1, #54525952	; 0x3400000
 8006b74:	2f00      	cmp	r7, #0
 8006b76:	d15d      	bne.n	8006c34 <_dtoa_r+0x4bc>
 8006b78:	2200      	movs	r2, #0
 8006b7a:	4b81      	ldr	r3, [pc, #516]	; (8006d80 <_dtoa_r+0x608>)
 8006b7c:	e9dd 0100 	ldrd	r0, r1, [sp]
 8006b80:	f7f9 fb9a 	bl	80002b8 <__aeabi_dsub>
 8006b84:	462a      	mov	r2, r5
 8006b86:	4633      	mov	r3, r6
 8006b88:	e9cd 0100 	strd	r0, r1, [sp]
 8006b8c:	f7f9 ffdc 	bl	8000b48 <__aeabi_dcmpgt>
 8006b90:	2800      	cmp	r0, #0
 8006b92:	f040 8288 	bne.w	80070a6 <_dtoa_r+0x92e>
 8006b96:	462a      	mov	r2, r5
 8006b98:	f106 4300 	add.w	r3, r6, #2147483648	; 0x80000000
 8006b9c:	e9dd 0100 	ldrd	r0, r1, [sp]
 8006ba0:	f7f9 ffb4 	bl	8000b0c <__aeabi_dcmplt>
 8006ba4:	2800      	cmp	r0, #0
 8006ba6:	f040 827c 	bne.w	80070a2 <_dtoa_r+0x92a>
 8006baa:	e9dd 2310 	ldrd	r2, r3, [sp, #64]	; 0x40
 8006bae:	e9cd 2300 	strd	r2, r3, [sp]
 8006bb2:	9b15      	ldr	r3, [sp, #84]	; 0x54
 8006bb4:	2b00      	cmp	r3, #0
 8006bb6:	f2c0 8150 	blt.w	8006e5a <_dtoa_r+0x6e2>
 8006bba:	f1ba 0f0e 	cmp.w	sl, #14
 8006bbe:	f300 814c 	bgt.w	8006e5a <_dtoa_r+0x6e2>
 8006bc2:	4b6a      	ldr	r3, [pc, #424]	; (8006d6c <_dtoa_r+0x5f4>)
 8006bc4:	eb03 03ca 	add.w	r3, r3, sl, lsl #3
 8006bc8:	ed93 7b00 	vldr	d7, [r3]
 8006bcc:	9b0b      	ldr	r3, [sp, #44]	; 0x2c
 8006bce:	2b00      	cmp	r3, #0
 8006bd0:	ed8d 7b02 	vstr	d7, [sp, #8]
 8006bd4:	f280 80d8 	bge.w	8006d88 <_dtoa_r+0x610>
 8006bd8:	f1b9 0f00 	cmp.w	r9, #0
 8006bdc:	f300 80d4 	bgt.w	8006d88 <_dtoa_r+0x610>
 8006be0:	f040 825e 	bne.w	80070a0 <_dtoa_r+0x928>
 8006be4:	2200      	movs	r2, #0
 8006be6:	4b66      	ldr	r3, [pc, #408]	; (8006d80 <_dtoa_r+0x608>)
 8006be8:	ec51 0b17 	vmov	r0, r1, d7
 8006bec:	f7f9 fd1c 	bl	8000628 <__aeabi_dmul>
 8006bf0:	e9dd 2300 	ldrd	r2, r3, [sp]
 8006bf4:	f7f9 ff9e 	bl	8000b34 <__aeabi_dcmpge>
 8006bf8:	464f      	mov	r7, r9
 8006bfa:	464e      	mov	r6, r9
 8006bfc:	2800      	cmp	r0, #0
 8006bfe:	f040 8234 	bne.w	800706a <_dtoa_r+0x8f2>
 8006c02:	2331      	movs	r3, #49	; 0x31
 8006c04:	f10b 0501 	add.w	r5, fp, #1
 8006c08:	f88b 3000 	strb.w	r3, [fp]
 8006c0c:	f10a 0a01 	add.w	sl, sl, #1
 8006c10:	e22f      	b.n	8007072 <_dtoa_r+0x8fa>
 8006c12:	07f2      	lsls	r2, r6, #31
 8006c14:	d505      	bpl.n	8006c22 <_dtoa_r+0x4aa>
 8006c16:	e9d7 2300 	ldrd	r2, r3, [r7]
 8006c1a:	f7f9 fd05 	bl	8000628 <__aeabi_dmul>
 8006c1e:	3501      	adds	r5, #1
 8006c20:	2301      	movs	r3, #1
 8006c22:	1076      	asrs	r6, r6, #1
 8006c24:	3708      	adds	r7, #8
 8006c26:	e772      	b.n	8006b0e <_dtoa_r+0x396>
 8006c28:	2502      	movs	r5, #2
 8006c2a:	e774      	b.n	8006b16 <_dtoa_r+0x39e>
 8006c2c:	f8cd a020 	str.w	sl, [sp, #32]
 8006c30:	464f      	mov	r7, r9
 8006c32:	e791      	b.n	8006b58 <_dtoa_r+0x3e0>
 8006c34:	4b4d      	ldr	r3, [pc, #308]	; (8006d6c <_dtoa_r+0x5f4>)
 8006c36:	eb03 03c7 	add.w	r3, r3, r7, lsl #3
 8006c3a:	e953 0102 	ldrd	r0, r1, [r3, #-8]
 8006c3e:	9b0a      	ldr	r3, [sp, #40]	; 0x28
 8006c40:	2b00      	cmp	r3, #0
 8006c42:	d047      	beq.n	8006cd4 <_dtoa_r+0x55c>
 8006c44:	4602      	mov	r2, r0
 8006c46:	460b      	mov	r3, r1
 8006c48:	2000      	movs	r0, #0
 8006c4a:	494e      	ldr	r1, [pc, #312]	; (8006d84 <_dtoa_r+0x60c>)
 8006c4c:	f7f9 fe16 	bl	800087c <__aeabi_ddiv>
 8006c50:	462a      	mov	r2, r5
 8006c52:	4633      	mov	r3, r6
 8006c54:	f7f9 fb30 	bl	80002b8 <__aeabi_dsub>
 8006c58:	e9cd 010c 	strd	r0, r1, [sp, #48]	; 0x30
 8006c5c:	465d      	mov	r5, fp
 8006c5e:	e9dd 0100 	ldrd	r0, r1, [sp]
 8006c62:	f7f9 ff91 	bl	8000b88 <__aeabi_d2iz>
 8006c66:	4606      	mov	r6, r0
 8006c68:	f7f9 fc74 	bl	8000554 <__aeabi_i2d>
 8006c6c:	4602      	mov	r2, r0
 8006c6e:	460b      	mov	r3, r1
 8006c70:	e9dd 0100 	ldrd	r0, r1, [sp]
 8006c74:	f7f9 fb20 	bl	80002b8 <__aeabi_dsub>
 8006c78:	3630      	adds	r6, #48	; 0x30
 8006c7a:	f805 6b01 	strb.w	r6, [r5], #1
 8006c7e:	e9dd 230c 	ldrd	r2, r3, [sp, #48]	; 0x30
 8006c82:	e9cd 0100 	strd	r0, r1, [sp]
 8006c86:	f7f9 ff41 	bl	8000b0c <__aeabi_dcmplt>
 8006c8a:	2800      	cmp	r0, #0
 8006c8c:	d163      	bne.n	8006d56 <_dtoa_r+0x5de>
 8006c8e:	e9dd 2300 	ldrd	r2, r3, [sp]
 8006c92:	2000      	movs	r0, #0
 8006c94:	4937      	ldr	r1, [pc, #220]	; (8006d74 <_dtoa_r+0x5fc>)
 8006c96:	f7f9 fb0f 	bl	80002b8 <__aeabi_dsub>
 8006c9a:	e9dd 230c 	ldrd	r2, r3, [sp, #48]	; 0x30
 8006c9e:	f7f9 ff35 	bl	8000b0c <__aeabi_dcmplt>
 8006ca2:	2800      	cmp	r0, #0
 8006ca4:	f040 80b7 	bne.w	8006e16 <_dtoa_r+0x69e>
 8006ca8:	eba5 030b 	sub.w	r3, r5, fp
 8006cac:	429f      	cmp	r7, r3
 8006cae:	f77f af7c 	ble.w	8006baa <_dtoa_r+0x432>
 8006cb2:	2200      	movs	r2, #0
 8006cb4:	4b30      	ldr	r3, [pc, #192]	; (8006d78 <_dtoa_r+0x600>)
 8006cb6:	e9dd 010c 	ldrd	r0, r1, [sp, #48]	; 0x30
 8006cba:	f7f9 fcb5 	bl	8000628 <__aeabi_dmul>
 8006cbe:	2200      	movs	r2, #0
 8006cc0:	e9cd 010c 	strd	r0, r1, [sp, #48]	; 0x30
 8006cc4:	4b2c      	ldr	r3, [pc, #176]	; (8006d78 <_dtoa_r+0x600>)
 8006cc6:	e9dd 0100 	ldrd	r0, r1, [sp]
 8006cca:	f7f9 fcad 	bl	8000628 <__aeabi_dmul>
 8006cce:	e9cd 0100 	strd	r0, r1, [sp]
 8006cd2:	e7c4      	b.n	8006c5e <_dtoa_r+0x4e6>
 8006cd4:	462a      	mov	r2, r5
 8006cd6:	4633      	mov	r3, r6
 8006cd8:	f7f9 fca6 	bl	8000628 <__aeabi_dmul>
 8006cdc:	e9cd 010c 	strd	r0, r1, [sp, #48]	; 0x30
 8006ce0:	eb0b 0507 	add.w	r5, fp, r7
 8006ce4:	465e      	mov	r6, fp
 8006ce6:	e9dd 0100 	ldrd	r0, r1, [sp]
 8006cea:	f7f9 ff4d 	bl	8000b88 <__aeabi_d2iz>
 8006cee:	4607      	mov	r7, r0
 8006cf0:	f7f9 fc30 	bl	8000554 <__aeabi_i2d>
 8006cf4:	3730      	adds	r7, #48	; 0x30
 8006cf6:	4602      	mov	r2, r0
 8006cf8:	460b      	mov	r3, r1
 8006cfa:	e9dd 0100 	ldrd	r0, r1, [sp]
 8006cfe:	f7f9 fadb 	bl	80002b8 <__aeabi_dsub>
 8006d02:	f806 7b01 	strb.w	r7, [r6], #1
 8006d06:	42ae      	cmp	r6, r5
 8006d08:	e9cd 0100 	strd	r0, r1, [sp]
 8006d0c:	f04f 0200 	mov.w	r2, #0
 8006d10:	d126      	bne.n	8006d60 <_dtoa_r+0x5e8>
 8006d12:	4b1c      	ldr	r3, [pc, #112]	; (8006d84 <_dtoa_r+0x60c>)
 8006d14:	e9dd 010c 	ldrd	r0, r1, [sp, #48]	; 0x30
 8006d18:	f7f9 fad0 	bl	80002bc <__adddf3>
 8006d1c:	4602      	mov	r2, r0
 8006d1e:	460b      	mov	r3, r1
 8006d20:	e9dd 0100 	ldrd	r0, r1, [sp]
 8006d24:	f7f9 ff10 	bl	8000b48 <__aeabi_dcmpgt>
 8006d28:	2800      	cmp	r0, #0
 8006d2a:	d174      	bne.n	8006e16 <_dtoa_r+0x69e>
 8006d2c:	e9dd 230c 	ldrd	r2, r3, [sp, #48]	; 0x30
 8006d30:	2000      	movs	r0, #0
 8006d32:	4914      	ldr	r1, [pc, #80]	; (8006d84 <_dtoa_r+0x60c>)
 8006d34:	f7f9 fac0 	bl	80002b8 <__aeabi_dsub>
 8006d38:	4602      	mov	r2, r0
 8006d3a:	460b      	mov	r3, r1
 8006d3c:	e9dd 0100 	ldrd	r0, r1, [sp]
 8006d40:	f7f9 fee4 	bl	8000b0c <__aeabi_dcmplt>
 8006d44:	2800      	cmp	r0, #0
 8006d46:	f43f af30 	beq.w	8006baa <_dtoa_r+0x432>
 8006d4a:	f815 3c01 	ldrb.w	r3, [r5, #-1]
 8006d4e:	2b30      	cmp	r3, #48	; 0x30
 8006d50:	f105 32ff 	add.w	r2, r5, #4294967295
 8006d54:	d002      	beq.n	8006d5c <_dtoa_r+0x5e4>
 8006d56:	f8dd a020 	ldr.w	sl, [sp, #32]
 8006d5a:	e04a      	b.n	8006df2 <_dtoa_r+0x67a>
 8006d5c:	4615      	mov	r5, r2
 8006d5e:	e7f4      	b.n	8006d4a <_dtoa_r+0x5d2>
 8006d60:	4b05      	ldr	r3, [pc, #20]	; (8006d78 <_dtoa_r+0x600>)
 8006d62:	f7f9 fc61 	bl	8000628 <__aeabi_dmul>
 8006d66:	e9cd 0100 	strd	r0, r1, [sp]
 8006d6a:	e7bc      	b.n	8006ce6 <_dtoa_r+0x56e>
 8006d6c:	08016ef8 	.word	0x08016ef8
 8006d70:	08016ed0 	.word	0x08016ed0
 8006d74:	3ff00000 	.word	0x3ff00000
 8006d78:	40240000 	.word	0x40240000
 8006d7c:	401c0000 	.word	0x401c0000
 8006d80:	40140000 	.word	0x40140000
 8006d84:	3fe00000 	.word	0x3fe00000
 8006d88:	e9dd 6700 	ldrd	r6, r7, [sp]
 8006d8c:	465d      	mov	r5, fp
 8006d8e:	e9dd 2302 	ldrd	r2, r3, [sp, #8]
 8006d92:	4630      	mov	r0, r6
 8006d94:	4639      	mov	r1, r7
 8006d96:	f7f9 fd71 	bl	800087c <__aeabi_ddiv>
 8006d9a:	f7f9 fef5 	bl	8000b88 <__aeabi_d2iz>
 8006d9e:	4680      	mov	r8, r0
 8006da0:	f7f9 fbd8 	bl	8000554 <__aeabi_i2d>
 8006da4:	e9dd 2302 	ldrd	r2, r3, [sp, #8]
 8006da8:	f7f9 fc3e 	bl	8000628 <__aeabi_dmul>
 8006dac:	4602      	mov	r2, r0
 8006dae:	460b      	mov	r3, r1
 8006db0:	4630      	mov	r0, r6
 8006db2:	4639      	mov	r1, r7
 8006db4:	f108 0630 	add.w	r6, r8, #48	; 0x30
 8006db8:	f7f9 fa7e 	bl	80002b8 <__aeabi_dsub>
 8006dbc:	f805 6b01 	strb.w	r6, [r5], #1
 8006dc0:	eba5 060b 	sub.w	r6, r5, fp
 8006dc4:	45b1      	cmp	r9, r6
 8006dc6:	4602      	mov	r2, r0
 8006dc8:	460b      	mov	r3, r1
 8006dca:	d139      	bne.n	8006e40 <_dtoa_r+0x6c8>
 8006dcc:	f7f9 fa76 	bl	80002bc <__adddf3>
 8006dd0:	e9dd 2302 	ldrd	r2, r3, [sp, #8]
 8006dd4:	4606      	mov	r6, r0
 8006dd6:	460f      	mov	r7, r1
 8006dd8:	f7f9 feb6 	bl	8000b48 <__aeabi_dcmpgt>
 8006ddc:	b9c8      	cbnz	r0, 8006e12 <_dtoa_r+0x69a>
 8006dde:	e9dd 2302 	ldrd	r2, r3, [sp, #8]
 8006de2:	4630      	mov	r0, r6
 8006de4:	4639      	mov	r1, r7
 8006de6:	f7f9 fe87 	bl	8000af8 <__aeabi_dcmpeq>
 8006dea:	b110      	cbz	r0, 8006df2 <_dtoa_r+0x67a>
 8006dec:	f018 0f01 	tst.w	r8, #1
 8006df0:	d10f      	bne.n	8006e12 <_dtoa_r+0x69a>
 8006df2:	9904      	ldr	r1, [sp, #16]
 8006df4:	4620      	mov	r0, r4
 8006df6:	f000 fac1 	bl	800737c <_Bfree>
 8006dfa:	2300      	movs	r3, #0
 8006dfc:	9a12      	ldr	r2, [sp, #72]	; 0x48
 8006dfe:	702b      	strb	r3, [r5, #0]
 8006e00:	f10a 0301 	add.w	r3, sl, #1
 8006e04:	6013      	str	r3, [r2, #0]
 8006e06:	9b21      	ldr	r3, [sp, #132]	; 0x84
 8006e08:	2b00      	cmp	r3, #0
 8006e0a:	f000 8241 	beq.w	8007290 <_dtoa_r+0xb18>
 8006e0e:	601d      	str	r5, [r3, #0]
 8006e10:	e23e      	b.n	8007290 <_dtoa_r+0xb18>
 8006e12:	f8cd a020 	str.w	sl, [sp, #32]
 8006e16:	f815 2c01 	ldrb.w	r2, [r5, #-1]
 8006e1a:	2a39      	cmp	r2, #57	; 0x39
 8006e1c:	f105 33ff 	add.w	r3, r5, #4294967295
 8006e20:	d108      	bne.n	8006e34 <_dtoa_r+0x6bc>
 8006e22:	459b      	cmp	fp, r3
 8006e24:	d10a      	bne.n	8006e3c <_dtoa_r+0x6c4>
 8006e26:	9b08      	ldr	r3, [sp, #32]
 8006e28:	3301      	adds	r3, #1
 8006e2a:	9308      	str	r3, [sp, #32]
 8006e2c:	2330      	movs	r3, #48	; 0x30
 8006e2e:	f88b 3000 	strb.w	r3, [fp]
 8006e32:	465b      	mov	r3, fp
 8006e34:	781a      	ldrb	r2, [r3, #0]
 8006e36:	3201      	adds	r2, #1
 8006e38:	701a      	strb	r2, [r3, #0]
 8006e3a:	e78c      	b.n	8006d56 <_dtoa_r+0x5de>
 8006e3c:	461d      	mov	r5, r3
 8006e3e:	e7ea      	b.n	8006e16 <_dtoa_r+0x69e>
 8006e40:	2200      	movs	r2, #0
 8006e42:	4b9b      	ldr	r3, [pc, #620]	; (80070b0 <_dtoa_r+0x938>)
 8006e44:	f7f9 fbf0 	bl	8000628 <__aeabi_dmul>
 8006e48:	2200      	movs	r2, #0
 8006e4a:	2300      	movs	r3, #0
 8006e4c:	4606      	mov	r6, r0
 8006e4e:	460f      	mov	r7, r1
 8006e50:	f7f9 fe52 	bl	8000af8 <__aeabi_dcmpeq>
 8006e54:	2800      	cmp	r0, #0
 8006e56:	d09a      	beq.n	8006d8e <_dtoa_r+0x616>
 8006e58:	e7cb      	b.n	8006df2 <_dtoa_r+0x67a>
 8006e5a:	9a0a      	ldr	r2, [sp, #40]	; 0x28
 8006e5c:	2a00      	cmp	r2, #0
 8006e5e:	f000 808b 	beq.w	8006f78 <_dtoa_r+0x800>
 8006e62:	9a06      	ldr	r2, [sp, #24]
 8006e64:	2a01      	cmp	r2, #1
 8006e66:	dc6e      	bgt.n	8006f46 <_dtoa_r+0x7ce>
 8006e68:	9a13      	ldr	r2, [sp, #76]	; 0x4c
 8006e6a:	2a00      	cmp	r2, #0
 8006e6c:	d067      	beq.n	8006f3e <_dtoa_r+0x7c6>
 8006e6e:	f203 4333 	addw	r3, r3, #1075	; 0x433
 8006e72:	9f07      	ldr	r7, [sp, #28]
 8006e74:	9d05      	ldr	r5, [sp, #20]
 8006e76:	9a05      	ldr	r2, [sp, #20]
 8006e78:	2101      	movs	r1, #1
 8006e7a:	441a      	add	r2, r3
 8006e7c:	4620      	mov	r0, r4
 8006e7e:	9205      	str	r2, [sp, #20]
 8006e80:	4498      	add	r8, r3
 8006e82:	f000 fb1b 	bl	80074bc <__i2b>
 8006e86:	4606      	mov	r6, r0
 8006e88:	2d00      	cmp	r5, #0
 8006e8a:	dd0c      	ble.n	8006ea6 <_dtoa_r+0x72e>
 8006e8c:	f1b8 0f00 	cmp.w	r8, #0
 8006e90:	dd09      	ble.n	8006ea6 <_dtoa_r+0x72e>
 8006e92:	4545      	cmp	r5, r8
 8006e94:	9a05      	ldr	r2, [sp, #20]
 8006e96:	462b      	mov	r3, r5
 8006e98:	bfa8      	it	ge
 8006e9a:	4643      	movge	r3, r8
 8006e9c:	1ad2      	subs	r2, r2, r3
 8006e9e:	9205      	str	r2, [sp, #20]
 8006ea0:	1aed      	subs	r5, r5, r3
 8006ea2:	eba8 0803 	sub.w	r8, r8, r3
 8006ea6:	9b07      	ldr	r3, [sp, #28]
 8006ea8:	b1eb      	cbz	r3, 8006ee6 <_dtoa_r+0x76e>
 8006eaa:	9b0a      	ldr	r3, [sp, #40]	; 0x28
 8006eac:	2b00      	cmp	r3, #0
 8006eae:	d067      	beq.n	8006f80 <_dtoa_r+0x808>
 8006eb0:	b18f      	cbz	r7, 8006ed6 <_dtoa_r+0x75e>
 8006eb2:	4631      	mov	r1, r6
 8006eb4:	463a      	mov	r2, r7
 8006eb6:	4620      	mov	r0, r4
 8006eb8:	f000 fba0 	bl	80075fc <__pow5mult>
 8006ebc:	9a04      	ldr	r2, [sp, #16]
 8006ebe:	4601      	mov	r1, r0
 8006ec0:	4606      	mov	r6, r0
 8006ec2:	4620      	mov	r0, r4
 8006ec4:	f000 fb03 	bl	80074ce <__multiply>
 8006ec8:	9904      	ldr	r1, [sp, #16]
 8006eca:	9008      	str	r0, [sp, #32]
 8006ecc:	4620      	mov	r0, r4
 8006ece:	f000 fa55 	bl	800737c <_Bfree>
 8006ed2:	9b08      	ldr	r3, [sp, #32]
 8006ed4:	9304      	str	r3, [sp, #16]
 8006ed6:	9b07      	ldr	r3, [sp, #28]
 8006ed8:	1bda      	subs	r2, r3, r7
 8006eda:	d004      	beq.n	8006ee6 <_dtoa_r+0x76e>
 8006edc:	9904      	ldr	r1, [sp, #16]
 8006ede:	4620      	mov	r0, r4
 8006ee0:	f000 fb8c 	bl	80075fc <__pow5mult>
 8006ee4:	9004      	str	r0, [sp, #16]
 8006ee6:	2101      	movs	r1, #1
 8006ee8:	4620      	mov	r0, r4
 8006eea:	f000 fae7 	bl	80074bc <__i2b>
 8006eee:	9b0e      	ldr	r3, [sp, #56]	; 0x38
 8006ef0:	4607      	mov	r7, r0
 8006ef2:	2b00      	cmp	r3, #0
 8006ef4:	f000 81d0 	beq.w	8007298 <_dtoa_r+0xb20>
 8006ef8:	461a      	mov	r2, r3
 8006efa:	4601      	mov	r1, r0
 8006efc:	4620      	mov	r0, r4
 8006efe:	f000 fb7d 	bl	80075fc <__pow5mult>
 8006f02:	9b06      	ldr	r3, [sp, #24]
 8006f04:	2b01      	cmp	r3, #1
 8006f06:	4607      	mov	r7, r0
 8006f08:	dc40      	bgt.n	8006f8c <_dtoa_r+0x814>
 8006f0a:	9b00      	ldr	r3, [sp, #0]
 8006f0c:	2b00      	cmp	r3, #0
 8006f0e:	d139      	bne.n	8006f84 <_dtoa_r+0x80c>
 8006f10:	9b01      	ldr	r3, [sp, #4]
 8006f12:	f3c3 0313 	ubfx	r3, r3, #0, #20
 8006f16:	2b00      	cmp	r3, #0
 8006f18:	d136      	bne.n	8006f88 <_dtoa_r+0x810>
 8006f1a:	9b01      	ldr	r3, [sp, #4]
 8006f1c:	f023 4300 	bic.w	r3, r3, #2147483648	; 0x80000000
 8006f20:	0d1b      	lsrs	r3, r3, #20
 8006f22:	051b      	lsls	r3, r3, #20
 8006f24:	b12b      	cbz	r3, 8006f32 <_dtoa_r+0x7ba>
 8006f26:	9b05      	ldr	r3, [sp, #20]
 8006f28:	3301      	adds	r3, #1
 8006f2a:	9305      	str	r3, [sp, #20]
 8006f2c:	f108 0801 	add.w	r8, r8, #1
 8006f30:	2301      	movs	r3, #1
 8006f32:	9307      	str	r3, [sp, #28]
 8006f34:	9b0e      	ldr	r3, [sp, #56]	; 0x38
 8006f36:	2b00      	cmp	r3, #0
 8006f38:	d12a      	bne.n	8006f90 <_dtoa_r+0x818>
 8006f3a:	2001      	movs	r0, #1
 8006f3c:	e030      	b.n	8006fa0 <_dtoa_r+0x828>
 8006f3e:	9b14      	ldr	r3, [sp, #80]	; 0x50
 8006f40:	f1c3 0336 	rsb	r3, r3, #54	; 0x36
 8006f44:	e795      	b.n	8006e72 <_dtoa_r+0x6fa>
 8006f46:	9b07      	ldr	r3, [sp, #28]
 8006f48:	f109 37ff 	add.w	r7, r9, #4294967295
 8006f4c:	42bb      	cmp	r3, r7
 8006f4e:	bfbf      	itttt	lt
 8006f50:	9b07      	ldrlt	r3, [sp, #28]
 8006f52:	9707      	strlt	r7, [sp, #28]
 8006f54:	1afa      	sublt	r2, r7, r3
 8006f56:	9b0e      	ldrlt	r3, [sp, #56]	; 0x38
 8006f58:	bfbb      	ittet	lt
 8006f5a:	189b      	addlt	r3, r3, r2
 8006f5c:	930e      	strlt	r3, [sp, #56]	; 0x38
 8006f5e:	1bdf      	subge	r7, r3, r7
 8006f60:	2700      	movlt	r7, #0
 8006f62:	f1b9 0f00 	cmp.w	r9, #0
 8006f66:	bfb5      	itete	lt
 8006f68:	9b05      	ldrlt	r3, [sp, #20]
 8006f6a:	9d05      	ldrge	r5, [sp, #20]
 8006f6c:	eba3 0509 	sublt.w	r5, r3, r9
 8006f70:	464b      	movge	r3, r9
 8006f72:	bfb8      	it	lt
 8006f74:	2300      	movlt	r3, #0
 8006f76:	e77e      	b.n	8006e76 <_dtoa_r+0x6fe>
 8006f78:	9f07      	ldr	r7, [sp, #28]
 8006f7a:	9d05      	ldr	r5, [sp, #20]
 8006f7c:	9e0a      	ldr	r6, [sp, #40]	; 0x28
 8006f7e:	e783      	b.n	8006e88 <_dtoa_r+0x710>
 8006f80:	9a07      	ldr	r2, [sp, #28]
 8006f82:	e7ab      	b.n	8006edc <_dtoa_r+0x764>
 8006f84:	2300      	movs	r3, #0
 8006f86:	e7d4      	b.n	8006f32 <_dtoa_r+0x7ba>
 8006f88:	9b00      	ldr	r3, [sp, #0]
 8006f8a:	e7d2      	b.n	8006f32 <_dtoa_r+0x7ba>
 8006f8c:	2300      	movs	r3, #0
 8006f8e:	9307      	str	r3, [sp, #28]
 8006f90:	693b      	ldr	r3, [r7, #16]
 8006f92:	eb07 0383 	add.w	r3, r7, r3, lsl #2
 8006f96:	6918      	ldr	r0, [r3, #16]
 8006f98:	f000 fa42 	bl	8007420 <__hi0bits>
 8006f9c:	f1c0 0020 	rsb	r0, r0, #32
 8006fa0:	4440      	add	r0, r8
 8006fa2:	f010 001f 	ands.w	r0, r0, #31
 8006fa6:	d047      	beq.n	8007038 <_dtoa_r+0x8c0>
 8006fa8:	f1c0 0320 	rsb	r3, r0, #32
 8006fac:	2b04      	cmp	r3, #4
 8006fae:	dd3b      	ble.n	8007028 <_dtoa_r+0x8b0>
 8006fb0:	9b05      	ldr	r3, [sp, #20]
 8006fb2:	f1c0 001c 	rsb	r0, r0, #28
 8006fb6:	4403      	add	r3, r0
 8006fb8:	9305      	str	r3, [sp, #20]
 8006fba:	4405      	add	r5, r0
 8006fbc:	4480      	add	r8, r0
 8006fbe:	9b05      	ldr	r3, [sp, #20]
 8006fc0:	2b00      	cmp	r3, #0
 8006fc2:	dd05      	ble.n	8006fd0 <_dtoa_r+0x858>
 8006fc4:	461a      	mov	r2, r3
 8006fc6:	9904      	ldr	r1, [sp, #16]
 8006fc8:	4620      	mov	r0, r4
 8006fca:	f000 fb65 	bl	8007698 <__lshift>
 8006fce:	9004      	str	r0, [sp, #16]
 8006fd0:	f1b8 0f00 	cmp.w	r8, #0
 8006fd4:	dd05      	ble.n	8006fe2 <_dtoa_r+0x86a>
 8006fd6:	4639      	mov	r1, r7
 8006fd8:	4642      	mov	r2, r8
 8006fda:	4620      	mov	r0, r4
 8006fdc:	f000 fb5c 	bl	8007698 <__lshift>
 8006fe0:	4607      	mov	r7, r0
 8006fe2:	9b0f      	ldr	r3, [sp, #60]	; 0x3c
 8006fe4:	b353      	cbz	r3, 800703c <_dtoa_r+0x8c4>
 8006fe6:	4639      	mov	r1, r7
 8006fe8:	9804      	ldr	r0, [sp, #16]
 8006fea:	f000 fba9 	bl	8007740 <__mcmp>
 8006fee:	2800      	cmp	r0, #0
 8006ff0:	da24      	bge.n	800703c <_dtoa_r+0x8c4>
 8006ff2:	2300      	movs	r3, #0
 8006ff4:	220a      	movs	r2, #10
 8006ff6:	9904      	ldr	r1, [sp, #16]
 8006ff8:	4620      	mov	r0, r4
 8006ffa:	f000 f9d6 	bl	80073aa <__multadd>
 8006ffe:	9b0a      	ldr	r3, [sp, #40]	; 0x28
 8007000:	9004      	str	r0, [sp, #16]
 8007002:	f10a 3aff 	add.w	sl, sl, #4294967295
 8007006:	2b00      	cmp	r3, #0
 8007008:	f000 814d 	beq.w	80072a6 <_dtoa_r+0xb2e>
 800700c:	2300      	movs	r3, #0
 800700e:	4631      	mov	r1, r6
 8007010:	220a      	movs	r2, #10
 8007012:	4620      	mov	r0, r4
 8007014:	f000 f9c9 	bl	80073aa <__multadd>
 8007018:	9b02      	ldr	r3, [sp, #8]
 800701a:	2b00      	cmp	r3, #0
 800701c:	4606      	mov	r6, r0
 800701e:	dc4f      	bgt.n	80070c0 <_dtoa_r+0x948>
 8007020:	9b06      	ldr	r3, [sp, #24]
 8007022:	2b02      	cmp	r3, #2
 8007024:	dd4c      	ble.n	80070c0 <_dtoa_r+0x948>
 8007026:	e011      	b.n	800704c <_dtoa_r+0x8d4>
 8007028:	d0c9      	beq.n	8006fbe <_dtoa_r+0x846>
 800702a:	9a05      	ldr	r2, [sp, #20]
 800702c:	331c      	adds	r3, #28
 800702e:	441a      	add	r2, r3
 8007030:	9205      	str	r2, [sp, #20]
 8007032:	441d      	add	r5, r3
 8007034:	4498      	add	r8, r3
 8007036:	e7c2      	b.n	8006fbe <_dtoa_r+0x846>
 8007038:	4603      	mov	r3, r0
 800703a:	e7f6      	b.n	800702a <_dtoa_r+0x8b2>
 800703c:	f1b9 0f00 	cmp.w	r9, #0
 8007040:	dc38      	bgt.n	80070b4 <_dtoa_r+0x93c>
 8007042:	9b06      	ldr	r3, [sp, #24]
 8007044:	2b02      	cmp	r3, #2
 8007046:	dd35      	ble.n	80070b4 <_dtoa_r+0x93c>
 8007048:	f8cd 9008 	str.w	r9, [sp, #8]
 800704c:	9b02      	ldr	r3, [sp, #8]
 800704e:	b963      	cbnz	r3, 800706a <_dtoa_r+0x8f2>
 8007050:	4639      	mov	r1, r7
 8007052:	2205      	movs	r2, #5
 8007054:	4620      	mov	r0, r4
 8007056:	f000 f9a8 	bl	80073aa <__multadd>
 800705a:	4601      	mov	r1, r0
 800705c:	4607      	mov	r7, r0
 800705e:	9804      	ldr	r0, [sp, #16]
 8007060:	f000 fb6e 	bl	8007740 <__mcmp>
 8007064:	2800      	cmp	r0, #0
 8007066:	f73f adcc 	bgt.w	8006c02 <_dtoa_r+0x48a>
 800706a:	9b0b      	ldr	r3, [sp, #44]	; 0x2c
 800706c:	465d      	mov	r5, fp
 800706e:	ea6f 0a03 	mvn.w	sl, r3
 8007072:	f04f 0900 	mov.w	r9, #0
 8007076:	4639      	mov	r1, r7
 8007078:	4620      	mov	r0, r4
 800707a:	f000 f97f 	bl	800737c <_Bfree>
 800707e:	2e00      	cmp	r6, #0
 8007080:	f43f aeb7 	beq.w	8006df2 <_dtoa_r+0x67a>
 8007084:	f1b9 0f00 	cmp.w	r9, #0
 8007088:	d005      	beq.n	8007096 <_dtoa_r+0x91e>
 800708a:	45b1      	cmp	r9, r6
 800708c:	d003      	beq.n	8007096 <_dtoa_r+0x91e>
 800708e:	4649      	mov	r1, r9
 8007090:	4620      	mov	r0, r4
 8007092:	f000 f973 	bl	800737c <_Bfree>
 8007096:	4631      	mov	r1, r6
 8007098:	4620      	mov	r0, r4
 800709a:	f000 f96f 	bl	800737c <_Bfree>
 800709e:	e6a8      	b.n	8006df2 <_dtoa_r+0x67a>
 80070a0:	2700      	movs	r7, #0
 80070a2:	463e      	mov	r6, r7
 80070a4:	e7e1      	b.n	800706a <_dtoa_r+0x8f2>
 80070a6:	f8dd a020 	ldr.w	sl, [sp, #32]
 80070aa:	463e      	mov	r6, r7
 80070ac:	e5a9      	b.n	8006c02 <_dtoa_r+0x48a>
 80070ae:	bf00      	nop
 80070b0:	40240000 	.word	0x40240000
 80070b4:	9b0a      	ldr	r3, [sp, #40]	; 0x28
 80070b6:	f8cd 9008 	str.w	r9, [sp, #8]
 80070ba:	2b00      	cmp	r3, #0
 80070bc:	f000 80fa 	beq.w	80072b4 <_dtoa_r+0xb3c>
 80070c0:	2d00      	cmp	r5, #0
 80070c2:	dd05      	ble.n	80070d0 <_dtoa_r+0x958>
 80070c4:	4631      	mov	r1, r6
 80070c6:	462a      	mov	r2, r5
 80070c8:	4620      	mov	r0, r4
 80070ca:	f000 fae5 	bl	8007698 <__lshift>
 80070ce:	4606      	mov	r6, r0
 80070d0:	9b07      	ldr	r3, [sp, #28]
 80070d2:	2b00      	cmp	r3, #0
 80070d4:	d04c      	beq.n	8007170 <_dtoa_r+0x9f8>
 80070d6:	6871      	ldr	r1, [r6, #4]
 80070d8:	4620      	mov	r0, r4
 80070da:	f000 f91b 	bl	8007314 <_Balloc>
 80070de:	6932      	ldr	r2, [r6, #16]
 80070e0:	3202      	adds	r2, #2
 80070e2:	4605      	mov	r5, r0
 80070e4:	0092      	lsls	r2, r2, #2
 80070e6:	f106 010c 	add.w	r1, r6, #12
 80070ea:	300c      	adds	r0, #12
 80070ec:	f7fe fe18 	bl	8005d20 <memcpy>
 80070f0:	2201      	movs	r2, #1
 80070f2:	4629      	mov	r1, r5
 80070f4:	4620      	mov	r0, r4
 80070f6:	f000 facf 	bl	8007698 <__lshift>
 80070fa:	9b00      	ldr	r3, [sp, #0]
 80070fc:	f8cd b014 	str.w	fp, [sp, #20]
 8007100:	f003 0301 	and.w	r3, r3, #1
 8007104:	46b1      	mov	r9, r6
 8007106:	9307      	str	r3, [sp, #28]
 8007108:	4606      	mov	r6, r0
 800710a:	4639      	mov	r1, r7
 800710c:	9804      	ldr	r0, [sp, #16]
 800710e:	f7ff faa4 	bl	800665a <quorem>
 8007112:	4649      	mov	r1, r9
 8007114:	4605      	mov	r5, r0
 8007116:	f100 0830 	add.w	r8, r0, #48	; 0x30
 800711a:	9804      	ldr	r0, [sp, #16]
 800711c:	f000 fb10 	bl	8007740 <__mcmp>
 8007120:	4632      	mov	r2, r6
 8007122:	9000      	str	r0, [sp, #0]
 8007124:	4639      	mov	r1, r7
 8007126:	4620      	mov	r0, r4
 8007128:	f000 fb24 	bl	8007774 <__mdiff>
 800712c:	68c3      	ldr	r3, [r0, #12]
 800712e:	4602      	mov	r2, r0
 8007130:	bb03      	cbnz	r3, 8007174 <_dtoa_r+0x9fc>
 8007132:	4601      	mov	r1, r0
 8007134:	9008      	str	r0, [sp, #32]
 8007136:	9804      	ldr	r0, [sp, #16]
 8007138:	f000 fb02 	bl	8007740 <__mcmp>
 800713c:	9a08      	ldr	r2, [sp, #32]
 800713e:	4603      	mov	r3, r0
 8007140:	4611      	mov	r1, r2
 8007142:	4620      	mov	r0, r4
 8007144:	9308      	str	r3, [sp, #32]
 8007146:	f000 f919 	bl	800737c <_Bfree>
 800714a:	9b08      	ldr	r3, [sp, #32]
 800714c:	b9a3      	cbnz	r3, 8007178 <_dtoa_r+0xa00>
 800714e:	9a06      	ldr	r2, [sp, #24]
 8007150:	b992      	cbnz	r2, 8007178 <_dtoa_r+0xa00>
 8007152:	9a07      	ldr	r2, [sp, #28]
 8007154:	b982      	cbnz	r2, 8007178 <_dtoa_r+0xa00>
 8007156:	f1b8 0f39 	cmp.w	r8, #57	; 0x39
 800715a:	d029      	beq.n	80071b0 <_dtoa_r+0xa38>
 800715c:	9b00      	ldr	r3, [sp, #0]
 800715e:	2b00      	cmp	r3, #0
 8007160:	dd01      	ble.n	8007166 <_dtoa_r+0x9ee>
 8007162:	f105 0831 	add.w	r8, r5, #49	; 0x31
 8007166:	9b05      	ldr	r3, [sp, #20]
 8007168:	1c5d      	adds	r5, r3, #1
 800716a:	f883 8000 	strb.w	r8, [r3]
 800716e:	e782      	b.n	8007076 <_dtoa_r+0x8fe>
 8007170:	4630      	mov	r0, r6
 8007172:	e7c2      	b.n	80070fa <_dtoa_r+0x982>
 8007174:	2301      	movs	r3, #1
 8007176:	e7e3      	b.n	8007140 <_dtoa_r+0x9c8>
 8007178:	9a00      	ldr	r2, [sp, #0]
 800717a:	2a00      	cmp	r2, #0
 800717c:	db04      	blt.n	8007188 <_dtoa_r+0xa10>
 800717e:	d125      	bne.n	80071cc <_dtoa_r+0xa54>
 8007180:	9a06      	ldr	r2, [sp, #24]
 8007182:	bb1a      	cbnz	r2, 80071cc <_dtoa_r+0xa54>
 8007184:	9a07      	ldr	r2, [sp, #28]
 8007186:	bb0a      	cbnz	r2, 80071cc <_dtoa_r+0xa54>
 8007188:	2b00      	cmp	r3, #0
 800718a:	ddec      	ble.n	8007166 <_dtoa_r+0x9ee>
 800718c:	2201      	movs	r2, #1
 800718e:	9904      	ldr	r1, [sp, #16]
 8007190:	4620      	mov	r0, r4
 8007192:	f000 fa81 	bl	8007698 <__lshift>
 8007196:	4639      	mov	r1, r7
 8007198:	9004      	str	r0, [sp, #16]
 800719a:	f000 fad1 	bl	8007740 <__mcmp>
 800719e:	2800      	cmp	r0, #0
 80071a0:	dc03      	bgt.n	80071aa <_dtoa_r+0xa32>
 80071a2:	d1e0      	bne.n	8007166 <_dtoa_r+0x9ee>
 80071a4:	f018 0f01 	tst.w	r8, #1
 80071a8:	d0dd      	beq.n	8007166 <_dtoa_r+0x9ee>
 80071aa:	f1b8 0f39 	cmp.w	r8, #57	; 0x39
 80071ae:	d1d8      	bne.n	8007162 <_dtoa_r+0x9ea>
 80071b0:	9b05      	ldr	r3, [sp, #20]
 80071b2:	9a05      	ldr	r2, [sp, #20]
 80071b4:	1c5d      	adds	r5, r3, #1
 80071b6:	2339      	movs	r3, #57	; 0x39
 80071b8:	7013      	strb	r3, [r2, #0]
 80071ba:	f815 3c01 	ldrb.w	r3, [r5, #-1]
 80071be:	2b39      	cmp	r3, #57	; 0x39
 80071c0:	f105 32ff 	add.w	r2, r5, #4294967295
 80071c4:	d04f      	beq.n	8007266 <_dtoa_r+0xaee>
 80071c6:	3301      	adds	r3, #1
 80071c8:	7013      	strb	r3, [r2, #0]
 80071ca:	e754      	b.n	8007076 <_dtoa_r+0x8fe>
 80071cc:	9a05      	ldr	r2, [sp, #20]
 80071ce:	2b00      	cmp	r3, #0
 80071d0:	f102 0501 	add.w	r5, r2, #1
 80071d4:	dd06      	ble.n	80071e4 <_dtoa_r+0xa6c>
 80071d6:	f1b8 0f39 	cmp.w	r8, #57	; 0x39
 80071da:	d0e9      	beq.n	80071b0 <_dtoa_r+0xa38>
 80071dc:	f108 0801 	add.w	r8, r8, #1
 80071e0:	9b05      	ldr	r3, [sp, #20]
 80071e2:	e7c2      	b.n	800716a <_dtoa_r+0x9f2>
 80071e4:	9a02      	ldr	r2, [sp, #8]
 80071e6:	f805 8c01 	strb.w	r8, [r5, #-1]
 80071ea:	eba5 030b 	sub.w	r3, r5, fp
 80071ee:	4293      	cmp	r3, r2
 80071f0:	d021      	beq.n	8007236 <_dtoa_r+0xabe>
 80071f2:	2300      	movs	r3, #0
 80071f4:	220a      	movs	r2, #10
 80071f6:	9904      	ldr	r1, [sp, #16]
 80071f8:	4620      	mov	r0, r4
 80071fa:	f000 f8d6 	bl	80073aa <__multadd>
 80071fe:	45b1      	cmp	r9, r6
 8007200:	9004      	str	r0, [sp, #16]
 8007202:	f04f 0300 	mov.w	r3, #0
 8007206:	f04f 020a 	mov.w	r2, #10
 800720a:	4649      	mov	r1, r9
 800720c:	4620      	mov	r0, r4
 800720e:	d105      	bne.n	800721c <_dtoa_r+0xaa4>
 8007210:	f000 f8cb 	bl	80073aa <__multadd>
 8007214:	4681      	mov	r9, r0
 8007216:	4606      	mov	r6, r0
 8007218:	9505      	str	r5, [sp, #20]
 800721a:	e776      	b.n	800710a <_dtoa_r+0x992>
 800721c:	f000 f8c5 	bl	80073aa <__multadd>
 8007220:	4631      	mov	r1, r6
 8007222:	4681      	mov	r9, r0
 8007224:	2300      	movs	r3, #0
 8007226:	220a      	movs	r2, #10
 8007228:	4620      	mov	r0, r4
 800722a:	f000 f8be 	bl	80073aa <__multadd>
 800722e:	4606      	mov	r6, r0
 8007230:	e7f2      	b.n	8007218 <_dtoa_r+0xaa0>
 8007232:	f04f 0900 	mov.w	r9, #0
 8007236:	2201      	movs	r2, #1
 8007238:	9904      	ldr	r1, [sp, #16]
 800723a:	4620      	mov	r0, r4
 800723c:	f000 fa2c 	bl	8007698 <__lshift>
 8007240:	4639      	mov	r1, r7
 8007242:	9004      	str	r0, [sp, #16]
 8007244:	f000 fa7c 	bl	8007740 <__mcmp>
 8007248:	2800      	cmp	r0, #0
 800724a:	dcb6      	bgt.n	80071ba <_dtoa_r+0xa42>
 800724c:	d102      	bne.n	8007254 <_dtoa_r+0xadc>
 800724e:	f018 0f01 	tst.w	r8, #1
 8007252:	d1b2      	bne.n	80071ba <_dtoa_r+0xa42>
 8007254:	f815 3c01 	ldrb.w	r3, [r5, #-1]
 8007258:	2b30      	cmp	r3, #48	; 0x30
 800725a:	f105 32ff 	add.w	r2, r5, #4294967295
 800725e:	f47f af0a 	bne.w	8007076 <_dtoa_r+0x8fe>
 8007262:	4615      	mov	r5, r2
 8007264:	e7f6      	b.n	8007254 <_dtoa_r+0xadc>
 8007266:	4593      	cmp	fp, r2
 8007268:	d105      	bne.n	8007276 <_dtoa_r+0xafe>
 800726a:	2331      	movs	r3, #49	; 0x31
 800726c:	f10a 0a01 	add.w	sl, sl, #1
 8007270:	f88b 3000 	strb.w	r3, [fp]
 8007274:	e6ff      	b.n	8007076 <_dtoa_r+0x8fe>
 8007276:	4615      	mov	r5, r2
 8007278:	e79f      	b.n	80071ba <_dtoa_r+0xa42>
 800727a:	f8df b064 	ldr.w	fp, [pc, #100]	; 80072e0 <_dtoa_r+0xb68>
 800727e:	e007      	b.n	8007290 <_dtoa_r+0xb18>
 8007280:	9b21      	ldr	r3, [sp, #132]	; 0x84
 8007282:	f8df b060 	ldr.w	fp, [pc, #96]	; 80072e4 <_dtoa_r+0xb6c>
 8007286:	b11b      	cbz	r3, 8007290 <_dtoa_r+0xb18>
 8007288:	f10b 0308 	add.w	r3, fp, #8
 800728c:	9a21      	ldr	r2, [sp, #132]	; 0x84
 800728e:	6013      	str	r3, [r2, #0]
 8007290:	4658      	mov	r0, fp
 8007292:	b017      	add	sp, #92	; 0x5c
 8007294:	e8bd 8ff0 	ldmia.w	sp!, {r4, r5, r6, r7, r8, r9, sl, fp, pc}
 8007298:	9b06      	ldr	r3, [sp, #24]
 800729a:	2b01      	cmp	r3, #1
 800729c:	f77f ae35 	ble.w	8006f0a <_dtoa_r+0x792>
 80072a0:	9b0e      	ldr	r3, [sp, #56]	; 0x38
 80072a2:	9307      	str	r3, [sp, #28]
 80072a4:	e649      	b.n	8006f3a <_dtoa_r+0x7c2>
 80072a6:	9b02      	ldr	r3, [sp, #8]
 80072a8:	2b00      	cmp	r3, #0
 80072aa:	dc03      	bgt.n	80072b4 <_dtoa_r+0xb3c>
 80072ac:	9b06      	ldr	r3, [sp, #24]
 80072ae:	2b02      	cmp	r3, #2
 80072b0:	f73f aecc 	bgt.w	800704c <_dtoa_r+0x8d4>
 80072b4:	465d      	mov	r5, fp
 80072b6:	4639      	mov	r1, r7
 80072b8:	9804      	ldr	r0, [sp, #16]
 80072ba:	f7ff f9ce 	bl	800665a <quorem>
 80072be:	f100 0830 	add.w	r8, r0, #48	; 0x30
 80072c2:	f805 8b01 	strb.w	r8, [r5], #1
 80072c6:	9a02      	ldr	r2, [sp, #8]
 80072c8:	eba5 030b 	sub.w	r3, r5, fp
 80072cc:	429a      	cmp	r2, r3
 80072ce:	ddb0      	ble.n	8007232 <_dtoa_r+0xaba>
 80072d0:	2300      	movs	r3, #0
 80072d2:	220a      	movs	r2, #10
 80072d4:	9904      	ldr	r1, [sp, #16]
 80072d6:	4620      	mov	r0, r4
 80072d8:	f000 f867 	bl	80073aa <__multadd>
 80072dc:	9004      	str	r0, [sp, #16]
 80072de:	e7ea      	b.n	80072b6 <_dtoa_r+0xb3e>
 80072e0:	08016d9e 	.word	0x08016d9e
 80072e4:	08016ec3 	.word	0x08016ec3

080072e8 <_localeconv_r>:
 80072e8:	4b04      	ldr	r3, [pc, #16]	; (80072fc <_localeconv_r+0x14>)
 80072ea:	681b      	ldr	r3, [r3, #0]
 80072ec:	6a18      	ldr	r0, [r3, #32]
 80072ee:	4b04      	ldr	r3, [pc, #16]	; (8007300 <_localeconv_r+0x18>)
 80072f0:	2800      	cmp	r0, #0
 80072f2:	bf08      	it	eq
 80072f4:	4618      	moveq	r0, r3
 80072f6:	30f0      	adds	r0, #240	; 0xf0
 80072f8:	4770      	bx	lr
 80072fa:	bf00      	nop
 80072fc:	2000000c 	.word	0x2000000c
 8007300:	20000070 	.word	0x20000070

08007304 <malloc>:
 8007304:	4b02      	ldr	r3, [pc, #8]	; (8007310 <malloc+0xc>)
 8007306:	4601      	mov	r1, r0
 8007308:	6818      	ldr	r0, [r3, #0]
 800730a:	f000 bb3b 	b.w	8007984 <_malloc_r>
 800730e:	bf00      	nop
 8007310:	2000000c 	.word	0x2000000c

08007314 <_Balloc>:
 8007314:	b570      	push	{r4, r5, r6, lr}
 8007316:	6a45      	ldr	r5, [r0, #36]	; 0x24
 8007318:	4604      	mov	r4, r0
 800731a:	460e      	mov	r6, r1
 800731c:	b93d      	cbnz	r5, 800732e <_Balloc+0x1a>
 800731e:	2010      	movs	r0, #16
 8007320:	f7ff fff0 	bl	8007304 <malloc>
 8007324:	6260      	str	r0, [r4, #36]	; 0x24
 8007326:	e9c0 5501 	strd	r5, r5, [r0, #4]
 800732a:	6005      	str	r5, [r0, #0]
 800732c:	60c5      	str	r5, [r0, #12]
 800732e:	6a65      	ldr	r5, [r4, #36]	; 0x24
 8007330:	68eb      	ldr	r3, [r5, #12]
 8007332:	b183      	cbz	r3, 8007356 <_Balloc+0x42>
 8007334:	6a63      	ldr	r3, [r4, #36]	; 0x24
 8007336:	68db      	ldr	r3, [r3, #12]
 8007338:	f853 0026 	ldr.w	r0, [r3, r6, lsl #2]
 800733c:	b9b8      	cbnz	r0, 800736e <_Balloc+0x5a>
 800733e:	2101      	movs	r1, #1
 8007340:	fa01 f506 	lsl.w	r5, r1, r6
 8007344:	1d6a      	adds	r2, r5, #5
 8007346:	0092      	lsls	r2, r2, #2
 8007348:	4620      	mov	r0, r4
 800734a:	f000 fabf 	bl	80078cc <_calloc_r>
 800734e:	b160      	cbz	r0, 800736a <_Balloc+0x56>
 8007350:	e9c0 6501 	strd	r6, r5, [r0, #4]
 8007354:	e00e      	b.n	8007374 <_Balloc+0x60>
 8007356:	2221      	movs	r2, #33	; 0x21
 8007358:	2104      	movs	r1, #4
 800735a:	4620      	mov	r0, r4
 800735c:	f000 fab6 	bl	80078cc <_calloc_r>
 8007360:	6a63      	ldr	r3, [r4, #36]	; 0x24
 8007362:	60e8      	str	r0, [r5, #12]
 8007364:	68db      	ldr	r3, [r3, #12]
 8007366:	2b00      	cmp	r3, #0
 8007368:	d1e4      	bne.n	8007334 <_Balloc+0x20>
 800736a:	2000      	movs	r0, #0
 800736c:	bd70      	pop	{r4, r5, r6, pc}
 800736e:	6802      	ldr	r2, [r0, #0]
 8007370:	f843 2026 	str.w	r2, [r3, r6, lsl #2]
 8007374:	2300      	movs	r3, #0
 8007376:	e9c0 3303 	strd	r3, r3, [r0, #12]
 800737a:	e7f7      	b.n	800736c <_Balloc+0x58>

0800737c <_Bfree>:
 800737c:	b570      	push	{r4, r5, r6, lr}
 800737e:	6a44      	ldr	r4, [r0, #36]	; 0x24
 8007380:	4606      	mov	r6, r0
 8007382:	460d      	mov	r5, r1
 8007384:	b93c      	cbnz	r4, 8007396 <_Bfree+0x1a>
 8007386:	2010      	movs	r0, #16
 8007388:	f7ff ffbc 	bl	8007304 <malloc>
 800738c:	6270      	str	r0, [r6, #36]	; 0x24
 800738e:	e9c0 4401 	strd	r4, r4, [r0, #4]
 8007392:	6004      	str	r4, [r0, #0]
 8007394:	60c4      	str	r4, [r0, #12]
 8007396:	b13d      	cbz	r5, 80073a8 <_Bfree+0x2c>
 8007398:	6a73      	ldr	r3, [r6, #36]	; 0x24
 800739a:	686a      	ldr	r2, [r5, #4]
 800739c:	68db      	ldr	r3, [r3, #12]
 800739e:	f853 1022 	ldr.w	r1, [r3, r2, lsl #2]
 80073a2:	6029      	str	r1, [r5, #0]
 80073a4:	f843 5022 	str.w	r5, [r3, r2, lsl #2]
 80073a8:	bd70      	pop	{r4, r5, r6, pc}

080073aa <__multadd>:
 80073aa:	e92d 41f0 	stmdb	sp!, {r4, r5, r6, r7, r8, lr}
 80073ae:	690d      	ldr	r5, [r1, #16]
 80073b0:	461f      	mov	r7, r3
 80073b2:	4606      	mov	r6, r0
 80073b4:	460c      	mov	r4, r1
 80073b6:	f101 0c14 	add.w	ip, r1, #20
 80073ba:	2300      	movs	r3, #0
 80073bc:	f8dc 0000 	ldr.w	r0, [ip]
 80073c0:	b281      	uxth	r1, r0
 80073c2:	fb02 7101 	mla	r1, r2, r1, r7
 80073c6:	0c0f      	lsrs	r7, r1, #16
 80073c8:	0c00      	lsrs	r0, r0, #16
 80073ca:	fb02 7000 	mla	r0, r2, r0, r7
 80073ce:	b289      	uxth	r1, r1
 80073d0:	3301      	adds	r3, #1
 80073d2:	eb01 4100 	add.w	r1, r1, r0, lsl #16
 80073d6:	429d      	cmp	r5, r3
 80073d8:	ea4f 4710 	mov.w	r7, r0, lsr #16
 80073dc:	f84c 1b04 	str.w	r1, [ip], #4
 80073e0:	dcec      	bgt.n	80073bc <__multadd+0x12>
 80073e2:	b1d7      	cbz	r7, 800741a <__multadd+0x70>
 80073e4:	68a3      	ldr	r3, [r4, #8]
 80073e6:	42ab      	cmp	r3, r5
 80073e8:	dc12      	bgt.n	8007410 <__multadd+0x66>
 80073ea:	6861      	ldr	r1, [r4, #4]
 80073ec:	4630      	mov	r0, r6
 80073ee:	3101      	adds	r1, #1
 80073f0:	f7ff ff90 	bl	8007314 <_Balloc>
 80073f4:	6922      	ldr	r2, [r4, #16]
 80073f6:	3202      	adds	r2, #2
 80073f8:	f104 010c 	add.w	r1, r4, #12
 80073fc:	4680      	mov	r8, r0
 80073fe:	0092      	lsls	r2, r2, #2
 8007400:	300c      	adds	r0, #12
 8007402:	f7fe fc8d 	bl	8005d20 <memcpy>
 8007406:	4621      	mov	r1, r4
 8007408:	4630      	mov	r0, r6
 800740a:	f7ff ffb7 	bl	800737c <_Bfree>
 800740e:	4644      	mov	r4, r8
 8007410:	eb04 0385 	add.w	r3, r4, r5, lsl #2
 8007414:	3501      	adds	r5, #1
 8007416:	615f      	str	r7, [r3, #20]
 8007418:	6125      	str	r5, [r4, #16]
 800741a:	4620      	mov	r0, r4
 800741c:	e8bd 81f0 	ldmia.w	sp!, {r4, r5, r6, r7, r8, pc}

08007420 <__hi0bits>:
 8007420:	0c02      	lsrs	r2, r0, #16
 8007422:	0412      	lsls	r2, r2, #16
 8007424:	4603      	mov	r3, r0
 8007426:	b9b2      	cbnz	r2, 8007456 <__hi0bits+0x36>
 8007428:	0403      	lsls	r3, r0, #16
 800742a:	2010      	movs	r0, #16
 800742c:	f013 4f7f 	tst.w	r3, #4278190080	; 0xff000000
 8007430:	bf04      	itt	eq
 8007432:	021b      	lsleq	r3, r3, #8
 8007434:	3008      	addeq	r0, #8
 8007436:	f013 4f70 	tst.w	r3, #4026531840	; 0xf0000000
 800743a:	bf04      	itt	eq
 800743c:	011b      	lsleq	r3, r3, #4
 800743e:	3004      	addeq	r0, #4
 8007440:	f013 4f40 	tst.w	r3, #3221225472	; 0xc0000000
 8007444:	bf04      	itt	eq
 8007446:	009b      	lsleq	r3, r3, #2
 8007448:	3002      	addeq	r0, #2
 800744a:	2b00      	cmp	r3, #0
 800744c:	db06      	blt.n	800745c <__hi0bits+0x3c>
 800744e:	005b      	lsls	r3, r3, #1
 8007450:	d503      	bpl.n	800745a <__hi0bits+0x3a>
 8007452:	3001      	adds	r0, #1
 8007454:	4770      	bx	lr
 8007456:	2000      	movs	r0, #0
 8007458:	e7e8      	b.n	800742c <__hi0bits+0xc>
 800745a:	2020      	movs	r0, #32
 800745c:	4770      	bx	lr

0800745e <__lo0bits>:
 800745e:	6803      	ldr	r3, [r0, #0]
 8007460:	f013 0207 	ands.w	r2, r3, #7
 8007464:	4601      	mov	r1, r0
 8007466:	d00b      	beq.n	8007480 <__lo0bits+0x22>
 8007468:	07da      	lsls	r2, r3, #31
 800746a:	d423      	bmi.n	80074b4 <__lo0bits+0x56>
 800746c:	0798      	lsls	r0, r3, #30
 800746e:	bf49      	itett	mi
 8007470:	085b      	lsrmi	r3, r3, #1
 8007472:	089b      	lsrpl	r3, r3, #2
 8007474:	2001      	movmi	r0, #1
 8007476:	600b      	strmi	r3, [r1, #0]
 8007478:	bf5c      	itt	pl
 800747a:	600b      	strpl	r3, [r1, #0]
 800747c:	2002      	movpl	r0, #2
 800747e:	4770      	bx	lr
 8007480:	b298      	uxth	r0, r3
 8007482:	b9a8      	cbnz	r0, 80074b0 <__lo0bits+0x52>
 8007484:	0c1b      	lsrs	r3, r3, #16
 8007486:	2010      	movs	r0, #16
 8007488:	f013 0fff 	tst.w	r3, #255	; 0xff
 800748c:	bf04      	itt	eq
 800748e:	0a1b      	lsreq	r3, r3, #8
 8007490:	3008      	addeq	r0, #8
 8007492:	071a      	lsls	r2, r3, #28
 8007494:	bf04      	itt	eq
 8007496:	091b      	lsreq	r3, r3, #4
 8007498:	3004      	addeq	r0, #4
 800749a:	079a      	lsls	r2, r3, #30
 800749c:	bf04      	itt	eq
 800749e:	089b      	lsreq	r3, r3, #2
 80074a0:	3002      	addeq	r0, #2
 80074a2:	07da      	lsls	r2, r3, #31
 80074a4:	d402      	bmi.n	80074ac <__lo0bits+0x4e>
 80074a6:	085b      	lsrs	r3, r3, #1
 80074a8:	d006      	beq.n	80074b8 <__lo0bits+0x5a>
 80074aa:	3001      	adds	r0, #1
 80074ac:	600b      	str	r3, [r1, #0]
 80074ae:	4770      	bx	lr
 80074b0:	4610      	mov	r0, r2
 80074b2:	e7e9      	b.n	8007488 <__lo0bits+0x2a>
 80074b4:	2000      	movs	r0, #0
 80074b6:	4770      	bx	lr
 80074b8:	2020      	movs	r0, #32
 80074ba:	4770      	bx	lr

080074bc <__i2b>:
 80074bc:	b510      	push	{r4, lr}
 80074be:	460c      	mov	r4, r1
 80074c0:	2101      	movs	r1, #1
 80074c2:	f7ff ff27 	bl	8007314 <_Balloc>
 80074c6:	2201      	movs	r2, #1
 80074c8:	6144      	str	r4, [r0, #20]
 80074ca:	6102      	str	r2, [r0, #16]
 80074cc:	bd10      	pop	{r4, pc}

080074ce <__multiply>:
 80074ce:	e92d 4ff7 	stmdb	sp!, {r0, r1, r2, r4, r5, r6, r7, r8, r9, sl, fp, lr}
 80074d2:	4614      	mov	r4, r2
 80074d4:	690a      	ldr	r2, [r1, #16]
 80074d6:	6923      	ldr	r3, [r4, #16]
 80074d8:	429a      	cmp	r2, r3
 80074da:	bfb8      	it	lt
 80074dc:	460b      	movlt	r3, r1
 80074de:	4688      	mov	r8, r1
 80074e0:	bfbc      	itt	lt
 80074e2:	46a0      	movlt	r8, r4
 80074e4:	461c      	movlt	r4, r3
 80074e6:	f8d8 7010 	ldr.w	r7, [r8, #16]
 80074ea:	f8d4 9010 	ldr.w	r9, [r4, #16]
 80074ee:	f8d8 3008 	ldr.w	r3, [r8, #8]
 80074f2:	f8d8 1004 	ldr.w	r1, [r8, #4]
 80074f6:	eb07 0609 	add.w	r6, r7, r9
 80074fa:	42b3      	cmp	r3, r6
 80074fc:	bfb8      	it	lt
 80074fe:	3101      	addlt	r1, #1
 8007500:	f7ff ff08 	bl	8007314 <_Balloc>
 8007504:	f100 0514 	add.w	r5, r0, #20
 8007508:	eb05 0e86 	add.w	lr, r5, r6, lsl #2
 800750c:	462b      	mov	r3, r5
 800750e:	2200      	movs	r2, #0
 8007510:	4573      	cmp	r3, lr
 8007512:	d316      	bcc.n	8007542 <__multiply+0x74>
 8007514:	f104 0214 	add.w	r2, r4, #20
 8007518:	f108 0114 	add.w	r1, r8, #20
 800751c:	eb02 0389 	add.w	r3, r2, r9, lsl #2
 8007520:	eb01 0787 	add.w	r7, r1, r7, lsl #2
 8007524:	9300      	str	r3, [sp, #0]
 8007526:	9b00      	ldr	r3, [sp, #0]
 8007528:	9201      	str	r2, [sp, #4]
 800752a:	4293      	cmp	r3, r2
 800752c:	d80c      	bhi.n	8007548 <__multiply+0x7a>
 800752e:	2e00      	cmp	r6, #0
 8007530:	dd03      	ble.n	800753a <__multiply+0x6c>
 8007532:	f85e 3d04 	ldr.w	r3, [lr, #-4]!
 8007536:	2b00      	cmp	r3, #0
 8007538:	d05d      	beq.n	80075f6 <__multiply+0x128>
 800753a:	6106      	str	r6, [r0, #16]
 800753c:	b003      	add	sp, #12
 800753e:	e8bd 8ff0 	ldmia.w	sp!, {r4, r5, r6, r7, r8, r9, sl, fp, pc}
 8007542:	f843 2b04 	str.w	r2, [r3], #4
 8007546:	e7e3      	b.n	8007510 <__multiply+0x42>
 8007548:	f8b2 b000 	ldrh.w	fp, [r2]
 800754c:	f1bb 0f00 	cmp.w	fp, #0
 8007550:	d023      	beq.n	800759a <__multiply+0xcc>
 8007552:	4689      	mov	r9, r1
 8007554:	46ac      	mov	ip, r5
 8007556:	f04f 0800 	mov.w	r8, #0
 800755a:	f859 4b04 	ldr.w	r4, [r9], #4
 800755e:	f8dc a000 	ldr.w	sl, [ip]
 8007562:	b2a3      	uxth	r3, r4
 8007564:	fa1f fa8a 	uxth.w	sl, sl
 8007568:	fb0b a303 	mla	r3, fp, r3, sl
 800756c:	ea4f 4a14 	mov.w	sl, r4, lsr #16
 8007570:	f8dc 4000 	ldr.w	r4, [ip]
 8007574:	4443      	add	r3, r8
 8007576:	ea4f 4814 	mov.w	r8, r4, lsr #16
 800757a:	fb0b 840a 	mla	r4, fp, sl, r8
 800757e:	eb04 4413 	add.w	r4, r4, r3, lsr #16
 8007582:	46e2      	mov	sl, ip
 8007584:	b29b      	uxth	r3, r3
 8007586:	ea43 4304 	orr.w	r3, r3, r4, lsl #16
 800758a:	454f      	cmp	r7, r9
 800758c:	ea4f 4814 	mov.w	r8, r4, lsr #16
 8007590:	f84a 3b04 	str.w	r3, [sl], #4
 8007594:	d82b      	bhi.n	80075ee <__multiply+0x120>
 8007596:	f8cc 8004 	str.w	r8, [ip, #4]
 800759a:	9b01      	ldr	r3, [sp, #4]
 800759c:	f8b3 a002 	ldrh.w	sl, [r3, #2]
 80075a0:	3204      	adds	r2, #4
 80075a2:	f1ba 0f00 	cmp.w	sl, #0
 80075a6:	d020      	beq.n	80075ea <__multiply+0x11c>
 80075a8:	682b      	ldr	r3, [r5, #0]
 80075aa:	4689      	mov	r9, r1
 80075ac:	46a8      	mov	r8, r5
 80075ae:	f04f 0b00 	mov.w	fp, #0
 80075b2:	f8b9 c000 	ldrh.w	ip, [r9]
 80075b6:	f8b8 4002 	ldrh.w	r4, [r8, #2]
 80075ba:	fb0a 440c 	mla	r4, sl, ip, r4
 80075be:	445c      	add	r4, fp
 80075c0:	46c4      	mov	ip, r8
 80075c2:	b29b      	uxth	r3, r3
 80075c4:	ea43 4304 	orr.w	r3, r3, r4, lsl #16
 80075c8:	f84c 3b04 	str.w	r3, [ip], #4
 80075cc:	f859 3b04 	ldr.w	r3, [r9], #4
 80075d0:	f8b8 b004 	ldrh.w	fp, [r8, #4]
 80075d4:	0c1b      	lsrs	r3, r3, #16
 80075d6:	fb0a b303 	mla	r3, sl, r3, fp
 80075da:	eb03 4314 	add.w	r3, r3, r4, lsr #16
 80075de:	454f      	cmp	r7, r9
 80075e0:	ea4f 4b13 	mov.w	fp, r3, lsr #16
 80075e4:	d805      	bhi.n	80075f2 <__multiply+0x124>
 80075e6:	f8c8 3004 	str.w	r3, [r8, #4]
 80075ea:	3504      	adds	r5, #4
 80075ec:	e79b      	b.n	8007526 <__multiply+0x58>
 80075ee:	46d4      	mov	ip, sl
 80075f0:	e7b3      	b.n	800755a <__multiply+0x8c>
 80075f2:	46e0      	mov	r8, ip
 80075f4:	e7dd      	b.n	80075b2 <__multiply+0xe4>
 80075f6:	3e01      	subs	r6, #1
 80075f8:	e799      	b.n	800752e <__multiply+0x60>
	...

080075fc <__pow5mult>:
 80075fc:	e92d 43f8 	stmdb	sp!, {r3, r4, r5, r6, r7, r8, r9, lr}
 8007600:	4615      	mov	r5, r2
 8007602:	f012 0203 	ands.w	r2, r2, #3
 8007606:	4606      	mov	r6, r0
 8007608:	460f      	mov	r7, r1
 800760a:	d007      	beq.n	800761c <__pow5mult+0x20>
 800760c:	3a01      	subs	r2, #1
 800760e:	4c21      	ldr	r4, [pc, #132]	; (8007694 <__pow5mult+0x98>)
 8007610:	2300      	movs	r3, #0
 8007612:	f854 2022 	ldr.w	r2, [r4, r2, lsl #2]
 8007616:	f7ff fec8 	bl	80073aa <__multadd>
 800761a:	4607      	mov	r7, r0
 800761c:	10ad      	asrs	r5, r5, #2
 800761e:	d035      	beq.n	800768c <__pow5mult+0x90>
 8007620:	6a74      	ldr	r4, [r6, #36]	; 0x24
 8007622:	b93c      	cbnz	r4, 8007634 <__pow5mult+0x38>
 8007624:	2010      	movs	r0, #16
 8007626:	f7ff fe6d 	bl	8007304 <malloc>
 800762a:	6270      	str	r0, [r6, #36]	; 0x24
 800762c:	e9c0 4401 	strd	r4, r4, [r0, #4]
 8007630:	6004      	str	r4, [r0, #0]
 8007632:	60c4      	str	r4, [r0, #12]
 8007634:	f8d6 8024 	ldr.w	r8, [r6, #36]	; 0x24
 8007638:	f8d8 4008 	ldr.w	r4, [r8, #8]
 800763c:	b94c      	cbnz	r4, 8007652 <__pow5mult+0x56>
 800763e:	f240 2171 	movw	r1, #625	; 0x271
 8007642:	4630      	mov	r0, r6
 8007644:	f7ff ff3a 	bl	80074bc <__i2b>
 8007648:	2300      	movs	r3, #0
 800764a:	f8c8 0008 	str.w	r0, [r8, #8]
 800764e:	4604      	mov	r4, r0
 8007650:	6003      	str	r3, [r0, #0]
 8007652:	f04f 0800 	mov.w	r8, #0
 8007656:	07eb      	lsls	r3, r5, #31
 8007658:	d50a      	bpl.n	8007670 <__pow5mult+0x74>
 800765a:	4639      	mov	r1, r7
 800765c:	4622      	mov	r2, r4
 800765e:	4630      	mov	r0, r6
 8007660:	f7ff ff35 	bl	80074ce <__multiply>
 8007664:	4639      	mov	r1, r7
 8007666:	4681      	mov	r9, r0
 8007668:	4630      	mov	r0, r6
 800766a:	f7ff fe87 	bl	800737c <_Bfree>
 800766e:	464f      	mov	r7, r9
 8007670:	106d      	asrs	r5, r5, #1
 8007672:	d00b      	beq.n	800768c <__pow5mult+0x90>
 8007674:	6820      	ldr	r0, [r4, #0]
 8007676:	b938      	cbnz	r0, 8007688 <__pow5mult+0x8c>
 8007678:	4622      	mov	r2, r4
 800767a:	4621      	mov	r1, r4
 800767c:	4630      	mov	r0, r6
 800767e:	f7ff ff26 	bl	80074ce <__multiply>
 8007682:	6020      	str	r0, [r4, #0]
 8007684:	f8c0 8000 	str.w	r8, [r0]
 8007688:	4604      	mov	r4, r0
 800768a:	e7e4      	b.n	8007656 <__pow5mult+0x5a>
 800768c:	4638      	mov	r0, r7
 800768e:	e8bd 83f8 	ldmia.w	sp!, {r3, r4, r5, r6, r7, r8, r9, pc}
 8007692:	bf00      	nop
 8007694:	08016fc0 	.word	0x08016fc0

08007698 <__lshift>:
 8007698:	e92d 47f0 	stmdb	sp!, {r4, r5, r6, r7, r8, r9, sl, lr}
 800769c:	460c      	mov	r4, r1
 800769e:	ea4f 1a62 	mov.w	sl, r2, asr #5
 80076a2:	6923      	ldr	r3, [r4, #16]
 80076a4:	6849      	ldr	r1, [r1, #4]
 80076a6:	eb0a 0903 	add.w	r9, sl, r3
 80076aa:	68a3      	ldr	r3, [r4, #8]
 80076ac:	4607      	mov	r7, r0
 80076ae:	4616      	mov	r6, r2
 80076b0:	f109 0501 	add.w	r5, r9, #1
 80076b4:	42ab      	cmp	r3, r5
 80076b6:	db32      	blt.n	800771e <__lshift+0x86>
 80076b8:	4638      	mov	r0, r7
 80076ba:	f7ff fe2b 	bl	8007314 <_Balloc>
 80076be:	2300      	movs	r3, #0
 80076c0:	4680      	mov	r8, r0
 80076c2:	f100 0114 	add.w	r1, r0, #20
 80076c6:	461a      	mov	r2, r3
 80076c8:	4553      	cmp	r3, sl
 80076ca:	db2b      	blt.n	8007724 <__lshift+0x8c>
 80076cc:	6920      	ldr	r0, [r4, #16]
 80076ce:	ea2a 7aea 	bic.w	sl, sl, sl, asr #31
 80076d2:	f104 0314 	add.w	r3, r4, #20
 80076d6:	f016 021f 	ands.w	r2, r6, #31
 80076da:	eb01 018a 	add.w	r1, r1, sl, lsl #2
 80076de:	eb03 0c80 	add.w	ip, r3, r0, lsl #2
 80076e2:	d025      	beq.n	8007730 <__lshift+0x98>
 80076e4:	f1c2 0e20 	rsb	lr, r2, #32
 80076e8:	2000      	movs	r0, #0
 80076ea:	681e      	ldr	r6, [r3, #0]
 80076ec:	468a      	mov	sl, r1
 80076ee:	4096      	lsls	r6, r2
 80076f0:	4330      	orrs	r0, r6
 80076f2:	f84a 0b04 	str.w	r0, [sl], #4
 80076f6:	f853 0b04 	ldr.w	r0, [r3], #4
 80076fa:	459c      	cmp	ip, r3
 80076fc:	fa20 f00e 	lsr.w	r0, r0, lr
 8007700:	d814      	bhi.n	800772c <__lshift+0x94>
 8007702:	6048      	str	r0, [r1, #4]
 8007704:	b108      	cbz	r0, 800770a <__lshift+0x72>
 8007706:	f109 0502 	add.w	r5, r9, #2
 800770a:	3d01      	subs	r5, #1
 800770c:	4638      	mov	r0, r7
 800770e:	f8c8 5010 	str.w	r5, [r8, #16]
 8007712:	4621      	mov	r1, r4
 8007714:	f7ff fe32 	bl	800737c <_Bfree>
 8007718:	4640      	mov	r0, r8
 800771a:	e8bd 87f0 	ldmia.w	sp!, {r4, r5, r6, r7, r8, r9, sl, pc}
 800771e:	3101      	adds	r1, #1
 8007720:	005b      	lsls	r3, r3, #1
 8007722:	e7c7      	b.n	80076b4 <__lshift+0x1c>
 8007724:	f841 2023 	str.w	r2, [r1, r3, lsl #2]
 8007728:	3301      	adds	r3, #1
 800772a:	e7cd      	b.n	80076c8 <__lshift+0x30>
 800772c:	4651      	mov	r1, sl
 800772e:	e7dc      	b.n	80076ea <__lshift+0x52>
 8007730:	3904      	subs	r1, #4
 8007732:	f853 2b04 	ldr.w	r2, [r3], #4
 8007736:	f841 2f04 	str.w	r2, [r1, #4]!
 800773a:	459c      	cmp	ip, r3
 800773c:	d8f9      	bhi.n	8007732 <__lshift+0x9a>
 800773e:	e7e4      	b.n	800770a <__lshift+0x72>

08007740 <__mcmp>:
 8007740:	6903      	ldr	r3, [r0, #16]
 8007742:	690a      	ldr	r2, [r1, #16]
 8007744:	1a9b      	subs	r3, r3, r2
 8007746:	b530      	push	{r4, r5, lr}
 8007748:	d10c      	bne.n	8007764 <__mcmp+0x24>
 800774a:	0092      	lsls	r2, r2, #2
 800774c:	3014      	adds	r0, #20
 800774e:	3114      	adds	r1, #20
 8007750:	1884      	adds	r4, r0, r2
 8007752:	4411      	add	r1, r2
 8007754:	f854 5d04 	ldr.w	r5, [r4, #-4]!
 8007758:	f851 2d04 	ldr.w	r2, [r1, #-4]!
 800775c:	4295      	cmp	r5, r2
 800775e:	d003      	beq.n	8007768 <__mcmp+0x28>
 8007760:	d305      	bcc.n	800776e <__mcmp+0x2e>
 8007762:	2301      	movs	r3, #1
 8007764:	4618      	mov	r0, r3
 8007766:	bd30      	pop	{r4, r5, pc}
 8007768:	42a0      	cmp	r0, r4
 800776a:	d3f3      	bcc.n	8007754 <__mcmp+0x14>
 800776c:	e7fa      	b.n	8007764 <__mcmp+0x24>
 800776e:	f04f 33ff 	mov.w	r3, #4294967295
 8007772:	e7f7      	b.n	8007764 <__mcmp+0x24>

08007774 <__mdiff>:
 8007774:	e92d 47f0 	stmdb	sp!, {r4, r5, r6, r7, r8, r9, sl, lr}
 8007778:	460d      	mov	r5, r1
 800777a:	4607      	mov	r7, r0
 800777c:	4611      	mov	r1, r2
 800777e:	4628      	mov	r0, r5
 8007780:	4614      	mov	r4, r2
 8007782:	f7ff ffdd 	bl	8007740 <__mcmp>
 8007786:	1e06      	subs	r6, r0, #0
 8007788:	d108      	bne.n	800779c <__mdiff+0x28>
 800778a:	4631      	mov	r1, r6
 800778c:	4638      	mov	r0, r7
 800778e:	f7ff fdc1 	bl	8007314 <_Balloc>
 8007792:	2301      	movs	r3, #1
 8007794:	e9c0 3604 	strd	r3, r6, [r0, #16]
 8007798:	e8bd 87f0 	ldmia.w	sp!, {r4, r5, r6, r7, r8, r9, sl, pc}
 800779c:	bfa4      	itt	ge
 800779e:	4623      	movge	r3, r4
 80077a0:	462c      	movge	r4, r5
 80077a2:	4638      	mov	r0, r7
 80077a4:	6861      	ldr	r1, [r4, #4]
 80077a6:	bfa6      	itte	ge
 80077a8:	461d      	movge	r5, r3
 80077aa:	2600      	movge	r6, #0
 80077ac:	2601      	movlt	r6, #1
 80077ae:	f7ff fdb1 	bl	8007314 <_Balloc>
 80077b2:	692b      	ldr	r3, [r5, #16]
 80077b4:	60c6      	str	r6, [r0, #12]
 80077b6:	6926      	ldr	r6, [r4, #16]
 80077b8:	f105 0914 	add.w	r9, r5, #20
 80077bc:	f104 0214 	add.w	r2, r4, #20
 80077c0:	eb02 0786 	add.w	r7, r2, r6, lsl #2
 80077c4:	eb09 0883 	add.w	r8, r9, r3, lsl #2
 80077c8:	f100 0514 	add.w	r5, r0, #20
 80077cc:	f04f 0e00 	mov.w	lr, #0
 80077d0:	f852 ab04 	ldr.w	sl, [r2], #4
 80077d4:	f859 4b04 	ldr.w	r4, [r9], #4
 80077d8:	fa1e f18a 	uxtah	r1, lr, sl
 80077dc:	b2a3      	uxth	r3, r4
 80077de:	1ac9      	subs	r1, r1, r3
 80077e0:	0c23      	lsrs	r3, r4, #16
 80077e2:	ebc3 431a 	rsb	r3, r3, sl, lsr #16
 80077e6:	eb03 4321 	add.w	r3, r3, r1, asr #16
 80077ea:	b289      	uxth	r1, r1
 80077ec:	ea4f 4e23 	mov.w	lr, r3, asr #16
 80077f0:	45c8      	cmp	r8, r9
 80077f2:	ea41 4303 	orr.w	r3, r1, r3, lsl #16
 80077f6:	4694      	mov	ip, r2
 80077f8:	f845 3b04 	str.w	r3, [r5], #4
 80077fc:	d8e8      	bhi.n	80077d0 <__mdiff+0x5c>
 80077fe:	45bc      	cmp	ip, r7
 8007800:	d304      	bcc.n	800780c <__mdiff+0x98>
 8007802:	f855 3d04 	ldr.w	r3, [r5, #-4]!
 8007806:	b183      	cbz	r3, 800782a <__mdiff+0xb6>
 8007808:	6106      	str	r6, [r0, #16]
 800780a:	e7c5      	b.n	8007798 <__mdiff+0x24>
 800780c:	f85c 1b04 	ldr.w	r1, [ip], #4
 8007810:	fa1e f381 	uxtah	r3, lr, r1
 8007814:	141a      	asrs	r2, r3, #16
 8007816:	eb02 4211 	add.w	r2, r2, r1, lsr #16
 800781a:	b29b      	uxth	r3, r3
 800781c:	ea43 4302 	orr.w	r3, r3, r2, lsl #16
 8007820:	ea4f 4e22 	mov.w	lr, r2, asr #16
 8007824:	f845 3b04 	str.w	r3, [r5], #4
 8007828:	e7e9      	b.n	80077fe <__mdiff+0x8a>
 800782a:	3e01      	subs	r6, #1
 800782c:	e7e9      	b.n	8007802 <__mdiff+0x8e>

0800782e <__d2b>:
 800782e:	e92d 43f7 	stmdb	sp!, {r0, r1, r2, r4, r5, r6, r7, r8, r9, lr}
 8007832:	460e      	mov	r6, r1
 8007834:	2101      	movs	r1, #1
 8007836:	ec59 8b10 	vmov	r8, r9, d0
 800783a:	4615      	mov	r5, r2
 800783c:	f7ff fd6a 	bl	8007314 <_Balloc>
 8007840:	f3c9 540a 	ubfx	r4, r9, #20, #11
 8007844:	4607      	mov	r7, r0
 8007846:	f3c9 0313 	ubfx	r3, r9, #0, #20
 800784a:	bb34      	cbnz	r4, 800789a <__d2b+0x6c>
 800784c:	9301      	str	r3, [sp, #4]
 800784e:	f1b8 0300 	subs.w	r3, r8, #0
 8007852:	d027      	beq.n	80078a4 <__d2b+0x76>
 8007854:	a802      	add	r0, sp, #8
 8007856:	f840 3d08 	str.w	r3, [r0, #-8]!
 800785a:	f7ff fe00 	bl	800745e <__lo0bits>
 800785e:	9900      	ldr	r1, [sp, #0]
 8007860:	b1f0      	cbz	r0, 80078a0 <__d2b+0x72>
 8007862:	9a01      	ldr	r2, [sp, #4]
 8007864:	f1c0 0320 	rsb	r3, r0, #32
 8007868:	fa02 f303 	lsl.w	r3, r2, r3
 800786c:	430b      	orrs	r3, r1
 800786e:	40c2      	lsrs	r2, r0
 8007870:	617b      	str	r3, [r7, #20]
 8007872:	9201      	str	r2, [sp, #4]
 8007874:	9b01      	ldr	r3, [sp, #4]
 8007876:	61bb      	str	r3, [r7, #24]
 8007878:	2b00      	cmp	r3, #0
 800787a:	bf14      	ite	ne
 800787c:	2102      	movne	r1, #2
 800787e:	2101      	moveq	r1, #1
 8007880:	6139      	str	r1, [r7, #16]
 8007882:	b1c4      	cbz	r4, 80078b6 <__d2b+0x88>
 8007884:	f2a4 4433 	subw	r4, r4, #1075	; 0x433
 8007888:	4404      	add	r4, r0
 800788a:	6034      	str	r4, [r6, #0]
 800788c:	f1c0 0035 	rsb	r0, r0, #53	; 0x35
 8007890:	6028      	str	r0, [r5, #0]
 8007892:	4638      	mov	r0, r7
 8007894:	b003      	add	sp, #12
 8007896:	e8bd 83f0 	ldmia.w	sp!, {r4, r5, r6, r7, r8, r9, pc}
 800789a:	f443 1380 	orr.w	r3, r3, #1048576	; 0x100000
 800789e:	e7d5      	b.n	800784c <__d2b+0x1e>
 80078a0:	6179      	str	r1, [r7, #20]
 80078a2:	e7e7      	b.n	8007874 <__d2b+0x46>
 80078a4:	a801      	add	r0, sp, #4
 80078a6:	f7ff fdda 	bl	800745e <__lo0bits>
 80078aa:	9b01      	ldr	r3, [sp, #4]
 80078ac:	617b      	str	r3, [r7, #20]
 80078ae:	2101      	movs	r1, #1
 80078b0:	6139      	str	r1, [r7, #16]
 80078b2:	3020      	adds	r0, #32
 80078b4:	e7e5      	b.n	8007882 <__d2b+0x54>
 80078b6:	eb07 0381 	add.w	r3, r7, r1, lsl #2
 80078ba:	f2a0 4032 	subw	r0, r0, #1074	; 0x432
 80078be:	6030      	str	r0, [r6, #0]
 80078c0:	6918      	ldr	r0, [r3, #16]
 80078c2:	f7ff fdad 	bl	8007420 <__hi0bits>
 80078c6:	ebc0 1041 	rsb	r0, r0, r1, lsl #5
 80078ca:	e7e1      	b.n	8007890 <__d2b+0x62>

080078cc <_calloc_r>:
 80078cc:	b538      	push	{r3, r4, r5, lr}
 80078ce:	fb02 f401 	mul.w	r4, r2, r1
 80078d2:	4621      	mov	r1, r4
 80078d4:	f000 f856 	bl	8007984 <_malloc_r>
 80078d8:	4605      	mov	r5, r0
 80078da:	b118      	cbz	r0, 80078e4 <_calloc_r+0x18>
 80078dc:	4622      	mov	r2, r4
 80078de:	2100      	movs	r1, #0
 80078e0:	f7fe fa29 	bl	8005d36 <memset>
 80078e4:	4628      	mov	r0, r5
 80078e6:	bd38      	pop	{r3, r4, r5, pc}

080078e8 <_free_r>:
 80078e8:	b538      	push	{r3, r4, r5, lr}
 80078ea:	4605      	mov	r5, r0
 80078ec:	2900      	cmp	r1, #0
 80078ee:	d045      	beq.n	800797c <_free_r+0x94>
 80078f0:	f851 3c04 	ldr.w	r3, [r1, #-4]
 80078f4:	1f0c      	subs	r4, r1, #4
 80078f6:	2b00      	cmp	r3, #0
 80078f8:	bfb8      	it	lt
 80078fa:	18e4      	addlt	r4, r4, r3
 80078fc:	f000 fa17 	bl	8007d2e <__malloc_lock>
 8007900:	4a1f      	ldr	r2, [pc, #124]	; (8007980 <_free_r+0x98>)
 8007902:	6813      	ldr	r3, [r2, #0]
 8007904:	4610      	mov	r0, r2
 8007906:	b933      	cbnz	r3, 8007916 <_free_r+0x2e>
 8007908:	6063      	str	r3, [r4, #4]
 800790a:	6014      	str	r4, [r2, #0]
 800790c:	4628      	mov	r0, r5
 800790e:	e8bd 4038 	ldmia.w	sp!, {r3, r4, r5, lr}
 8007912:	f000 ba0d 	b.w	8007d30 <__malloc_unlock>
 8007916:	42a3      	cmp	r3, r4
 8007918:	d90c      	bls.n	8007934 <_free_r+0x4c>
 800791a:	6821      	ldr	r1, [r4, #0]
 800791c:	1862      	adds	r2, r4, r1
 800791e:	4293      	cmp	r3, r2
 8007920:	bf04      	itt	eq
 8007922:	681a      	ldreq	r2, [r3, #0]
 8007924:	685b      	ldreq	r3, [r3, #4]
 8007926:	6063      	str	r3, [r4, #4]
 8007928:	bf04      	itt	eq
 800792a:	1852      	addeq	r2, r2, r1
 800792c:	6022      	streq	r2, [r4, #0]
 800792e:	6004      	str	r4, [r0, #0]
 8007930:	e7ec      	b.n	800790c <_free_r+0x24>
 8007932:	4613      	mov	r3, r2
 8007934:	685a      	ldr	r2, [r3, #4]
 8007936:	b10a      	cbz	r2, 800793c <_free_r+0x54>
 8007938:	42a2      	cmp	r2, r4
 800793a:	d9fa      	bls.n	8007932 <_free_r+0x4a>
 800793c:	6819      	ldr	r1, [r3, #0]
 800793e:	1858      	adds	r0, r3, r1
 8007940:	42a0      	cmp	r0, r4
 8007942:	d10b      	bne.n	800795c <_free_r+0x74>
 8007944:	6820      	ldr	r0, [r4, #0]
 8007946:	4401      	add	r1, r0
 8007948:	1858      	adds	r0, r3, r1
 800794a:	4282      	cmp	r2, r0
 800794c:	6019      	str	r1, [r3, #0]
 800794e:	d1dd      	bne.n	800790c <_free_r+0x24>
 8007950:	6810      	ldr	r0, [r2, #0]
 8007952:	6852      	ldr	r2, [r2, #4]
 8007954:	605a      	str	r2, [r3, #4]
 8007956:	4401      	add	r1, r0
 8007958:	6019      	str	r1, [r3, #0]
 800795a:	e7d7      	b.n	800790c <_free_r+0x24>
 800795c:	d902      	bls.n	8007964 <_free_r+0x7c>
 800795e:	230c      	movs	r3, #12
 8007960:	602b      	str	r3, [r5, #0]
 8007962:	e7d3      	b.n	800790c <_free_r+0x24>
 8007964:	6820      	ldr	r0, [r4, #0]
 8007966:	1821      	adds	r1, r4, r0
 8007968:	428a      	cmp	r2, r1
 800796a:	bf04      	itt	eq
 800796c:	6811      	ldreq	r1, [r2, #0]
 800796e:	6852      	ldreq	r2, [r2, #4]
 8007970:	6062      	str	r2, [r4, #4]
 8007972:	bf04      	itt	eq
 8007974:	1809      	addeq	r1, r1, r0
 8007976:	6021      	streq	r1, [r4, #0]
 8007978:	605c      	str	r4, [r3, #4]
 800797a:	e7c7      	b.n	800790c <_free_r+0x24>
 800797c:	bd38      	pop	{r3, r4, r5, pc}
 800797e:	bf00      	nop
 8007980:	20000428 	.word	0x20000428

08007984 <_malloc_r>:
 8007984:	b570      	push	{r4, r5, r6, lr}
 8007986:	1ccd      	adds	r5, r1, #3
 8007988:	f025 0503 	bic.w	r5, r5, #3
 800798c:	3508      	adds	r5, #8
 800798e:	2d0c      	cmp	r5, #12
 8007990:	bf38      	it	cc
 8007992:	250c      	movcc	r5, #12
 8007994:	2d00      	cmp	r5, #0
 8007996:	4606      	mov	r6, r0
 8007998:	db01      	blt.n	800799e <_malloc_r+0x1a>
 800799a:	42a9      	cmp	r1, r5
 800799c:	d903      	bls.n	80079a6 <_malloc_r+0x22>
 800799e:	230c      	movs	r3, #12
 80079a0:	6033      	str	r3, [r6, #0]
 80079a2:	2000      	movs	r0, #0
 80079a4:	bd70      	pop	{r4, r5, r6, pc}
 80079a6:	f000 f9c2 	bl	8007d2e <__malloc_lock>
 80079aa:	4a21      	ldr	r2, [pc, #132]	; (8007a30 <_malloc_r+0xac>)
 80079ac:	6814      	ldr	r4, [r2, #0]
 80079ae:	4621      	mov	r1, r4
 80079b0:	b991      	cbnz	r1, 80079d8 <_malloc_r+0x54>
 80079b2:	4c20      	ldr	r4, [pc, #128]	; (8007a34 <_malloc_r+0xb0>)
 80079b4:	6823      	ldr	r3, [r4, #0]
 80079b6:	b91b      	cbnz	r3, 80079c0 <_malloc_r+0x3c>
 80079b8:	4630      	mov	r0, r6
 80079ba:	f000 f98f 	bl	8007cdc <_sbrk_r>
 80079be:	6020      	str	r0, [r4, #0]
 80079c0:	4629      	mov	r1, r5
 80079c2:	4630      	mov	r0, r6
 80079c4:	f000 f98a 	bl	8007cdc <_sbrk_r>
 80079c8:	1c43      	adds	r3, r0, #1
 80079ca:	d124      	bne.n	8007a16 <_malloc_r+0x92>
 80079cc:	230c      	movs	r3, #12
 80079ce:	6033      	str	r3, [r6, #0]
 80079d0:	4630      	mov	r0, r6
 80079d2:	f000 f9ad 	bl	8007d30 <__malloc_unlock>
 80079d6:	e7e4      	b.n	80079a2 <_malloc_r+0x1e>
 80079d8:	680b      	ldr	r3, [r1, #0]
 80079da:	1b5b      	subs	r3, r3, r5
 80079dc:	d418      	bmi.n	8007a10 <_malloc_r+0x8c>
 80079de:	2b0b      	cmp	r3, #11
 80079e0:	d90f      	bls.n	8007a02 <_malloc_r+0x7e>
 80079e2:	600b      	str	r3, [r1, #0]
 80079e4:	50cd      	str	r5, [r1, r3]
 80079e6:	18cc      	adds	r4, r1, r3
 80079e8:	4630      	mov	r0, r6
 80079ea:	f000 f9a1 	bl	8007d30 <__malloc_unlock>
 80079ee:	f104 000b 	add.w	r0, r4, #11
 80079f2:	1d23      	adds	r3, r4, #4
 80079f4:	f020 0007 	bic.w	r0, r0, #7
 80079f8:	1ac3      	subs	r3, r0, r3
 80079fa:	d0d3      	beq.n	80079a4 <_malloc_r+0x20>
 80079fc:	425a      	negs	r2, r3
 80079fe:	50e2      	str	r2, [r4, r3]
 8007a00:	e7d0      	b.n	80079a4 <_malloc_r+0x20>
 8007a02:	428c      	cmp	r4, r1
 8007a04:	684b      	ldr	r3, [r1, #4]
 8007a06:	bf16      	itet	ne
 8007a08:	6063      	strne	r3, [r4, #4]
 8007a0a:	6013      	streq	r3, [r2, #0]
 8007a0c:	460c      	movne	r4, r1
 8007a0e:	e7eb      	b.n	80079e8 <_malloc_r+0x64>
 8007a10:	460c      	mov	r4, r1
 8007a12:	6849      	ldr	r1, [r1, #4]
 8007a14:	e7cc      	b.n	80079b0 <_malloc_r+0x2c>
 8007a16:	1cc4      	adds	r4, r0, #3
 8007a18:	f024 0403 	bic.w	r4, r4, #3
 8007a1c:	42a0      	cmp	r0, r4
 8007a1e:	d005      	beq.n	8007a2c <_malloc_r+0xa8>
 8007a20:	1a21      	subs	r1, r4, r0
 8007a22:	4630      	mov	r0, r6
 8007a24:	f000 f95a 	bl	8007cdc <_sbrk_r>
 8007a28:	3001      	adds	r0, #1
 8007a2a:	d0cf      	beq.n	80079cc <_malloc_r+0x48>
 8007a2c:	6025      	str	r5, [r4, #0]
 8007a2e:	e7db      	b.n	80079e8 <_malloc_r+0x64>
 8007a30:	20000428 	.word	0x20000428
 8007a34:	2000042c 	.word	0x2000042c

08007a38 <__ssputs_r>:
 8007a38:	e92d 47f0 	stmdb	sp!, {r4, r5, r6, r7, r8, r9, sl, lr}
 8007a3c:	688e      	ldr	r6, [r1, #8]
 8007a3e:	429e      	cmp	r6, r3
 8007a40:	4682      	mov	sl, r0
 8007a42:	460c      	mov	r4, r1
 8007a44:	4690      	mov	r8, r2
 8007a46:	4699      	mov	r9, r3
 8007a48:	d837      	bhi.n	8007aba <__ssputs_r+0x82>
 8007a4a:	898a      	ldrh	r2, [r1, #12]
 8007a4c:	f412 6f90 	tst.w	r2, #1152	; 0x480
 8007a50:	d031      	beq.n	8007ab6 <__ssputs_r+0x7e>
 8007a52:	6825      	ldr	r5, [r4, #0]
 8007a54:	6909      	ldr	r1, [r1, #16]
 8007a56:	1a6f      	subs	r7, r5, r1
 8007a58:	6965      	ldr	r5, [r4, #20]
 8007a5a:	2302      	movs	r3, #2
 8007a5c:	eb05 0545 	add.w	r5, r5, r5, lsl #1
 8007a60:	fb95 f5f3 	sdiv	r5, r5, r3
 8007a64:	f109 0301 	add.w	r3, r9, #1
 8007a68:	443b      	add	r3, r7
 8007a6a:	429d      	cmp	r5, r3
 8007a6c:	bf38      	it	cc
 8007a6e:	461d      	movcc	r5, r3
 8007a70:	0553      	lsls	r3, r2, #21
 8007a72:	d530      	bpl.n	8007ad6 <__ssputs_r+0x9e>
 8007a74:	4629      	mov	r1, r5
 8007a76:	f7ff ff85 	bl	8007984 <_malloc_r>
 8007a7a:	4606      	mov	r6, r0
 8007a7c:	b950      	cbnz	r0, 8007a94 <__ssputs_r+0x5c>
 8007a7e:	230c      	movs	r3, #12
 8007a80:	f8ca 3000 	str.w	r3, [sl]
 8007a84:	89a3      	ldrh	r3, [r4, #12]
 8007a86:	f043 0340 	orr.w	r3, r3, #64	; 0x40
 8007a8a:	81a3      	strh	r3, [r4, #12]
 8007a8c:	f04f 30ff 	mov.w	r0, #4294967295
 8007a90:	e8bd 87f0 	ldmia.w	sp!, {r4, r5, r6, r7, r8, r9, sl, pc}
 8007a94:	463a      	mov	r2, r7
 8007a96:	6921      	ldr	r1, [r4, #16]
 8007a98:	f7fe f942 	bl	8005d20 <memcpy>
 8007a9c:	89a3      	ldrh	r3, [r4, #12]
 8007a9e:	f423 6390 	bic.w	r3, r3, #1152	; 0x480
 8007aa2:	f043 0380 	orr.w	r3, r3, #128	; 0x80
 8007aa6:	81a3      	strh	r3, [r4, #12]
 8007aa8:	6126      	str	r6, [r4, #16]
 8007aaa:	6165      	str	r5, [r4, #20]
 8007aac:	443e      	add	r6, r7
 8007aae:	1bed      	subs	r5, r5, r7
 8007ab0:	6026      	str	r6, [r4, #0]
 8007ab2:	60a5      	str	r5, [r4, #8]
 8007ab4:	464e      	mov	r6, r9
 8007ab6:	454e      	cmp	r6, r9
 8007ab8:	d900      	bls.n	8007abc <__ssputs_r+0x84>
 8007aba:	464e      	mov	r6, r9
 8007abc:	4632      	mov	r2, r6
 8007abe:	4641      	mov	r1, r8
 8007ac0:	6820      	ldr	r0, [r4, #0]
 8007ac2:	f000 f91b 	bl	8007cfc <memmove>
 8007ac6:	68a3      	ldr	r3, [r4, #8]
 8007ac8:	1b9b      	subs	r3, r3, r6
 8007aca:	60a3      	str	r3, [r4, #8]
 8007acc:	6823      	ldr	r3, [r4, #0]
 8007ace:	441e      	add	r6, r3
 8007ad0:	6026      	str	r6, [r4, #0]
 8007ad2:	2000      	movs	r0, #0
 8007ad4:	e7dc      	b.n	8007a90 <__ssputs_r+0x58>
 8007ad6:	462a      	mov	r2, r5
 8007ad8:	f000 f92b 	bl	8007d32 <_realloc_r>
 8007adc:	4606      	mov	r6, r0
 8007ade:	2800      	cmp	r0, #0
 8007ae0:	d1e2      	bne.n	8007aa8 <__ssputs_r+0x70>
 8007ae2:	6921      	ldr	r1, [r4, #16]
 8007ae4:	4650      	mov	r0, sl
 8007ae6:	f7ff feff 	bl	80078e8 <_free_r>
 8007aea:	e7c8      	b.n	8007a7e <__ssputs_r+0x46>

08007aec <_svfiprintf_r>:
 8007aec:	e92d 4ff0 	stmdb	sp!, {r4, r5, r6, r7, r8, r9, sl, fp, lr}
 8007af0:	461d      	mov	r5, r3
 8007af2:	898b      	ldrh	r3, [r1, #12]
 8007af4:	061f      	lsls	r7, r3, #24
 8007af6:	b09d      	sub	sp, #116	; 0x74
 8007af8:	4680      	mov	r8, r0
 8007afa:	460c      	mov	r4, r1
 8007afc:	4616      	mov	r6, r2
 8007afe:	d50f      	bpl.n	8007b20 <_svfiprintf_r+0x34>
 8007b00:	690b      	ldr	r3, [r1, #16]
 8007b02:	b96b      	cbnz	r3, 8007b20 <_svfiprintf_r+0x34>
 8007b04:	2140      	movs	r1, #64	; 0x40
 8007b06:	f7ff ff3d 	bl	8007984 <_malloc_r>
 8007b0a:	6020      	str	r0, [r4, #0]
 8007b0c:	6120      	str	r0, [r4, #16]
 8007b0e:	b928      	cbnz	r0, 8007b1c <_svfiprintf_r+0x30>
 8007b10:	230c      	movs	r3, #12
 8007b12:	f8c8 3000 	str.w	r3, [r8]
 8007b16:	f04f 30ff 	mov.w	r0, #4294967295
 8007b1a:	e0c8      	b.n	8007cae <_svfiprintf_r+0x1c2>
 8007b1c:	2340      	movs	r3, #64	; 0x40
 8007b1e:	6163      	str	r3, [r4, #20]
 8007b20:	2300      	movs	r3, #0
 8007b22:	9309      	str	r3, [sp, #36]	; 0x24
 8007b24:	2320      	movs	r3, #32
 8007b26:	f88d 3029 	strb.w	r3, [sp, #41]	; 0x29
 8007b2a:	2330      	movs	r3, #48	; 0x30
 8007b2c:	f88d 302a 	strb.w	r3, [sp, #42]	; 0x2a
 8007b30:	9503      	str	r5, [sp, #12]
 8007b32:	f04f 0b01 	mov.w	fp, #1
 8007b36:	4637      	mov	r7, r6
 8007b38:	463d      	mov	r5, r7
 8007b3a:	f815 3b01 	ldrb.w	r3, [r5], #1
 8007b3e:	b10b      	cbz	r3, 8007b44 <_svfiprintf_r+0x58>
 8007b40:	2b25      	cmp	r3, #37	; 0x25
 8007b42:	d13e      	bne.n	8007bc2 <_svfiprintf_r+0xd6>
 8007b44:	ebb7 0a06 	subs.w	sl, r7, r6
 8007b48:	d00b      	beq.n	8007b62 <_svfiprintf_r+0x76>
 8007b4a:	4653      	mov	r3, sl
 8007b4c:	4632      	mov	r2, r6
 8007b4e:	4621      	mov	r1, r4
 8007b50:	4640      	mov	r0, r8
 8007b52:	f7ff ff71 	bl	8007a38 <__ssputs_r>
 8007b56:	3001      	adds	r0, #1
 8007b58:	f000 80a4 	beq.w	8007ca4 <_svfiprintf_r+0x1b8>
 8007b5c:	9b09      	ldr	r3, [sp, #36]	; 0x24
 8007b5e:	4453      	add	r3, sl
 8007b60:	9309      	str	r3, [sp, #36]	; 0x24
 8007b62:	783b      	ldrb	r3, [r7, #0]
 8007b64:	2b00      	cmp	r3, #0
 8007b66:	f000 809d 	beq.w	8007ca4 <_svfiprintf_r+0x1b8>
 8007b6a:	2300      	movs	r3, #0
 8007b6c:	f04f 32ff 	mov.w	r2, #4294967295
 8007b70:	e9cd 2305 	strd	r2, r3, [sp, #20]
 8007b74:	9304      	str	r3, [sp, #16]
 8007b76:	9307      	str	r3, [sp, #28]
 8007b78:	f88d 3053 	strb.w	r3, [sp, #83]	; 0x53
 8007b7c:	931a      	str	r3, [sp, #104]	; 0x68
 8007b7e:	462f      	mov	r7, r5
 8007b80:	2205      	movs	r2, #5
 8007b82:	f817 1b01 	ldrb.w	r1, [r7], #1
 8007b86:	4850      	ldr	r0, [pc, #320]	; (8007cc8 <_svfiprintf_r+0x1dc>)
 8007b88:	f7f8 fb42 	bl	8000210 <memchr>
 8007b8c:	9b04      	ldr	r3, [sp, #16]
 8007b8e:	b9d0      	cbnz	r0, 8007bc6 <_svfiprintf_r+0xda>
 8007b90:	06d9      	lsls	r1, r3, #27
 8007b92:	bf44      	itt	mi
 8007b94:	2220      	movmi	r2, #32
 8007b96:	f88d 2053 	strbmi.w	r2, [sp, #83]	; 0x53
 8007b9a:	071a      	lsls	r2, r3, #28
 8007b9c:	bf44      	itt	mi
 8007b9e:	222b      	movmi	r2, #43	; 0x2b
 8007ba0:	f88d 2053 	strbmi.w	r2, [sp, #83]	; 0x53
 8007ba4:	782a      	ldrb	r2, [r5, #0]
 8007ba6:	2a2a      	cmp	r2, #42	; 0x2a
 8007ba8:	d015      	beq.n	8007bd6 <_svfiprintf_r+0xea>
 8007baa:	9a07      	ldr	r2, [sp, #28]
 8007bac:	462f      	mov	r7, r5
 8007bae:	2000      	movs	r0, #0
 8007bb0:	250a      	movs	r5, #10
 8007bb2:	4639      	mov	r1, r7
 8007bb4:	f811 3b01 	ldrb.w	r3, [r1], #1
 8007bb8:	3b30      	subs	r3, #48	; 0x30
 8007bba:	2b09      	cmp	r3, #9
 8007bbc:	d94d      	bls.n	8007c5a <_svfiprintf_r+0x16e>
 8007bbe:	b1b8      	cbz	r0, 8007bf0 <_svfiprintf_r+0x104>
 8007bc0:	e00f      	b.n	8007be2 <_svfiprintf_r+0xf6>
 8007bc2:	462f      	mov	r7, r5
 8007bc4:	e7b8      	b.n	8007b38 <_svfiprintf_r+0x4c>
 8007bc6:	4a40      	ldr	r2, [pc, #256]	; (8007cc8 <_svfiprintf_r+0x1dc>)
 8007bc8:	1a80      	subs	r0, r0, r2
 8007bca:	fa0b f000 	lsl.w	r0, fp, r0
 8007bce:	4318      	orrs	r0, r3
 8007bd0:	9004      	str	r0, [sp, #16]
 8007bd2:	463d      	mov	r5, r7
 8007bd4:	e7d3      	b.n	8007b7e <_svfiprintf_r+0x92>
 8007bd6:	9a03      	ldr	r2, [sp, #12]
 8007bd8:	1d11      	adds	r1, r2, #4
 8007bda:	6812      	ldr	r2, [r2, #0]
 8007bdc:	9103      	str	r1, [sp, #12]
 8007bde:	2a00      	cmp	r2, #0
 8007be0:	db01      	blt.n	8007be6 <_svfiprintf_r+0xfa>
 8007be2:	9207      	str	r2, [sp, #28]
 8007be4:	e004      	b.n	8007bf0 <_svfiprintf_r+0x104>
 8007be6:	4252      	negs	r2, r2
 8007be8:	f043 0302 	orr.w	r3, r3, #2
 8007bec:	9207      	str	r2, [sp, #28]
 8007bee:	9304      	str	r3, [sp, #16]
 8007bf0:	783b      	ldrb	r3, [r7, #0]
 8007bf2:	2b2e      	cmp	r3, #46	; 0x2e
 8007bf4:	d10c      	bne.n	8007c10 <_svfiprintf_r+0x124>
 8007bf6:	787b      	ldrb	r3, [r7, #1]
 8007bf8:	2b2a      	cmp	r3, #42	; 0x2a
 8007bfa:	d133      	bne.n	8007c64 <_svfiprintf_r+0x178>
 8007bfc:	9b03      	ldr	r3, [sp, #12]
 8007bfe:	1d1a      	adds	r2, r3, #4
 8007c00:	681b      	ldr	r3, [r3, #0]
 8007c02:	9203      	str	r2, [sp, #12]
 8007c04:	2b00      	cmp	r3, #0
 8007c06:	bfb8      	it	lt
 8007c08:	f04f 33ff 	movlt.w	r3, #4294967295
 8007c0c:	3702      	adds	r7, #2
 8007c0e:	9305      	str	r3, [sp, #20]
 8007c10:	4d2e      	ldr	r5, [pc, #184]	; (8007ccc <_svfiprintf_r+0x1e0>)
 8007c12:	7839      	ldrb	r1, [r7, #0]
 8007c14:	2203      	movs	r2, #3
 8007c16:	4628      	mov	r0, r5
 8007c18:	f7f8 fafa 	bl	8000210 <memchr>
 8007c1c:	b138      	cbz	r0, 8007c2e <_svfiprintf_r+0x142>
 8007c1e:	2340      	movs	r3, #64	; 0x40
 8007c20:	1b40      	subs	r0, r0, r5
 8007c22:	fa03 f000 	lsl.w	r0, r3, r0
 8007c26:	9b04      	ldr	r3, [sp, #16]
 8007c28:	4303      	orrs	r3, r0
 8007c2a:	3701      	adds	r7, #1
 8007c2c:	9304      	str	r3, [sp, #16]
 8007c2e:	7839      	ldrb	r1, [r7, #0]
 8007c30:	4827      	ldr	r0, [pc, #156]	; (8007cd0 <_svfiprintf_r+0x1e4>)
 8007c32:	f88d 1028 	strb.w	r1, [sp, #40]	; 0x28
 8007c36:	2206      	movs	r2, #6
 8007c38:	1c7e      	adds	r6, r7, #1
 8007c3a:	f7f8 fae9 	bl	8000210 <memchr>
 8007c3e:	2800      	cmp	r0, #0
 8007c40:	d038      	beq.n	8007cb4 <_svfiprintf_r+0x1c8>
 8007c42:	4b24      	ldr	r3, [pc, #144]	; (8007cd4 <_svfiprintf_r+0x1e8>)
 8007c44:	bb13      	cbnz	r3, 8007c8c <_svfiprintf_r+0x1a0>
 8007c46:	9b03      	ldr	r3, [sp, #12]
 8007c48:	3307      	adds	r3, #7
 8007c4a:	f023 0307 	bic.w	r3, r3, #7
 8007c4e:	3308      	adds	r3, #8
 8007c50:	9303      	str	r3, [sp, #12]
 8007c52:	9b09      	ldr	r3, [sp, #36]	; 0x24
 8007c54:	444b      	add	r3, r9
 8007c56:	9309      	str	r3, [sp, #36]	; 0x24
 8007c58:	e76d      	b.n	8007b36 <_svfiprintf_r+0x4a>
 8007c5a:	fb05 3202 	mla	r2, r5, r2, r3
 8007c5e:	2001      	movs	r0, #1
 8007c60:	460f      	mov	r7, r1
 8007c62:	e7a6      	b.n	8007bb2 <_svfiprintf_r+0xc6>
 8007c64:	2300      	movs	r3, #0
 8007c66:	3701      	adds	r7, #1
 8007c68:	9305      	str	r3, [sp, #20]
 8007c6a:	4619      	mov	r1, r3
 8007c6c:	250a      	movs	r5, #10
 8007c6e:	4638      	mov	r0, r7
 8007c70:	f810 2b01 	ldrb.w	r2, [r0], #1
 8007c74:	3a30      	subs	r2, #48	; 0x30
 8007c76:	2a09      	cmp	r2, #9
 8007c78:	d903      	bls.n	8007c82 <_svfiprintf_r+0x196>
 8007c7a:	2b00      	cmp	r3, #0
 8007c7c:	d0c8      	beq.n	8007c10 <_svfiprintf_r+0x124>
 8007c7e:	9105      	str	r1, [sp, #20]
 8007c80:	e7c6      	b.n	8007c10 <_svfiprintf_r+0x124>
 8007c82:	fb05 2101 	mla	r1, r5, r1, r2
 8007c86:	2301      	movs	r3, #1
 8007c88:	4607      	mov	r7, r0
 8007c8a:	e7f0      	b.n	8007c6e <_svfiprintf_r+0x182>
 8007c8c:	ab03      	add	r3, sp, #12
 8007c8e:	9300      	str	r3, [sp, #0]
 8007c90:	4622      	mov	r2, r4
 8007c92:	4b11      	ldr	r3, [pc, #68]	; (8007cd8 <_svfiprintf_r+0x1ec>)
 8007c94:	a904      	add	r1, sp, #16
 8007c96:	4640      	mov	r0, r8
 8007c98:	f7fe f8ea 	bl	8005e70 <_printf_float>
 8007c9c:	f1b0 3fff 	cmp.w	r0, #4294967295
 8007ca0:	4681      	mov	r9, r0
 8007ca2:	d1d6      	bne.n	8007c52 <_svfiprintf_r+0x166>
 8007ca4:	89a3      	ldrh	r3, [r4, #12]
 8007ca6:	065b      	lsls	r3, r3, #25
 8007ca8:	f53f af35 	bmi.w	8007b16 <_svfiprintf_r+0x2a>
 8007cac:	9809      	ldr	r0, [sp, #36]	; 0x24
 8007cae:	b01d      	add	sp, #116	; 0x74
 8007cb0:	e8bd 8ff0 	ldmia.w	sp!, {r4, r5, r6, r7, r8, r9, sl, fp, pc}
 8007cb4:	ab03      	add	r3, sp, #12
 8007cb6:	9300      	str	r3, [sp, #0]
 8007cb8:	4622      	mov	r2, r4
 8007cba:	4b07      	ldr	r3, [pc, #28]	; (8007cd8 <_svfiprintf_r+0x1ec>)
 8007cbc:	a904      	add	r1, sp, #16
 8007cbe:	4640      	mov	r0, r8
 8007cc0:	f7fe fb8c 	bl	80063dc <_printf_i>
 8007cc4:	e7ea      	b.n	8007c9c <_svfiprintf_r+0x1b0>
 8007cc6:	bf00      	nop
 8007cc8:	08016fcc 	.word	0x08016fcc
 8007ccc:	08016fd2 	.word	0x08016fd2
 8007cd0:	08016fd6 	.word	0x08016fd6
 8007cd4:	08005e71 	.word	0x08005e71
 8007cd8:	08007a39 	.word	0x08007a39

08007cdc <_sbrk_r>:
 8007cdc:	b538      	push	{r3, r4, r5, lr}
 8007cde:	4c06      	ldr	r4, [pc, #24]	; (8007cf8 <_sbrk_r+0x1c>)
 8007ce0:	2300      	movs	r3, #0
 8007ce2:	4605      	mov	r5, r0
 8007ce4:	4608      	mov	r0, r1
 8007ce6:	6023      	str	r3, [r4, #0]
 8007ce8:	f7f8 ff8c 	bl	8000c04 <_sbrk>
 8007cec:	1c43      	adds	r3, r0, #1
 8007cee:	d102      	bne.n	8007cf6 <_sbrk_r+0x1a>
 8007cf0:	6823      	ldr	r3, [r4, #0]
 8007cf2:	b103      	cbz	r3, 8007cf6 <_sbrk_r+0x1a>
 8007cf4:	602b      	str	r3, [r5, #0]
 8007cf6:	bd38      	pop	{r3, r4, r5, pc}
 8007cf8:	20000f24 	.word	0x20000f24

08007cfc <memmove>:
 8007cfc:	4288      	cmp	r0, r1
 8007cfe:	b510      	push	{r4, lr}
 8007d00:	eb01 0302 	add.w	r3, r1, r2
 8007d04:	d807      	bhi.n	8007d16 <memmove+0x1a>
 8007d06:	1e42      	subs	r2, r0, #1
 8007d08:	4299      	cmp	r1, r3
 8007d0a:	d00a      	beq.n	8007d22 <memmove+0x26>
 8007d0c:	f811 4b01 	ldrb.w	r4, [r1], #1
 8007d10:	f802 4f01 	strb.w	r4, [r2, #1]!
 8007d14:	e7f8      	b.n	8007d08 <memmove+0xc>
 8007d16:	4283      	cmp	r3, r0
 8007d18:	d9f5      	bls.n	8007d06 <memmove+0xa>
 8007d1a:	1881      	adds	r1, r0, r2
 8007d1c:	1ad2      	subs	r2, r2, r3
 8007d1e:	42d3      	cmn	r3, r2
 8007d20:	d100      	bne.n	8007d24 <memmove+0x28>
 8007d22:	bd10      	pop	{r4, pc}
 8007d24:	f813 4d01 	ldrb.w	r4, [r3, #-1]!
 8007d28:	f801 4d01 	strb.w	r4, [r1, #-1]!
 8007d2c:	e7f7      	b.n	8007d1e <memmove+0x22>

08007d2e <__malloc_lock>:
 8007d2e:	4770      	bx	lr

08007d30 <__malloc_unlock>:
 8007d30:	4770      	bx	lr

08007d32 <_realloc_r>:
 8007d32:	b5f8      	push	{r3, r4, r5, r6, r7, lr}
 8007d34:	4607      	mov	r7, r0
 8007d36:	4614      	mov	r4, r2
 8007d38:	460e      	mov	r6, r1
 8007d3a:	b921      	cbnz	r1, 8007d46 <_realloc_r+0x14>
 8007d3c:	4611      	mov	r1, r2
 8007d3e:	e8bd 40f8 	ldmia.w	sp!, {r3, r4, r5, r6, r7, lr}
 8007d42:	f7ff be1f 	b.w	8007984 <_malloc_r>
 8007d46:	b922      	cbnz	r2, 8007d52 <_realloc_r+0x20>
 8007d48:	f7ff fdce 	bl	80078e8 <_free_r>
 8007d4c:	4625      	mov	r5, r4
 8007d4e:	4628      	mov	r0, r5
 8007d50:	bdf8      	pop	{r3, r4, r5, r6, r7, pc}
 8007d52:	f000 f814 	bl	8007d7e <_malloc_usable_size_r>
 8007d56:	42a0      	cmp	r0, r4
 8007d58:	d20f      	bcs.n	8007d7a <_realloc_r+0x48>
 8007d5a:	4621      	mov	r1, r4
 8007d5c:	4638      	mov	r0, r7
 8007d5e:	f7ff fe11 	bl	8007984 <_malloc_r>
 8007d62:	4605      	mov	r5, r0
 8007d64:	2800      	cmp	r0, #0
 8007d66:	d0f2      	beq.n	8007d4e <_realloc_r+0x1c>
 8007d68:	4631      	mov	r1, r6
 8007d6a:	4622      	mov	r2, r4
 8007d6c:	f7fd ffd8 	bl	8005d20 <memcpy>
 8007d70:	4631      	mov	r1, r6
 8007d72:	4638      	mov	r0, r7
 8007d74:	f7ff fdb8 	bl	80078e8 <_free_r>
 8007d78:	e7e9      	b.n	8007d4e <_realloc_r+0x1c>
 8007d7a:	4635      	mov	r5, r6
 8007d7c:	e7e7      	b.n	8007d4e <_realloc_r+0x1c>

08007d7e <_malloc_usable_size_r>:
 8007d7e:	f851 3c04 	ldr.w	r3, [r1, #-4]
 8007d82:	1f18      	subs	r0, r3, #4
 8007d84:	2b00      	cmp	r3, #0
 8007d86:	bfbc      	itt	lt
 8007d88:	580b      	ldrlt	r3, [r1, r0]
 8007d8a:	18c0      	addlt	r0, r0, r3
 8007d8c:	4770      	bx	lr
	...

08007d90 <_init>:
 8007d90:	b5f8      	push	{r3, r4, r5, r6, r7, lr}
 8007d92:	bf00      	nop
 8007d94:	bcf8      	pop	{r3, r4, r5, r6, r7}
 8007d96:	bc08      	pop	{r3}
 8007d98:	469e      	mov	lr, r3
 8007d9a:	4770      	bx	lr

08007d9c <_fini>:
 8007d9c:	b5f8      	push	{r3, r4, r5, r6, r7, lr}
 8007d9e:	bf00      	nop
 8007da0:	bcf8      	pop	{r3, r4, r5, r6, r7}
 8007da2:	bc08      	pop	{r3}
 8007da4:	469e      	mov	lr, r3
 8007da6:	4770      	bx	lr
