
ArcadeIT_Ver021_F469_CMSIS.elf:     file format elf32-littlearm

Sections:
Idx Name          Size      VMA       LMA       File off  Algn
  0 .isr_vector   000001b4  08000000  08000000  00010000  2**0
                  CONTENTS, ALLOC, LOAD, READONLY, DATA
  1 .text         00007550  080001c0  080001c0  000101c0  2**4
                  CONTENTS, ALLOC, LOAD, READONLY, CODE
  2 .rodata       00010280  08007710  08007710  00017710  2**3
                  CONTENTS, ALLOC, LOAD, READONLY, DATA
  3 .ARM.extab    00000000  08017990  08017990  000301e4  2**0
                  CONTENTS
  4 .ARM          00000000  08017990  08017990  000301e4  2**0
                  CONTENTS
  5 .preinit_array 00000000  08017990  08017990  000301e4  2**0
                  CONTENTS, ALLOC, LOAD, DATA
  6 .init_array   00000004  08017990  08017990  00027990  2**2
                  CONTENTS, ALLOC, LOAD, DATA
  7 .fini_array   00000004  08017994  08017994  00027994  2**2
                  CONTENTS, ALLOC, LOAD, DATA
  8 .data         000001e4  20000000  08017998  00030000  2**2
                  CONTENTS, ALLOC, LOAD, DATA
  9 .bss          00000e0c  200001e4  08017b7c  000301e4  2**2
                  ALLOC
 10 ._user_heap_stack 00000600  20000ff0  08017b7c  00030ff0  2**0
                  ALLOC
 11 .ARM.attributes 00000030  00000000  00000000  000301e4  2**0
                  CONTENTS, READONLY
 12 .debug_info   0001a6a2  00000000  00000000  00030214  2**0
                  CONTENTS, READONLY, DEBUGGING
 13 .debug_abbrev 0000343a  00000000  00000000  0004a8b6  2**0
                  CONTENTS, READONLY, DEBUGGING
 14 .debug_aranges 000009a0  00000000  00000000  0004dcf0  2**3
                  CONTENTS, READONLY, DEBUGGING
 15 .debug_ranges 000008d0  00000000  00000000  0004e690  2**3
                  CONTENTS, READONLY, DEBUGGING
 16 .debug_macro  000261a3  00000000  00000000  0004ef60  2**0
                  CONTENTS, READONLY, DEBUGGING
 17 .debug_line   0000df1c  00000000  00000000  00075103  2**0
                  CONTENTS, READONLY, DEBUGGING
 18 .debug_str    000c3f07  00000000  00000000  0008301f  2**0
                  CONTENTS, READONLY, DEBUGGING
 19 .comment      0000007b  00000000  00000000  00146f26  2**0
                  CONTENTS, READONLY
 20 .debug_frame  000024ec  00000000  00000000  00146fa4  2**2
                  CONTENTS, READONLY, DEBUGGING
 21 .debug_loc    00009a49  00000000  00000000  00149490  2**0
                  CONTENTS, READONLY, DEBUGGING

Disassembly of section .text:

080001c0 <__do_global_dtors_aux>:
 80001c0:	b510      	push	{r4, lr}
 80001c2:	4c05      	ldr	r4, [pc, #20]	; (80001d8 <__do_global_dtors_aux+0x18>)
 80001c4:	7823      	ldrb	r3, [r4, #0]
 80001c6:	b933      	cbnz	r3, 80001d6 <__do_global_dtors_aux+0x16>
 80001c8:	4b04      	ldr	r3, [pc, #16]	; (80001dc <__do_global_dtors_aux+0x1c>)
 80001ca:	b113      	cbz	r3, 80001d2 <__do_global_dtors_aux+0x12>
 80001cc:	4804      	ldr	r0, [pc, #16]	; (80001e0 <__do_global_dtors_aux+0x20>)
 80001ce:	f3af 8000 	nop.w
 80001d2:	2301      	movs	r3, #1
 80001d4:	7023      	strb	r3, [r4, #0]
 80001d6:	bd10      	pop	{r4, pc}
 80001d8:	200001e4 	.word	0x200001e4
 80001dc:	00000000 	.word	0x00000000
 80001e0:	080076f8 	.word	0x080076f8

080001e4 <frame_dummy>:
 80001e4:	b508      	push	{r3, lr}
 80001e6:	4b03      	ldr	r3, [pc, #12]	; (80001f4 <frame_dummy+0x10>)
 80001e8:	b11b      	cbz	r3, 80001f2 <frame_dummy+0xe>
 80001ea:	4903      	ldr	r1, [pc, #12]	; (80001f8 <frame_dummy+0x14>)
 80001ec:	4803      	ldr	r0, [pc, #12]	; (80001fc <frame_dummy+0x18>)
 80001ee:	f3af 8000 	nop.w
 80001f2:	bd08      	pop	{r3, pc}
 80001f4:	00000000 	.word	0x00000000
 80001f8:	200001e8 	.word	0x200001e8
 80001fc:	080076f8 	.word	0x080076f8

08000200 <strlen>:
 8000200:	4603      	mov	r3, r0
 8000202:	f813 2b01 	ldrb.w	r2, [r3], #1
 8000206:	2a00      	cmp	r2, #0
 8000208:	d1fb      	bne.n	8000202 <strlen+0x2>
 800020a:	1a18      	subs	r0, r3, r0
 800020c:	3801      	subs	r0, #1
 800020e:	4770      	bx	lr

08000210 <memchr>:
 8000210:	f001 01ff 	and.w	r1, r1, #255	; 0xff
 8000214:	2a10      	cmp	r2, #16
 8000216:	db2b      	blt.n	8000270 <memchr+0x60>
 8000218:	f010 0f07 	tst.w	r0, #7
 800021c:	d008      	beq.n	8000230 <memchr+0x20>
 800021e:	f810 3b01 	ldrb.w	r3, [r0], #1
 8000222:	3a01      	subs	r2, #1
 8000224:	428b      	cmp	r3, r1
 8000226:	d02d      	beq.n	8000284 <memchr+0x74>
 8000228:	f010 0f07 	tst.w	r0, #7
 800022c:	b342      	cbz	r2, 8000280 <memchr+0x70>
 800022e:	d1f6      	bne.n	800021e <memchr+0xe>
 8000230:	b4f0      	push	{r4, r5, r6, r7}
 8000232:	ea41 2101 	orr.w	r1, r1, r1, lsl #8
 8000236:	ea41 4101 	orr.w	r1, r1, r1, lsl #16
 800023a:	f022 0407 	bic.w	r4, r2, #7
 800023e:	f07f 0700 	mvns.w	r7, #0
 8000242:	2300      	movs	r3, #0
 8000244:	e8f0 5602 	ldrd	r5, r6, [r0], #8
 8000248:	3c08      	subs	r4, #8
 800024a:	ea85 0501 	eor.w	r5, r5, r1
 800024e:	ea86 0601 	eor.w	r6, r6, r1
 8000252:	fa85 f547 	uadd8	r5, r5, r7
 8000256:	faa3 f587 	sel	r5, r3, r7
 800025a:	fa86 f647 	uadd8	r6, r6, r7
 800025e:	faa5 f687 	sel	r6, r5, r7
 8000262:	b98e      	cbnz	r6, 8000288 <memchr+0x78>
 8000264:	d1ee      	bne.n	8000244 <memchr+0x34>
 8000266:	bcf0      	pop	{r4, r5, r6, r7}
 8000268:	f001 01ff 	and.w	r1, r1, #255	; 0xff
 800026c:	f002 0207 	and.w	r2, r2, #7
 8000270:	b132      	cbz	r2, 8000280 <memchr+0x70>
 8000272:	f810 3b01 	ldrb.w	r3, [r0], #1
 8000276:	3a01      	subs	r2, #1
 8000278:	ea83 0301 	eor.w	r3, r3, r1
 800027c:	b113      	cbz	r3, 8000284 <memchr+0x74>
 800027e:	d1f8      	bne.n	8000272 <memchr+0x62>
 8000280:	2000      	movs	r0, #0
 8000282:	4770      	bx	lr
 8000284:	3801      	subs	r0, #1
 8000286:	4770      	bx	lr
 8000288:	2d00      	cmp	r5, #0
 800028a:	bf06      	itte	eq
 800028c:	4635      	moveq	r5, r6
 800028e:	3803      	subeq	r0, #3
 8000290:	3807      	subne	r0, #7
 8000292:	f015 0f01 	tst.w	r5, #1
 8000296:	d107      	bne.n	80002a8 <memchr+0x98>
 8000298:	3001      	adds	r0, #1
 800029a:	f415 7f80 	tst.w	r5, #256	; 0x100
 800029e:	bf02      	ittt	eq
 80002a0:	3001      	addeq	r0, #1
 80002a2:	f415 3fc0 	tsteq.w	r5, #98304	; 0x18000
 80002a6:	3001      	addeq	r0, #1
 80002a8:	bcf0      	pop	{r4, r5, r6, r7}
 80002aa:	3801      	subs	r0, #1
 80002ac:	4770      	bx	lr
 80002ae:	bf00      	nop

080002b0 <__aeabi_drsub>:
 80002b0:	f081 4100 	eor.w	r1, r1, #2147483648	; 0x80000000
 80002b4:	e002      	b.n	80002bc <__adddf3>
 80002b6:	bf00      	nop

080002b8 <__aeabi_dsub>:
 80002b8:	f083 4300 	eor.w	r3, r3, #2147483648	; 0x80000000

080002bc <__adddf3>:
 80002bc:	b530      	push	{r4, r5, lr}
 80002be:	ea4f 0441 	mov.w	r4, r1, lsl #1
 80002c2:	ea4f 0543 	mov.w	r5, r3, lsl #1
 80002c6:	ea94 0f05 	teq	r4, r5
 80002ca:	bf08      	it	eq
 80002cc:	ea90 0f02 	teqeq	r0, r2
 80002d0:	bf1f      	itttt	ne
 80002d2:	ea54 0c00 	orrsne.w	ip, r4, r0
 80002d6:	ea55 0c02 	orrsne.w	ip, r5, r2
 80002da:	ea7f 5c64 	mvnsne.w	ip, r4, asr #21
 80002de:	ea7f 5c65 	mvnsne.w	ip, r5, asr #21
 80002e2:	f000 80e2 	beq.w	80004aa <__adddf3+0x1ee>
 80002e6:	ea4f 5454 	mov.w	r4, r4, lsr #21
 80002ea:	ebd4 5555 	rsbs	r5, r4, r5, lsr #21
 80002ee:	bfb8      	it	lt
 80002f0:	426d      	neglt	r5, r5
 80002f2:	dd0c      	ble.n	800030e <__adddf3+0x52>
 80002f4:	442c      	add	r4, r5
 80002f6:	ea80 0202 	eor.w	r2, r0, r2
 80002fa:	ea81 0303 	eor.w	r3, r1, r3
 80002fe:	ea82 0000 	eor.w	r0, r2, r0
 8000302:	ea83 0101 	eor.w	r1, r3, r1
 8000306:	ea80 0202 	eor.w	r2, r0, r2
 800030a:	ea81 0303 	eor.w	r3, r1, r3
 800030e:	2d36      	cmp	r5, #54	; 0x36
 8000310:	bf88      	it	hi
 8000312:	bd30      	pophi	{r4, r5, pc}
 8000314:	f011 4f00 	tst.w	r1, #2147483648	; 0x80000000
 8000318:	ea4f 3101 	mov.w	r1, r1, lsl #12
 800031c:	f44f 1c80 	mov.w	ip, #1048576	; 0x100000
 8000320:	ea4c 3111 	orr.w	r1, ip, r1, lsr #12
 8000324:	d002      	beq.n	800032c <__adddf3+0x70>
 8000326:	4240      	negs	r0, r0
 8000328:	eb61 0141 	sbc.w	r1, r1, r1, lsl #1
 800032c:	f013 4f00 	tst.w	r3, #2147483648	; 0x80000000
 8000330:	ea4f 3303 	mov.w	r3, r3, lsl #12
 8000334:	ea4c 3313 	orr.w	r3, ip, r3, lsr #12
 8000338:	d002      	beq.n	8000340 <__adddf3+0x84>
 800033a:	4252      	negs	r2, r2
 800033c:	eb63 0343 	sbc.w	r3, r3, r3, lsl #1
 8000340:	ea94 0f05 	teq	r4, r5
 8000344:	f000 80a7 	beq.w	8000496 <__adddf3+0x1da>
 8000348:	f1a4 0401 	sub.w	r4, r4, #1
 800034c:	f1d5 0e20 	rsbs	lr, r5, #32
 8000350:	db0d      	blt.n	800036e <__adddf3+0xb2>
 8000352:	fa02 fc0e 	lsl.w	ip, r2, lr
 8000356:	fa22 f205 	lsr.w	r2, r2, r5
 800035a:	1880      	adds	r0, r0, r2
 800035c:	f141 0100 	adc.w	r1, r1, #0
 8000360:	fa03 f20e 	lsl.w	r2, r3, lr
 8000364:	1880      	adds	r0, r0, r2
 8000366:	fa43 f305 	asr.w	r3, r3, r5
 800036a:	4159      	adcs	r1, r3
 800036c:	e00e      	b.n	800038c <__adddf3+0xd0>
 800036e:	f1a5 0520 	sub.w	r5, r5, #32
 8000372:	f10e 0e20 	add.w	lr, lr, #32
 8000376:	2a01      	cmp	r2, #1
 8000378:	fa03 fc0e 	lsl.w	ip, r3, lr
 800037c:	bf28      	it	cs
 800037e:	f04c 0c02 	orrcs.w	ip, ip, #2
 8000382:	fa43 f305 	asr.w	r3, r3, r5
 8000386:	18c0      	adds	r0, r0, r3
 8000388:	eb51 71e3 	adcs.w	r1, r1, r3, asr #31
 800038c:	f001 4500 	and.w	r5, r1, #2147483648	; 0x80000000
 8000390:	d507      	bpl.n	80003a2 <__adddf3+0xe6>
 8000392:	f04f 0e00 	mov.w	lr, #0
 8000396:	f1dc 0c00 	rsbs	ip, ip, #0
 800039a:	eb7e 0000 	sbcs.w	r0, lr, r0
 800039e:	eb6e 0101 	sbc.w	r1, lr, r1
 80003a2:	f5b1 1f80 	cmp.w	r1, #1048576	; 0x100000
 80003a6:	d31b      	bcc.n	80003e0 <__adddf3+0x124>
 80003a8:	f5b1 1f00 	cmp.w	r1, #2097152	; 0x200000
 80003ac:	d30c      	bcc.n	80003c8 <__adddf3+0x10c>
 80003ae:	0849      	lsrs	r1, r1, #1
 80003b0:	ea5f 0030 	movs.w	r0, r0, rrx
 80003b4:	ea4f 0c3c 	mov.w	ip, ip, rrx
 80003b8:	f104 0401 	add.w	r4, r4, #1
 80003bc:	ea4f 5244 	mov.w	r2, r4, lsl #21
 80003c0:	f512 0f80 	cmn.w	r2, #4194304	; 0x400000
 80003c4:	f080 809a 	bcs.w	80004fc <__adddf3+0x240>
 80003c8:	f1bc 4f00 	cmp.w	ip, #2147483648	; 0x80000000
 80003cc:	bf08      	it	eq
 80003ce:	ea5f 0c50 	movseq.w	ip, r0, lsr #1
 80003d2:	f150 0000 	adcs.w	r0, r0, #0
 80003d6:	eb41 5104 	adc.w	r1, r1, r4, lsl #20
 80003da:	ea41 0105 	orr.w	r1, r1, r5
 80003de:	bd30      	pop	{r4, r5, pc}
 80003e0:	ea5f 0c4c 	movs.w	ip, ip, lsl #1
 80003e4:	4140      	adcs	r0, r0
 80003e6:	eb41 0101 	adc.w	r1, r1, r1
 80003ea:	f411 1f80 	tst.w	r1, #1048576	; 0x100000
 80003ee:	f1a4 0401 	sub.w	r4, r4, #1
 80003f2:	d1e9      	bne.n	80003c8 <__adddf3+0x10c>
 80003f4:	f091 0f00 	teq	r1, #0
 80003f8:	bf04      	itt	eq
 80003fa:	4601      	moveq	r1, r0
 80003fc:	2000      	moveq	r0, #0
 80003fe:	fab1 f381 	clz	r3, r1
 8000402:	bf08      	it	eq
 8000404:	3320      	addeq	r3, #32
 8000406:	f1a3 030b 	sub.w	r3, r3, #11
 800040a:	f1b3 0220 	subs.w	r2, r3, #32
 800040e:	da0c      	bge.n	800042a <__adddf3+0x16e>
 8000410:	320c      	adds	r2, #12
 8000412:	dd08      	ble.n	8000426 <__adddf3+0x16a>
 8000414:	f102 0c14 	add.w	ip, r2, #20
 8000418:	f1c2 020c 	rsb	r2, r2, #12
 800041c:	fa01 f00c 	lsl.w	r0, r1, ip
 8000420:	fa21 f102 	lsr.w	r1, r1, r2
 8000424:	e00c      	b.n	8000440 <__adddf3+0x184>
 8000426:	f102 0214 	add.w	r2, r2, #20
 800042a:	bfd8      	it	le
 800042c:	f1c2 0c20 	rsble	ip, r2, #32
 8000430:	fa01 f102 	lsl.w	r1, r1, r2
 8000434:	fa20 fc0c 	lsr.w	ip, r0, ip
 8000438:	bfdc      	itt	le
 800043a:	ea41 010c 	orrle.w	r1, r1, ip
 800043e:	4090      	lslle	r0, r2
 8000440:	1ae4      	subs	r4, r4, r3
 8000442:	bfa2      	ittt	ge
 8000444:	eb01 5104 	addge.w	r1, r1, r4, lsl #20
 8000448:	4329      	orrge	r1, r5
 800044a:	bd30      	popge	{r4, r5, pc}
 800044c:	ea6f 0404 	mvn.w	r4, r4
 8000450:	3c1f      	subs	r4, #31
 8000452:	da1c      	bge.n	800048e <__adddf3+0x1d2>
 8000454:	340c      	adds	r4, #12
 8000456:	dc0e      	bgt.n	8000476 <__adddf3+0x1ba>
 8000458:	f104 0414 	add.w	r4, r4, #20
 800045c:	f1c4 0220 	rsb	r2, r4, #32
 8000460:	fa20 f004 	lsr.w	r0, r0, r4
 8000464:	fa01 f302 	lsl.w	r3, r1, r2
 8000468:	ea40 0003 	orr.w	r0, r0, r3
 800046c:	fa21 f304 	lsr.w	r3, r1, r4
 8000470:	ea45 0103 	orr.w	r1, r5, r3
 8000474:	bd30      	pop	{r4, r5, pc}
 8000476:	f1c4 040c 	rsb	r4, r4, #12
 800047a:	f1c4 0220 	rsb	r2, r4, #32
 800047e:	fa20 f002 	lsr.w	r0, r0, r2
 8000482:	fa01 f304 	lsl.w	r3, r1, r4
 8000486:	ea40 0003 	orr.w	r0, r0, r3
 800048a:	4629      	mov	r1, r5
 800048c:	bd30      	pop	{r4, r5, pc}
 800048e:	fa21 f004 	lsr.w	r0, r1, r4
 8000492:	4629      	mov	r1, r5
 8000494:	bd30      	pop	{r4, r5, pc}
 8000496:	f094 0f00 	teq	r4, #0
 800049a:	f483 1380 	eor.w	r3, r3, #1048576	; 0x100000
 800049e:	bf06      	itte	eq
 80004a0:	f481 1180 	eoreq.w	r1, r1, #1048576	; 0x100000
 80004a4:	3401      	addeq	r4, #1
 80004a6:	3d01      	subne	r5, #1
 80004a8:	e74e      	b.n	8000348 <__adddf3+0x8c>
 80004aa:	ea7f 5c64 	mvns.w	ip, r4, asr #21
 80004ae:	bf18      	it	ne
 80004b0:	ea7f 5c65 	mvnsne.w	ip, r5, asr #21
 80004b4:	d029      	beq.n	800050a <__adddf3+0x24e>
 80004b6:	ea94 0f05 	teq	r4, r5
 80004ba:	bf08      	it	eq
 80004bc:	ea90 0f02 	teqeq	r0, r2
 80004c0:	d005      	beq.n	80004ce <__adddf3+0x212>
 80004c2:	ea54 0c00 	orrs.w	ip, r4, r0
 80004c6:	bf04      	itt	eq
 80004c8:	4619      	moveq	r1, r3
 80004ca:	4610      	moveq	r0, r2
 80004cc:	bd30      	pop	{r4, r5, pc}
 80004ce:	ea91 0f03 	teq	r1, r3
 80004d2:	bf1e      	ittt	ne
 80004d4:	2100      	movne	r1, #0
 80004d6:	2000      	movne	r0, #0
 80004d8:	bd30      	popne	{r4, r5, pc}
 80004da:	ea5f 5c54 	movs.w	ip, r4, lsr #21
 80004de:	d105      	bne.n	80004ec <__adddf3+0x230>
 80004e0:	0040      	lsls	r0, r0, #1
 80004e2:	4149      	adcs	r1, r1
 80004e4:	bf28      	it	cs
 80004e6:	f041 4100 	orrcs.w	r1, r1, #2147483648	; 0x80000000
 80004ea:	bd30      	pop	{r4, r5, pc}
 80004ec:	f514 0480 	adds.w	r4, r4, #4194304	; 0x400000
 80004f0:	bf3c      	itt	cc
 80004f2:	f501 1180 	addcc.w	r1, r1, #1048576	; 0x100000
 80004f6:	bd30      	popcc	{r4, r5, pc}
 80004f8:	f001 4500 	and.w	r5, r1, #2147483648	; 0x80000000
 80004fc:	f045 41fe 	orr.w	r1, r5, #2130706432	; 0x7f000000
 8000500:	f441 0170 	orr.w	r1, r1, #15728640	; 0xf00000
 8000504:	f04f 0000 	mov.w	r0, #0
 8000508:	bd30      	pop	{r4, r5, pc}
 800050a:	ea7f 5c64 	mvns.w	ip, r4, asr #21
 800050e:	bf1a      	itte	ne
 8000510:	4619      	movne	r1, r3
 8000512:	4610      	movne	r0, r2
 8000514:	ea7f 5c65 	mvnseq.w	ip, r5, asr #21
 8000518:	bf1c      	itt	ne
 800051a:	460b      	movne	r3, r1
 800051c:	4602      	movne	r2, r0
 800051e:	ea50 3401 	orrs.w	r4, r0, r1, lsl #12
 8000522:	bf06      	itte	eq
 8000524:	ea52 3503 	orrseq.w	r5, r2, r3, lsl #12
 8000528:	ea91 0f03 	teqeq	r1, r3
 800052c:	f441 2100 	orrne.w	r1, r1, #524288	; 0x80000
 8000530:	bd30      	pop	{r4, r5, pc}
 8000532:	bf00      	nop

08000534 <__aeabi_ui2d>:
 8000534:	f090 0f00 	teq	r0, #0
 8000538:	bf04      	itt	eq
 800053a:	2100      	moveq	r1, #0
 800053c:	4770      	bxeq	lr
 800053e:	b530      	push	{r4, r5, lr}
 8000540:	f44f 6480 	mov.w	r4, #1024	; 0x400
 8000544:	f104 0432 	add.w	r4, r4, #50	; 0x32
 8000548:	f04f 0500 	mov.w	r5, #0
 800054c:	f04f 0100 	mov.w	r1, #0
 8000550:	e750      	b.n	80003f4 <__adddf3+0x138>
 8000552:	bf00      	nop

08000554 <__aeabi_i2d>:
 8000554:	f090 0f00 	teq	r0, #0
 8000558:	bf04      	itt	eq
 800055a:	2100      	moveq	r1, #0
 800055c:	4770      	bxeq	lr
 800055e:	b530      	push	{r4, r5, lr}
 8000560:	f44f 6480 	mov.w	r4, #1024	; 0x400
 8000564:	f104 0432 	add.w	r4, r4, #50	; 0x32
 8000568:	f010 4500 	ands.w	r5, r0, #2147483648	; 0x80000000
 800056c:	bf48      	it	mi
 800056e:	4240      	negmi	r0, r0
 8000570:	f04f 0100 	mov.w	r1, #0
 8000574:	e73e      	b.n	80003f4 <__adddf3+0x138>
 8000576:	bf00      	nop

08000578 <__aeabi_f2d>:
 8000578:	0042      	lsls	r2, r0, #1
 800057a:	ea4f 01e2 	mov.w	r1, r2, asr #3
 800057e:	ea4f 0131 	mov.w	r1, r1, rrx
 8000582:	ea4f 7002 	mov.w	r0, r2, lsl #28
 8000586:	bf1f      	itttt	ne
 8000588:	f012 437f 	andsne.w	r3, r2, #4278190080	; 0xff000000
 800058c:	f093 4f7f 	teqne	r3, #4278190080	; 0xff000000
 8000590:	f081 5160 	eorne.w	r1, r1, #939524096	; 0x38000000
 8000594:	4770      	bxne	lr
 8000596:	f032 427f 	bics.w	r2, r2, #4278190080	; 0xff000000
 800059a:	bf08      	it	eq
 800059c:	4770      	bxeq	lr
 800059e:	f093 4f7f 	teq	r3, #4278190080	; 0xff000000
 80005a2:	bf04      	itt	eq
 80005a4:	f441 2100 	orreq.w	r1, r1, #524288	; 0x80000
 80005a8:	4770      	bxeq	lr
 80005aa:	b530      	push	{r4, r5, lr}
 80005ac:	f44f 7460 	mov.w	r4, #896	; 0x380
 80005b0:	f001 4500 	and.w	r5, r1, #2147483648	; 0x80000000
 80005b4:	f021 4100 	bic.w	r1, r1, #2147483648	; 0x80000000
 80005b8:	e71c      	b.n	80003f4 <__adddf3+0x138>
 80005ba:	bf00      	nop

080005bc <__aeabi_ul2d>:
 80005bc:	ea50 0201 	orrs.w	r2, r0, r1
 80005c0:	bf08      	it	eq
 80005c2:	4770      	bxeq	lr
 80005c4:	b530      	push	{r4, r5, lr}
 80005c6:	f04f 0500 	mov.w	r5, #0
 80005ca:	e00a      	b.n	80005e2 <__aeabi_l2d+0x16>

080005cc <__aeabi_l2d>:
 80005cc:	ea50 0201 	orrs.w	r2, r0, r1
 80005d0:	bf08      	it	eq
 80005d2:	4770      	bxeq	lr
 80005d4:	b530      	push	{r4, r5, lr}
 80005d6:	f011 4500 	ands.w	r5, r1, #2147483648	; 0x80000000
 80005da:	d502      	bpl.n	80005e2 <__aeabi_l2d+0x16>
 80005dc:	4240      	negs	r0, r0
 80005de:	eb61 0141 	sbc.w	r1, r1, r1, lsl #1
 80005e2:	f44f 6480 	mov.w	r4, #1024	; 0x400
 80005e6:	f104 0432 	add.w	r4, r4, #50	; 0x32
 80005ea:	ea5f 5c91 	movs.w	ip, r1, lsr #22
 80005ee:	f43f aed8 	beq.w	80003a2 <__adddf3+0xe6>
 80005f2:	f04f 0203 	mov.w	r2, #3
 80005f6:	ea5f 0cdc 	movs.w	ip, ip, lsr #3
 80005fa:	bf18      	it	ne
 80005fc:	3203      	addne	r2, #3
 80005fe:	ea5f 0cdc 	movs.w	ip, ip, lsr #3
 8000602:	bf18      	it	ne
 8000604:	3203      	addne	r2, #3
 8000606:	eb02 02dc 	add.w	r2, r2, ip, lsr #3
 800060a:	f1c2 0320 	rsb	r3, r2, #32
 800060e:	fa00 fc03 	lsl.w	ip, r0, r3
 8000612:	fa20 f002 	lsr.w	r0, r0, r2
 8000616:	fa01 fe03 	lsl.w	lr, r1, r3
 800061a:	ea40 000e 	orr.w	r0, r0, lr
 800061e:	fa21 f102 	lsr.w	r1, r1, r2
 8000622:	4414      	add	r4, r2
 8000624:	e6bd      	b.n	80003a2 <__adddf3+0xe6>
 8000626:	bf00      	nop

08000628 <__aeabi_dmul>:
 8000628:	b570      	push	{r4, r5, r6, lr}
 800062a:	f04f 0cff 	mov.w	ip, #255	; 0xff
 800062e:	f44c 6ce0 	orr.w	ip, ip, #1792	; 0x700
 8000632:	ea1c 5411 	ands.w	r4, ip, r1, lsr #20
 8000636:	bf1d      	ittte	ne
 8000638:	ea1c 5513 	andsne.w	r5, ip, r3, lsr #20
 800063c:	ea94 0f0c 	teqne	r4, ip
 8000640:	ea95 0f0c 	teqne	r5, ip
 8000644:	f000 f8de 	bleq	8000804 <__aeabi_dmul+0x1dc>
 8000648:	442c      	add	r4, r5
 800064a:	ea81 0603 	eor.w	r6, r1, r3
 800064e:	ea21 514c 	bic.w	r1, r1, ip, lsl #21
 8000652:	ea23 534c 	bic.w	r3, r3, ip, lsl #21
 8000656:	ea50 3501 	orrs.w	r5, r0, r1, lsl #12
 800065a:	bf18      	it	ne
 800065c:	ea52 3503 	orrsne.w	r5, r2, r3, lsl #12
 8000660:	f441 1180 	orr.w	r1, r1, #1048576	; 0x100000
 8000664:	f443 1380 	orr.w	r3, r3, #1048576	; 0x100000
 8000668:	d038      	beq.n	80006dc <__aeabi_dmul+0xb4>
 800066a:	fba0 ce02 	umull	ip, lr, r0, r2
 800066e:	f04f 0500 	mov.w	r5, #0
 8000672:	fbe1 e502 	umlal	lr, r5, r1, r2
 8000676:	f006 4200 	and.w	r2, r6, #2147483648	; 0x80000000
 800067a:	fbe0 e503 	umlal	lr, r5, r0, r3
 800067e:	f04f 0600 	mov.w	r6, #0
 8000682:	fbe1 5603 	umlal	r5, r6, r1, r3
 8000686:	f09c 0f00 	teq	ip, #0
 800068a:	bf18      	it	ne
 800068c:	f04e 0e01 	orrne.w	lr, lr, #1
 8000690:	f1a4 04ff 	sub.w	r4, r4, #255	; 0xff
 8000694:	f5b6 7f00 	cmp.w	r6, #512	; 0x200
 8000698:	f564 7440 	sbc.w	r4, r4, #768	; 0x300
 800069c:	d204      	bcs.n	80006a8 <__aeabi_dmul+0x80>
 800069e:	ea5f 0e4e 	movs.w	lr, lr, lsl #1
 80006a2:	416d      	adcs	r5, r5
 80006a4:	eb46 0606 	adc.w	r6, r6, r6
 80006a8:	ea42 21c6 	orr.w	r1, r2, r6, lsl #11
 80006ac:	ea41 5155 	orr.w	r1, r1, r5, lsr #21
 80006b0:	ea4f 20c5 	mov.w	r0, r5, lsl #11
 80006b4:	ea40 505e 	orr.w	r0, r0, lr, lsr #21
 80006b8:	ea4f 2ece 	mov.w	lr, lr, lsl #11
 80006bc:	f1b4 0cfd 	subs.w	ip, r4, #253	; 0xfd
 80006c0:	bf88      	it	hi
 80006c2:	f5bc 6fe0 	cmphi.w	ip, #1792	; 0x700
 80006c6:	d81e      	bhi.n	8000706 <__aeabi_dmul+0xde>
 80006c8:	f1be 4f00 	cmp.w	lr, #2147483648	; 0x80000000
 80006cc:	bf08      	it	eq
 80006ce:	ea5f 0e50 	movseq.w	lr, r0, lsr #1
 80006d2:	f150 0000 	adcs.w	r0, r0, #0
 80006d6:	eb41 5104 	adc.w	r1, r1, r4, lsl #20
 80006da:	bd70      	pop	{r4, r5, r6, pc}
 80006dc:	f006 4600 	and.w	r6, r6, #2147483648	; 0x80000000
 80006e0:	ea46 0101 	orr.w	r1, r6, r1
 80006e4:	ea40 0002 	orr.w	r0, r0, r2
 80006e8:	ea81 0103 	eor.w	r1, r1, r3
 80006ec:	ebb4 045c 	subs.w	r4, r4, ip, lsr #1
 80006f0:	bfc2      	ittt	gt
 80006f2:	ebd4 050c 	rsbsgt	r5, r4, ip
 80006f6:	ea41 5104 	orrgt.w	r1, r1, r4, lsl #20
 80006fa:	bd70      	popgt	{r4, r5, r6, pc}
 80006fc:	f441 1180 	orr.w	r1, r1, #1048576	; 0x100000
 8000700:	f04f 0e00 	mov.w	lr, #0
 8000704:	3c01      	subs	r4, #1
 8000706:	f300 80ab 	bgt.w	8000860 <__aeabi_dmul+0x238>
 800070a:	f114 0f36 	cmn.w	r4, #54	; 0x36
 800070e:	bfde      	ittt	le
 8000710:	2000      	movle	r0, #0
 8000712:	f001 4100 	andle.w	r1, r1, #2147483648	; 0x80000000
 8000716:	bd70      	pople	{r4, r5, r6, pc}
 8000718:	f1c4 0400 	rsb	r4, r4, #0
 800071c:	3c20      	subs	r4, #32
 800071e:	da35      	bge.n	800078c <__aeabi_dmul+0x164>
 8000720:	340c      	adds	r4, #12
 8000722:	dc1b      	bgt.n	800075c <__aeabi_dmul+0x134>
 8000724:	f104 0414 	add.w	r4, r4, #20
 8000728:	f1c4 0520 	rsb	r5, r4, #32
 800072c:	fa00 f305 	lsl.w	r3, r0, r5
 8000730:	fa20 f004 	lsr.w	r0, r0, r4
 8000734:	fa01 f205 	lsl.w	r2, r1, r5
 8000738:	ea40 0002 	orr.w	r0, r0, r2
 800073c:	f001 4200 	and.w	r2, r1, #2147483648	; 0x80000000
 8000740:	f021 4100 	bic.w	r1, r1, #2147483648	; 0x80000000
 8000744:	eb10 70d3 	adds.w	r0, r0, r3, lsr #31
 8000748:	fa21 f604 	lsr.w	r6, r1, r4
 800074c:	eb42 0106 	adc.w	r1, r2, r6
 8000750:	ea5e 0e43 	orrs.w	lr, lr, r3, lsl #1
 8000754:	bf08      	it	eq
 8000756:	ea20 70d3 	biceq.w	r0, r0, r3, lsr #31
 800075a:	bd70      	pop	{r4, r5, r6, pc}
 800075c:	f1c4 040c 	rsb	r4, r4, #12
 8000760:	f1c4 0520 	rsb	r5, r4, #32
 8000764:	fa00 f304 	lsl.w	r3, r0, r4
 8000768:	fa20 f005 	lsr.w	r0, r0, r5
 800076c:	fa01 f204 	lsl.w	r2, r1, r4
 8000770:	ea40 0002 	orr.w	r0, r0, r2
 8000774:	f001 4100 	and.w	r1, r1, #2147483648	; 0x80000000
 8000778:	eb10 70d3 	adds.w	r0, r0, r3, lsr #31
 800077c:	f141 0100 	adc.w	r1, r1, #0
 8000780:	ea5e 0e43 	orrs.w	lr, lr, r3, lsl #1
 8000784:	bf08      	it	eq
 8000786:	ea20 70d3 	biceq.w	r0, r0, r3, lsr #31
 800078a:	bd70      	pop	{r4, r5, r6, pc}
 800078c:	f1c4 0520 	rsb	r5, r4, #32
 8000790:	fa00 f205 	lsl.w	r2, r0, r5
 8000794:	ea4e 0e02 	orr.w	lr, lr, r2
 8000798:	fa20 f304 	lsr.w	r3, r0, r4
 800079c:	fa01 f205 	lsl.w	r2, r1, r5
 80007a0:	ea43 0302 	orr.w	r3, r3, r2
 80007a4:	fa21 f004 	lsr.w	r0, r1, r4
 80007a8:	f001 4100 	and.w	r1, r1, #2147483648	; 0x80000000
 80007ac:	fa21 f204 	lsr.w	r2, r1, r4
 80007b0:	ea20 0002 	bic.w	r0, r0, r2
 80007b4:	eb00 70d3 	add.w	r0, r0, r3, lsr #31
 80007b8:	ea5e 0e43 	orrs.w	lr, lr, r3, lsl #1
 80007bc:	bf08      	it	eq
 80007be:	ea20 70d3 	biceq.w	r0, r0, r3, lsr #31
 80007c2:	bd70      	pop	{r4, r5, r6, pc}
 80007c4:	f094 0f00 	teq	r4, #0
 80007c8:	d10f      	bne.n	80007ea <__aeabi_dmul+0x1c2>
 80007ca:	f001 4600 	and.w	r6, r1, #2147483648	; 0x80000000
 80007ce:	0040      	lsls	r0, r0, #1
 80007d0:	eb41 0101 	adc.w	r1, r1, r1
 80007d4:	f411 1f80 	tst.w	r1, #1048576	; 0x100000
 80007d8:	bf08      	it	eq
 80007da:	3c01      	subeq	r4, #1
 80007dc:	d0f7      	beq.n	80007ce <__aeabi_dmul+0x1a6>
 80007de:	ea41 0106 	orr.w	r1, r1, r6
 80007e2:	f095 0f00 	teq	r5, #0
 80007e6:	bf18      	it	ne
 80007e8:	4770      	bxne	lr
 80007ea:	f003 4600 	and.w	r6, r3, #2147483648	; 0x80000000
 80007ee:	0052      	lsls	r2, r2, #1
 80007f0:	eb43 0303 	adc.w	r3, r3, r3
 80007f4:	f413 1f80 	tst.w	r3, #1048576	; 0x100000
 80007f8:	bf08      	it	eq
 80007fa:	3d01      	subeq	r5, #1
 80007fc:	d0f7      	beq.n	80007ee <__aeabi_dmul+0x1c6>
 80007fe:	ea43 0306 	orr.w	r3, r3, r6
 8000802:	4770      	bx	lr
 8000804:	ea94 0f0c 	teq	r4, ip
 8000808:	ea0c 5513 	and.w	r5, ip, r3, lsr #20
 800080c:	bf18      	it	ne
 800080e:	ea95 0f0c 	teqne	r5, ip
 8000812:	d00c      	beq.n	800082e <__aeabi_dmul+0x206>
 8000814:	ea50 0641 	orrs.w	r6, r0, r1, lsl #1
 8000818:	bf18      	it	ne
 800081a:	ea52 0643 	orrsne.w	r6, r2, r3, lsl #1
 800081e:	d1d1      	bne.n	80007c4 <__aeabi_dmul+0x19c>
 8000820:	ea81 0103 	eor.w	r1, r1, r3
 8000824:	f001 4100 	and.w	r1, r1, #2147483648	; 0x80000000
 8000828:	f04f 0000 	mov.w	r0, #0
 800082c:	bd70      	pop	{r4, r5, r6, pc}
 800082e:	ea50 0641 	orrs.w	r6, r0, r1, lsl #1
 8000832:	bf06      	itte	eq
 8000834:	4610      	moveq	r0, r2
 8000836:	4619      	moveq	r1, r3
 8000838:	ea52 0643 	orrsne.w	r6, r2, r3, lsl #1
 800083c:	d019      	beq.n	8000872 <__aeabi_dmul+0x24a>
 800083e:	ea94 0f0c 	teq	r4, ip
 8000842:	d102      	bne.n	800084a <__aeabi_dmul+0x222>
 8000844:	ea50 3601 	orrs.w	r6, r0, r1, lsl #12
 8000848:	d113      	bne.n	8000872 <__aeabi_dmul+0x24a>
 800084a:	ea95 0f0c 	teq	r5, ip
 800084e:	d105      	bne.n	800085c <__aeabi_dmul+0x234>
 8000850:	ea52 3603 	orrs.w	r6, r2, r3, lsl #12
 8000854:	bf1c      	itt	ne
 8000856:	4610      	movne	r0, r2
 8000858:	4619      	movne	r1, r3
 800085a:	d10a      	bne.n	8000872 <__aeabi_dmul+0x24a>
 800085c:	ea81 0103 	eor.w	r1, r1, r3
 8000860:	f001 4100 	and.w	r1, r1, #2147483648	; 0x80000000
 8000864:	f041 41fe 	orr.w	r1, r1, #2130706432	; 0x7f000000
 8000868:	f441 0170 	orr.w	r1, r1, #15728640	; 0xf00000
 800086c:	f04f 0000 	mov.w	r0, #0
 8000870:	bd70      	pop	{r4, r5, r6, pc}
 8000872:	f041 41fe 	orr.w	r1, r1, #2130706432	; 0x7f000000
 8000876:	f441 0178 	orr.w	r1, r1, #16252928	; 0xf80000
 800087a:	bd70      	pop	{r4, r5, r6, pc}

0800087c <__aeabi_ddiv>:
 800087c:	b570      	push	{r4, r5, r6, lr}
 800087e:	f04f 0cff 	mov.w	ip, #255	; 0xff
 8000882:	f44c 6ce0 	orr.w	ip, ip, #1792	; 0x700
 8000886:	ea1c 5411 	ands.w	r4, ip, r1, lsr #20
 800088a:	bf1d      	ittte	ne
 800088c:	ea1c 5513 	andsne.w	r5, ip, r3, lsr #20
 8000890:	ea94 0f0c 	teqne	r4, ip
 8000894:	ea95 0f0c 	teqne	r5, ip
 8000898:	f000 f8a7 	bleq	80009ea <__aeabi_ddiv+0x16e>
 800089c:	eba4 0405 	sub.w	r4, r4, r5
 80008a0:	ea81 0e03 	eor.w	lr, r1, r3
 80008a4:	ea52 3503 	orrs.w	r5, r2, r3, lsl #12
 80008a8:	ea4f 3101 	mov.w	r1, r1, lsl #12
 80008ac:	f000 8088 	beq.w	80009c0 <__aeabi_ddiv+0x144>
 80008b0:	ea4f 3303 	mov.w	r3, r3, lsl #12
 80008b4:	f04f 5580 	mov.w	r5, #268435456	; 0x10000000
 80008b8:	ea45 1313 	orr.w	r3, r5, r3, lsr #4
 80008bc:	ea43 6312 	orr.w	r3, r3, r2, lsr #24
 80008c0:	ea4f 2202 	mov.w	r2, r2, lsl #8
 80008c4:	ea45 1511 	orr.w	r5, r5, r1, lsr #4
 80008c8:	ea45 6510 	orr.w	r5, r5, r0, lsr #24
 80008cc:	ea4f 2600 	mov.w	r6, r0, lsl #8
 80008d0:	f00e 4100 	and.w	r1, lr, #2147483648	; 0x80000000
 80008d4:	429d      	cmp	r5, r3
 80008d6:	bf08      	it	eq
 80008d8:	4296      	cmpeq	r6, r2
 80008da:	f144 04fd 	adc.w	r4, r4, #253	; 0xfd
 80008de:	f504 7440 	add.w	r4, r4, #768	; 0x300
 80008e2:	d202      	bcs.n	80008ea <__aeabi_ddiv+0x6e>
 80008e4:	085b      	lsrs	r3, r3, #1
 80008e6:	ea4f 0232 	mov.w	r2, r2, rrx
 80008ea:	1ab6      	subs	r6, r6, r2
 80008ec:	eb65 0503 	sbc.w	r5, r5, r3
 80008f0:	085b      	lsrs	r3, r3, #1
 80008f2:	ea4f 0232 	mov.w	r2, r2, rrx
 80008f6:	f44f 1080 	mov.w	r0, #1048576	; 0x100000
 80008fa:	f44f 2c00 	mov.w	ip, #524288	; 0x80000
 80008fe:	ebb6 0e02 	subs.w	lr, r6, r2
 8000902:	eb75 0e03 	sbcs.w	lr, r5, r3
 8000906:	bf22      	ittt	cs
 8000908:	1ab6      	subcs	r6, r6, r2
 800090a:	4675      	movcs	r5, lr
 800090c:	ea40 000c 	orrcs.w	r0, r0, ip
 8000910:	085b      	lsrs	r3, r3, #1
 8000912:	ea4f 0232 	mov.w	r2, r2, rrx
 8000916:	ebb6 0e02 	subs.w	lr, r6, r2
 800091a:	eb75 0e03 	sbcs.w	lr, r5, r3
 800091e:	bf22      	ittt	cs
 8000920:	1ab6      	subcs	r6, r6, r2
 8000922:	4675      	movcs	r5, lr
 8000924:	ea40 005c 	orrcs.w	r0, r0, ip, lsr #1
 8000928:	085b      	lsrs	r3, r3, #1
 800092a:	ea4f 0232 	mov.w	r2, r2, rrx
 800092e:	ebb6 0e02 	subs.w	lr, r6, r2
 8000932:	eb75 0e03 	sbcs.w	lr, r5, r3
 8000936:	bf22      	ittt	cs
 8000938:	1ab6      	subcs	r6, r6, r2
 800093a:	4675      	movcs	r5, lr
 800093c:	ea40 009c 	orrcs.w	r0, r0, ip, lsr #2
 8000940:	085b      	lsrs	r3, r3, #1
 8000942:	ea4f 0232 	mov.w	r2, r2, rrx
 8000946:	ebb6 0e02 	subs.w	lr, r6, r2
 800094a:	eb75 0e03 	sbcs.w	lr, r5, r3
 800094e:	bf22      	ittt	cs
 8000950:	1ab6      	subcs	r6, r6, r2
 8000952:	4675      	movcs	r5, lr
 8000954:	ea40 00dc 	orrcs.w	r0, r0, ip, lsr #3
 8000958:	ea55 0e06 	orrs.w	lr, r5, r6
 800095c:	d018      	beq.n	8000990 <__aeabi_ddiv+0x114>
 800095e:	ea4f 1505 	mov.w	r5, r5, lsl #4
 8000962:	ea45 7516 	orr.w	r5, r5, r6, lsr #28
 8000966:	ea4f 1606 	mov.w	r6, r6, lsl #4
 800096a:	ea4f 03c3 	mov.w	r3, r3, lsl #3
 800096e:	ea43 7352 	orr.w	r3, r3, r2, lsr #29
 8000972:	ea4f 02c2 	mov.w	r2, r2, lsl #3
 8000976:	ea5f 1c1c 	movs.w	ip, ip, lsr #4
 800097a:	d1c0      	bne.n	80008fe <__aeabi_ddiv+0x82>
 800097c:	f411 1f80 	tst.w	r1, #1048576	; 0x100000
 8000980:	d10b      	bne.n	800099a <__aeabi_ddiv+0x11e>
 8000982:	ea41 0100 	orr.w	r1, r1, r0
 8000986:	f04f 0000 	mov.w	r0, #0
 800098a:	f04f 4c00 	mov.w	ip, #2147483648	; 0x80000000
 800098e:	e7b6      	b.n	80008fe <__aeabi_ddiv+0x82>
 8000990:	f411 1f80 	tst.w	r1, #1048576	; 0x100000
 8000994:	bf04      	itt	eq
 8000996:	4301      	orreq	r1, r0
 8000998:	2000      	moveq	r0, #0
 800099a:	f1b4 0cfd 	subs.w	ip, r4, #253	; 0xfd
 800099e:	bf88      	it	hi
 80009a0:	f5bc 6fe0 	cmphi.w	ip, #1792	; 0x700
 80009a4:	f63f aeaf 	bhi.w	8000706 <__aeabi_dmul+0xde>
 80009a8:	ebb5 0c03 	subs.w	ip, r5, r3
 80009ac:	bf04      	itt	eq
 80009ae:	ebb6 0c02 	subseq.w	ip, r6, r2
 80009b2:	ea5f 0c50 	movseq.w	ip, r0, lsr #1
 80009b6:	f150 0000 	adcs.w	r0, r0, #0
 80009ba:	eb41 5104 	adc.w	r1, r1, r4, lsl #20
 80009be:	bd70      	pop	{r4, r5, r6, pc}
 80009c0:	f00e 4e00 	and.w	lr, lr, #2147483648	; 0x80000000
 80009c4:	ea4e 3111 	orr.w	r1, lr, r1, lsr #12
 80009c8:	eb14 045c 	adds.w	r4, r4, ip, lsr #1
 80009cc:	bfc2      	ittt	gt
 80009ce:	ebd4 050c 	rsbsgt	r5, r4, ip
 80009d2:	ea41 5104 	orrgt.w	r1, r1, r4, lsl #20
 80009d6:	bd70      	popgt	{r4, r5, r6, pc}
 80009d8:	f441 1180 	orr.w	r1, r1, #1048576	; 0x100000
 80009dc:	f04f 0e00 	mov.w	lr, #0
 80009e0:	3c01      	subs	r4, #1
 80009e2:	e690      	b.n	8000706 <__aeabi_dmul+0xde>
 80009e4:	ea45 0e06 	orr.w	lr, r5, r6
 80009e8:	e68d      	b.n	8000706 <__aeabi_dmul+0xde>
 80009ea:	ea0c 5513 	and.w	r5, ip, r3, lsr #20
 80009ee:	ea94 0f0c 	teq	r4, ip
 80009f2:	bf08      	it	eq
 80009f4:	ea95 0f0c 	teqeq	r5, ip
 80009f8:	f43f af3b 	beq.w	8000872 <__aeabi_dmul+0x24a>
 80009fc:	ea94 0f0c 	teq	r4, ip
 8000a00:	d10a      	bne.n	8000a18 <__aeabi_ddiv+0x19c>
 8000a02:	ea50 3401 	orrs.w	r4, r0, r1, lsl #12
 8000a06:	f47f af34 	bne.w	8000872 <__aeabi_dmul+0x24a>
 8000a0a:	ea95 0f0c 	teq	r5, ip
 8000a0e:	f47f af25 	bne.w	800085c <__aeabi_dmul+0x234>
 8000a12:	4610      	mov	r0, r2
 8000a14:	4619      	mov	r1, r3
 8000a16:	e72c      	b.n	8000872 <__aeabi_dmul+0x24a>
 8000a18:	ea95 0f0c 	teq	r5, ip
 8000a1c:	d106      	bne.n	8000a2c <__aeabi_ddiv+0x1b0>
 8000a1e:	ea52 3503 	orrs.w	r5, r2, r3, lsl #12
 8000a22:	f43f aefd 	beq.w	8000820 <__aeabi_dmul+0x1f8>
 8000a26:	4610      	mov	r0, r2
 8000a28:	4619      	mov	r1, r3
 8000a2a:	e722      	b.n	8000872 <__aeabi_dmul+0x24a>
 8000a2c:	ea50 0641 	orrs.w	r6, r0, r1, lsl #1
 8000a30:	bf18      	it	ne
 8000a32:	ea52 0643 	orrsne.w	r6, r2, r3, lsl #1
 8000a36:	f47f aec5 	bne.w	80007c4 <__aeabi_dmul+0x19c>
 8000a3a:	ea50 0441 	orrs.w	r4, r0, r1, lsl #1
 8000a3e:	f47f af0d 	bne.w	800085c <__aeabi_dmul+0x234>
 8000a42:	ea52 0543 	orrs.w	r5, r2, r3, lsl #1
 8000a46:	f47f aeeb 	bne.w	8000820 <__aeabi_dmul+0x1f8>
 8000a4a:	e712      	b.n	8000872 <__aeabi_dmul+0x24a>

08000a4c <__gedf2>:
 8000a4c:	f04f 3cff 	mov.w	ip, #4294967295
 8000a50:	e006      	b.n	8000a60 <__cmpdf2+0x4>
 8000a52:	bf00      	nop

08000a54 <__ledf2>:
 8000a54:	f04f 0c01 	mov.w	ip, #1
 8000a58:	e002      	b.n	8000a60 <__cmpdf2+0x4>
 8000a5a:	bf00      	nop

08000a5c <__cmpdf2>:
 8000a5c:	f04f 0c01 	mov.w	ip, #1
 8000a60:	f84d cd04 	str.w	ip, [sp, #-4]!
 8000a64:	ea4f 0c41 	mov.w	ip, r1, lsl #1
 8000a68:	ea7f 5c6c 	mvns.w	ip, ip, asr #21
 8000a6c:	ea4f 0c43 	mov.w	ip, r3, lsl #1
 8000a70:	bf18      	it	ne
 8000a72:	ea7f 5c6c 	mvnsne.w	ip, ip, asr #21
 8000a76:	d01b      	beq.n	8000ab0 <__cmpdf2+0x54>
 8000a78:	b001      	add	sp, #4
 8000a7a:	ea50 0c41 	orrs.w	ip, r0, r1, lsl #1
 8000a7e:	bf0c      	ite	eq
 8000a80:	ea52 0c43 	orrseq.w	ip, r2, r3, lsl #1
 8000a84:	ea91 0f03 	teqne	r1, r3
 8000a88:	bf02      	ittt	eq
 8000a8a:	ea90 0f02 	teqeq	r0, r2
 8000a8e:	2000      	moveq	r0, #0
 8000a90:	4770      	bxeq	lr
 8000a92:	f110 0f00 	cmn.w	r0, #0
 8000a96:	ea91 0f03 	teq	r1, r3
 8000a9a:	bf58      	it	pl
 8000a9c:	4299      	cmppl	r1, r3
 8000a9e:	bf08      	it	eq
 8000aa0:	4290      	cmpeq	r0, r2
 8000aa2:	bf2c      	ite	cs
 8000aa4:	17d8      	asrcs	r0, r3, #31
 8000aa6:	ea6f 70e3 	mvncc.w	r0, r3, asr #31
 8000aaa:	f040 0001 	orr.w	r0, r0, #1
 8000aae:	4770      	bx	lr
 8000ab0:	ea4f 0c41 	mov.w	ip, r1, lsl #1
 8000ab4:	ea7f 5c6c 	mvns.w	ip, ip, asr #21
 8000ab8:	d102      	bne.n	8000ac0 <__cmpdf2+0x64>
 8000aba:	ea50 3c01 	orrs.w	ip, r0, r1, lsl #12
 8000abe:	d107      	bne.n	8000ad0 <__cmpdf2+0x74>
 8000ac0:	ea4f 0c43 	mov.w	ip, r3, lsl #1
 8000ac4:	ea7f 5c6c 	mvns.w	ip, ip, asr #21
 8000ac8:	d1d6      	bne.n	8000a78 <__cmpdf2+0x1c>
 8000aca:	ea52 3c03 	orrs.w	ip, r2, r3, lsl #12
 8000ace:	d0d3      	beq.n	8000a78 <__cmpdf2+0x1c>
 8000ad0:	f85d 0b04 	ldr.w	r0, [sp], #4
 8000ad4:	4770      	bx	lr
 8000ad6:	bf00      	nop

08000ad8 <__aeabi_cdrcmple>:
 8000ad8:	4684      	mov	ip, r0
 8000ada:	4610      	mov	r0, r2
 8000adc:	4662      	mov	r2, ip
 8000ade:	468c      	mov	ip, r1
 8000ae0:	4619      	mov	r1, r3
 8000ae2:	4663      	mov	r3, ip
 8000ae4:	e000      	b.n	8000ae8 <__aeabi_cdcmpeq>
 8000ae6:	bf00      	nop

08000ae8 <__aeabi_cdcmpeq>:
 8000ae8:	b501      	push	{r0, lr}
 8000aea:	f7ff ffb7 	bl	8000a5c <__cmpdf2>
 8000aee:	2800      	cmp	r0, #0
 8000af0:	bf48      	it	mi
 8000af2:	f110 0f00 	cmnmi.w	r0, #0
 8000af6:	bd01      	pop	{r0, pc}

08000af8 <__aeabi_dcmpeq>:
 8000af8:	f84d ed08 	str.w	lr, [sp, #-8]!
 8000afc:	f7ff fff4 	bl	8000ae8 <__aeabi_cdcmpeq>
 8000b00:	bf0c      	ite	eq
 8000b02:	2001      	moveq	r0, #1
 8000b04:	2000      	movne	r0, #0
 8000b06:	f85d fb08 	ldr.w	pc, [sp], #8
 8000b0a:	bf00      	nop

08000b0c <__aeabi_dcmplt>:
 8000b0c:	f84d ed08 	str.w	lr, [sp, #-8]!
 8000b10:	f7ff ffea 	bl	8000ae8 <__aeabi_cdcmpeq>
 8000b14:	bf34      	ite	cc
 8000b16:	2001      	movcc	r0, #1
 8000b18:	2000      	movcs	r0, #0
 8000b1a:	f85d fb08 	ldr.w	pc, [sp], #8
 8000b1e:	bf00      	nop

08000b20 <__aeabi_dcmple>:
 8000b20:	f84d ed08 	str.w	lr, [sp, #-8]!
 8000b24:	f7ff ffe0 	bl	8000ae8 <__aeabi_cdcmpeq>
 8000b28:	bf94      	ite	ls
 8000b2a:	2001      	movls	r0, #1
 8000b2c:	2000      	movhi	r0, #0
 8000b2e:	f85d fb08 	ldr.w	pc, [sp], #8
 8000b32:	bf00      	nop

08000b34 <__aeabi_dcmpge>:
 8000b34:	f84d ed08 	str.w	lr, [sp, #-8]!
 8000b38:	f7ff ffce 	bl	8000ad8 <__aeabi_cdrcmple>
 8000b3c:	bf94      	ite	ls
 8000b3e:	2001      	movls	r0, #1
 8000b40:	2000      	movhi	r0, #0
 8000b42:	f85d fb08 	ldr.w	pc, [sp], #8
 8000b46:	bf00      	nop

08000b48 <__aeabi_dcmpgt>:
 8000b48:	f84d ed08 	str.w	lr, [sp, #-8]!
 8000b4c:	f7ff ffc4 	bl	8000ad8 <__aeabi_cdrcmple>
 8000b50:	bf34      	ite	cc
 8000b52:	2001      	movcc	r0, #1
 8000b54:	2000      	movcs	r0, #0
 8000b56:	f85d fb08 	ldr.w	pc, [sp], #8
 8000b5a:	bf00      	nop

08000b5c <__aeabi_dcmpun>:
 8000b5c:	ea4f 0c41 	mov.w	ip, r1, lsl #1
 8000b60:	ea7f 5c6c 	mvns.w	ip, ip, asr #21
 8000b64:	d102      	bne.n	8000b6c <__aeabi_dcmpun+0x10>
 8000b66:	ea50 3c01 	orrs.w	ip, r0, r1, lsl #12
 8000b6a:	d10a      	bne.n	8000b82 <__aeabi_dcmpun+0x26>
 8000b6c:	ea4f 0c43 	mov.w	ip, r3, lsl #1
 8000b70:	ea7f 5c6c 	mvns.w	ip, ip, asr #21
 8000b74:	d102      	bne.n	8000b7c <__aeabi_dcmpun+0x20>
 8000b76:	ea52 3c03 	orrs.w	ip, r2, r3, lsl #12
 8000b7a:	d102      	bne.n	8000b82 <__aeabi_dcmpun+0x26>
 8000b7c:	f04f 0000 	mov.w	r0, #0
 8000b80:	4770      	bx	lr
 8000b82:	f04f 0001 	mov.w	r0, #1
 8000b86:	4770      	bx	lr

08000b88 <__aeabi_d2iz>:
 8000b88:	ea4f 0241 	mov.w	r2, r1, lsl #1
 8000b8c:	f512 1200 	adds.w	r2, r2, #2097152	; 0x200000
 8000b90:	d215      	bcs.n	8000bbe <__aeabi_d2iz+0x36>
 8000b92:	d511      	bpl.n	8000bb8 <__aeabi_d2iz+0x30>
 8000b94:	f46f 7378 	mvn.w	r3, #992	; 0x3e0
 8000b98:	ebb3 5262 	subs.w	r2, r3, r2, asr #21
 8000b9c:	d912      	bls.n	8000bc4 <__aeabi_d2iz+0x3c>
 8000b9e:	ea4f 23c1 	mov.w	r3, r1, lsl #11
 8000ba2:	f043 4300 	orr.w	r3, r3, #2147483648	; 0x80000000
 8000ba6:	ea43 5350 	orr.w	r3, r3, r0, lsr #21
 8000baa:	f011 4f00 	tst.w	r1, #2147483648	; 0x80000000
 8000bae:	fa23 f002 	lsr.w	r0, r3, r2
 8000bb2:	bf18      	it	ne
 8000bb4:	4240      	negne	r0, r0
 8000bb6:	4770      	bx	lr
 8000bb8:	f04f 0000 	mov.w	r0, #0
 8000bbc:	4770      	bx	lr
 8000bbe:	ea50 3001 	orrs.w	r0, r0, r1, lsl #12
 8000bc2:	d105      	bne.n	8000bd0 <__aeabi_d2iz+0x48>
 8000bc4:	f011 4000 	ands.w	r0, r1, #2147483648	; 0x80000000
 8000bc8:	bf08      	it	eq
 8000bca:	f06f 4000 	mvneq.w	r0, #2147483648	; 0x80000000
 8000bce:	4770      	bx	lr
 8000bd0:	f04f 0000 	mov.w	r0, #0
 8000bd4:	4770      	bx	lr
 8000bd6:	bf00      	nop

08000bd8 <main>:
// /////////////////////////////////////////////////////////////////////////////
// "M A I N"   E N T R Y   P O I N T
// /////////////////////////////////////////////////////////////////////////////

int main(void)
{
 8000bd8:	b508      	push	{r3, lr}
   ArcadeIT_Test_Bench();
 8000bda:	f000 faed 	bl	80011b8 <ArcadeIT_Test_Bench>

  return 0;

} // End main.
 8000bde:	2000      	movs	r0, #0
 8000be0:	bd08      	pop	{r3, pc}

08000be2 <NMI_Handler>:
 8000be2:	4770      	bx	lr

08000be4 <HardFault_Handler>:
 8000be4:	e7fe      	b.n	8000be4 <HardFault_Handler>

08000be6 <MemManage_Handler>:
 8000be6:	e7fe      	b.n	8000be6 <MemManage_Handler>

08000be8 <BusFault_Handler>:
 8000be8:	e7fe      	b.n	8000be8 <BusFault_Handler>

08000bea <UsageFault_Handler>:
 8000bea:	e7fe      	b.n	8000bea <UsageFault_Handler>

08000bec <SVC_Handler>:
 8000bec:	4770      	bx	lr

08000bee <DebugMon_Handler>:
 8000bee:	4770      	bx	lr

08000bf0 <PendSV_Handler>:
 8000bf0:	4770      	bx	lr

08000bf2 <_sbrk>:
 8000bf2:	b508      	push	{r3, lr}
 8000bf4:	4603      	mov	r3, r0
 8000bf6:	f240 2200 	movw	r2, #512	; 0x200
 8000bfa:	f2c2 0200 	movt	r2, #8192	; 0x2000
 8000bfe:	6812      	ldr	r2, [r2, #0]
 8000c00:	b172      	cbz	r2, 8000c20 <_sbrk+0x2e>
 8000c02:	f240 2200 	movw	r2, #512	; 0x200
 8000c06:	f2c2 0200 	movt	r2, #8192	; 0x2000
 8000c0a:	6810      	ldr	r0, [r2, #0]
 8000c0c:	4403      	add	r3, r0
 8000c0e:	466a      	mov	r2, sp
 8000c10:	4293      	cmp	r3, r2
 8000c12:	d80f      	bhi.n	8000c34 <_sbrk+0x42>
 8000c14:	f240 2200 	movw	r2, #512	; 0x200
 8000c18:	f2c2 0200 	movt	r2, #8192	; 0x2000
 8000c1c:	6013      	str	r3, [r2, #0]
 8000c1e:	bd08      	pop	{r3, pc}
 8000c20:	f240 2200 	movw	r2, #512	; 0x200
 8000c24:	f2c2 0200 	movt	r2, #8192	; 0x2000
 8000c28:	f640 71f0 	movw	r1, #4080	; 0xff0
 8000c2c:	f2c2 0100 	movt	r1, #8192	; 0x2000
 8000c30:	6011      	str	r1, [r2, #0]
 8000c32:	e7e6      	b.n	8000c02 <_sbrk+0x10>
 8000c34:	f004 fcee 	bl	8005614 <__errno>
 8000c38:	230c      	movs	r3, #12
 8000c3a:	6003      	str	r3, [r0, #0]
 8000c3c:	f04f 30ff 	mov.w	r0, #4294967295
 8000c40:	e7ed      	b.n	8000c1e <_sbrk+0x2c>
	...

08000c44 <Reset_Handler>:
 8000c44:	f8df d034 	ldr.w	sp, [pc, #52]	; 8000c7c <LoopFillZerobss+0x14>
 8000c48:	2100      	movs	r1, #0
 8000c4a:	e003      	b.n	8000c54 <LoopCopyDataInit>

08000c4c <CopyDataInit>:
 8000c4c:	4b0c      	ldr	r3, [pc, #48]	; (8000c80 <LoopFillZerobss+0x18>)
 8000c4e:	585b      	ldr	r3, [r3, r1]
 8000c50:	5043      	str	r3, [r0, r1]
 8000c52:	3104      	adds	r1, #4

08000c54 <LoopCopyDataInit>:
 8000c54:	480b      	ldr	r0, [pc, #44]	; (8000c84 <LoopFillZerobss+0x1c>)
 8000c56:	4b0c      	ldr	r3, [pc, #48]	; (8000c88 <LoopFillZerobss+0x20>)
 8000c58:	1842      	adds	r2, r0, r1
 8000c5a:	429a      	cmp	r2, r3
 8000c5c:	d3f6      	bcc.n	8000c4c <CopyDataInit>
 8000c5e:	4a0b      	ldr	r2, [pc, #44]	; (8000c8c <LoopFillZerobss+0x24>)
 8000c60:	e002      	b.n	8000c68 <LoopFillZerobss>

08000c62 <FillZerobss>:
 8000c62:	2300      	movs	r3, #0
 8000c64:	f842 3b04 	str.w	r3, [r2], #4

08000c68 <LoopFillZerobss>:
 8000c68:	4b09      	ldr	r3, [pc, #36]	; (8000c90 <LoopFillZerobss+0x28>)
 8000c6a:	429a      	cmp	r2, r3
 8000c6c:	d3f9      	bcc.n	8000c62 <FillZerobss>
 8000c6e:	f000 f848 	bl	8000d02 <ArcadeIT_System_Init>
 8000c72:	f004 fcd5 	bl	8005620 <__libc_init_array>
 8000c76:	f7ff ffaf 	bl	8000bd8 <main>
 8000c7a:	4770      	bx	lr
 8000c7c:	20050000 	.word	0x20050000
 8000c80:	08017998 	.word	0x08017998
 8000c84:	20000000 	.word	0x20000000
 8000c88:	200001e4 	.word	0x200001e4
 8000c8c:	200001e4 	.word	0x200001e4
 8000c90:	20000ff0 	.word	0x20000ff0

08000c94 <ADC_IRQHandler>:
 8000c94:	e7fe      	b.n	8000c94 <ADC_IRQHandler>

08000c96 <ArcadeIT_SysTick_Init>:

} // end ArcadeIT_SysTick_Deinit

// -----------------------------------------------------------------------------
int ArcadeIT_SysTick_Init (void)
{
 8000c96:	b508      	push	{r3, lr}
 */
__STATIC_INLINE uint32_t SysTick_Config(uint32_t ticks)
{
  if ((ticks - 1) > SysTick_LOAD_RELOAD_Msk)  return (1);      /* Reload value impossible */

  SysTick->LOAD  = ticks - 1;                                  /* set reload register */
 8000c98:	f24e 0310 	movw	r3, #57360	; 0xe010
 8000c9c:	f2ce 0300 	movt	r3, #57344	; 0xe000
 8000ca0:	f64b 721f 	movw	r2, #48927	; 0xbf1f
 8000ca4:	f2c0 0202 	movt	r2, #2
 8000ca8:	605a      	str	r2, [r3, #4]
    SCB->SHP[((uint32_t)(IRQn) & 0xF)-4] = ((priority << (8 - __NVIC_PRIO_BITS)) & 0xff); } /* set Priority for Cortex-M  System Interrupts */
 8000caa:	f44f 426d 	mov.w	r2, #60672	; 0xed00
 8000cae:	f2ce 0200 	movt	r2, #57344	; 0xe000
 8000cb2:	21f0      	movs	r1, #240	; 0xf0
 8000cb4:	f882 1023 	strb.w	r1, [r2, #35]	; 0x23
  NVIC_SetPriority (SysTick_IRQn, (1<<__NVIC_PRIO_BITS) - 1);  /* set Priority for Systick Interrupt */
  SysTick->VAL   = 0;                                          /* Load the SysTick Counter Value */
 8000cb8:	2100      	movs	r1, #0
 8000cba:	6099      	str	r1, [r3, #8]
  SysTick->CTRL  = SysTick_CTRL_CLKSOURCE_Msk |
 8000cbc:	2107      	movs	r1, #7
 8000cbe:	6019      	str	r1, [r3, #0]
    SCB->SHP[((uint32_t)(IRQn) & 0xF)-4] = ((priority << (8 - __NVIC_PRIO_BITS)) & 0xff); } /* set Priority for Cortex-M  System Interrupts */
 8000cc0:	23c0      	movs	r3, #192	; 0xc0
 8000cc2:	f882 3023 	strb.w	r3, [r2, #35]	; 0x23
  lRetStatus = SysTick_Config(ARCADEIT_HCLKS_PER_MS);

  // Sets the priority of the interrupt
  NVIC_SetPriority (SysTick_IRQn, NVIC_SYSTICK_PRIORITY << 2);

  if (gDevices & ARCADEIT_DEVICE_SERIAL)
 8000cc6:	f240 2308 	movw	r3, #520	; 0x208
 8000cca:	f2c2 0300 	movt	r3, #8192	; 0x2000
 8000cce:	681b      	ldr	r3, [r3, #0]
 8000cd0:	f413 4f80 	tst.w	r3, #16384	; 0x4000
 8000cd4:	d101      	bne.n	8000cda <ArcadeIT_SysTick_Init+0x44>
  } // End if.

  // And return the status.
  return lRetStatus;

} // end ArcadeIT_SysTick_Init.
 8000cd6:	2000      	movs	r0, #0
 8000cd8:	bd08      	pop	{r3, pc}
    ArcadeIT_Serial_Port_String_Send (TEXT_SYSTICK_INITED);
 8000cda:	f247 7030 	movw	r0, #30512	; 0x7730
 8000cde:	f6c0 0000 	movt	r0, #2048	; 0x800
 8000ce2:	f001 fd23 	bl	800272c <ArcadeIT_Serial_Port_String_Send>
 8000ce6:	e7f6      	b.n	8000cd6 <ArcadeIT_SysTick_Init+0x40>

08000ce8 <ArcadeIT_System_Delay>:
   * PARAMETERS:  See above.
   * RETURNS:     Nothing
   */

  // Get the parameter from the parameters pointer.
  gSystemTimer = pDelay;
 8000ce8:	f240 2318 	movw	r3, #536	; 0x218
 8000cec:	f2c2 0300 	movt	r3, #8192	; 0x2000
 8000cf0:	6018      	str	r0, [r3, #0]
  while (gSystemTimer);
 8000cf2:	f240 2318 	movw	r3, #536	; 0x218
 8000cf6:	f2c2 0300 	movt	r3, #8192	; 0x2000
 8000cfa:	681b      	ldr	r3, [r3, #0]
 8000cfc:	2b00      	cmp	r3, #0
 8000cfe:	d1f8      	bne.n	8000cf2 <ArcadeIT_System_Delay+0xa>

} // end ArcadeIT_System_Delay.
 8000d00:	4770      	bx	lr

08000d02 <ArcadeIT_System_Init>:

// -----------------------------------------------------------------------------
void ArcadeIT_System_Init (void)
{
 8000d02:	b082      	sub	sp, #8
   * DESCRIPTION: This function initializes the core of the system
   * PARAMETERS:  None.
   * RETURNS:     Nothing.
   */

  __IO uint32_t lStartUpCounter = 0;
 8000d04:	2300      	movs	r3, #0
 8000d06:	9301      	str	r3, [sp, #4]

  SCB->AIRCR = ((uint32_t)0x05FA0000) | NVIC_PriorityGroup_2; // Set the PRIGROUP[10:8] bits according to NVIC_PriorityGroup 2 value
 8000d08:	f44f 436d 	mov.w	r3, #60672	; 0xed00
 8000d0c:	f2ce 0300 	movt	r3, #57344	; 0xe000
 8000d10:	f44f 62a0 	mov.w	r2, #1280	; 0x500
 8000d14:	f2c0 52fa 	movt	r2, #1530	; 0x5fa
 8000d18:	60da      	str	r2, [r3, #12]
  SCB->CPACR |= ((3UL << 10*2)|(3UL << 11*2));  // FPU settings: set CP10 and CP11 Full Access
 8000d1a:	f8d3 2088 	ldr.w	r2, [r3, #136]	; 0x88
 8000d1e:	f442 0270 	orr.w	r2, r2, #15728640	; 0xf00000
 8000d22:	f8c3 2088 	str.w	r2, [r3, #136]	; 0x88
  SCB->VTOR = FLASH_BASE | VECT_TAB_OFFSET;     // Vector Table Relocation in Internal FLASH
 8000d26:	f04f 6200 	mov.w	r2, #134217728	; 0x8000000
 8000d2a:	609a      	str	r2, [r3, #8]

  // In ArcadeIT PLL (clocked by HSE) is used as System clock source
  RCC->CR |= ((uint32_t)RCC_CR_HSEON);
 8000d2c:	f44f 5360 	mov.w	r3, #14336	; 0x3800
 8000d30:	f2c4 0302 	movt	r3, #16386	; 0x4002
 8000d34:	681a      	ldr	r2, [r3, #0]
 8000d36:	f442 3280 	orr.w	r2, r2, #65536	; 0x10000
 8000d3a:	601a      	str	r2, [r3, #0]

  // Wait till HSE is ready and if Time out is reached exit
  while(((RCC->CR & RCC_CR_HSERDY) == 0) && (++lStartUpCounter != HSE_STARTUP_TIMEOUT));
 8000d3c:	f44f 5360 	mov.w	r3, #14336	; 0x3800
 8000d40:	f2c4 0302 	movt	r3, #16386	; 0x4002
 8000d44:	681b      	ldr	r3, [r3, #0]
 8000d46:	f413 3f00 	tst.w	r3, #131072	; 0x20000
 8000d4a:	d108      	bne.n	8000d5e <ArcadeIT_System_Init+0x5c>
 8000d4c:	9b01      	ldr	r3, [sp, #4]
 8000d4e:	3301      	adds	r3, #1
 8000d50:	9301      	str	r3, [sp, #4]
 8000d52:	f44f 5228 	mov.w	r2, #10752	; 0x2a00
 8000d56:	f2c1 5275 	movt	r2, #5493	; 0x1575
 8000d5a:	4293      	cmp	r3, r2
 8000d5c:	d1ee      	bne.n	8000d3c <ArcadeIT_System_Init+0x3a>

  if (RCC->CR & RCC_CR_HSERDY)
 8000d5e:	f44f 5360 	mov.w	r3, #14336	; 0x3800
 8000d62:	f2c4 0302 	movt	r3, #16386	; 0x4002
 8000d66:	681b      	ldr	r3, [r3, #0]
 8000d68:	f413 3f00 	tst.w	r3, #131072	; 0x20000
 8000d6c:	d066      	beq.n	8000e3c <ArcadeIT_System_Init+0x13a>
  {
    // Select regulator voltage output Scale 1 mode
    RCC->APB1ENR |= RCC_APB1ENR_PWREN;
 8000d6e:	f44f 5360 	mov.w	r3, #14336	; 0x3800
 8000d72:	f2c4 0302 	movt	r3, #16386	; 0x4002
 8000d76:	6c1a      	ldr	r2, [r3, #64]	; 0x40
 8000d78:	f042 5280 	orr.w	r2, r2, #268435456	; 0x10000000
 8000d7c:	641a      	str	r2, [r3, #64]	; 0x40
    PWR->CR |= PWR_CR_VOS;
 8000d7e:	f44f 42e0 	mov.w	r2, #28672	; 0x7000
 8000d82:	f2c4 0200 	movt	r2, #16384	; 0x4000
 8000d86:	6811      	ldr	r1, [r2, #0]
 8000d88:	f441 4140 	orr.w	r1, r1, #49152	; 0xc000
 8000d8c:	6011      	str	r1, [r2, #0]
    // HCLK = SYSCLK / 1
    RCC->CFGR |= RCC_CFGR_HPRE_DIV1;
 8000d8e:	689a      	ldr	r2, [r3, #8]
 8000d90:	609a      	str	r2, [r3, #8]
    // PCLK2 = HCLK / 2
    RCC->CFGR |= RCC_CFGR_PPRE2_DIV2;
 8000d92:	689a      	ldr	r2, [r3, #8]
 8000d94:	f442 4200 	orr.w	r2, r2, #32768	; 0x8000
 8000d98:	609a      	str	r2, [r3, #8]
    // PCLK1 = HCLK / 4
    RCC->CFGR |= RCC_CFGR_PPRE1_DIV4; // 0x00001400U
 8000d9a:	689a      	ldr	r2, [r3, #8]
 8000d9c:	f442 52a0 	orr.w	r2, r2, #5120	; 0x1400
 8000da0:	609a      	str	r2, [r3, #8]
    // Configure the main PLL
    RCC->PLLCFGR = PLL_M | (PLL_N << 6) | (((PLL_P >> 1) - 1) << 16) | (RCC_PLLCFGR_PLLSRC_HSE) | (PLL_Q << 24);
 8000da2:	f642 5204 	movw	r2, #11524	; 0x2d04
 8000da6:	f2c0 7240 	movt	r2, #1856	; 0x740
 8000daa:	605a      	str	r2, [r3, #4]
    // Enable the main PLL
    RCC->CR |= RCC_CR_PLLON;
 8000dac:	681a      	ldr	r2, [r3, #0]
 8000dae:	f042 7280 	orr.w	r2, r2, #16777216	; 0x1000000
 8000db2:	601a      	str	r2, [r3, #0]
    // Wait till the main PLL is ready
    while((RCC->CR & RCC_CR_PLLRDY) == 0) {}
 8000db4:	f44f 5360 	mov.w	r3, #14336	; 0x3800
 8000db8:	f2c4 0302 	movt	r3, #16386	; 0x4002
 8000dbc:	681b      	ldr	r3, [r3, #0]
 8000dbe:	f013 7f00 	tst.w	r3, #33554432	; 0x2000000
 8000dc2:	d0f7      	beq.n	8000db4 <ArcadeIT_System_Init+0xb2>
    // Enable the Over-drive to extend the clock frequency to 180 Mhz
    PWR->CR |= PWR_CR_ODEN;
 8000dc4:	f44f 43e0 	mov.w	r3, #28672	; 0x7000
 8000dc8:	f2c4 0300 	movt	r3, #16384	; 0x4000
 8000dcc:	681a      	ldr	r2, [r3, #0]
 8000dce:	f442 3280 	orr.w	r2, r2, #65536	; 0x10000
 8000dd2:	601a      	str	r2, [r3, #0]
    while((PWR->CSR & PWR_CSR_ODRDY) == 0) {}
 8000dd4:	f44f 43e0 	mov.w	r3, #28672	; 0x7000
 8000dd8:	f2c4 0300 	movt	r3, #16384	; 0x4000
 8000ddc:	685b      	ldr	r3, [r3, #4]
 8000dde:	f413 3f80 	tst.w	r3, #65536	; 0x10000
 8000de2:	d0f7      	beq.n	8000dd4 <ArcadeIT_System_Init+0xd2>
    PWR->CR |= PWR_CR_ODSWEN;
 8000de4:	f44f 43e0 	mov.w	r3, #28672	; 0x7000
 8000de8:	f2c4 0300 	movt	r3, #16384	; 0x4000
 8000dec:	681a      	ldr	r2, [r3, #0]
 8000dee:	f442 3200 	orr.w	r2, r2, #131072	; 0x20000
 8000df2:	601a      	str	r2, [r3, #0]
    while((PWR->CSR & PWR_CSR_ODSWRDY) == 0) {}
 8000df4:	f44f 43e0 	mov.w	r3, #28672	; 0x7000
 8000df8:	f2c4 0300 	movt	r3, #16384	; 0x4000
 8000dfc:	685b      	ldr	r3, [r3, #4]
 8000dfe:	f413 3f00 	tst.w	r3, #131072	; 0x20000
 8000e02:	d0f7      	beq.n	8000df4 <ArcadeIT_System_Init+0xf2>
    // Configure Flash prefetch, Instruction cache, Data cache and wait state
    FLASH->ACR = FLASH_ACR_PRFTEN | FLASH_ACR_ICEN |FLASH_ACR_DCEN |FLASH_ACR_LATENCY_5WS;
 8000e04:	f44f 5370 	mov.w	r3, #15360	; 0x3c00
 8000e08:	f2c4 0302 	movt	r3, #16386	; 0x4002
 8000e0c:	f240 7205 	movw	r2, #1797	; 0x705
 8000e10:	601a      	str	r2, [r3, #0]
    // Select the main PLL as system clock source
    RCC->CFGR &= (uint32_t)((uint32_t)~(RCC_CFGR_SW));
 8000e12:	f44f 5360 	mov.w	r3, #14336	; 0x3800
 8000e16:	f2c4 0302 	movt	r3, #16386	; 0x4002
 8000e1a:	689a      	ldr	r2, [r3, #8]
 8000e1c:	f022 0203 	bic.w	r2, r2, #3
 8000e20:	609a      	str	r2, [r3, #8]
    RCC->CFGR |= RCC_CFGR_SW_PLL;
 8000e22:	689a      	ldr	r2, [r3, #8]
 8000e24:	f042 0202 	orr.w	r2, r2, #2
 8000e28:	609a      	str	r2, [r3, #8]
    // Wait till the main PLL is used as system clock source
    while ((RCC->CFGR & (uint32_t)RCC_CFGR_SWS ) != RCC_CFGR_SWS_PLL) {}
 8000e2a:	f44f 5360 	mov.w	r3, #14336	; 0x3800
 8000e2e:	f2c4 0302 	movt	r3, #16386	; 0x4002
 8000e32:	689b      	ldr	r3, [r3, #8]
 8000e34:	f003 030c 	and.w	r3, r3, #12
 8000e38:	2b08      	cmp	r3, #8
 8000e3a:	d1f6      	bne.n	8000e2a <ArcadeIT_System_Init+0x128>
    // configuration. User can add here some code to deal with this error

  } // end if

  // HCLK counter, DWT struct is defined inside the core_cm4.h file
  DWT->CTRL |= 1;  // enable the counter
 8000e3c:	f44f 5380 	mov.w	r3, #4096	; 0x1000
 8000e40:	f2ce 0300 	movt	r3, #57344	; 0xe000
 8000e44:	681a      	ldr	r2, [r3, #0]
 8000e46:	f042 0201 	orr.w	r2, r2, #1
 8000e4a:	601a      	str	r2, [r3, #0]
  DWT->CYCCNT = 0; // reset the counter
 8000e4c:	2200      	movs	r2, #0
 8000e4e:	605a      	str	r2, [r3, #4]

} // end ArcadeIT_System_Init.
 8000e50:	b002      	add	sp, #8
 8000e52:	4770      	bx	lr

08000e54 <ArcadeIT_SysTick_Handler>:

} // end ArcadeIT_If_VBlank.

// -----------------------------------------------------------------------------
void ArcadeIT_SysTick_Handler (void)
{
 8000e54:	b508      	push	{r3, lr}
   * PARAMETERS:  TimeDivider: this is the number to divide the system clock by (i.e. 1000: MSec, 1000000: MicroSec... ).
   * RETURNS:     Nothing
   */

  // Decrement timers synchronized to the MCU in ms.
  gSystemTick++;
 8000e56:	f240 2314 	movw	r3, #532	; 0x214
 8000e5a:	f2c2 0300 	movt	r3, #8192	; 0x2000
 8000e5e:	681a      	ldr	r2, [r3, #0]
 8000e60:	3201      	adds	r2, #1
 8000e62:	601a      	str	r2, [r3, #0]

  if (gSecondaryTimer > 0)
 8000e64:	f240 230c 	movw	r3, #524	; 0x20c
 8000e68:	f2c2 0300 	movt	r3, #8192	; 0x2000
 8000e6c:	681b      	ldr	r3, [r3, #0]
 8000e6e:	b133      	cbz	r3, 8000e7e <ArcadeIT_SysTick_Handler+0x2a>
    gSecondaryTimer--;
 8000e70:	f240 230c 	movw	r3, #524	; 0x20c
 8000e74:	f2c2 0300 	movt	r3, #8192	; 0x2000
 8000e78:	681a      	ldr	r2, [r3, #0]
 8000e7a:	3a01      	subs	r2, #1
 8000e7c:	601a      	str	r2, [r3, #0]

  if (gSystemTimer > 0)
 8000e7e:	f240 2318 	movw	r3, #536	; 0x218
 8000e82:	f2c2 0300 	movt	r3, #8192	; 0x2000
 8000e86:	681b      	ldr	r3, [r3, #0]
 8000e88:	b133      	cbz	r3, 8000e98 <ArcadeIT_SysTick_Handler+0x44>
    gSystemTimer--;
 8000e8a:	f240 2318 	movw	r3, #536	; 0x218
 8000e8e:	f2c2 0300 	movt	r3, #8192	; 0x2000
 8000e92:	681a      	ldr	r2, [r3, #0]
 8000e94:	3a01      	subs	r2, #1
 8000e96:	601a      	str	r2, [r3, #0]

  // Run the tasks scheduler.
  if (gUnits & ARCADEIT_UNIT_SCHEDULER)
 8000e98:	f240 231c 	movw	r3, #540	; 0x21c
 8000e9c:	f2c2 0300 	movt	r3, #8192	; 0x2000
 8000ea0:	681b      	ldr	r3, [r3, #0]
 8000ea2:	f413 7f80 	tst.w	r3, #256	; 0x100
 8000ea6:	d100      	bne.n	8000eaa <ArcadeIT_SysTick_Handler+0x56>
  {
      ArcadeIT_Scheduler_Update();

  } // End if.

} // end ArcadeIT_SysTick_Handler.
 8000ea8:	bd08      	pop	{r3, pc}
      ArcadeIT_Scheduler_Update();
 8000eaa:	f002 fe91 	bl	8003bd0 <ArcadeIT_Scheduler_Update>
} // end ArcadeIT_SysTick_Handler.
 8000eae:	e7fb      	b.n	8000ea8 <ArcadeIT_SysTick_Handler+0x54>

08000eb0 <SysTick_Handler>:

void SysTick_Handler(void)
{
 8000eb0:	b508      	push	{r3, lr}
  ArcadeIT_SysTick_Handler();
 8000eb2:	f7ff ffcf 	bl	8000e54 <ArcadeIT_SysTick_Handler>

} // End SysTick_Handler.
 8000eb6:	bd08      	pop	{r3, pc}

08000eb8 <ArcadeIT_ArcadeIT_Start>:

} // end ArcadeIT_PowerUP_Systems

// /////////////////////////////////////////////////////////////////////////////
void ArcadeIT_ArcadeIT_Start (void)
{
 8000eb8:	b500      	push	{lr}
 8000eba:	b0c1      	sub	sp, #260	; 0x104
   */

  char lString[256];

  // ---------------------------------------------------------------------------
  if (gDevices & ARCADEIT_DEVICE_SERIAL)
 8000ebc:	f240 2308 	movw	r3, #520	; 0x208
 8000ec0:	f2c2 0300 	movt	r3, #8192	; 0x2000
 8000ec4:	681b      	ldr	r3, [r3, #0]
 8000ec6:	f413 4f80 	tst.w	r3, #16384	; 0x4000
 8000eca:	d172      	bne.n	8000fb2 <ArcadeIT_ArcadeIT_Start+0xfa>

  } // End if.
  // ---------------------------------------------------------------------------
  // Clock and timer system. Thjis must be called before the SD card initialization.
  // 1ms System Tick timer.
  ArcadeIT_SysTick_Init();
 8000ecc:	f7ff fee3 	bl	8000c96 <ArcadeIT_SysTick_Init>

  // ---------------------------------------------------------------------------
  if (gDevices & ARCADEIT_DEVICE_TESTPADS)
 8000ed0:	f240 2308 	movw	r3, #520	; 0x208
 8000ed4:	f2c2 0300 	movt	r3, #8192	; 0x2000
 8000ed8:	681b      	ldr	r3, [r3, #0]
 8000eda:	f413 3f00 	tst.w	r3, #131072	; 0x20000
 8000ede:	d16d      	bne.n	8000fbc <ArcadeIT_ArcadeIT_Start+0x104>
    //ArcadeIT_TestPad_Init (RCC_MCO2Source_PLLCLK, RCC_MCO2Div_4); // 45 MHz
    //ArcadeIT_TestPad_Init (RCC_MCO2Source_HSE, RCC_MCO2Div_1);    //  8 MHz

  } // End if.
  // ---------------------------------------------------------------------------
  if (gDevices & ARCADEIT_DEVICE_STATUSLED)
 8000ee0:	f240 2308 	movw	r3, #520	; 0x208
 8000ee4:	f2c2 0300 	movt	r3, #8192	; 0x2000
 8000ee8:	681b      	ldr	r3, [r3, #0]
 8000eea:	f413 3f80 	tst.w	r3, #65536	; 0x10000
 8000eee:	d16b      	bne.n	8000fc8 <ArcadeIT_ArcadeIT_Start+0x110>
    ArcadeIT_Status_LEDS_Init();

  } // End if.
  // ---------------------------------------------------------------------------
  // Time and date system.
  if (gUnits & ARCADEIT_UNIT_RTC)
 8000ef0:	f240 231c 	movw	r3, #540	; 0x21c
 8000ef4:	f2c2 0300 	movt	r3, #8192	; 0x2000
 8000ef8:	681b      	ldr	r3, [r3, #0]
 8000efa:	f013 0f01 	tst.w	r3, #1
 8000efe:	d166      	bne.n	8000fce <ArcadeIT_ArcadeIT_Start+0x116>

    } // End if.
  // ---------------------------------------------------------------------------
  // Systems scheduler task. This must be set AFTER the Systick has been initialized
  // because uses the ISR function that is handled by the Systick.
  if (gUnits & ARCADEIT_UNIT_SCHEDULER)
 8000f00:	f240 231c 	movw	r3, #540	; 0x21c
 8000f04:	f2c2 0300 	movt	r3, #8192	; 0x2000
 8000f08:	681b      	ldr	r3, [r3, #0]
 8000f0a:	f413 7f80 	tst.w	r3, #256	; 0x100
 8000f0e:	d161      	bne.n	8000fd4 <ArcadeIT_ArcadeIT_Start+0x11c>
    // Start the scheduler system.
    ArcadeIT_Scheduler_Task_Init();

  } // End if.
  // ---------------------------------------------------------------------------
  if (gDevices & ARCADEIT_DEVICE_BUS)
 8000f10:	f240 2308 	movw	r3, #520	; 0x208
 8000f14:	f2c2 0300 	movt	r3, #8192	; 0x2000
 8000f18:	681b      	ldr	r3, [r3, #0]
 8000f1a:	f013 0f01 	tst.w	r3, #1
 8000f1e:	d15c      	bne.n	8000fda <ArcadeIT_ArcadeIT_Start+0x122>

  } // End if.
  // ---------------------------------------------------------------------------
  // The external SRAM must be set before output devices in case we want to use
  // it as a frame buffer
  if (gDevices & ARCADEIT_DEVICE_RAM_MODULE)
 8000f20:	f240 2308 	movw	r3, #520	; 0x208
 8000f24:	f2c2 0300 	movt	r3, #8192	; 0x2000
 8000f28:	681b      	ldr	r3, [r3, #0]
 8000f2a:	f013 0f02 	tst.w	r3, #2
 8000f2e:	d157      	bne.n	8000fe0 <ArcadeIT_ArcadeIT_Start+0x128>
    ArcadeIT_SRAM_Init ();

  } // End if.
  // ---------------------------------------------------------------------------
  // Start the SPI Port
  if (gDevices & ARCADEIT_DEVICE_SPI1)
 8000f30:	f240 2308 	movw	r3, #520	; 0x208
 8000f34:	f2c2 0300 	movt	r3, #8192	; 0x2000
 8000f38:	681b      	ldr	r3, [r3, #0]
 8000f3a:	f013 0f10 	tst.w	r3, #16
 8000f3e:	d155      	bne.n	8000fec <ArcadeIT_ArcadeIT_Start+0x134>
  {
    ArcadeIT_SPI_Port_Init (SPI_FREQ_45_00_MHz);

  } // End if.
  // ---------------------------------------------------------------------------
  if (gDevices & ARCADEIT_DEVICE_I2C)
 8000f40:	f240 2308 	movw	r3, #520	; 0x208
 8000f44:	f2c2 0300 	movt	r3, #8192	; 0x2000
 8000f48:	681b      	ldr	r3, [r3, #0]
 8000f4a:	f013 0f20 	tst.w	r3, #32
 8000f4e:	d151      	bne.n	8000ff4 <ArcadeIT_ArcadeIT_Start+0x13c>
    ArcadeIT_I2C_Port_Init(I2C_100kHz);

  } // End if.
  // ---------------------------------------------------------------------------
  // Storage systems
  if (gStorage & (ARCADEIT_STORAGE_RAM_DISK | ARCADEIT_STORAGE_SD_CARD_SPI1))
 8000f50:	f240 2310 	movw	r3, #528	; 0x210
 8000f54:	f2c2 0300 	movt	r3, #8192	; 0x2000
 8000f58:	681b      	ldr	r3, [r3, #0]
 8000f5a:	f013 0f03 	tst.w	r3, #3
 8000f5e:	d013      	beq.n	8000f88 <ArcadeIT_ArcadeIT_Start+0xd0>
  {
    FRESULT lValue;

    if (gStorage & ARCADEIT_STORAGE_SD_CARD_SPI1)
 8000f60:	f013 0f02 	tst.w	r3, #2
 8000f64:	d14d      	bne.n	8001002 <ArcadeIT_ArcadeIT_Start+0x14a>

      } // End if.

    } // End if.
    // -------------------------------------------------------------------------
    if ((gStorage & ARCADEIT_STORAGE_RAM_DISK) && (gDevices & ARCADEIT_DEVICE_RAM_MODULE))
 8000f66:	f240 2310 	movw	r3, #528	; 0x210
 8000f6a:	f2c2 0300 	movt	r3, #8192	; 0x2000
 8000f6e:	681b      	ldr	r3, [r3, #0]
 8000f70:	f013 0f01 	tst.w	r3, #1
 8000f74:	d008      	beq.n	8000f88 <ArcadeIT_ArcadeIT_Start+0xd0>
 8000f76:	f240 2308 	movw	r3, #520	; 0x208
 8000f7a:	f2c2 0300 	movt	r3, #8192	; 0x2000
 8000f7e:	681b      	ldr	r3, [r3, #0]
 8000f80:	f013 0f02 	tst.w	r3, #2
 8000f84:	f040 80a1 	bne.w	80010ca <ArcadeIT_ArcadeIT_Start+0x212>

  } // End if.
  // ---------------------------------------------------------------------------
  // Set LCD output if any. This must be set AFTER the Systick has been initialized
  // Because uses the delay function that is handled by the Systick.
  if (gDevices & ARCADEIT_DEVICE_LCDS)
 8000f88:	f240 2308 	movw	r3, #520	; 0x208
 8000f8c:	f2c2 0300 	movt	r3, #8192	; 0x2000
 8000f90:	681b      	ldr	r3, [r3, #0]
 8000f92:	f413 7f80 	tst.w	r3, #256	; 0x100
 8000f96:	f040 80fc 	bne.w	8001192 <ArcadeIT_ArcadeIT_Start+0x2da>
    gLCDDriver[0].mirror = FALSE;

  } // End if.
  // ---------------------------------------------------------------------------
  // Shows a message to serial port as debug
  if (gDevices & ARCADEIT_DEVICE_SERIAL)
 8000f9a:	f240 2308 	movw	r3, #520	; 0x208
 8000f9e:	f2c2 0300 	movt	r3, #8192	; 0x2000
 8000fa2:	681b      	ldr	r3, [r3, #0]
 8000fa4:	f413 4f80 	tst.w	r3, #16384	; 0x4000
 8000fa8:	f040 80ff 	bne.w	80011aa <ArcadeIT_ArcadeIT_Start+0x2f2>
  {
    ArcadeIT_Serial_Port_String_Send(CURSOR_NEWLINE);

  } // End if.

} // End ArcadeIT_Start
 8000fac:	b041      	add	sp, #260	; 0x104
 8000fae:	f85d fb04 	ldr.w	pc, [sp], #4
    ArcadeIT_Serial_Port_Init (SYS_SERIAL_SPEED);
 8000fb2:	f44f 30e1 	mov.w	r0, #115200	; 0x1c200
 8000fb6:	f001 fbc3 	bl	8002740 <ArcadeIT_Serial_Port_Init>
 8000fba:	e787      	b.n	8000ecc <ArcadeIT_ArcadeIT_Start+0x14>
    ArcadeIT_TestPad_Init (RCC_MCO2Source_SYSCLK, RCC_MCO2Div_4);  //  45 MHz
 8000fbc:	f04f 5140 	mov.w	r1, #805306368	; 0x30000000
 8000fc0:	2000      	movs	r0, #0
 8000fc2:	f001 fd49 	bl	8002a58 <ArcadeIT_TestPad_Init>
 8000fc6:	e78b      	b.n	8000ee0 <ArcadeIT_ArcadeIT_Start+0x28>
    ArcadeIT_Status_LEDS_Init();
 8000fc8:	f001 fc9e 	bl	8002908 <ArcadeIT_Status_LEDS_Init>
 8000fcc:	e790      	b.n	8000ef0 <ArcadeIT_ArcadeIT_Start+0x38>
      ArcadeIT_RTC_Init ();
 8000fce:	f001 f8dd 	bl	800218c <ArcadeIT_RTC_Init>
 8000fd2:	e795      	b.n	8000f00 <ArcadeIT_ArcadeIT_Start+0x48>
    ArcadeIT_Scheduler_Task_Init();
 8000fd4:	f002 fd95 	bl	8003b02 <ArcadeIT_Scheduler_Task_Init>
 8000fd8:	e79a      	b.n	8000f10 <ArcadeIT_ArcadeIT_Start+0x58>
    ArcadeIT_BUS_Port_Init ();
 8000fda:	f000 fa99 	bl	8001510 <ArcadeIT_BUS_Port_Init>
 8000fde:	e79f      	b.n	8000f20 <ArcadeIT_ArcadeIT_Start+0x68>
    ArcadeIT_BUS_Port_SRAM(BUS_SRAM_PRESCALER);
 8000fe0:	2002      	movs	r0, #2
 8000fe2:	f000 fc1b 	bl	800181c <ArcadeIT_BUS_Port_SRAM>
    ArcadeIT_SRAM_Init ();
 8000fe6:	f001 fac5 	bl	8002574 <ArcadeIT_SRAM_Init>
 8000fea:	e7a1      	b.n	8000f30 <ArcadeIT_ArcadeIT_Start+0x78>
    ArcadeIT_SPI_Port_Init (SPI_FREQ_45_00_MHz);
 8000fec:	2000      	movs	r0, #0
 8000fee:	f001 f9bb 	bl	8002368 <ArcadeIT_SPI_Port_Init>
 8000ff2:	e7a5      	b.n	8000f40 <ArcadeIT_ArcadeIT_Start+0x88>
    ArcadeIT_I2C_Port_Init(I2C_100kHz);
 8000ff4:	f248 60a0 	movw	r0, #34464	; 0x86a0
 8000ff8:	f2c0 0001 	movt	r0, #1
 8000ffc:	f000 fc4e 	bl	800189c <ArcadeIT_I2C_Port_Init>
 8001000:	e7a6      	b.n	8000f50 <ArcadeIT_ArcadeIT_Start+0x98>
      lValue = ArcadeIT_SDCard_Disk_Start();
 8001002:	f002 fc94 	bl	800392e <ArcadeIT_SDCard_Disk_Start>
      if (lValue == FR_OK)
 8001006:	b1c8      	cbz	r0, 800103c <ArcadeIT_ArcadeIT_Start+0x184>
        if (gDevices & ARCADEIT_DEVICE_SERIAL)
 8001008:	f240 2308 	movw	r3, #520	; 0x208
 800100c:	f2c2 0300 	movt	r3, #8192	; 0x2000
 8001010:	681b      	ldr	r3, [r3, #0]
 8001012:	f413 4f80 	tst.w	r3, #16384	; 0x4000
 8001016:	d0a6      	beq.n	8000f66 <ArcadeIT_ArcadeIT_Start+0xae>
          sprintf(lString, "%s\n\r", ArcadeIT_Utility_Get_String_ID(lValue, (char*)gErrorMessages));
 8001018:	f648 1194 	movw	r1, #35220	; 0x8994
 800101c:	f6c0 0100 	movt	r1, #2048	; 0x800
 8001020:	f000 f9c8 	bl	80013b4 <ArcadeIT_Utility_Get_String_ID>
 8001024:	4602      	mov	r2, r0
 8001026:	f247 7128 	movw	r1, #30504	; 0x7728
 800102a:	f6c0 0100 	movt	r1, #2048	; 0x800
 800102e:	4668      	mov	r0, sp
 8001030:	f005 f85c 	bl	80060ec <siprintf>
          ArcadeIT_Serial_Port_String_Send(lString);
 8001034:	4668      	mov	r0, sp
 8001036:	f001 fb79 	bl	800272c <ArcadeIT_Serial_Port_String_Send>
 800103a:	e794      	b.n	8000f66 <ArcadeIT_ArcadeIT_Start+0xae>
        lValue = f_chdrive(ArcadeIT_Utility_Get_String_ID(DEV_SD, (char*)gDriveName));
 800103c:	f648 1180 	movw	r1, #35200	; 0x8980
 8001040:	f6c0 0100 	movt	r1, #2048	; 0x800
 8001044:	2001      	movs	r0, #1
 8001046:	f000 f9b5 	bl	80013b4 <ArcadeIT_Utility_Get_String_ID>
 800104a:	f003 fdec 	bl	8004c26 <f_chdrive>
        if (lValue == FR_OK)
 800104e:	bb08      	cbnz	r0, 8001094 <ArcadeIT_ArcadeIT_Start+0x1dc>
          gCurrentDrive = DEV_SD;
 8001050:	f240 030f 	movw	r3, #15
 8001054:	f2c2 0300 	movt	r3, #8192	; 0x2000
 8001058:	2201      	movs	r2, #1
 800105a:	701a      	strb	r2, [r3, #0]
          if (gDevices & ARCADEIT_DEVICE_SERIAL)
 800105c:	f240 2308 	movw	r3, #520	; 0x208
 8001060:	f2c2 0300 	movt	r3, #8192	; 0x2000
 8001064:	681b      	ldr	r3, [r3, #0]
 8001066:	f413 4f80 	tst.w	r3, #16384	; 0x4000
 800106a:	f43f af7c 	beq.w	8000f66 <ArcadeIT_ArcadeIT_Start+0xae>
            sprintf(lString, "Current drive: [%s]\n\r", ArcadeIT_Utility_Get_String_ID(gCurrentDrive, (char*)gDriveName));
 800106e:	f648 1180 	movw	r1, #35200	; 0x8980
 8001072:	f6c0 0100 	movt	r1, #2048	; 0x800
 8001076:	4610      	mov	r0, r2
 8001078:	f000 f99c 	bl	80013b4 <ArcadeIT_Utility_Get_String_ID>
 800107c:	4602      	mov	r2, r0
 800107e:	f247 7110 	movw	r1, #30480	; 0x7710
 8001082:	f6c0 0100 	movt	r1, #2048	; 0x800
 8001086:	4668      	mov	r0, sp
 8001088:	f005 f830 	bl	80060ec <siprintf>
            ArcadeIT_Serial_Port_String_Send(lString);
 800108c:	4668      	mov	r0, sp
 800108e:	f001 fb4d 	bl	800272c <ArcadeIT_Serial_Port_String_Send>
 8001092:	e768      	b.n	8000f66 <ArcadeIT_ArcadeIT_Start+0xae>
          if (gDevices & ARCADEIT_DEVICE_SERIAL)
 8001094:	f240 2308 	movw	r3, #520	; 0x208
 8001098:	f2c2 0300 	movt	r3, #8192	; 0x2000
 800109c:	681b      	ldr	r3, [r3, #0]
 800109e:	f413 4f80 	tst.w	r3, #16384	; 0x4000
 80010a2:	f43f af60 	beq.w	8000f66 <ArcadeIT_ArcadeIT_Start+0xae>
            sprintf(lString, "%s\n\r", ArcadeIT_Utility_Get_String_ID(lValue, (char*)gErrorMessages));
 80010a6:	f648 1194 	movw	r1, #35220	; 0x8994
 80010aa:	f6c0 0100 	movt	r1, #2048	; 0x800
 80010ae:	f000 f981 	bl	80013b4 <ArcadeIT_Utility_Get_String_ID>
 80010b2:	4602      	mov	r2, r0
 80010b4:	f247 7128 	movw	r1, #30504	; 0x7728
 80010b8:	f6c0 0100 	movt	r1, #2048	; 0x800
 80010bc:	4668      	mov	r0, sp
 80010be:	f005 f815 	bl	80060ec <siprintf>
            ArcadeIT_Serial_Port_String_Send(lString);
 80010c2:	4668      	mov	r0, sp
 80010c4:	f001 fb32 	bl	800272c <ArcadeIT_Serial_Port_String_Send>
 80010c8:	e74d      	b.n	8000f66 <ArcadeIT_ArcadeIT_Start+0xae>
      lValue = ArcadeIT_RAMDisk_Start();
 80010ca:	f002 f859 	bl	8003180 <ArcadeIT_RAMDisk_Start>
      if (lValue == FR_OK)
 80010ce:	b1d0      	cbz	r0, 8001106 <ArcadeIT_ArcadeIT_Start+0x24e>
        if (gDevices & ARCADEIT_DEVICE_SERIAL)
 80010d0:	f240 2308 	movw	r3, #520	; 0x208
 80010d4:	f2c2 0300 	movt	r3, #8192	; 0x2000
 80010d8:	681b      	ldr	r3, [r3, #0]
 80010da:	f413 4f80 	tst.w	r3, #16384	; 0x4000
 80010de:	f43f af53 	beq.w	8000f88 <ArcadeIT_ArcadeIT_Start+0xd0>
          sprintf(lString, "%s\n\r", ArcadeIT_Utility_Get_String_ID(lValue, (char*)gErrorMessages));
 80010e2:	f648 1194 	movw	r1, #35220	; 0x8994
 80010e6:	f6c0 0100 	movt	r1, #2048	; 0x800
 80010ea:	f000 f963 	bl	80013b4 <ArcadeIT_Utility_Get_String_ID>
 80010ee:	4602      	mov	r2, r0
 80010f0:	f247 7128 	movw	r1, #30504	; 0x7728
 80010f4:	f6c0 0100 	movt	r1, #2048	; 0x800
 80010f8:	4668      	mov	r0, sp
 80010fa:	f004 fff7 	bl	80060ec <siprintf>
          ArcadeIT_Serial_Port_String_Send(lString);
 80010fe:	4668      	mov	r0, sp
 8001100:	f001 fb14 	bl	800272c <ArcadeIT_Serial_Port_String_Send>
 8001104:	e740      	b.n	8000f88 <ArcadeIT_ArcadeIT_Start+0xd0>
        lValue = f_chdrive(ArcadeIT_Utility_Get_String_ID(DEV_RAM, (char*)gDriveName));
 8001106:	f648 1180 	movw	r1, #35200	; 0x8980
 800110a:	f6c0 0100 	movt	r1, #2048	; 0x800
 800110e:	f000 f951 	bl	80013b4 <ArcadeIT_Utility_Get_String_ID>
 8001112:	f003 fd88 	bl	8004c26 <f_chdrive>
        if (lValue == FR_OK)
 8001116:	bb08      	cbnz	r0, 800115c <ArcadeIT_ArcadeIT_Start+0x2a4>
          gCurrentDrive = DEV_RAM;
 8001118:	f240 030f 	movw	r3, #15
 800111c:	f2c2 0300 	movt	r3, #8192	; 0x2000
 8001120:	2200      	movs	r2, #0
 8001122:	701a      	strb	r2, [r3, #0]
          if (gDevices & ARCADEIT_DEVICE_SERIAL)
 8001124:	f240 2308 	movw	r3, #520	; 0x208
 8001128:	f2c2 0300 	movt	r3, #8192	; 0x2000
 800112c:	681b      	ldr	r3, [r3, #0]
 800112e:	f413 4f80 	tst.w	r3, #16384	; 0x4000
 8001132:	f43f af29 	beq.w	8000f88 <ArcadeIT_ArcadeIT_Start+0xd0>
            sprintf(lString, "Current drive: [%s]\n\r", ArcadeIT_Utility_Get_String_ID(gCurrentDrive, (char*)gDriveName));
 8001136:	f648 1180 	movw	r1, #35200	; 0x8980
 800113a:	f6c0 0100 	movt	r1, #2048	; 0x800
 800113e:	4610      	mov	r0, r2
 8001140:	f000 f938 	bl	80013b4 <ArcadeIT_Utility_Get_String_ID>
 8001144:	4602      	mov	r2, r0
 8001146:	f247 7110 	movw	r1, #30480	; 0x7710
 800114a:	f6c0 0100 	movt	r1, #2048	; 0x800
 800114e:	4668      	mov	r0, sp
 8001150:	f004 ffcc 	bl	80060ec <siprintf>
            ArcadeIT_Serial_Port_String_Send(lString);
 8001154:	4668      	mov	r0, sp
 8001156:	f001 fae9 	bl	800272c <ArcadeIT_Serial_Port_String_Send>
 800115a:	e715      	b.n	8000f88 <ArcadeIT_ArcadeIT_Start+0xd0>
          if (gDevices & ARCADEIT_DEVICE_SERIAL)
 800115c:	f240 2308 	movw	r3, #520	; 0x208
 8001160:	f2c2 0300 	movt	r3, #8192	; 0x2000
 8001164:	681b      	ldr	r3, [r3, #0]
 8001166:	f413 4f80 	tst.w	r3, #16384	; 0x4000
 800116a:	f43f af0d 	beq.w	8000f88 <ArcadeIT_ArcadeIT_Start+0xd0>
            sprintf(lString, "%s\n\r", ArcadeIT_Utility_Get_String_ID(lValue, (char*)gErrorMessages));
 800116e:	f648 1194 	movw	r1, #35220	; 0x8994
 8001172:	f6c0 0100 	movt	r1, #2048	; 0x800
 8001176:	f000 f91d 	bl	80013b4 <ArcadeIT_Utility_Get_String_ID>
 800117a:	4602      	mov	r2, r0
 800117c:	f247 7128 	movw	r1, #30504	; 0x7728
 8001180:	f6c0 0100 	movt	r1, #2048	; 0x800
 8001184:	4668      	mov	r0, sp
 8001186:	f004 ffb1 	bl	80060ec <siprintf>
            ArcadeIT_Serial_Port_String_Send(lString);
 800118a:	4668      	mov	r0, sp
 800118c:	f001 face 	bl	800272c <ArcadeIT_Serial_Port_String_Send>
 8001190:	e6fa      	b.n	8000f88 <ArcadeIT_ArcadeIT_Start+0xd0>
    ArcadeIT_BUS_Port_SRAM(6);
 8001192:	2006      	movs	r0, #6
 8001194:	f000 fb42 	bl	800181c <ArcadeIT_BUS_Port_SRAM>
    LCD_Driver_Start ();
 8001198:	f000 ff05 	bl	8001fa6 <LCD_Driver_Start>
    gLCDDriver[0].mirror = FALSE;
 800119c:	f240 43f0 	movw	r3, #1264	; 0x4f0
 80011a0:	f2c2 0300 	movt	r3, #8192	; 0x2000
 80011a4:	2200      	movs	r2, #0
 80011a6:	759a      	strb	r2, [r3, #22]
 80011a8:	e6f7      	b.n	8000f9a <ArcadeIT_ArcadeIT_Start+0xe2>
    ArcadeIT_Serial_Port_String_Send(CURSOR_NEWLINE);
 80011aa:	f248 70d4 	movw	r0, #34772	; 0x87d4
 80011ae:	f6c0 0000 	movt	r0, #2048	; 0x800
 80011b2:	f001 fabb 	bl	800272c <ArcadeIT_Serial_Port_String_Send>
} // End ArcadeIT_Start
 80011b6:	e6f9      	b.n	8000fac <ArcadeIT_ArcadeIT_Start+0xf4>

080011b8 <ArcadeIT_Test_Bench>:

// ////////////////////////////////////////////////////////////////////////////
uint16_t lFakePWM_Out = 0, lFakePWM_Counter = 0, lFakePWM_Counter_Limit = 18000, lFakePWM_Duty = 32, lFakePWM_Duty_Counter = 0, lFakePWM_Duty_Counter_limit = 255;

void ArcadeIT_Test_Bench (void)
{
 80011b8:	b510      	push	{r4, lr}
 80011ba:	b082      	sub	sp, #8
  // The following variables hold the flags that start the features/peripherals
  // of the ArcadeIT System. It could be possible to configure the ArcadeIT System from a
  // *.ini text file on the SD Card, or other sources.

  // System features.
  gUnits = NONE
 80011bc:	f240 231c 	movw	r3, #540	; 0x21c
 80011c0:	f2c2 0300 	movt	r3, #8192	; 0x2000
 80011c4:	f44f 7280 	mov.w	r2, #256	; 0x100
 80011c8:	601a      	str	r2, [r3, #0]
      //| ARCADEIT_UNIT_RTC             // Real time clock
      //| ARCADEIT_UNIT_DMM             // The custom ArcadeIt Dynamic Memory Manager
        | ARCADEIT_UNIT_SCHEDULER       // The task scheduler system.
      ;

  gStorage = NONE
 80011ca:	f240 2310 	movw	r3, #528	; 0x210
 80011ce:	f2c2 0300 	movt	r3, #8192	; 0x2000
 80011d2:	2400      	movs	r4, #0
 80011d4:	601c      	str	r4, [r3, #0]
      //| ARCADEIT_STORAGE_RAM_DISK     // Ram disk with a FAT File system on the SRAM expansion
      //| ARCADEIT_STORAGE_SD_CARD_SPI1 // File system FAT on SD Card over the SPI1 port
      ;

  gDevices = NONE
 80011d6:	f240 2308 	movw	r3, #520	; 0x208
 80011da:	f2c2 0300 	movt	r3, #8192	; 0x2000
 80011de:	f244 1203 	movw	r2, #16643	; 0x4103
 80011e2:	f2c0 0203 	movt	r2, #3
 80011e6:	601a      	str	r2, [r3, #0]
        | ARCADEIT_DEVICE_SERIAL        // Serial port USART 2
        | ARCADEIT_DEVICE_STATUSLED     // Two Status LEDs
        | ARCADEIT_DEVICE_TESTPADS      // System clock test pads
       ;

  ArcadeIT_ArcadeIT_Start();
 80011e8:	f7ff fe66 	bl	8000eb8 <ArcadeIT_ArcadeIT_Start>
  char lString[256];

#if 1
  // ===========================================================================
  // Status LEDs
  for (uint8_t lCycles = 0; lCycles < 4; lCycles++)
 80011ec:	e00b      	b.n	8001206 <ArcadeIT_Test_Bench+0x4e>
  {
    ArcadeIT_Status_LED1_Toggle();
 80011ee:	f001 fbf4 	bl	80029da <ArcadeIT_Status_LED1_Toggle>
    ArcadeIT_System_Delay(250);
 80011f2:	20fa      	movs	r0, #250	; 0xfa
 80011f4:	f7ff fd78 	bl	8000ce8 <ArcadeIT_System_Delay>
    ArcadeIT_Status_LED2_Toggle();
 80011f8:	f001 fc09 	bl	8002a0e <ArcadeIT_Status_LED2_Toggle>
    ArcadeIT_System_Delay(250);
 80011fc:	20fa      	movs	r0, #250	; 0xfa
 80011fe:	f7ff fd73 	bl	8000ce8 <ArcadeIT_System_Delay>
  for (uint8_t lCycles = 0; lCycles < 4; lCycles++)
 8001202:	3401      	adds	r4, #1
 8001204:	b2e4      	uxtb	r4, r4
 8001206:	2c03      	cmp	r4, #3
 8001208:	d9f1      	bls.n	80011ee <ArcadeIT_Test_Bench+0x36>
  } // End if.
#endif
#if 1
  // --------------------------------------------------------------------------
  // We setup the scheduler to blink the Status LED 1 at 1Hz (every seconds).
  if (gUnits & ARCADEIT_UNIT_SCHEDULER)
 800120a:	f240 231c 	movw	r3, #540	; 0x21c
 800120e:	f2c2 0300 	movt	r3, #8192	; 0x2000
 8001212:	681b      	ldr	r3, [r3, #0]
 8001214:	f413 7f80 	tst.w	r3, #256	; 0x100
 8001218:	d013      	beq.n	8001242 <ArcadeIT_Test_Bench+0x8a>
  {
    if (gDevices & ARCADEIT_DEVICE_STATUSLED)
 800121a:	f240 2308 	movw	r3, #520	; 0x208
 800121e:	f2c2 0300 	movt	r3, #8192	; 0x2000
 8001222:	681b      	ldr	r3, [r3, #0]
 8001224:	f413 3f80 	tst.w	r3, #65536	; 0x10000
 8001228:	d00b      	beq.n	8001242 <ArcadeIT_Test_Bench+0x8a>
    {
          ArcadeIT_Scheduler_Task_Set (
 800122a:	f44f 73fa 	mov.w	r3, #500	; 0x1f4
 800122e:	9300      	str	r3, [sp, #0]
 8001230:	2300      	movs	r3, #0
 8001232:	461a      	mov	r2, r3
 8001234:	f642 11db 	movw	r1, #10715	; 0x29db
 8001238:	f6c0 0100 	movt	r1, #2048	; 0x800
 800123c:	4618      	mov	r0, r3
 800123e:	f002 fc7a 	bl	8003b36 <ArcadeIT_Scheduler_Task_Set>
  GPIOB->ODR     = 0;          // All outputs set to 0

  uint16_t GPIOB_Output = 0;
#endif

  LCD_0_Backlight_Set(100);
 8001242:	2064      	movs	r0, #100	; 0x64
 8001244:	f000 fe94 	bl	8001f70 <LCD_0_Backlight_Set>
  LCD_1_Backlight_Set(100);
 8001248:	2064      	movs	r0, #100	; 0x64
 800124a:	f000 fe9e 	bl	8001f8a <LCD_1_Backlight_Set>

  gCubeMonitorTrigger1 = 1;
 800124e:	f240 2304 	movw	r3, #516	; 0x204
 8001252:	f2c2 0300 	movt	r3, #8192	; 0x2000
 8001256:	2201      	movs	r2, #1
 8001258:	701a      	strb	r2, [r3, #0]
  uint16_t lColor = 0xFF;
  uint32_t lTime = 0;

#if 1
  //ArcadeIT_ChromeART_Fill(30, 30, 120, 60, color++, ARCADEIT_DEVICE_LCDS, LCD_1_ID);
  if ((RCC->AHB1ENR & RCC_AHB1Periph_DMA2D) == FALSE) RCC->AHB1ENR |= RCC_AHB1Periph_DMA2D;
 800125a:	f44f 5360 	mov.w	r3, #14336	; 0x3800
 800125e:	f2c4 0302 	movt	r3, #16386	; 0x4002
 8001262:	6b1b      	ldr	r3, [r3, #48]	; 0x30
 8001264:	f413 0f00 	tst.w	r3, #8388608	; 0x800000
 8001268:	d107      	bne.n	800127a <ArcadeIT_Test_Bench+0xc2>
 800126a:	f44f 5360 	mov.w	r3, #14336	; 0x3800
 800126e:	f2c4 0302 	movt	r3, #16386	; 0x4002
 8001272:	6b1a      	ldr	r2, [r3, #48]	; 0x30
 8001274:	f442 0200 	orr.w	r2, r2, #8388608	; 0x800000
 8001278:	631a      	str	r2, [r3, #48]	; 0x30
  // Enable DMA2D reset state
  RCC->AHB1RSTR |= RCC_AHB1Periph_DMA2D;
 800127a:	f44f 5360 	mov.w	r3, #14336	; 0x3800
 800127e:	f2c4 0302 	movt	r3, #16386	; 0x4002
 8001282:	691a      	ldr	r2, [r3, #16]
 8001284:	f442 0200 	orr.w	r2, r2, #8388608	; 0x800000
 8001288:	611a      	str	r2, [r3, #16]
  // Release DMA2D from reset state
  RCC->AHB1RSTR &= ~RCC_AHB1Periph_DMA2D;
 800128a:	691a      	ldr	r2, [r3, #16]
 800128c:	f422 0200 	bic.w	r2, r2, #8388608	; 0x800000
 8001290:	611a      	str	r2, [r3, #16]
  // Configures the DMA2D operation mode
  DMA2D->CR &= (uint32_t)CR_MASK;
 8001292:	f44f 4330 	mov.w	r3, #45056	; 0xb000
 8001296:	f2c4 0302 	movt	r3, #16386	; 0x4002
 800129a:	681a      	ldr	r2, [r3, #0]
 800129c:	f022 1203 	bic.w	r2, r2, #196611	; 0x30003
 80012a0:	f422 52f8 	bic.w	r2, r2, #7936	; 0x1f00
 80012a4:	601a      	str	r2, [r3, #0]
  DMA2D->CR |= DMA2D_R2M;
 80012a6:	681a      	ldr	r2, [r3, #0]
 80012a8:	f442 3240 	orr.w	r2, r2, #196608	; 0x30000
 80012ac:	601a      	str	r2, [r3, #0]
  // Configures the color mode of the output image
  DMA2D->OPFCCR &= ~(uint32_t)DMA2D_OPFCCR_CM;
 80012ae:	6b5a      	ldr	r2, [r3, #52]	; 0x34
 80012b0:	f022 0207 	bic.w	r2, r2, #7
 80012b4:	635a      	str	r2, [r3, #52]	; 0x34
  DMA2D->OPFCCR |= DMA2D_RGB565;
 80012b6:	6b5a      	ldr	r2, [r3, #52]	; 0x34
 80012b8:	f042 0202 	orr.w	r2, r2, #2
 80012bc:	635a      	str	r2, [r3, #52]	; 0x34
  // Configures the output color
  //if (DMA2D_InitStruct->DMA2D_CMode == DMA2D_RGB565)
  DMA2D->OCOLR |= ((0 << 5) | (0x1F << 11) | (0x1F) | (0));
 80012be:	6b9a      	ldr	r2, [r3, #56]	; 0x38
 80012c0:	f442 4278 	orr.w	r2, r2, #63488	; 0xf800
 80012c4:	f042 021f 	orr.w	r2, r2, #31
 80012c8:	639a      	str	r2, [r3, #56]	; 0x38
  // Configures the output memory address
  DMA2D->OMAR = (uint32_t)(gDisplayAddress[0] + LCD_DATA);
 80012ca:	f240 0200 	movw	r2, #0
 80012ce:	f2c2 0200 	movt	r2, #8192	; 0x2000
 80012d2:	6812      	ldr	r2, [r2, #0]
 80012d4:	f502 3280 	add.w	r2, r2, #65536	; 0x10000
 80012d8:	63da      	str	r2, [r3, #60]	; 0x3c
  // Configure  the line Offset
  DMA2D->OOR &= ~(uint32_t)DMA2D_OOR_LO;
 80012da:	6c1a      	ldr	r2, [r3, #64]	; 0x40
 80012dc:	f422 527f 	bic.w	r2, r2, #16320	; 0x3fc0
 80012e0:	f022 023f 	bic.w	r2, r2, #63	; 0x3f
 80012e4:	641a      	str	r2, [r3, #64]	; 0x40
  DMA2D->OOR |= 0;
 80012e6:	6c1a      	ldr	r2, [r3, #64]	; 0x40
 80012e8:	641a      	str	r2, [r3, #64]	; 0x40
  // Configure the number of line and pixel per line
  DMA2D->NLR &= ~(DMA2D_NLR_NL | DMA2D_NLR_PL);
 80012ea:	6c5a      	ldr	r2, [r3, #68]	; 0x44
 80012ec:	f002 4240 	and.w	r2, r2, #3221225472	; 0xc0000000
 80012f0:	645a      	str	r2, [r3, #68]	; 0x44
  DMA2D->NLR |= (240 | (320 << 16));
 80012f2:	6c5a      	ldr	r2, [r3, #68]	; 0x44
 80012f4:	f042 72a0 	orr.w	r2, r2, #20971520	; 0x1400000
 80012f8:	f042 02f0 	orr.w	r2, r2, #240	; 0xf0
 80012fc:	645a      	str	r2, [r3, #68]	; 0x44
  // Start DMA2D transfer by setting START bit
  DMA2D->CR |= (uint32_t)DMA2D_CR_START;
 80012fe:	681a      	ldr	r2, [r3, #0]
 8001300:	f042 0201 	orr.w	r2, r2, #1
 8001304:	601a      	str	r2, [r3, #0]
  // Wait for TC Flag activation
  while(((DMA2D->ISR) & DMA2D_ISR_TCIF) == (uint32_t)RESET){};
 8001306:	f44f 4330 	mov.w	r3, #45056	; 0xb000
 800130a:	f2c4 0302 	movt	r3, #16386	; 0x4002
 800130e:	685b      	ldr	r3, [r3, #4]
 8001310:	f013 0f02 	tst.w	r3, #2
 8001314:	d0f7      	beq.n	8001306 <ArcadeIT_Test_Bench+0x14e>
  uint16_t lColor = 0xFF;
 8001316:	20ff      	movs	r0, #255	; 0xff
 8001318:	e000      	b.n	800131c <ArcadeIT_Test_Bench+0x164>
  for (uint8_t lCycles = 0; lCycles < 4; lCycles++)
 800131a:	4620      	mov	r0, r4
    ArcadeIT_System_Delay(10);
#endif

#if 1
    // Configures the DMA2D operation mode
    DMA2D->CR &= (uint32_t)CR_MASK;
 800131c:	f44f 4330 	mov.w	r3, #45056	; 0xb000
 8001320:	f2c4 0302 	movt	r3, #16386	; 0x4002
 8001324:	681a      	ldr	r2, [r3, #0]
 8001326:	f022 1203 	bic.w	r2, r2, #196611	; 0x30003
 800132a:	f422 52f8 	bic.w	r2, r2, #7936	; 0x1f00
 800132e:	601a      	str	r2, [r3, #0]
    DMA2D->CR |= DMA2D_R2M;
 8001330:	6819      	ldr	r1, [r3, #0]
 8001332:	f441 3140 	orr.w	r1, r1, #196608	; 0x30000
 8001336:	6019      	str	r1, [r3, #0]
    // Configures the color mode of the output image
    DMA2D->OPFCCR &= ~(uint32_t)DMA2D_OPFCCR_CM;
 8001338:	6b59      	ldr	r1, [r3, #52]	; 0x34
 800133a:	f021 0107 	bic.w	r1, r1, #7
 800133e:	6359      	str	r1, [r3, #52]	; 0x34
    DMA2D->OPFCCR |= DMA2D_RGB565;
 8001340:	6b59      	ldr	r1, [r3, #52]	; 0x34
 8001342:	f041 0102 	orr.w	r1, r1, #2
 8001346:	6359      	str	r1, [r3, #52]	; 0x34
    // Configures the output color
    //if (DMA2D_InitStruct->DMA2D_CMode == DMA2D_RGB565)
    DMA2D->OCOLR |= lColor++;
 8001348:	1c44      	adds	r4, r0, #1
 800134a:	b2a4      	uxth	r4, r4
 800134c:	6b9a      	ldr	r2, [r3, #56]	; 0x38
 800134e:	4302      	orrs	r2, r0
 8001350:	639a      	str	r2, [r3, #56]	; 0x38
    // Configures the output memory address
    DMA2D->OMAR = (uint32_t)(gDisplayAddress[0] + LCD_DATA);
 8001352:	f240 0200 	movw	r2, #0
 8001356:	f2c2 0200 	movt	r2, #8192	; 0x2000
 800135a:	6812      	ldr	r2, [r2, #0]
 800135c:	f502 3280 	add.w	r2, r2, #65536	; 0x10000
 8001360:	63da      	str	r2, [r3, #60]	; 0x3c
    // Configure  the line Offset
    DMA2D->OOR &= ~(uint32_t)DMA2D_OOR_LO;
 8001362:	6c1a      	ldr	r2, [r3, #64]	; 0x40
 8001364:	f422 527f 	bic.w	r2, r2, #16320	; 0x3fc0
 8001368:	f022 023f 	bic.w	r2, r2, #63	; 0x3f
 800136c:	641a      	str	r2, [r3, #64]	; 0x40
    DMA2D->OOR |= 0;
 800136e:	6c1a      	ldr	r2, [r3, #64]	; 0x40
 8001370:	641a      	str	r2, [r3, #64]	; 0x40
    // Configure the number of line and pixel per line
    DMA2D->NLR &= ~(DMA2D_NLR_NL | DMA2D_NLR_PL);
 8001372:	6c5a      	ldr	r2, [r3, #68]	; 0x44
 8001374:	f002 4240 	and.w	r2, r2, #3221225472	; 0xc0000000
 8001378:	645a      	str	r2, [r3, #68]	; 0x44
    DMA2D->NLR |= (240 | (320 << 16));
 800137a:	6c5a      	ldr	r2, [r3, #68]	; 0x44
 800137c:	f042 72a0 	orr.w	r2, r2, #20971520	; 0x1400000
 8001380:	f042 02f0 	orr.w	r2, r2, #240	; 0xf0
 8001384:	645a      	str	r2, [r3, #68]	; 0x44
    // Start DMA2D transfer by setting START bit
    DMA2D->CR |= (uint32_t)DMA2D_CR_START;
 8001386:	681a      	ldr	r2, [r3, #0]
 8001388:	f042 0201 	orr.w	r2, r2, #1
 800138c:	601a      	str	r2, [r3, #0]
    // Wait for TC Flag activation
    while(((DMA2D->ISR) & DMA2D_ISR_TCIF) == (uint32_t)RESET){};
 800138e:	f44f 4330 	mov.w	r3, #45056	; 0xb000
 8001392:	f2c4 0302 	movt	r3, #16386	; 0x4002
 8001396:	685b      	ldr	r3, [r3, #4]
 8001398:	f013 0f02 	tst.w	r3, #2
 800139c:	d0f7      	beq.n	800138e <ArcadeIT_Test_Bench+0x1d6>
    lColor++;
    while (SYS_MCU_CYCLES() < lTime + 45000000);
#endif

    // Periodic tasks
    if (gUnits & ARCADEIT_UNIT_SCHEDULER)
 800139e:	f240 231c 	movw	r3, #540	; 0x21c
 80013a2:	f2c2 0300 	movt	r3, #8192	; 0x2000
 80013a6:	681b      	ldr	r3, [r3, #0]
 80013a8:	f413 7f80 	tst.w	r3, #256	; 0x100
 80013ac:	d0b5      	beq.n	800131a <ArcadeIT_Test_Bench+0x162>
    {
      ArcadeIT_Scheduler_Run();
 80013ae:	f002 fc60 	bl	8003c72 <ArcadeIT_Scheduler_Run>
 80013b2:	e7b2      	b.n	800131a <ArcadeIT_Test_Bench+0x162>

080013b4 <ArcadeIT_Utility_Get_String_ID>:
  * PARAMETERS:  See above.
  * RETURNS:     Nothing.
  */

  // Temporary character.
  uint32_t lTempCharacter = 0;
 80013b4:	2300      	movs	r3, #0

  char *msg = pBuffer;

  // Go through the characters of the string provided and transform them to upper case.
  while (lTempCharacter != pId)
 80013b6:	e000      	b.n	80013ba <ArcadeIT_Utility_Get_String_ID+0x6>
{
 80013b8:	4611      	mov	r1, r2
  while (lTempCharacter != pId)
 80013ba:	4283      	cmp	r3, r0
 80013bc:	d005      	beq.n	80013ca <ArcadeIT_Utility_Get_String_ID+0x16>
  {
    if (*msg++ == '\0') lTempCharacter++;
 80013be:	1c4a      	adds	r2, r1, #1
 80013c0:	7809      	ldrb	r1, [r1, #0]
 80013c2:	2900      	cmp	r1, #0
 80013c4:	d1f8      	bne.n	80013b8 <ArcadeIT_Utility_Get_String_ID+0x4>
 80013c6:	3301      	adds	r3, #1
 80013c8:	e7f6      	b.n	80013b8 <ArcadeIT_Utility_Get_String_ID+0x4>

  } // End while.

  return msg;

} // End ArcadeIT_Utility_Get_String_ID.
 80013ca:	4608      	mov	r0, r1
 80013cc:	4770      	bx	lr

080013ce <FMC_NORSRAMInit>:
  */

void FMC_NORSRAMInit(
    FMC_NORSRAMInitTypeDef* FMC_NORSRAMInitStruct // structure of definitions for the banks
    )
{
 80013ce:	b430      	push	{r4, r5}
  uint32_t tmpr = 0, tmpbcr = 0, tmpbwr = 0;

  /* Get the BTCR register value */
  tmpbcr = FMC_Bank1->BTCR[FMC_NORSRAMInitStruct->FMC_Bank];
 80013d0:	6801      	ldr	r1, [r0, #0]
 80013d2:	f04f 4220 	mov.w	r2, #2684354560	; 0xa0000000
 80013d6:	f852 3021 	ldr.w	r3, [r2, r1, lsl #2]

  /* Clear MBKEN, MUXEN, MTYP, MWID, FACCEN, BURSTEN, WAITPOL, WRAPMOD, WAITCFG, WREN,
           WAITEN, EXTMOD, ASYNCWAIT, CBURSTRW and CCLKEN bits */
  tmpbcr &= ((uint32_t)~(FMC_BCR1_MBKEN    | FMC_BCR1_MUXEN    | FMC_BCR1_MTYP     | \
 80013da:	f44f 6490 	mov.w	r4, #1152	; 0x480
 80013de:	f6cf 74e7 	movt	r4, #65511	; 0xffe7
 80013e2:	401c      	ands	r4, r3
                         FMC_BCR1_WAITPOL  | FMC_BCR1_WAITCFG  | \
                         FMC_BCR1_WREN     | FMC_BCR1_WAITEN   | FMC_BCR1_EXTMOD   | \
                         FMC_BCR1_ASYNCWAIT| FMC_BCR1_CBURSTRW | FMC_BCR1_CCLKEN));

  /* NOR/SRAM Bank control register configuration */
  tmpbcr |=  (uint32_t)FMC_NORSRAMInitStruct->FMC_DataAddressMux     |
 80013e4:	6843      	ldr	r3, [r0, #4]
                       FMC_NORSRAMInitStruct->FMC_MemoryType         |
 80013e6:	6885      	ldr	r5, [r0, #8]
  tmpbcr |=  (uint32_t)FMC_NORSRAMInitStruct->FMC_DataAddressMux     |
 80013e8:	432b      	orrs	r3, r5
                       FMC_NORSRAMInitStruct->FMC_MemoryDataWidth    |
 80013ea:	68c5      	ldr	r5, [r0, #12]
                       FMC_NORSRAMInitStruct->FMC_MemoryType         |
 80013ec:	432b      	orrs	r3, r5
                       FMC_NORSRAMInitStruct->FMC_BurstAccessMode    |
 80013ee:	6905      	ldr	r5, [r0, #16]
                       FMC_NORSRAMInitStruct->FMC_MemoryDataWidth    |
 80013f0:	432b      	orrs	r3, r5
                       FMC_NORSRAMInitStruct->FMC_WaitSignalPolarity |
 80013f2:	6945      	ldr	r5, [r0, #20]
                       FMC_NORSRAMInitStruct->FMC_BurstAccessMode    |
 80013f4:	432b      	orrs	r3, r5
                       FMC_NORSRAMInitStruct->FMC_WaitSignalActive   |
 80013f6:	6985      	ldr	r5, [r0, #24]
                       FMC_NORSRAMInitStruct->FMC_WaitSignalPolarity |
 80013f8:	432b      	orrs	r3, r5
                       FMC_NORSRAMInitStruct->FMC_WriteOperation     |
 80013fa:	69c5      	ldr	r5, [r0, #28]
                       FMC_NORSRAMInitStruct->FMC_WaitSignalActive   |
 80013fc:	432b      	orrs	r3, r5
                       FMC_NORSRAMInitStruct->FMC_WaitSignal         |
 80013fe:	6a05      	ldr	r5, [r0, #32]
                       FMC_NORSRAMInitStruct->FMC_WriteOperation     |
 8001400:	432b      	orrs	r3, r5
                       FMC_NORSRAMInitStruct->FMC_ExtendedMode       |
 8001402:	6a45      	ldr	r5, [r0, #36]	; 0x24
                       FMC_NORSRAMInitStruct->FMC_WaitSignal         |
 8001404:	432b      	orrs	r3, r5
                       FMC_NORSRAMInitStruct->FMC_AsynchronousWait   |
 8001406:	6a85      	ldr	r5, [r0, #40]	; 0x28
                       FMC_NORSRAMInitStruct->FMC_ExtendedMode       |
 8001408:	432b      	orrs	r3, r5
                       FMC_NORSRAMInitStruct->FMC_WriteBurst         |
 800140a:	6ac5      	ldr	r5, [r0, #44]	; 0x2c
                       FMC_NORSRAMInitStruct->FMC_AsynchronousWait   |
 800140c:	432b      	orrs	r3, r5
                       FMC_NORSRAMInitStruct->FMC_ContinousClock;
 800140e:	6b05      	ldr	r5, [r0, #48]	; 0x30
                       FMC_NORSRAMInitStruct->FMC_WriteBurst         |
 8001410:	432b      	orrs	r3, r5
  tmpbcr |=  (uint32_t)FMC_NORSRAMInitStruct->FMC_DataAddressMux     |
 8001412:	4323      	orrs	r3, r4

  FMC_Bank1->BTCR[FMC_NORSRAMInitStruct->FMC_Bank] = tmpbcr;
 8001414:	f842 3021 	str.w	r3, [r2, r1, lsl #2]

  if(FMC_NORSRAMInitStruct->FMC_MemoryType == FMC_MemoryType_NOR)
 8001418:	6883      	ldr	r3, [r0, #8]
 800141a:	2b08      	cmp	r3, #8
 800141c:	d02b      	beq.n	8001476 <FMC_NORSRAMInit+0xa8>
    FMC_Bank1->BTCR[FMC_NORSRAMInitStruct->FMC_Bank] |= (uint32_t)FMC_BCR1_FACCEN;

  } // end if

  /* Configure Continuous clock feature when bank2..4 is used */
  if((FMC_NORSRAMInitStruct->FMC_ContinousClock == FMC_CClock_SyncAsync) && (FMC_NORSRAMInitStruct->FMC_Bank != FMC_Bank1_NORSRAM1))
 800141e:	6b03      	ldr	r3, [r0, #48]	; 0x30
 8001420:	f5b3 1f80 	cmp.w	r3, #1048576	; 0x100000
 8001424:	d02f      	beq.n	8001486 <FMC_NORSRAMInit+0xb8>

  } // end if

  /* NOR/SRAM Bank timing register configuration */
  FMC_Bank1->BTCR[FMC_NORSRAMInitStruct->FMC_Bank+1] =
            (uint32_t)FMC_NORSRAMInitStruct->FMC_ReadWriteTimingStruct->FMC_AddressSetupTime              |
 8001426:	6b42      	ldr	r2, [r0, #52]	; 0x34
 8001428:	6813      	ldr	r3, [r2, #0]
                      (FMC_NORSRAMInitStruct->FMC_ReadWriteTimingStruct->FMC_AddressHoldTime << 4)        |
 800142a:	6851      	ldr	r1, [r2, #4]
            (uint32_t)FMC_NORSRAMInitStruct->FMC_ReadWriteTimingStruct->FMC_AddressSetupTime              |
 800142c:	ea43 1301 	orr.w	r3, r3, r1, lsl #4
                      (FMC_NORSRAMInitStruct->FMC_ReadWriteTimingStruct->FMC_DataSetupTime << 8)          |
 8001430:	6891      	ldr	r1, [r2, #8]
                      (FMC_NORSRAMInitStruct->FMC_ReadWriteTimingStruct->FMC_AddressHoldTime << 4)        |
 8001432:	ea43 2301 	orr.w	r3, r3, r1, lsl #8
                      (FMC_NORSRAMInitStruct->FMC_ReadWriteTimingStruct->FMC_BusTurnAroundDuration << 16) |
 8001436:	68d1      	ldr	r1, [r2, #12]
                      (FMC_NORSRAMInitStruct->FMC_ReadWriteTimingStruct->FMC_DataSetupTime << 8)          |
 8001438:	ea43 4301 	orr.w	r3, r3, r1, lsl #16
                      (FMC_NORSRAMInitStruct->FMC_ReadWriteTimingStruct->FMC_CLKDivision << 20)           |
 800143c:	6911      	ldr	r1, [r2, #16]
                      (FMC_NORSRAMInitStruct->FMC_ReadWriteTimingStruct->FMC_BusTurnAroundDuration << 16) |
 800143e:	ea43 5301 	orr.w	r3, r3, r1, lsl #20
                      (FMC_NORSRAMInitStruct->FMC_ReadWriteTimingStruct->FMC_DataLatency << 24)           |
 8001442:	6951      	ldr	r1, [r2, #20]
                      (FMC_NORSRAMInitStruct->FMC_ReadWriteTimingStruct->FMC_CLKDivision << 20)           |
 8001444:	ea43 6301 	orr.w	r3, r3, r1, lsl #24
                      FMC_NORSRAMInitStruct->FMC_ReadWriteTimingStruct->FMC_AccessMode;
 8001448:	6991      	ldr	r1, [r2, #24]
  FMC_Bank1->BTCR[FMC_NORSRAMInitStruct->FMC_Bank+1] =
 800144a:	6802      	ldr	r2, [r0, #0]
 800144c:	3201      	adds	r2, #1
                      (FMC_NORSRAMInitStruct->FMC_ReadWriteTimingStruct->FMC_DataLatency << 24)           |
 800144e:	430b      	orrs	r3, r1
  FMC_Bank1->BTCR[FMC_NORSRAMInitStruct->FMC_Bank+1] =
 8001450:	f04f 4120 	mov.w	r1, #2684354560	; 0xa0000000
 8001454:	f841 3022 	str.w	r3, [r1, r2, lsl #2]

  /* NOR/SRAM Bank timing register for write configuration, if extended mode is used */
  if(FMC_NORSRAMInitStruct->FMC_ExtendedMode == FMC_ExtendedMode_Enable)
 8001458:	6a43      	ldr	r3, [r0, #36]	; 0x24
 800145a:	f5b3 4f80 	cmp.w	r3, #16384	; 0x4000
 800145e:	d028      	beq.n	80014b2 <FMC_NORSRAMInit+0xe4>

    FMC_Bank1E->BWTR[FMC_NORSRAMInitStruct->FMC_Bank] = tmpbwr;
  }
  else
  {
    FMC_Bank1E->BWTR[FMC_NORSRAMInitStruct->FMC_Bank] = 0x0FFFFFFF;
 8001460:	6802      	ldr	r2, [r0, #0]
 8001462:	f44f 7382 	mov.w	r3, #260	; 0x104
 8001466:	f2ca 0300 	movt	r3, #40960	; 0xa000
 800146a:	f06f 4170 	mvn.w	r1, #4026531840	; 0xf0000000
 800146e:	f843 1022 	str.w	r1, [r3, r2, lsl #2]

  } // end if

} // end FMC_NORSRAMInit
 8001472:	bc30      	pop	{r4, r5}
 8001474:	4770      	bx	lr
    FMC_Bank1->BTCR[FMC_NORSRAMInitStruct->FMC_Bank] |= (uint32_t)FMC_BCR1_FACCEN;
 8001476:	6801      	ldr	r1, [r0, #0]
 8001478:	f852 3021 	ldr.w	r3, [r2, r1, lsl #2]
 800147c:	f043 0340 	orr.w	r3, r3, #64	; 0x40
 8001480:	f842 3021 	str.w	r3, [r2, r1, lsl #2]
 8001484:	e7cb      	b.n	800141e <FMC_NORSRAMInit+0x50>
  if((FMC_NORSRAMInitStruct->FMC_ContinousClock == FMC_CClock_SyncAsync) && (FMC_NORSRAMInitStruct->FMC_Bank != FMC_Bank1_NORSRAM1))
 8001486:	6802      	ldr	r2, [r0, #0]
 8001488:	2a00      	cmp	r2, #0
 800148a:	d0cc      	beq.n	8001426 <FMC_NORSRAMInit+0x58>
    tmpr = (uint32_t)((FMC_Bank1->BTCR[FMC_Bank1_NORSRAM1+1]) & ~(((uint32_t)0x0F) << 20));
 800148c:	f04f 4220 	mov.w	r2, #2684354560	; 0xa0000000
 8001490:	6851      	ldr	r1, [r2, #4]
 8001492:	f421 0170 	bic.w	r1, r1, #15728640	; 0xf00000
    FMC_Bank1->BTCR[FMC_Bank1_NORSRAM1]  |= FMC_NORSRAMInitStruct->FMC_ContinousClock;
 8001496:	6814      	ldr	r4, [r2, #0]
 8001498:	4323      	orrs	r3, r4
 800149a:	6013      	str	r3, [r2, #0]
    FMC_Bank1->BTCR[FMC_Bank1_NORSRAM1]  |= FMC_BurstAccessMode_Enable;
 800149c:	6813      	ldr	r3, [r2, #0]
 800149e:	f443 7380 	orr.w	r3, r3, #256	; 0x100
 80014a2:	6013      	str	r3, [r2, #0]
    FMC_Bank1->BTCR[FMC_Bank1_NORSRAM1+1] = (uint32_t)(tmpr | (((FMC_NORSRAMInitStruct->FMC_ReadWriteTimingStruct->FMC_CLKDivision)-1) << 20));
 80014a4:	6b43      	ldr	r3, [r0, #52]	; 0x34
 80014a6:	691b      	ldr	r3, [r3, #16]
 80014a8:	3b01      	subs	r3, #1
 80014aa:	ea41 5303 	orr.w	r3, r1, r3, lsl #20
 80014ae:	6053      	str	r3, [r2, #4]
 80014b0:	e7b9      	b.n	8001426 <FMC_NORSRAMInit+0x58>
    tmpbwr = FMC_Bank1E->BWTR[FMC_NORSRAMInitStruct->FMC_Bank];
 80014b2:	6805      	ldr	r5, [r0, #0]
 80014b4:	f44f 7182 	mov.w	r1, #260	; 0x104
 80014b8:	f2ca 0100 	movt	r1, #40960	; 0xa000
 80014bc:	f851 3025 	ldr.w	r3, [r1, r5, lsl #2]
    tmpbwr &= ((uint32_t)~(FMC_BWTR1_ADDSET  | FMC_BWTR1_ADDHLD | FMC_BWTR1_DATAST | \
 80014c0:	2400      	movs	r4, #0
 80014c2:	f6cc 74f0 	movt	r4, #53232	; 0xcff0
 80014c6:	401c      	ands	r4, r3
    tmpbwr |= (uint32_t)(FMC_NORSRAMInitStruct->FMC_WriteTimingStruct->FMC_AddressSetupTime             |
 80014c8:	6b82      	ldr	r2, [r0, #56]	; 0x38
 80014ca:	6813      	ldr	r3, [r2, #0]
                        (FMC_NORSRAMInitStruct->FMC_WriteTimingStruct->FMC_AddressHoldTime << 4)        |
 80014cc:	6850      	ldr	r0, [r2, #4]
    tmpbwr |= (uint32_t)(FMC_NORSRAMInitStruct->FMC_WriteTimingStruct->FMC_AddressSetupTime             |
 80014ce:	ea43 1300 	orr.w	r3, r3, r0, lsl #4
                        (FMC_NORSRAMInitStruct->FMC_WriteTimingStruct->FMC_DataSetupTime << 8)          |
 80014d2:	6890      	ldr	r0, [r2, #8]
                        (FMC_NORSRAMInitStruct->FMC_WriteTimingStruct->FMC_AddressHoldTime << 4)        |
 80014d4:	ea43 2300 	orr.w	r3, r3, r0, lsl #8
                        (FMC_NORSRAMInitStruct->FMC_WriteTimingStruct->FMC_BusTurnAroundDuration << 16) |
 80014d8:	68d0      	ldr	r0, [r2, #12]
                        (FMC_NORSRAMInitStruct->FMC_WriteTimingStruct->FMC_DataSetupTime << 8)          |
 80014da:	ea43 4300 	orr.w	r3, r3, r0, lsl #16
                         FMC_NORSRAMInitStruct->FMC_WriteTimingStruct->FMC_AccessMode);
 80014de:	6992      	ldr	r2, [r2, #24]
                        (FMC_NORSRAMInitStruct->FMC_WriteTimingStruct->FMC_BusTurnAroundDuration << 16) |
 80014e0:	4313      	orrs	r3, r2
    tmpbwr |= (uint32_t)(FMC_NORSRAMInitStruct->FMC_WriteTimingStruct->FMC_AddressSetupTime             |
 80014e2:	4323      	orrs	r3, r4
    FMC_Bank1E->BWTR[FMC_NORSRAMInitStruct->FMC_Bank] = tmpbwr;
 80014e4:	f841 3025 	str.w	r3, [r1, r5, lsl #2]
 80014e8:	e7c3      	b.n	8001472 <FMC_NORSRAMInit+0xa4>

080014ea <FMC_NORSRAMCmd>:
void FMC_NORSRAMCmd(
    uint32_t FMC_Bank,
    FunctionalState NewState
    )
{
  if (NewState != DISABLE)
 80014ea:	b941      	cbnz	r1, 80014fe <FMC_NORSRAMCmd+0x14>
    FMC_Bank1->BTCR[FMC_Bank] |= 1;
  }
  else
  {
    /* Disable the selected NOR/SRAM Bank by clearing the PBKEN bit in the BCRx register */
    FMC_Bank1->BTCR[FMC_Bank] &= ~1;
 80014ec:	f04f 4220 	mov.w	r2, #2684354560	; 0xa0000000
 80014f0:	f852 3020 	ldr.w	r3, [r2, r0, lsl #2]
 80014f4:	f023 0301 	bic.w	r3, r3, #1
 80014f8:	f842 3020 	str.w	r3, [r2, r0, lsl #2]
  }
}
 80014fc:	4770      	bx	lr
    FMC_Bank1->BTCR[FMC_Bank] |= 1;
 80014fe:	f04f 4220 	mov.w	r2, #2684354560	; 0xa0000000
 8001502:	f852 3020 	ldr.w	r3, [r2, r0, lsl #2]
 8001506:	f043 0301 	orr.w	r3, r3, #1
 800150a:	f842 3020 	str.w	r3, [r2, r0, lsl #2]
 800150e:	4770      	bx	lr

08001510 <ArcadeIT_BUS_Port_Init>:
// -----------------------------------------------------------------------------
int ArcadeIT_BUS_Port_Init (void)
{
 8001510:	b508      	push	{r3, lr}
   * PARAMETERS:  None.
   * RETURNS:     Nothing.
   */

  // Enable GPIOs clock If not yet.
  if ((RCC->AHB1ENR & RCC_AHB1Periph_GPIOD) == FALSE) RCC->AHB1ENR |= RCC_AHB1Periph_GPIOD;
 8001512:	f44f 5360 	mov.w	r3, #14336	; 0x3800
 8001516:	f2c4 0302 	movt	r3, #16386	; 0x4002
 800151a:	6b1b      	ldr	r3, [r3, #48]	; 0x30
 800151c:	f013 0f08 	tst.w	r3, #8
 8001520:	d107      	bne.n	8001532 <ArcadeIT_BUS_Port_Init+0x22>
 8001522:	f44f 5360 	mov.w	r3, #14336	; 0x3800
 8001526:	f2c4 0302 	movt	r3, #16386	; 0x4002
 800152a:	6b1a      	ldr	r2, [r3, #48]	; 0x30
 800152c:	f042 0208 	orr.w	r2, r2, #8
 8001530:	631a      	str	r2, [r3, #48]	; 0x30
  if ((RCC->AHB1ENR & RCC_AHB1Periph_GPIOE) == FALSE) RCC->AHB1ENR |= RCC_AHB1Periph_GPIOE;
 8001532:	f44f 5360 	mov.w	r3, #14336	; 0x3800
 8001536:	f2c4 0302 	movt	r3, #16386	; 0x4002
 800153a:	6b1b      	ldr	r3, [r3, #48]	; 0x30
 800153c:	f013 0f10 	tst.w	r3, #16
 8001540:	d107      	bne.n	8001552 <ArcadeIT_BUS_Port_Init+0x42>
 8001542:	f44f 5360 	mov.w	r3, #14336	; 0x3800
 8001546:	f2c4 0302 	movt	r3, #16386	; 0x4002
 800154a:	6b1a      	ldr	r2, [r3, #48]	; 0x30
 800154c:	f042 0210 	orr.w	r2, r2, #16
 8001550:	631a      	str	r2, [r3, #48]	; 0x30
  if ((RCC->AHB1ENR & RCC_AHB1Periph_GPIOF) == FALSE) RCC->AHB1ENR |= RCC_AHB1Periph_GPIOF;
 8001552:	f44f 5360 	mov.w	r3, #14336	; 0x3800
 8001556:	f2c4 0302 	movt	r3, #16386	; 0x4002
 800155a:	6b1b      	ldr	r3, [r3, #48]	; 0x30
 800155c:	f013 0f20 	tst.w	r3, #32
 8001560:	d107      	bne.n	8001572 <ArcadeIT_BUS_Port_Init+0x62>
 8001562:	f44f 5360 	mov.w	r3, #14336	; 0x3800
 8001566:	f2c4 0302 	movt	r3, #16386	; 0x4002
 800156a:	6b1a      	ldr	r2, [r3, #48]	; 0x30
 800156c:	f042 0220 	orr.w	r2, r2, #32
 8001570:	631a      	str	r2, [r3, #48]	; 0x30
  if ((RCC->AHB1ENR & RCC_AHB1Periph_GPIOG) == FALSE) RCC->AHB1ENR |= RCC_AHB1Periph_GPIOG;
 8001572:	f44f 5360 	mov.w	r3, #14336	; 0x3800
 8001576:	f2c4 0302 	movt	r3, #16386	; 0x4002
 800157a:	6b1b      	ldr	r3, [r3, #48]	; 0x30
 800157c:	f013 0f40 	tst.w	r3, #64	; 0x40
 8001580:	d107      	bne.n	8001592 <ArcadeIT_BUS_Port_Init+0x82>
 8001582:	f44f 5360 	mov.w	r3, #14336	; 0x3800
 8001586:	f2c4 0302 	movt	r3, #16386	; 0x4002
 800158a:	6b1a      	ldr	r2, [r3, #48]	; 0x30
 800158c:	f042 0240 	orr.w	r2, r2, #64	; 0x40
 8001590:	631a      	str	r2, [r3, #48]	; 0x30
  if ((RCC->AHB1ENR & RCC_AHB1Periph_GPIOI) == FALSE) RCC->AHB1ENR |= RCC_AHB1Periph_GPIOI;
 8001592:	f44f 5360 	mov.w	r3, #14336	; 0x3800
 8001596:	f2c4 0302 	movt	r3, #16386	; 0x4002
 800159a:	6b1b      	ldr	r3, [r3, #48]	; 0x30
 800159c:	f413 7f80 	tst.w	r3, #256	; 0x100
 80015a0:	d107      	bne.n	80015b2 <ArcadeIT_BUS_Port_Init+0xa2>
 80015a2:	f44f 5360 	mov.w	r3, #14336	; 0x3800
 80015a6:	f2c4 0302 	movt	r3, #16386	; 0x4002
 80015aa:	6b1a      	ldr	r2, [r3, #48]	; 0x30
 80015ac:	f442 7280 	orr.w	r2, r2, #256	; 0x100
 80015b0:	631a      	str	r2, [r3, #48]	; 0x30
  if ((RCC->AHB3ENR & RCC_AHB3Periph_FMC) == FALSE) RCC->AHB3ENR |= RCC_AHB3Periph_FMC;
 80015b2:	f44f 5360 	mov.w	r3, #14336	; 0x3800
 80015b6:	f2c4 0302 	movt	r3, #16386	; 0x4002
 80015ba:	6b9b      	ldr	r3, [r3, #56]	; 0x38
 80015bc:	f013 0f01 	tst.w	r3, #1
 80015c0:	d107      	bne.n	80015d2 <ArcadeIT_BUS_Port_Init+0xc2>
 80015c2:	f44f 5360 	mov.w	r3, #14336	; 0x3800
 80015c6:	f2c4 0302 	movt	r3, #16386	; 0x4002
 80015ca:	6b9a      	ldr	r2, [r3, #56]	; 0x38
 80015cc:	f042 0201 	orr.w	r2, r2, #1
 80015d0:	639a      	str	r2, [r3, #56]	; 0x38

  GPIOD->MODER   &= ~(GPIO_MODER_MODER0
 80015d2:	f44f 6340 	mov.w	r3, #3072	; 0xc00
 80015d6:	f2c4 0302 	movt	r3, #16386	; 0x4002
 80015da:	6819      	ldr	r1, [r3, #0]
 80015dc:	f243 02f0 	movw	r2, #12528	; 0x30f0
 80015e0:	f2c0 023f 	movt	r2, #63	; 0x3f
 80015e4:	4011      	ands	r1, r2
 80015e6:	6019      	str	r1, [r3, #0]
                    | GPIO_MODER_MODER12
                    | GPIO_MODER_MODER13
                    | GPIO_MODER_MODER14
                    | GPIO_MODER_MODER15
                    | GPIO_MODER_MODER7);
  GPIOD->MODER   |= (((uint32_t)GPIO_Mode_AF) << (FMC_D2_BUS_D2   * 2)
 80015e8:	6818      	ldr	r0, [r3, #0]
 80015ea:	f648 210a 	movw	r1, #35338	; 0x8a0a
 80015ee:	f6ca 2180 	movt	r1, #43648	; 0xaa80
 80015f2:	4301      	orrs	r1, r0
 80015f4:	6019      	str	r1, [r3, #0]
                   | ((uint32_t)GPIO_Mode_AF) << (FMC_A18_BUS_A18 * 2)
                   | ((uint32_t)GPIO_Mode_AF) << (FMC_D0_BUS_D0   * 2)
                   | ((uint32_t)GPIO_Mode_AF) << (FMC_D1_BUS_D1   * 2)
                   | ((uint32_t)GPIO_Mode_AF) << (FMC_NE1_BUS_LCDEN * 2));

  GPIOD->OSPEEDR &= ~(GPIO_OSPEEDER_OSPEEDR0
 80015f6:	6899      	ldr	r1, [r3, #8]
 80015f8:	4011      	ands	r1, r2
 80015fa:	6099      	str	r1, [r3, #8]
                    | GPIO_OSPEEDER_OSPEEDR12
                    | GPIO_OSPEEDER_OSPEEDR13
                    | GPIO_OSPEEDER_OSPEEDR14
                    | GPIO_OSPEEDER_OSPEEDR15
                    | GPIO_OSPEEDER_OSPEEDR7);
  GPIOD->OSPEEDR |= (((uint32_t)GPIO_Speed_100MHz) << (FMC_D2_BUS_D2   * 2)
 80015fc:	6898      	ldr	r0, [r3, #8]
 80015fe:	f64c 710f 	movw	r1, #53007	; 0xcf0f
 8001602:	f6cf 71c0 	movt	r1, #65472	; 0xffc0
 8001606:	4301      	orrs	r1, r0
 8001608:	6099      	str	r1, [r3, #8]
                   | ((uint32_t)GPIO_Speed_100MHz) << (FMC_A18_BUS_A18 * 2)
                   | ((uint32_t)GPIO_Speed_100MHz) << (FMC_D0_BUS_D0   * 2)
                   | ((uint32_t)GPIO_Speed_100MHz) << (FMC_D1_BUS_D1   * 2)
                   | ((uint32_t)GPIO_Speed_100MHz) << (FMC_NE1_BUS_LCDEN * 2));

  GPIOD->OTYPER  &= ~(GPIO_OTYPER_OT_0
 800160a:	6859      	ldr	r1, [r3, #4]
 800160c:	f421 4178 	bic.w	r1, r1, #63488	; 0xf800
 8001610:	f021 01b3 	bic.w	r1, r1, #179	; 0xb3
 8001614:	6059      	str	r1, [r3, #4]
                    | GPIO_OTYPER_OT_12
                    | GPIO_OTYPER_OT_13
                    | GPIO_OTYPER_OT_14
                    | GPIO_OTYPER_OT_15
                    | GPIO_OTYPER_OT_7);
  GPIOD->OTYPER  |= ((uint32_t)(GPIO_OType_PP << FMC_D2_BUS_D2  )
 8001616:	6859      	ldr	r1, [r3, #4]
 8001618:	6059      	str	r1, [r3, #4]
                   | (uint32_t)(GPIO_OType_PP << FMC_A18_BUS_A18)
                   | (uint32_t)(GPIO_OType_PP << FMC_D0_BUS_D0  )
                   | (uint32_t)(GPIO_OType_PP << FMC_D1_BUS_D1  )
                   | (uint32_t)(GPIO_OType_PP << FMC_NE1_BUS_LCDEN ));

  GPIOD->PUPDR   &= ~(GPIO_PUPDR_PUPDR0
 800161a:	68d9      	ldr	r1, [r3, #12]
 800161c:	400a      	ands	r2, r1
 800161e:	60da      	str	r2, [r3, #12]
                    | GPIO_PUPDR_PUPDR12
                    | GPIO_PUPDR_PUPDR13
                    | GPIO_PUPDR_PUPDR14
                    | GPIO_PUPDR_PUPDR15
                    | GPIO_PUPDR_PUPDR7);
  GPIOD->PUPDR   |= (((uint32_t)GPIO_PuPd_NOPULL) << (FMC_D2_BUS_D2   * 2)
 8001620:	68da      	ldr	r2, [r3, #12]
 8001622:	60da      	str	r2, [r3, #12]
                   | ((uint32_t)GPIO_PuPd_NOPULL) << (FMC_A18_BUS_A18 * 2)
                   | ((uint32_t)GPIO_PuPd_NOPULL) << (FMC_D0_BUS_D0   * 2)
                   | ((uint32_t)GPIO_PuPd_NOPULL) << (FMC_D1_BUS_D1   * 2)
                   | ((uint32_t)GPIO_PuPd_NOPULL) << (FMC_NE1_BUS_LCDEN * 2));

  GPIOD->AFR[0] &= ~((uint32_t)0xF << (FMC_D2_BUS_D2  * 4)
 8001624:	6a1a      	ldr	r2, [r3, #32]
 8001626:	f022 4270 	bic.w	r2, r2, #4026531840	; 0xf0000000
 800162a:	f002 22ff 	and.w	r2, r2, #4278255360	; 0xff00ff00
 800162e:	621a      	str	r2, [r3, #32]
                   | (uint32_t)0xF << (FMC_D3_BUS_D3  * 4)
                   | (uint32_t)0xF << (FMC_NOE_BUS_RD * 4)
                   | (uint32_t)0xF << (FMC_NWE_BUS_WR * 4)
                   | (uint32_t)0xF << (FMC_NE1_BUS_LCDEN * 4));
  GPIOD->AFR[0] |=  ((uint32_t)(GPIO_AF_FMC << (FMC_D2_BUS_D2  * 4)))
 8001630:	6a1a      	ldr	r2, [r3, #32]
 8001632:	f042 4240 	orr.w	r2, r2, #3221225472	; 0xc0000000
 8001636:	f042 12cc 	orr.w	r2, r2, #13369548	; 0xcc00cc
 800163a:	621a      	str	r2, [r3, #32]
                  | ((uint32_t)(GPIO_AF_FMC << (FMC_D3_BUS_D3  * 4)))
                  | ((uint32_t)(GPIO_AF_FMC << (FMC_NOE_BUS_RD * 4)))
                  | ((uint32_t)(GPIO_AF_FMC << (FMC_NWE_BUS_WR * 4)))
                  | ((uint32_t)(GPIO_AF_FMC << (FMC_NE1_BUS_LCDEN * 4)));

  GPIOD->AFR[1] &= ~((uint32_t)0xF << ((FMC_A16_BUS_A16 - 8) * 4)
 800163c:	6a5a      	ldr	r2, [r3, #36]	; 0x24
 800163e:	f3c2 020b 	ubfx	r2, r2, #0, #12
 8001642:	625a      	str	r2, [r3, #36]	; 0x24
                   | (uint32_t)0xF << ((FMC_A17_BUS_A17 - 8) * 4)
                   | (uint32_t)0xF << ((FMC_A18_BUS_A18 - 8) * 4)
                   | (uint32_t)0xF << ((FMC_D0_BUS_D0   - 8) * 4)
                   | (uint32_t)0xF << ((FMC_D1_BUS_D1   - 8) * 4));
  GPIOD->AFR[1] |=  ((uint32_t)(GPIO_AF_FMC << ((FMC_A16_BUS_A16 - 8) * 4)))
 8001644:	6a59      	ldr	r1, [r3, #36]	; 0x24
 8001646:	f44f 4240 	mov.w	r2, #49152	; 0xc000
 800164a:	f6cc 42cc 	movt	r2, #52428	; 0xcccc
 800164e:	430a      	orrs	r2, r1
 8001650:	625a      	str	r2, [r3, #36]	; 0x24
                  | ((uint32_t)(GPIO_AF_FMC << ((FMC_A17_BUS_A17 - 8) * 4)))
                  | ((uint32_t)(GPIO_AF_FMC << ((FMC_A18_BUS_A18 - 8) * 4)))
                  | ((uint32_t)(GPIO_AF_FMC << ((FMC_D0_BUS_D0   - 8) * 4)))
                  | ((uint32_t)(GPIO_AF_FMC << ((FMC_D1_BUS_D1   - 8) * 4)));
  // ---------------------------------------------------------------------------
  GPIOE->MODER   &= ~(GPIO_MODER_MODER3
 8001652:	f44f 5380 	mov.w	r3, #4096	; 0x1000
 8001656:	f2c4 0302 	movt	r3, #16386	; 0x4002
 800165a:	6819      	ldr	r1, [r3, #0]
 800165c:	220f      	movs	r2, #15
 800165e:	f6cf 72c0 	movt	r2, #65472	; 0xffc0
 8001662:	4011      	ands	r1, r2
 8001664:	6019      	str	r1, [r3, #0]
                    | GPIO_MODER_MODER8
                    | GPIO_MODER_MODER9
                    | GPIO_MODER_MODER10
                    | GPIO_MODER_MODER2
                    | GPIO_MODER_MODER6 );
  GPIOE->MODER   |= (((uint32_t)GPIO_Mode_AF) << (FMC_A19_BUS_A19  * 2)
 8001666:	6818      	ldr	r0, [r3, #0]
 8001668:	f64a 21a0 	movw	r1, #43680	; 0xaaa0
 800166c:	f2c0 012a 	movt	r1, #42	; 0x2a
 8001670:	4301      	orrs	r1, r0
 8001672:	6019      	str	r1, [r3, #0]
                   | ((uint32_t)GPIO_Mode_AF) << (FMC_D6_BUS_D6    * 2)
                   | ((uint32_t)GPIO_Mode_AF) << (FMC_D7_BUS_D7    * 2)
                   | ((uint32_t)GPIO_Mode_AF) << (FMC_A23_BUS_MUX1 * 2)
                   | ((uint32_t)GPIO_Mode_AF) << (FMC_A22_BUS_MUX0 * 2));

  GPIOE->OSPEEDR &= ~(GPIO_OSPEEDER_OSPEEDR3
 8001674:	6899      	ldr	r1, [r3, #8]
 8001676:	4011      	ands	r1, r2
 8001678:	6099      	str	r1, [r3, #8]
                    | GPIO_OSPEEDER_OSPEEDR8
                    | GPIO_OSPEEDER_OSPEEDR9
                    | GPIO_OSPEEDER_OSPEEDR10
                    | GPIO_OSPEEDER_OSPEEDR2
                    | GPIO_OSPEEDER_OSPEEDR6 );
  GPIOE->OSPEEDR |= (((uint32_t)GPIO_Speed_100MHz) << (FMC_A19_BUS_A19  * 2)
 800167a:	6898      	ldr	r0, [r3, #8]
 800167c:	f64f 71f0 	movw	r1, #65520	; 0xfff0
 8001680:	f2c0 013f 	movt	r1, #63	; 0x3f
 8001684:	4301      	orrs	r1, r0
 8001686:	6099      	str	r1, [r3, #8]
                   | ((uint32_t)GPIO_Speed_100MHz) << (FMC_D6_BUS_D6    * 2)
                   | ((uint32_t)GPIO_Speed_100MHz) << (FMC_D7_BUS_D7    * 2)
                   | ((uint32_t)GPIO_Speed_100MHz) << (FMC_A23_BUS_MUX1 * 2)
                   | ((uint32_t)GPIO_Speed_100MHz) << (FMC_A22_BUS_MUX0 * 2));

  GPIOE->OTYPER  &= ~(GPIO_OTYPER_OT_3
 8001688:	6859      	ldr	r1, [r3, #4]
 800168a:	f421 61ff 	bic.w	r1, r1, #2040	; 0x7f8
 800168e:	f021 0104 	bic.w	r1, r1, #4
 8001692:	6059      	str	r1, [r3, #4]
                    | GPIO_OTYPER_OT_8
                    | GPIO_OTYPER_OT_9
                    | GPIO_OTYPER_OT_10
                    | GPIO_OTYPER_OT_2
                    | GPIO_OTYPER_OT_6 );
  GPIOE->OTYPER  |= ((uint32_t)(GPIO_OType_PP << FMC_A19_BUS_A19 )
 8001694:	6859      	ldr	r1, [r3, #4]
 8001696:	6059      	str	r1, [r3, #4]
                   | (uint32_t)(GPIO_OType_PP << FMC_D6_BUS_D6   )
                   | (uint32_t)(GPIO_OType_PP << FMC_D7_BUS_D7   )
                   | (uint32_t)(GPIO_OType_PP << FMC_A23_BUS_MUX1)
                   | (uint32_t)(GPIO_OType_PP << FMC_A22_BUS_MUX0));

  GPIOE->PUPDR   &= ~(GPIO_PUPDR_PUPDR3
 8001698:	68d9      	ldr	r1, [r3, #12]
 800169a:	400a      	ands	r2, r1
 800169c:	60da      	str	r2, [r3, #12]
                    | GPIO_PUPDR_PUPDR8
                    | GPIO_PUPDR_PUPDR9
                    | GPIO_PUPDR_PUPDR10
                    | GPIO_PUPDR_PUPDR2
                    | GPIO_PUPDR_PUPDR6 );
  GPIOE->PUPDR   |= (((uint32_t)GPIO_PuPd_NOPULL) << (FMC_A19_BUS_A19  * 2)
 800169e:	68da      	ldr	r2, [r3, #12]
 80016a0:	60da      	str	r2, [r3, #12]
                   | ((uint32_t)GPIO_PuPd_NOPULL) << (FMC_D6_BUS_D6    * 2)
                   | ((uint32_t)GPIO_PuPd_NOPULL) << (FMC_D7_BUS_D7    * 2)
                   | ((uint32_t)GPIO_PuPd_NOPULL) << (FMC_A23_BUS_MUX1 * 2)
                   | ((uint32_t)GPIO_PuPd_NOPULL) << (FMC_A22_BUS_MUX0 * 2));

  GPIOE->AFR[0] &= ~((uint32_t)0xF << (FMC_A19_BUS_A19  * 4)
 80016a2:	6a1a      	ldr	r2, [r3, #32]
 80016a4:	b2d2      	uxtb	r2, r2
 80016a6:	621a      	str	r2, [r3, #32]
                   | (uint32_t)0xF << (FMC_A20_BUS_A20  * 4)
                   | (uint32_t)0xF << (FMC_A21_BUS_A21  * 4)
                   | (uint32_t)0xF << (FMC_D4_BUS_D4    * 4)
                   | (uint32_t)0xF << (FMC_A23_BUS_MUX1 * 4)
                   | (uint32_t)0xF << (FMC_A22_BUS_MUX0 * 4));
  GPIOE->AFR[0] |=  ((uint32_t)(GPIO_AF_FMC << (FMC_A19_BUS_A19  * 4)))
 80016a8:	6a1a      	ldr	r2, [r3, #32]
 80016aa:	f042 22cc 	orr.w	r2, r2, #3422604288	; 0xcc00cc00
 80016ae:	f442 024c 	orr.w	r2, r2, #13369344	; 0xcc0000
 80016b2:	621a      	str	r2, [r3, #32]
                  | ((uint32_t)(GPIO_AF_FMC << (FMC_A21_BUS_A21  * 4)))
                  | ((uint32_t)(GPIO_AF_FMC << (FMC_D4_BUS_D4    * 4)))
                  | ((uint32_t)(GPIO_AF_FMC << (FMC_A23_BUS_MUX1 * 4)))
                  | ((uint32_t)(GPIO_AF_FMC << (FMC_A22_BUS_MUX0 * 4)));

  GPIOE->AFR[1] &= ~((uint32_t)0xF << ((FMC_D5_BUS_D5 - 8) * 4)
 80016b4:	6a5a      	ldr	r2, [r3, #36]	; 0x24
 80016b6:	f422 627f 	bic.w	r2, r2, #4080	; 0xff0
 80016ba:	f022 020f 	bic.w	r2, r2, #15
 80016be:	625a      	str	r2, [r3, #36]	; 0x24
                   | (uint32_t)0xF << ((FMC_D6_BUS_D6 - 8) * 4)
                   | (uint32_t)0xF << ((FMC_D7_BUS_D7 - 8) * 4));
  GPIOE->AFR[1] |=  ((uint32_t)(GPIO_AF_FMC << ((FMC_D5_BUS_D5 - 8) * 4)))
 80016c0:	6a5a      	ldr	r2, [r3, #36]	; 0x24
 80016c2:	f442 624c 	orr.w	r2, r2, #3264	; 0xcc0
 80016c6:	f042 020c 	orr.w	r2, r2, #12
 80016ca:	625a      	str	r2, [r3, #36]	; 0x24
                  | ((uint32_t)(GPIO_AF_FMC << ((FMC_D6_BUS_D6 - 8) * 4)))
                  | ((uint32_t)(GPIO_AF_FMC << ((FMC_D7_BUS_D7 - 8) * 4)));
  // ---------------------------------------------------------------------------
  GPIOF->MODER   &= ~(GPIO_MODER_MODER0
 80016cc:	f44f 53a0 	mov.w	r3, #5120	; 0x1400
 80016d0:	f2c4 0302 	movt	r3, #16386	; 0x4002
 80016d4:	6819      	ldr	r1, [r3, #0]
 80016d6:	f44f 4270 	mov.w	r2, #61440	; 0xf000
 80016da:	f2c0 02ff 	movt	r2, #255	; 0xff
 80016de:	4011      	ands	r1, r2
 80016e0:	6019      	str	r1, [r3, #0]
                    | GPIO_MODER_MODER5
                    | GPIO_MODER_MODER12
                    | GPIO_MODER_MODER13
                    | GPIO_MODER_MODER14
                    | GPIO_MODER_MODER15);
  GPIOF->MODER   |= (((uint32_t)GPIO_Mode_AF) << (FMC_A00_BUS_A00* 2)
 80016e2:	6818      	ldr	r0, [r3, #0]
 80016e4:	f640 21aa 	movw	r1, #2730	; 0xaaa
 80016e8:	f6ca 2100 	movt	r1, #43520	; 0xaa00
 80016ec:	4301      	orrs	r1, r0
 80016ee:	6019      	str	r1, [r3, #0]
                   | ((uint32_t)GPIO_Mode_AF) << (FMC_A06_BUS_A06* 2)
                   | ((uint32_t)GPIO_Mode_AF) << (FMC_A07_BUS_A07* 2)
                   | ((uint32_t)GPIO_Mode_AF) << (FMC_A08_BUS_A08* 2)
                   | ((uint32_t)GPIO_Mode_AF) << (FMC_A09_BUS_A09* 2));

  GPIOF->OSPEEDR &= ~(GPIO_OSPEEDER_OSPEEDR0
 80016f0:	6899      	ldr	r1, [r3, #8]
 80016f2:	4011      	ands	r1, r2
 80016f4:	6099      	str	r1, [r3, #8]
                    | GPIO_OSPEEDER_OSPEEDR5
                    | GPIO_OSPEEDER_OSPEEDR12
                    | GPIO_OSPEEDER_OSPEEDR13
                    | GPIO_OSPEEDER_OSPEEDR14
                    | GPIO_OSPEEDER_OSPEEDR15);
  GPIOF->OSPEEDR |= (((uint32_t)GPIO_Speed_100MHz) << (FMC_A00_BUS_A00 * 2)
 80016f6:	6898      	ldr	r0, [r3, #8]
 80016f8:	f640 71ff 	movw	r1, #4095	; 0xfff
 80016fc:	f6cf 7100 	movt	r1, #65280	; 0xff00
 8001700:	4301      	orrs	r1, r0
 8001702:	6099      	str	r1, [r3, #8]
                   | ((uint32_t)GPIO_Speed_100MHz) << (FMC_A06_BUS_A06 * 2)
                   | ((uint32_t)GPIO_Speed_100MHz) << (FMC_A07_BUS_A07 * 2)
                   | ((uint32_t)GPIO_Speed_100MHz) << (FMC_A08_BUS_A08 * 2)
                   | ((uint32_t)GPIO_Speed_100MHz) << (FMC_A09_BUS_A09 * 2));

  GPIOF->OTYPER  &= ~(GPIO_OTYPER_OT_0
 8001704:	6859      	ldr	r1, [r3, #4]
 8001706:	f421 4170 	bic.w	r1, r1, #61440	; 0xf000
 800170a:	f021 013f 	bic.w	r1, r1, #63	; 0x3f
 800170e:	6059      	str	r1, [r3, #4]
                    | GPIO_OTYPER_OT_5
                    | GPIO_OTYPER_OT_12
                    | GPIO_OTYPER_OT_13
                    | GPIO_OTYPER_OT_14
                    | GPIO_OTYPER_OT_15);
  GPIOF->OTYPER  |= ((uint32_t)(GPIO_OType_PP << FMC_A00_BUS_A00)
 8001710:	6859      	ldr	r1, [r3, #4]
 8001712:	6059      	str	r1, [r3, #4]
                   | (uint32_t)(GPIO_OType_PP << FMC_A06_BUS_A06)
                   | (uint32_t)(GPIO_OType_PP << FMC_A07_BUS_A07)
                   | (uint32_t)(GPIO_OType_PP << FMC_A08_BUS_A08)
                   | (uint32_t)(GPIO_OType_PP << FMC_A09_BUS_A09));

  GPIOF->PUPDR   &= ~(GPIO_PUPDR_PUPDR0
 8001714:	68d9      	ldr	r1, [r3, #12]
 8001716:	400a      	ands	r2, r1
 8001718:	60da      	str	r2, [r3, #12]
                    | GPIO_PUPDR_PUPDR5
                    | GPIO_PUPDR_PUPDR12
                    | GPIO_PUPDR_PUPDR13
                    | GPIO_PUPDR_PUPDR14
                    | GPIO_PUPDR_PUPDR15);
  GPIOF->PUPDR   |= (((uint32_t)GPIO_PuPd_NOPULL) << (FMC_A00_BUS_A00 * 2)
 800171a:	68da      	ldr	r2, [r3, #12]
 800171c:	60da      	str	r2, [r3, #12]
                   | ((uint32_t)GPIO_PuPd_NOPULL) << (FMC_A06_BUS_A06 * 2)
                   | ((uint32_t)GPIO_PuPd_NOPULL) << (FMC_A07_BUS_A07 * 2)
                   | ((uint32_t)GPIO_PuPd_NOPULL) << (FMC_A08_BUS_A08 * 2)
                   | ((uint32_t)GPIO_PuPd_NOPULL) << (FMC_A09_BUS_A09 * 2));

  GPIOF->AFR[0] &= ~((uint32_t)0xF << (FMC_A00_BUS_A00 * 4)
 800171e:	6a1a      	ldr	r2, [r3, #32]
 8001720:	f002 427f 	and.w	r2, r2, #4278190080	; 0xff000000
 8001724:	621a      	str	r2, [r3, #32]
                   | (uint32_t)0xF << (FMC_A01_BUS_A01 * 4)
                   | (uint32_t)0xF << (FMC_A02_BUS_A02 * 4)
                   | (uint32_t)0xF << (FMC_A03_BUS_A03 * 4)
                   | (uint32_t)0xF << (FMC_A04_BUS_A04 * 4)
                   | (uint32_t)0xF << (FMC_A05_BUS_A05 * 4));
  GPIOF->AFR[0] |=  ((uint32_t)(GPIO_AF_FMC << (FMC_A00_BUS_A00 * 4)))
 8001726:	6a1a      	ldr	r2, [r3, #32]
 8001728:	f042 12cc 	orr.w	r2, r2, #13369548	; 0xcc00cc
 800172c:	f442 424c 	orr.w	r2, r2, #52224	; 0xcc00
 8001730:	621a      	str	r2, [r3, #32]
                  | ((uint32_t)(GPIO_AF_FMC << (FMC_A02_BUS_A02 * 4)))
                  | ((uint32_t)(GPIO_AF_FMC << (FMC_A03_BUS_A03 * 4)))
                  | ((uint32_t)(GPIO_AF_FMC << (FMC_A04_BUS_A04 * 4)))
                  | ((uint32_t)(GPIO_AF_FMC << (FMC_A05_BUS_A05 * 4)));

  GPIOF->AFR[1] &= ~((uint32_t)0xF << ((FMC_A06_BUS_A06 - 8) * 4)
 8001732:	6a5a      	ldr	r2, [r3, #36]	; 0x24
 8001734:	b292      	uxth	r2, r2
 8001736:	625a      	str	r2, [r3, #36]	; 0x24
                   | (uint32_t)0xF << ((FMC_A07_BUS_A07 - 8) * 4)
                   | (uint32_t)0xF << ((FMC_A08_BUS_A08 - 8) * 4)
                   | (uint32_t)0xF << ((FMC_A09_BUS_A09 - 8) * 4));
  GPIOF->AFR[1] |=  ((uint32_t)(GPIO_AF_FMC << ((FMC_A06_BUS_A06 - 8) * 4)))
 8001738:	6a5a      	ldr	r2, [r3, #36]	; 0x24
 800173a:	f042 424c 	orr.w	r2, r2, #3422552064	; 0xcc000000
 800173e:	f442 024c 	orr.w	r2, r2, #13369344	; 0xcc0000
 8001742:	625a      	str	r2, [r3, #36]	; 0x24
                  | ((uint32_t)(GPIO_AF_FMC << ((FMC_A07_BUS_A07 - 8) * 4)))
                  | ((uint32_t)(GPIO_AF_FMC << ((FMC_A08_BUS_A08 - 8) * 4)))
                  | ((uint32_t)(GPIO_AF_FMC << ((FMC_A09_BUS_A09 - 8) * 4)));
  // ---------------------------------------------------------------------------
  GPIOG->MODER   &= ~(GPIO_MODER_MODER0
 8001744:	f44f 53c0 	mov.w	r3, #6144	; 0x1800
 8001748:	f2c4 0302 	movt	r3, #16386	; 0x4002
 800174c:	6819      	ldr	r1, [r3, #0]
 800174e:	f44f 4270 	mov.w	r2, #61440	; 0xf000
 8001752:	f2cf 32f3 	movt	r2, #62451	; 0xf3f3
 8001756:	4011      	ands	r1, r2
 8001758:	6019      	str	r1, [r3, #0]
                    | GPIO_MODER_MODER3
                    | GPIO_MODER_MODER4
                    | GPIO_MODER_MODER5
                    | GPIO_MODER_MODER9
                    | GPIO_MODER_MODER13);
  GPIOG->MODER   |= (((uint32_t)GPIO_Mode_AF) << (FMC_A10_BUS_A10 * 2)
 800175a:	6819      	ldr	r1, [r3, #0]
 800175c:	f640 20aa 	movw	r0, #2730	; 0xaaa
 8001760:	f6c0 0008 	movt	r0, #2056	; 0x808
 8001764:	4301      	orrs	r1, r0
 8001766:	6019      	str	r1, [r3, #0]
                   | ((uint32_t)GPIO_Mode_AF) << (FMC_A14_BUS_A14 * 2)
                   | ((uint32_t)GPIO_Mode_AF) << (FMC_A15_BUS_A15 * 2)
                   | ((uint32_t)GPIO_Mode_AF) << (FMC_NE2_SRAMEN  * 2)
                   | ((uint32_t)GPIO_Mode_AF) << (FMC_A24_MUX2    * 2));

  GPIOG->OSPEEDR &= ~(GPIO_OSPEEDER_OSPEEDR0
 8001768:	6899      	ldr	r1, [r3, #8]
 800176a:	4011      	ands	r1, r2
 800176c:	6099      	str	r1, [r3, #8]
                    | GPIO_OSPEEDER_OSPEEDR3
                    | GPIO_OSPEEDER_OSPEEDR4
                    | GPIO_OSPEEDER_OSPEEDR5
                    | GPIO_OSPEEDER_OSPEEDR9
                    | GPIO_OSPEEDER_OSPEEDR13);
  GPIOG->OSPEEDR |= (((uint32_t)GPIO_Speed_100MHz) << (FMC_A10_BUS_A10 * 2)
 800176e:	6899      	ldr	r1, [r3, #8]
 8001770:	f640 70ff 	movw	r0, #4095	; 0xfff
 8001774:	f6c0 400c 	movt	r0, #3084	; 0xc0c
 8001778:	4301      	orrs	r1, r0
 800177a:	6099      	str	r1, [r3, #8]
                   | ((uint32_t)GPIO_Speed_100MHz) << (FMC_A14_BUS_A14 * 2)
                   | ((uint32_t)GPIO_Speed_100MHz) << (FMC_A15_BUS_A15 * 2)
                   | ((uint32_t)GPIO_Speed_100MHz) << (FMC_NE2_SRAMEN  * 2)
                   | ((uint32_t)GPIO_Speed_100MHz) << (FMC_A24_MUX2    * 2));

  GPIOG->OTYPER  &= ~(GPIO_OTYPER_OT_0
 800177c:	6859      	ldr	r1, [r3, #4]
 800177e:	f421 5108 	bic.w	r1, r1, #8704	; 0x2200
 8001782:	f021 013f 	bic.w	r1, r1, #63	; 0x3f
 8001786:	6059      	str	r1, [r3, #4]
                    | GPIO_OTYPER_OT_3
                    | GPIO_OTYPER_OT_4
                    | GPIO_OTYPER_OT_5
                    | GPIO_OTYPER_OT_9
                    | GPIO_OTYPER_OT_13);
  GPIOG->OTYPER  |= ((uint32_t)(GPIO_OType_PP << FMC_A10_BUS_A10)
 8001788:	6859      	ldr	r1, [r3, #4]
 800178a:	6059      	str	r1, [r3, #4]
                   | (uint32_t)(GPIO_OType_PP << FMC_A14_BUS_A14)
                   | (uint32_t)(GPIO_OType_PP << FMC_A15_BUS_A15)
                   | (uint32_t)(GPIO_OType_PP << FMC_NE2_SRAMEN )
                   | (uint32_t)(GPIO_OType_PP << FMC_A24_MUX2   ));

  GPIOG->PUPDR   &= ~(GPIO_PUPDR_PUPDR0
 800178c:	68d9      	ldr	r1, [r3, #12]
 800178e:	400a      	ands	r2, r1
 8001790:	60da      	str	r2, [r3, #12]
                    | GPIO_PUPDR_PUPDR3
                    | GPIO_PUPDR_PUPDR4
                    | GPIO_PUPDR_PUPDR5
                    | GPIO_PUPDR_PUPDR9
                    | GPIO_PUPDR_PUPDR13);
  GPIOG->PUPDR   |= (((uint32_t)GPIO_PuPd_NOPULL) << (FMC_A10_BUS_A10 * 2)
 8001792:	68da      	ldr	r2, [r3, #12]
 8001794:	60da      	str	r2, [r3, #12]
                   | ((uint32_t)GPIO_PuPd_NOPULL) << (FMC_A14_BUS_A14 * 2)
                   | ((uint32_t)GPIO_PuPd_NOPULL) << (FMC_A15_BUS_A15 * 2)
                   | ((uint32_t)GPIO_PuPd_NOPULL) << (FMC_NE2_SRAMEN  * 2)
                   | ((uint32_t)GPIO_PuPd_NOPULL) << (FMC_A24_MUX2    * 2));

  GPIOG->AFR[0] &= ~((uint32_t)0xF << (FMC_A10_BUS_A10 * 4)
 8001796:	6a1a      	ldr	r2, [r3, #32]
 8001798:	f002 427f 	and.w	r2, r2, #4278190080	; 0xff000000
 800179c:	621a      	str	r2, [r3, #32]
                   | (uint32_t)0xF << (FMC_A11_BUS_A11 * 4)
                   | (uint32_t)0xF << (FMC_A12_BUS_A12 * 4)
                   | (uint32_t)0xF << (FMC_A13_BUS_A13 * 4)
                   | (uint32_t)0xF << (FMC_A14_BUS_A14 * 4)
                   | (uint32_t)0xF << (FMC_A15_BUS_A15 * 4));
  GPIOG->AFR[0] |=  ((uint32_t)(GPIO_AF_FMC << (FMC_A10_BUS_A10 * 4)))
 800179e:	6a1a      	ldr	r2, [r3, #32]
 80017a0:	f042 12cc 	orr.w	r2, r2, #13369548	; 0xcc00cc
 80017a4:	f442 424c 	orr.w	r2, r2, #52224	; 0xcc00
 80017a8:	621a      	str	r2, [r3, #32]
                  | ((uint32_t)(GPIO_AF_FMC << (FMC_A12_BUS_A12 * 4)))
                  | ((uint32_t)(GPIO_AF_FMC << (FMC_A13_BUS_A13 * 4)))
                  | ((uint32_t)(GPIO_AF_FMC << (FMC_A14_BUS_A14 * 4)))
                  | ((uint32_t)(GPIO_AF_FMC << (FMC_A15_BUS_A15 * 4)));

  GPIOG->AFR[1] &= ~((uint32_t)0xF << ((FMC_NE2_SRAMEN - 8) * 4)
 80017aa:	6a5a      	ldr	r2, [r3, #36]	; 0x24
 80017ac:	f022 12f0 	bic.w	r2, r2, #15728880	; 0xf000f0
 80017b0:	625a      	str	r2, [r3, #36]	; 0x24
                   | (uint32_t)0xF << ((FMC_A24_MUX2   - 8) * 4));
  GPIOG->AFR[1] |=  ((uint32_t)(GPIO_AF_FMC << ((FMC_NE2_SRAMEN - 8) * 4)))
 80017b2:	6a5a      	ldr	r2, [r3, #36]	; 0x24
 80017b4:	f042 12c0 	orr.w	r2, r2, #12583104	; 0xc000c0
 80017b8:	625a      	str	r2, [r3, #36]	; 0x24
                  | ((uint32_t)(GPIO_AF_FMC << ((FMC_A24_MUX2   - 8) * 4)));
  // ---------------------------------------------------------------------------
  GPIOI->MODER   &= ~(GPIO_MODER_MODER7);
 80017ba:	f44f 5300 	mov.w	r3, #8192	; 0x2000
 80017be:	f2c4 0302 	movt	r3, #16386	; 0x4002
 80017c2:	681a      	ldr	r2, [r3, #0]
 80017c4:	f422 4240 	bic.w	r2, r2, #49152	; 0xc000
 80017c8:	601a      	str	r2, [r3, #0]
  GPIOI->MODER   |= (((uint32_t)GPIO_Mode_OUT) << (BUS_IO * 2));
 80017ca:	681a      	ldr	r2, [r3, #0]
 80017cc:	f442 4280 	orr.w	r2, r2, #16384	; 0x4000
 80017d0:	601a      	str	r2, [r3, #0]

  GPIOI->OSPEEDR &= ~(GPIO_OSPEEDER_OSPEEDR7);
 80017d2:	689a      	ldr	r2, [r3, #8]
 80017d4:	f422 4240 	bic.w	r2, r2, #49152	; 0xc000
 80017d8:	609a      	str	r2, [r3, #8]
  GPIOI->OSPEEDR |= (((uint32_t)GPIO_Speed_100MHz) << (BUS_IO * 2));
 80017da:	689a      	ldr	r2, [r3, #8]
 80017dc:	f442 4240 	orr.w	r2, r2, #49152	; 0xc000
 80017e0:	609a      	str	r2, [r3, #8]

  GPIOI->OTYPER  &= ~(GPIO_OTYPER_OT_7);
 80017e2:	685a      	ldr	r2, [r3, #4]
 80017e4:	f022 0280 	bic.w	r2, r2, #128	; 0x80
 80017e8:	605a      	str	r2, [r3, #4]
  GPIOI->OTYPER  |= ((uint32_t)(GPIO_OType_PP << BUS_IO));
 80017ea:	685a      	ldr	r2, [r3, #4]
 80017ec:	605a      	str	r2, [r3, #4]

  GPIOI->PUPDR   &= ~(GPIO_PUPDR_PUPDR7);
 80017ee:	68da      	ldr	r2, [r3, #12]
 80017f0:	f422 4240 	bic.w	r2, r2, #49152	; 0xc000
 80017f4:	60da      	str	r2, [r3, #12]
  GPIOI->PUPDR   |= (((uint32_t)GPIO_PuPd_NOPULL) << (BUS_IO * 2));
 80017f6:	68da      	ldr	r2, [r3, #12]
 80017f8:	60da      	str	r2, [r3, #12]
  // ---------------------------------------------------------------------------
  if (gDevices & ARCADEIT_DEVICE_SERIAL)
 80017fa:	f240 2308 	movw	r3, #520	; 0x208
 80017fe:	f2c2 0300 	movt	r3, #8192	; 0x2000
 8001802:	681b      	ldr	r3, [r3, #0]
 8001804:	f413 4f80 	tst.w	r3, #16384	; 0x4000
 8001808:	d101      	bne.n	800180e <ArcadeIT_BUS_Port_Init+0x2fe>

  } // End if.

  return TRUE;

} // End ArcadeIT_BUS_Port_Init.
 800180a:	2001      	movs	r0, #1
 800180c:	bd08      	pop	{r3, pc}
    ArcadeIT_Serial_Port_String_Send(TEXT_BUS_INITED);
 800180e:	f247 704c 	movw	r0, #30540	; 0x774c
 8001812:	f6c0 0000 	movt	r0, #2048	; 0x800
 8001816:	f000 ff89 	bl	800272c <ArcadeIT_Serial_Port_String_Send>
 800181a:	e7f6      	b.n	800180a <ArcadeIT_BUS_Port_Init+0x2fa>

0800181c <ArcadeIT_BUS_Port_SRAM>:

// -----------------------------------------------------------------------------
void ArcadeIT_BUS_Port_SRAM(
    uint8_t pScaler // speed divider to slow down the access time to the memory bank
    )
{
 800181c:	b530      	push	{r4, r5, lr}
 800181e:	b09f      	sub	sp, #124	; 0x7c
  FMC_NORSRAMInitTypeDef        lFMC_NORSRAMInitStructure;
  FMC_NORSRAMTimingInitTypeDef  lNORSRAMTimingStructure_R;
  FMC_NORSRAMTimingInitTypeDef  lNORSRAMTimingStructure_W;

  // SRAM Timing configuration.
  lNORSRAMTimingStructure_R.FMC_AddressSetupTime        = 2 * pScaler;
 8001820:	0043      	lsls	r3, r0, #1
 8001822:	9308      	str	r3, [sp, #32]
  lNORSRAMTimingStructure_R.FMC_AddressHoldTime         = 1 * pScaler;
 8001824:	9009      	str	r0, [sp, #36]	; 0x24
  lNORSRAMTimingStructure_R.FMC_DataSetupTime           = 2 * pScaler;
 8001826:	930a      	str	r3, [sp, #40]	; 0x28
  lNORSRAMTimingStructure_R.FMC_BusTurnAroundDuration   = 1;
 8001828:	2501      	movs	r5, #1
 800182a:	950b      	str	r5, [sp, #44]	; 0x2c
  lNORSRAMTimingStructure_R.FMC_CLKDivision             = 0;
 800182c:	2400      	movs	r4, #0
 800182e:	940c      	str	r4, [sp, #48]	; 0x30
  lNORSRAMTimingStructure_R.FMC_DataLatency             = 0;
 8001830:	940d      	str	r4, [sp, #52]	; 0x34
  lNORSRAMTimingStructure_R.FMC_AccessMode              = FMC_AccessMode_A;
 8001832:	940e      	str	r4, [sp, #56]	; 0x38

  lNORSRAMTimingStructure_W.FMC_AddressSetupTime        = 2 * pScaler;
 8001834:	9301      	str	r3, [sp, #4]
  lNORSRAMTimingStructure_W.FMC_AddressHoldTime         = 1 * pScaler;
 8001836:	9002      	str	r0, [sp, #8]
  lNORSRAMTimingStructure_W.FMC_DataSetupTime           = 2 * pScaler;
 8001838:	9303      	str	r3, [sp, #12]
  lNORSRAMTimingStructure_W.FMC_BusTurnAroundDuration   = 1;
 800183a:	9504      	str	r5, [sp, #16]
  lNORSRAMTimingStructure_W.FMC_CLKDivision             = 0;
 800183c:	9405      	str	r4, [sp, #20]
  lNORSRAMTimingStructure_W.FMC_DataLatency             = 0;
 800183e:	9406      	str	r4, [sp, #24]
  lNORSRAMTimingStructure_W.FMC_AccessMode              = FMC_AccessMode_A;
 8001840:	9407      	str	r4, [sp, #28]

  // FMC SRAM control configuration.
  lFMC_NORSRAMInitStructure.FMC_Bank                    = FMC_Bank1_NORSRAM1;
 8001842:	940f      	str	r4, [sp, #60]	; 0x3c
  lFMC_NORSRAMInitStructure.FMC_DataAddressMux          = FMC_DataAddressMux_Disable;
 8001844:	9410      	str	r4, [sp, #64]	; 0x40
  lFMC_NORSRAMInitStructure.FMC_MemoryType              = FMC_MemoryType_SRAM;
 8001846:	9411      	str	r4, [sp, #68]	; 0x44
  lFMC_NORSRAMInitStructure.FMC_MemoryDataWidth         = FMC_NORSRAM_MemoryDataWidth_8b;
 8001848:	9412      	str	r4, [sp, #72]	; 0x48
  lFMC_NORSRAMInitStructure.FMC_BurstAccessMode         = FMC_BurstAccessMode_Disable;
 800184a:	9413      	str	r4, [sp, #76]	; 0x4c
  lFMC_NORSRAMInitStructure.FMC_AsynchronousWait        = FMC_AsynchronousWait_Disable;
 800184c:	9419      	str	r4, [sp, #100]	; 0x64
  lFMC_NORSRAMInitStructure.FMC_WaitSignalPolarity      = FMC_WaitSignalPolarity_Low;
 800184e:	9414      	str	r4, [sp, #80]	; 0x50
  lFMC_NORSRAMInitStructure.FMC_WaitSignalActive        = FMC_WaitSignalActive_BeforeWaitState;
 8001850:	9415      	str	r4, [sp, #84]	; 0x54
  lFMC_NORSRAMInitStructure.FMC_WriteOperation          = FMC_WriteOperation_Enable;
 8001852:	f44f 5380 	mov.w	r3, #4096	; 0x1000
 8001856:	9316      	str	r3, [sp, #88]	; 0x58
  lFMC_NORSRAMInitStructure.FMC_WaitSignal              = FMC_WaitSignal_Disable;
 8001858:	9417      	str	r4, [sp, #92]	; 0x5c
  lFMC_NORSRAMInitStructure.FMC_ExtendedMode            = FMC_ExtendedMode_Enable;
 800185a:	f44f 4380 	mov.w	r3, #16384	; 0x4000
 800185e:	9318      	str	r3, [sp, #96]	; 0x60
  lFMC_NORSRAMInitStructure.FMC_WriteBurst              = FMC_WriteBurst_Disable;
 8001860:	941a      	str	r4, [sp, #104]	; 0x68
  lFMC_NORSRAMInitStructure.FMC_ContinousClock          = FMC_CClock_SyncOnly;
 8001862:	941b      	str	r4, [sp, #108]	; 0x6c

  lFMC_NORSRAMInitStructure.FMC_ReadWriteTimingStruct   = &lNORSRAMTimingStructure_R;
 8001864:	ab08      	add	r3, sp, #32
 8001866:	931c      	str	r3, [sp, #112]	; 0x70
  lFMC_NORSRAMInitStructure.FMC_WriteTimingStruct       = &lNORSRAMTimingStructure_W;
 8001868:	ab01      	add	r3, sp, #4
 800186a:	931d      	str	r3, [sp, #116]	; 0x74

  /* SRAM configuration */
  FMC_NORSRAMInit(&lFMC_NORSRAMInitStructure);
 800186c:	a80f      	add	r0, sp, #60	; 0x3c
 800186e:	f7ff fdae 	bl	80013ce <FMC_NORSRAMInit>

  /* Enable FMC Bank1_SRAM1 Bank */
  FMC_NORSRAMCmd(FMC_Bank1_NORSRAM1, ENABLE);
 8001872:	4629      	mov	r1, r5
 8001874:	4620      	mov	r0, r4
 8001876:	f7ff fe38 	bl	80014ea <FMC_NORSRAMCmd>

  if (gDevices & ARCADEIT_DEVICE_SERIAL)
 800187a:	f240 2308 	movw	r3, #520	; 0x208
 800187e:	f2c2 0300 	movt	r3, #8192	; 0x2000
 8001882:	681b      	ldr	r3, [r3, #0]
 8001884:	f413 4f80 	tst.w	r3, #16384	; 0x4000
 8001888:	d101      	bne.n	800188e <ArcadeIT_BUS_Port_SRAM+0x72>
  {
    ArcadeIT_Serial_Port_String_Send(TEXT_SRAM_PORT_SET);

  } // End if.

}; // End ArcadeIT_Bus_Port_SRAM.
 800188a:	b01f      	add	sp, #124	; 0x7c
 800188c:	bd30      	pop	{r4, r5, pc}
    ArcadeIT_Serial_Port_String_Send(TEXT_SRAM_PORT_SET);
 800188e:	f247 7064 	movw	r0, #30564	; 0x7764
 8001892:	f6c0 0000 	movt	r0, #2048	; 0x800
 8001896:	f000 ff49 	bl	800272c <ArcadeIT_Serial_Port_String_Send>
}; // End ArcadeIT_Bus_Port_SRAM.
 800189a:	e7f6      	b.n	800188a <ArcadeIT_BUS_Port_SRAM+0x6e>

0800189c <ArcadeIT_I2C_Port_Init>:

// -----------------------------------------------------------------------------
void ArcadeIT_I2C_Port_Init(
    uint32_t pClock     // The frequency clock of the I2C device
    )
{
 800189c:	b538      	push	{r3, r4, r5, lr}
 800189e:	4605      	mov	r5, r0
  uint32_t lPinPosition;

  // configure the pins of the I2C
  lPinPosition = (SYS_I2C_SCL_PIN_NO * 2);

  if ((RCC->AHB1ENR & RCC_AHB1Periph_GPIOH) == FALSE) RCC->AHB1ENR |= RCC_AHB1Periph_GPIOH;
 80018a0:	f44f 5360 	mov.w	r3, #14336	; 0x3800
 80018a4:	f2c4 0302 	movt	r3, #16386	; 0x4002
 80018a8:	6b1b      	ldr	r3, [r3, #48]	; 0x30
 80018aa:	f013 0f80 	tst.w	r3, #128	; 0x80
 80018ae:	d107      	bne.n	80018c0 <ArcadeIT_I2C_Port_Init+0x24>
 80018b0:	f44f 5360 	mov.w	r3, #14336	; 0x3800
 80018b4:	f2c4 0302 	movt	r3, #16386	; 0x4002
 80018b8:	6b1a      	ldr	r2, [r3, #48]	; 0x30
 80018ba:	f042 0280 	orr.w	r2, r2, #128	; 0x80
 80018be:	631a      	str	r2, [r3, #48]	; 0x30
  if ((RCC->APB1ENR & RCC_APB1Periph_I2C2) == FALSE) RCC->APB1ENR |= RCC_APB1Periph_I2C2;
 80018c0:	f44f 5360 	mov.w	r3, #14336	; 0x3800
 80018c4:	f2c4 0302 	movt	r3, #16386	; 0x4002
 80018c8:	6c1b      	ldr	r3, [r3, #64]	; 0x40
 80018ca:	f413 0f80 	tst.w	r3, #4194304	; 0x400000
 80018ce:	d107      	bne.n	80018e0 <ArcadeIT_I2C_Port_Init+0x44>
 80018d0:	f44f 5360 	mov.w	r3, #14336	; 0x3800
 80018d4:	f2c4 0302 	movt	r3, #16386	; 0x4002
 80018d8:	6c1a      	ldr	r2, [r3, #64]	; 0x40
 80018da:	f442 0280 	orr.w	r2, r2, #4194304	; 0x400000
 80018de:	641a      	str	r2, [r3, #64]	; 0x40

  // Configure the pin PH4 as alternate function 4 (I2C SCL).
  SYS_I2C_SCL_PER->MODER   &= ~GPIO_MODER_MODER4;
 80018e0:	f44f 53e0 	mov.w	r3, #7168	; 0x1c00
 80018e4:	f2c4 0302 	movt	r3, #16386	; 0x4002
 80018e8:	681a      	ldr	r2, [r3, #0]
 80018ea:	f422 7240 	bic.w	r2, r2, #768	; 0x300
 80018ee:	601a      	str	r2, [r3, #0]
  SYS_I2C_SCL_PER->MODER   |= (((uint32_t)GPIO_Mode_AF) << lPinPosition);
 80018f0:	681a      	ldr	r2, [r3, #0]
 80018f2:	f442 7200 	orr.w	r2, r2, #512	; 0x200
 80018f6:	601a      	str	r2, [r3, #0]
  SYS_I2C_SCL_PER->OSPEEDR &= ~GPIO_OSPEEDER_OSPEEDR4;
 80018f8:	689a      	ldr	r2, [r3, #8]
 80018fa:	f422 7240 	bic.w	r2, r2, #768	; 0x300
 80018fe:	609a      	str	r2, [r3, #8]
  SYS_I2C_SCL_PER->OSPEEDR |= ((uint32_t)(GPIO_Speed_2MHz) << lPinPosition);
 8001900:	689a      	ldr	r2, [r3, #8]
 8001902:	609a      	str	r2, [r3, #8]
  SYS_I2C_SCL_PER->OTYPER  &= ~GPIO_OTYPER_OT_4;
 8001904:	685a      	ldr	r2, [r3, #4]
 8001906:	f022 0210 	bic.w	r2, r2, #16
 800190a:	605a      	str	r2, [r3, #4]
  SYS_I2C_SCL_PER->OTYPER  |= (uint16_t)(GPIO_OType_OD << SYS_I2C_SCL_PIN_NO);
 800190c:	685a      	ldr	r2, [r3, #4]
 800190e:	f042 0210 	orr.w	r2, r2, #16
 8001912:	605a      	str	r2, [r3, #4]
  SYS_I2C_SCL_PER->PUPDR   &= ~GPIO_PUPDR_PUPDR4;
 8001914:	68da      	ldr	r2, [r3, #12]
 8001916:	f422 7240 	bic.w	r2, r2, #768	; 0x300
 800191a:	60da      	str	r2, [r3, #12]
  SYS_I2C_SCL_PER->PUPDR   |= (((uint32_t)GPIO_PuPd_NOPULL) << lPinPosition);
 800191c:	68da      	ldr	r2, [r3, #12]
 800191e:	60da      	str	r2, [r3, #12]
  SYS_I2C_SCL_PER->AFR[0]  &= ~((uint32_t)0xF << ((uint32_t)((uint32_t)SYS_I2C_SCL_PIN_NO & (uint32_t)0x07) * 4));
 8001920:	6a1a      	ldr	r2, [r3, #32]
 8001922:	f422 2270 	bic.w	r2, r2, #983040	; 0xf0000
 8001926:	621a      	str	r2, [r3, #32]
  SYS_I2C_SCL_PER->AFR[0]  |= ((uint32_t)(SYS_I2C_AF) << ((uint32_t)((uint32_t)SYS_I2C_SCL_PIN_NO & (uint32_t)0x07) * 4));
 8001928:	6a1a      	ldr	r2, [r3, #32]
 800192a:	f442 2280 	orr.w	r2, r2, #262144	; 0x40000
 800192e:	621a      	str	r2, [r3, #32]

  lPinPosition = (SYS_I2C_SDA_PIN_NO * 2);

  // Configure the pin PH5 as alternate function 4 (I2C SDA).
  SYS_I2C_SDA_PER->MODER   &= ~GPIO_MODER_MODER5;
 8001930:	681a      	ldr	r2, [r3, #0]
 8001932:	f422 6240 	bic.w	r2, r2, #3072	; 0xc00
 8001936:	601a      	str	r2, [r3, #0]
  SYS_I2C_SDA_PER->MODER   |= (((uint32_t)GPIO_Mode_AF) << lPinPosition);
 8001938:	681a      	ldr	r2, [r3, #0]
 800193a:	f442 6200 	orr.w	r2, r2, #2048	; 0x800
 800193e:	601a      	str	r2, [r3, #0]
  SYS_I2C_SDA_PER->OSPEEDR &= ~GPIO_OSPEEDER_OSPEEDR5;
 8001940:	689a      	ldr	r2, [r3, #8]
 8001942:	f422 6240 	bic.w	r2, r2, #3072	; 0xc00
 8001946:	609a      	str	r2, [r3, #8]
  SYS_I2C_SDA_PER->OSPEEDR |= ((uint32_t)(GPIO_Speed_2MHz) << lPinPosition);
 8001948:	689a      	ldr	r2, [r3, #8]
 800194a:	609a      	str	r2, [r3, #8]
  SYS_I2C_SDA_PER->OTYPER  &= ~GPIO_OTYPER_OT_5;
 800194c:	685a      	ldr	r2, [r3, #4]
 800194e:	f022 0220 	bic.w	r2, r2, #32
 8001952:	605a      	str	r2, [r3, #4]
  SYS_I2C_SDA_PER->OTYPER  |= (uint16_t)(GPIO_OType_OD << SYS_I2C_SDA_PIN_NO);
 8001954:	685a      	ldr	r2, [r3, #4]
 8001956:	f042 0220 	orr.w	r2, r2, #32
 800195a:	605a      	str	r2, [r3, #4]
  SYS_I2C_SDA_PER->PUPDR   &= ~GPIO_PUPDR_PUPDR5;
 800195c:	68da      	ldr	r2, [r3, #12]
 800195e:	f422 6240 	bic.w	r2, r2, #3072	; 0xc00
 8001962:	60da      	str	r2, [r3, #12]
  SYS_I2C_SDA_PER->PUPDR   |= (((uint32_t)GPIO_PuPd_NOPULL) << lPinPosition);
 8001964:	68da      	ldr	r2, [r3, #12]
 8001966:	60da      	str	r2, [r3, #12]
  SYS_I2C_SDA_PER->AFR[0] &= ~((uint32_t)0xF << ((uint32_t)((uint32_t)SYS_I2C_SDA_PIN_NO & (uint32_t)0x07) * 4)) ;
 8001968:	6a1a      	ldr	r2, [r3, #32]
 800196a:	f422 0270 	bic.w	r2, r2, #15728640	; 0xf00000
 800196e:	621a      	str	r2, [r3, #32]
  SYS_I2C_SDA_PER->AFR[0] |= ((uint32_t)(SYS_I2C_AF) << ((uint32_t)((uint32_t)SYS_I2C_SDA_PIN_NO & (uint32_t)0x07) * 4));
 8001970:	6a1a      	ldr	r2, [r3, #32]
 8001972:	f442 0280 	orr.w	r2, r2, #4194304	; 0x400000
 8001976:	621a      	str	r2, [r3, #32]

  // reset the I2C peripheral
  I2C2->CR1 |= I2C_CR1_SWRST;
 8001978:	f44f 44b0 	mov.w	r4, #22528	; 0x5800
 800197c:	f2c4 0400 	movt	r4, #16384	; 0x4000
 8001980:	6823      	ldr	r3, [r4, #0]
 8001982:	f443 4300 	orr.w	r3, r3, #32768	; 0x8000
 8001986:	6023      	str	r3, [r4, #0]
  ArcadeIT_System_Delay(1000);
 8001988:	f44f 707a 	mov.w	r0, #1000	; 0x3e8
 800198c:	f7ff f9ac 	bl	8000ce8 <ArcadeIT_System_Delay>
  I2C2->CR1 = 0x0;
 8001990:	2300      	movs	r3, #0
 8001992:	6023      	str	r3, [r4, #0]

  // configure the I2C port
  I2C2->CR1 &= ~I2C_CR1_PE;
 8001994:	6823      	ldr	r3, [r4, #0]
 8001996:	f023 0301 	bic.w	r3, r3, #1
 800199a:	6023      	str	r3, [r4, #0]
  uint16_t result = 0x04;
  uint8_t lDuty = I2C_DUTY_2;

  freqrange = (apbclock / 1000000);

  I2C2->CR2 &= ~I2C_CR2_FREQ;
 800199c:	6863      	ldr	r3, [r4, #4]
 800199e:	f023 033f 	bic.w	r3, r3, #63	; 0x3f
 80019a2:	6063      	str	r3, [r4, #4]
  I2C2->CR2 |= freqrange;
 80019a4:	6863      	ldr	r3, [r4, #4]
 80019a6:	f043 032d 	orr.w	r3, r3, #45	; 0x2d
 80019aa:	6063      	str	r3, [r4, #4]

  // Configure speed in standard mode
  if (pClock <= 100000)
 80019ac:	f248 63a0 	movw	r3, #34464	; 0x86a0
 80019b0:	f2c0 0301 	movt	r3, #1
 80019b4:	429d      	cmp	r5, r3
 80019b6:	d83f      	bhi.n	8001a38 <ArcadeIT_I2C_Port_Init+0x19c>
  {
    // Standard mode speed calculate
    result = (uint16_t)(apbclock / (pClock << 1));
 80019b8:	006d      	lsls	r5, r5, #1
 80019ba:	f24a 5040 	movw	r0, #42304	; 0xa540
 80019be:	f2c0 20ae 	movt	r0, #686	; 0x2ae
 80019c2:	fbb0 f0f5 	udiv	r0, r0, r5
 80019c6:	b280      	uxth	r0, r0

    // Test if CCR value is under 0x4
    if (result < 0x04)
 80019c8:	2803      	cmp	r0, #3
 80019ca:	d800      	bhi.n	80019ce <ArcadeIT_I2C_Port_Init+0x132>
    {
      // Set minimum allowed value
      result = 0x04;
 80019cc:	2004      	movs	r0, #4

    // Set speed value for standard mode
    tmpreg |= result;

    // Set Maximum Rise Time for standard mode
    I2C2->TRISE = freqrange + 1;
 80019ce:	f44f 43b0 	mov.w	r3, #22528	; 0x5800
 80019d2:	f2c4 0300 	movt	r3, #16384	; 0x4000
 80019d6:	222e      	movs	r2, #46	; 0x2e
 80019d8:	621a      	str	r2, [r3, #32]
    // Set Maximum Rise Time for fast mode
    I2C2->TRISE = (uint16_t)(((freqrange * (uint16_t)300) / (uint16_t)1000) + (uint16_t)1);

  } // End if.

  I2C2->CCR = tmpreg;
 80019da:	f44f 42b0 	mov.w	r2, #22528	; 0x5800
 80019de:	f2c4 0200 	movt	r2, #16384	; 0x4000
 80019e2:	61d0      	str	r0, [r2, #28]
  I2C2->OAR1 = I2C_AcknowledgedAddress_7bit;
 80019e4:	f44f 4380 	mov.w	r3, #16384	; 0x4000
 80019e8:	6093      	str	r3, [r2, #8]
  I2C2->OAR2 = 0;
 80019ea:	f44f 42b0 	mov.w	r2, #22528	; 0x5800
 80019ee:	f363 421f 	bfi	r2, r3, #16, #16
 80019f2:	2100      	movs	r1, #0
 80019f4:	60d1      	str	r1, [r2, #12]
  I2C2->CR1 |= I2C_CR1_ACK;
 80019f6:	f44f 42b0 	mov.w	r2, #22528	; 0x5800
 80019fa:	f363 421f 	bfi	r2, r3, #16, #16
 80019fe:	6812      	ldr	r2, [r2, #0]
 8001a00:	f442 6280 	orr.w	r2, r2, #1024	; 0x400
 8001a04:	f44f 41b0 	mov.w	r1, #22528	; 0x5800
 8001a08:	f363 411f 	bfi	r1, r3, #16, #16
 8001a0c:	600a      	str	r2, [r1, #0]
  I2C2->CR1 |= I2C_CR1_PE;
 8001a0e:	f44f 42b0 	mov.w	r2, #22528	; 0x5800
 8001a12:	f363 421f 	bfi	r2, r3, #16, #16
 8001a16:	6812      	ldr	r2, [r2, #0]
 8001a18:	f042 0201 	orr.w	r2, r2, #1
 8001a1c:	f44f 41b0 	mov.w	r1, #22528	; 0x5800
 8001a20:	f363 411f 	bfi	r1, r3, #16, #16
 8001a24:	600a      	str	r2, [r1, #0]

  // Shows a message to serial port as debug
  if (gDevices & ARCADEIT_DEVICE_SERIAL)
 8001a26:	f240 2308 	movw	r3, #520	; 0x208
 8001a2a:	f2c2 0300 	movt	r3, #8192	; 0x2000
 8001a2e:	681b      	ldr	r3, [r3, #0]
 8001a30:	f413 4f80 	tst.w	r3, #16384	; 0x4000
 8001a34:	d117      	bne.n	8001a66 <ArcadeIT_I2C_Port_Init+0x1ca>
  {
    ArcadeIT_Serial_Port_String_Send(TEXT_I2C_INITED);

  } // End if.

} // end ArcadeIT_I2C_Port_Init
 8001a36:	bd38      	pop	{r3, r4, r5, pc}
      result = (uint16_t)(apbclock / (pClock * 3));
 8001a38:	eb05 0545 	add.w	r5, r5, r5, lsl #1
 8001a3c:	f24a 5340 	movw	r3, #42304	; 0xa540
 8001a40:	f2c0 23ae 	movt	r3, #686	; 0x2ae
 8001a44:	fbb3 f3f5 	udiv	r3, r3, r5
 8001a48:	b298      	uxth	r0, r3
    if ((result & I2C_CCR_CCR) == 0)
 8001a4a:	f3c3 030b 	ubfx	r3, r3, #0, #12
 8001a4e:	b90b      	cbnz	r3, 8001a54 <ArcadeIT_I2C_Port_Init+0x1b8>
      result |= (uint16_t)0x0001;
 8001a50:	f040 0001 	orr.w	r0, r0, #1
    tmpreg |= (uint16_t)(result | I2C_CCR_FS);
 8001a54:	f440 4000 	orr.w	r0, r0, #32768	; 0x8000
    I2C2->TRISE = (uint16_t)(((freqrange * (uint16_t)300) / (uint16_t)1000) + (uint16_t)1);
 8001a58:	f44f 43b0 	mov.w	r3, #22528	; 0x5800
 8001a5c:	f2c4 0300 	movt	r3, #16384	; 0x4000
 8001a60:	220e      	movs	r2, #14
 8001a62:	621a      	str	r2, [r3, #32]
 8001a64:	e7b9      	b.n	80019da <ArcadeIT_I2C_Port_Init+0x13e>
    ArcadeIT_Serial_Port_String_Send(TEXT_I2C_INITED);
 8001a66:	f247 7078 	movw	r0, #30584	; 0x7778
 8001a6a:	f6c0 0000 	movt	r0, #2048	; 0x800
 8001a6e:	f000 fe5d 	bl	800272c <ArcadeIT_Serial_Port_String_Send>
} // end ArcadeIT_I2C_Port_Init
 8001a72:	e7e0      	b.n	8001a36 <ArcadeIT_I2C_Port_Init+0x19a>

08001a74 <LCD_Parallel_Port_Setup>:
// /////////////////////////////////////////////////////////////////////////////
void LCD_Parallel_Port_Setup
(
  uint8_t pPort   // port number (LCD 0 or 1)
)
{
 8001a74:	b5f8      	push	{r3, r4, r5, r6, r7, lr}
  */


  uint32_t lPinPosition;

  if ((RCC->AHB1ENR & RCC_AHB1Periph_GPIOH) == FALSE) RCC->AHB1ENR |= RCC_AHB1Periph_GPIOH;
 8001a76:	f44f 5360 	mov.w	r3, #14336	; 0x3800
 8001a7a:	f2c4 0302 	movt	r3, #16386	; 0x4002
 8001a7e:	6b1b      	ldr	r3, [r3, #48]	; 0x30
 8001a80:	f013 0f80 	tst.w	r3, #128	; 0x80
 8001a84:	d107      	bne.n	8001a96 <LCD_Parallel_Port_Setup+0x22>
 8001a86:	f44f 5360 	mov.w	r3, #14336	; 0x3800
 8001a8a:	f2c4 0302 	movt	r3, #16386	; 0x4002
 8001a8e:	6b1a      	ldr	r2, [r3, #48]	; 0x30
 8001a90:	f042 0280 	orr.w	r2, r2, #128	; 0x80
 8001a94:	631a      	str	r2, [r3, #48]	; 0x30

  // Configure the Reset pin that is common to both LCDs
  lPinPosition = (SYS_LCD_RESET_PIN_NO * 2);
  SYS_LCD_RESET_PER->MODER   &= ~GPIO_MODER_MODER7;
 8001a96:	f44f 53e0 	mov.w	r3, #7168	; 0x1c00
 8001a9a:	f2c4 0302 	movt	r3, #16386	; 0x4002
 8001a9e:	681a      	ldr	r2, [r3, #0]
 8001aa0:	f422 4240 	bic.w	r2, r2, #49152	; 0xc000
 8001aa4:	601a      	str	r2, [r3, #0]
  SYS_LCD_RESET_PER->MODER   |= (((uint32_t)GPIO_Mode_OUT) << lPinPosition);
 8001aa6:	681a      	ldr	r2, [r3, #0]
 8001aa8:	f442 4280 	orr.w	r2, r2, #16384	; 0x4000
 8001aac:	601a      	str	r2, [r3, #0]
  SYS_LCD_RESET_PER->OSPEEDR &= ~GPIO_OSPEEDER_OSPEEDR7;
 8001aae:	689a      	ldr	r2, [r3, #8]
 8001ab0:	f422 4240 	bic.w	r2, r2, #49152	; 0xc000
 8001ab4:	609a      	str	r2, [r3, #8]
  SYS_LCD_RESET_PER->OSPEEDR |= ((uint32_t)(GPIO_Speed_100MHz) << lPinPosition);
 8001ab6:	689a      	ldr	r2, [r3, #8]
 8001ab8:	f442 4240 	orr.w	r2, r2, #49152	; 0xc000
 8001abc:	609a      	str	r2, [r3, #8]
  SYS_LCD_RESET_PER->OTYPER  &= ~GPIO_OTYPER_OT_7;
 8001abe:	685a      	ldr	r2, [r3, #4]
 8001ac0:	f022 0280 	bic.w	r2, r2, #128	; 0x80
 8001ac4:	605a      	str	r2, [r3, #4]
  SYS_LCD_RESET_PER->OTYPER  |= (uint16_t)(GPIO_OType_PP << SYS_LCD_RESET_PIN_NO);
 8001ac6:	685a      	ldr	r2, [r3, #4]
 8001ac8:	605a      	str	r2, [r3, #4]
  SYS_LCD_RESET_PER->PUPDR   &= ~GPIO_PUPDR_PUPDR7;
 8001aca:	68da      	ldr	r2, [r3, #12]
 8001acc:	f422 4240 	bic.w	r2, r2, #49152	; 0xc000
 8001ad0:	60da      	str	r2, [r3, #12]
  SYS_LCD_RESET_PER->PUPDR   |= (((uint32_t)GPIO_PuPd_UP) << lPinPosition);
 8001ad2:	68da      	ldr	r2, [r3, #12]
 8001ad4:	f442 4280 	orr.w	r2, r2, #16384	; 0x4000
 8001ad8:	60da      	str	r2, [r3, #12]
   * at 60Hz. So this is the way used to calculate the TIM parameters
   * 1 tick = 5,55ns (180 Mhz)
   *
   */

  if ((RCC->APB2ENR & RCC_APB2Periph_TIM1) == FALSE) RCC->APB2ENR |= RCC_APB2Periph_TIM1;
 8001ada:	f44f 5360 	mov.w	r3, #14336	; 0x3800
 8001ade:	f2c4 0302 	movt	r3, #16386	; 0x4002
 8001ae2:	6c5b      	ldr	r3, [r3, #68]	; 0x44
 8001ae4:	f013 0f01 	tst.w	r3, #1
 8001ae8:	d107      	bne.n	8001afa <LCD_Parallel_Port_Setup+0x86>
 8001aea:	f44f 5360 	mov.w	r3, #14336	; 0x3800
 8001aee:	f2c4 0302 	movt	r3, #16386	; 0x4002
 8001af2:	6c5a      	ldr	r2, [r3, #68]	; 0x44
 8001af4:	f042 0201 	orr.w	r2, r2, #1
 8001af8:	645a      	str	r2, [r3, #68]	; 0x44
  if ((RCC->AHB1ENR & RCC_AHB1Periph_GPIOE) == FALSE) RCC->AHB1ENR |= RCC_AHB1Periph_GPIOE;
 8001afa:	f44f 5360 	mov.w	r3, #14336	; 0x3800
 8001afe:	f2c4 0302 	movt	r3, #16386	; 0x4002
 8001b02:	6b1b      	ldr	r3, [r3, #48]	; 0x30
 8001b04:	f013 0f10 	tst.w	r3, #16
 8001b08:	d107      	bne.n	8001b1a <LCD_Parallel_Port_Setup+0xa6>
 8001b0a:	f44f 5360 	mov.w	r3, #14336	; 0x3800
 8001b0e:	f2c4 0302 	movt	r3, #16386	; 0x4002
 8001b12:	6b1a      	ldr	r2, [r3, #48]	; 0x30
 8001b14:	f042 0210 	orr.w	r2, r2, #16
 8001b18:	631a      	str	r2, [r3, #48]	; 0x30

  if (pPort & LCD_1_ID)
 8001b1a:	f010 0501 	ands.w	r5, r0, #1
 8001b1e:	d029      	beq.n	8001b74 <LCD_Parallel_Port_Setup+0x100>
  {
    lPinPosition = (SYS_LCD_1_BL_PWM_PIN_NO * 2);
    SYS_LCD_1_BL_PWM_PER->MODER   &= ~GPIO_MODER_MODER13;
 8001b20:	f44f 5380 	mov.w	r3, #4096	; 0x1000
 8001b24:	f2c4 0302 	movt	r3, #16386	; 0x4002
 8001b28:	681a      	ldr	r2, [r3, #0]
 8001b2a:	f022 6240 	bic.w	r2, r2, #201326592	; 0xc000000
 8001b2e:	601a      	str	r2, [r3, #0]
    SYS_LCD_1_BL_PWM_PER->MODER   |= (((uint32_t)GPIO_Mode_AF) << lPinPosition);
 8001b30:	681a      	ldr	r2, [r3, #0]
 8001b32:	f042 6200 	orr.w	r2, r2, #134217728	; 0x8000000
 8001b36:	601a      	str	r2, [r3, #0]
    SYS_LCD_1_BL_PWM_PER->OSPEEDR &= ~GPIO_OSPEEDER_OSPEEDR13;
 8001b38:	689a      	ldr	r2, [r3, #8]
 8001b3a:	f022 6240 	bic.w	r2, r2, #201326592	; 0xc000000
 8001b3e:	609a      	str	r2, [r3, #8]
    SYS_LCD_1_BL_PWM_PER->OSPEEDR |= ((uint32_t)(GPIO_Speed_50MHz) << lPinPosition);
 8001b40:	689a      	ldr	r2, [r3, #8]
 8001b42:	f042 6200 	orr.w	r2, r2, #134217728	; 0x8000000
 8001b46:	609a      	str	r2, [r3, #8]
    SYS_LCD_1_BL_PWM_PER->OTYPER  &= ~GPIO_OTYPER_OT_13;
 8001b48:	685a      	ldr	r2, [r3, #4]
 8001b4a:	f422 5200 	bic.w	r2, r2, #8192	; 0x2000
 8001b4e:	605a      	str	r2, [r3, #4]
    SYS_LCD_1_BL_PWM_PER->OTYPER  |= (uint16_t)(GPIO_OType_PP << SYS_LCD_1_BL_PWM_PIN_NO);
 8001b50:	685a      	ldr	r2, [r3, #4]
 8001b52:	605a      	str	r2, [r3, #4]
    SYS_LCD_1_BL_PWM_PER->PUPDR   &= ~GPIO_PUPDR_PUPDR13;
 8001b54:	68da      	ldr	r2, [r3, #12]
 8001b56:	f022 6240 	bic.w	r2, r2, #201326592	; 0xc000000
 8001b5a:	60da      	str	r2, [r3, #12]
    SYS_LCD_1_BL_PWM_PER->PUPDR   |= (((uint32_t)GPIO_PuPd_UP) << lPinPosition);
 8001b5c:	68da      	ldr	r2, [r3, #12]
 8001b5e:	f042 6280 	orr.w	r2, r2, #67108864	; 0x4000000
 8001b62:	60da      	str	r2, [r3, #12]
    SYS_LCD_1_BL_PWM_PER->AFR[1] &= ~((uint32_t)(0xF << ((SYS_LCD_1_BL_PWM_PIN_NO - 8) * 4)));
 8001b64:	6a5a      	ldr	r2, [r3, #36]	; 0x24
 8001b66:	f422 0270 	bic.w	r2, r2, #15728640	; 0xf00000
 8001b6a:	625a      	str	r2, [r3, #36]	; 0x24
    SYS_LCD_1_BL_PWM_PER->AFR[1] |=  (uint32_t)(SYS_LCD_BL_PWM_TIMER_AF << ((SYS_LCD_1_BL_PWM_PIN_NO - 8) * 4));
 8001b6c:	6a5a      	ldr	r2, [r3, #36]	; 0x24
 8001b6e:	f442 1280 	orr.w	r2, r2, #1048576	; 0x100000
 8001b72:	625a      	str	r2, [r3, #36]	; 0x24

  } // end if

  if (pPort & LCD_2_ID)
 8001b74:	f010 0602 	ands.w	r6, r0, #2
 8001b78:	d029      	beq.n	8001bce <LCD_Parallel_Port_Setup+0x15a>
  {
    lPinPosition = (SYS_LCD_2_BL_PWM_PIN_NO * 2);
    SYS_LCD_2_BL_PWM_PER->MODER   &= ~GPIO_MODER_MODER14;
 8001b7a:	f44f 5380 	mov.w	r3, #4096	; 0x1000
 8001b7e:	f2c4 0302 	movt	r3, #16386	; 0x4002
 8001b82:	681a      	ldr	r2, [r3, #0]
 8001b84:	f022 5240 	bic.w	r2, r2, #805306368	; 0x30000000
 8001b88:	601a      	str	r2, [r3, #0]
    SYS_LCD_2_BL_PWM_PER->MODER   |= (((uint32_t)GPIO_Mode_AF) << lPinPosition);
 8001b8a:	681a      	ldr	r2, [r3, #0]
 8001b8c:	f042 5200 	orr.w	r2, r2, #536870912	; 0x20000000
 8001b90:	601a      	str	r2, [r3, #0]
    SYS_LCD_2_BL_PWM_PER->OSPEEDR &= ~GPIO_OSPEEDER_OSPEEDR14;
 8001b92:	689a      	ldr	r2, [r3, #8]
 8001b94:	f022 5240 	bic.w	r2, r2, #805306368	; 0x30000000
 8001b98:	609a      	str	r2, [r3, #8]
    SYS_LCD_2_BL_PWM_PER->OSPEEDR |= ((uint32_t)(GPIO_Speed_50MHz) << lPinPosition);
 8001b9a:	689a      	ldr	r2, [r3, #8]
 8001b9c:	f042 5200 	orr.w	r2, r2, #536870912	; 0x20000000
 8001ba0:	609a      	str	r2, [r3, #8]
    SYS_LCD_2_BL_PWM_PER->OTYPER  &= ~GPIO_OTYPER_OT_14;
 8001ba2:	685a      	ldr	r2, [r3, #4]
 8001ba4:	f422 4280 	bic.w	r2, r2, #16384	; 0x4000
 8001ba8:	605a      	str	r2, [r3, #4]
    SYS_LCD_2_BL_PWM_PER->OTYPER  |= (uint16_t)(GPIO_OType_PP << SYS_LCD_2_BL_PWM_PIN_NO);
 8001baa:	685a      	ldr	r2, [r3, #4]
 8001bac:	605a      	str	r2, [r3, #4]
    SYS_LCD_2_BL_PWM_PER->PUPDR   &= ~GPIO_PUPDR_PUPDR14;
 8001bae:	68da      	ldr	r2, [r3, #12]
 8001bb0:	f022 5240 	bic.w	r2, r2, #805306368	; 0x30000000
 8001bb4:	60da      	str	r2, [r3, #12]
    SYS_LCD_2_BL_PWM_PER->PUPDR   |= (((uint32_t)GPIO_PuPd_UP) << lPinPosition);
 8001bb6:	68da      	ldr	r2, [r3, #12]
 8001bb8:	f042 5280 	orr.w	r2, r2, #268435456	; 0x10000000
 8001bbc:	60da      	str	r2, [r3, #12]
    SYS_LCD_2_BL_PWM_PER->AFR[1] &= ~((uint32_t)(0xF << ((SYS_LCD_2_BL_PWM_PIN_NO - 8) * 4)));
 8001bbe:	6a5a      	ldr	r2, [r3, #36]	; 0x24
 8001bc0:	f022 6270 	bic.w	r2, r2, #251658240	; 0xf000000
 8001bc4:	625a      	str	r2, [r3, #36]	; 0x24
    SYS_LCD_2_BL_PWM_PER->AFR[1] |=  (uint32_t)(SYS_LCD_BL_PWM_TIMER_AF << ((SYS_LCD_2_BL_PWM_PIN_NO - 8) * 4));
 8001bc6:	6a5a      	ldr	r2, [r3, #36]	; 0x24
 8001bc8:	f042 7280 	orr.w	r2, r2, #16777216	; 0x1000000
 8001bcc:	625a      	str	r2, [r3, #36]	; 0x24
  uint32_t TIMER_Frequency = ARCADEIT_SYS_CLOCK;
  uint32_t COUNTER_Frequency = LCD_BACKLIGHT_PWM_STEPS * LCD_BACKLIGHT_PWM_FREQUENCY;
  uint32_t PSC_Value = (TIMER_Frequency / COUNTER_Frequency) - 1;
  uint16_t ARR_Value = LCD_BACKLIGHT_PWM_STEPS - 1;

  TIM1->CR1 &= (uint16_t)(~(TIM_CR1_DIR | TIM_CR1_CMS));
 8001bce:	2300      	movs	r3, #0
 8001bd0:	f2c4 0301 	movt	r3, #16385	; 0x4001
 8001bd4:	681a      	ldr	r2, [r3, #0]
 8001bd6:	f022 0270 	bic.w	r2, r2, #112	; 0x70
 8001bda:	0412      	lsls	r2, r2, #16
 8001bdc:	0c12      	lsrs	r2, r2, #16
 8001bde:	601a      	str	r2, [r3, #0]
  TIM1->CR1 &=  (uint16_t)(~TIM_CR1_CKD);
 8001be0:	681a      	ldr	r2, [r3, #0]
 8001be2:	f422 7240 	bic.w	r2, r2, #768	; 0x300
 8001be6:	0412      	lsls	r2, r2, #16
 8001be8:	0c12      	lsrs	r2, r2, #16
 8001bea:	601a      	str	r2, [r3, #0]
  TIM1->CR1 |= (uint32_t)TIM_CKD_DIV4;
 8001bec:	681a      	ldr	r2, [r3, #0]
 8001bee:	f442 7200 	orr.w	r2, r2, #512	; 0x200
 8001bf2:	601a      	str	r2, [r3, #0]

  TIM1->ARR = ARR_Value;
 8001bf4:	2263      	movs	r2, #99	; 0x63
 8001bf6:	62da      	str	r2, [r3, #44]	; 0x2c
  TIM1->PSC = PSC_Value;
 8001bf8:	f641 524b 	movw	r2, #7499	; 0x1d4b
 8001bfc:	629a      	str	r2, [r3, #40]	; 0x28
  TIM1->RCR = 0;
 8001bfe:	2200      	movs	r2, #0
 8001c00:	631a      	str	r2, [r3, #48]	; 0x30

  TIM1->EGR = TIM_PSCReloadMode_Immediate;
 8001c02:	2201      	movs	r2, #1
 8001c04:	615a      	str	r2, [r3, #20]

  TIM1->CCER |=   (((pPort & LCD_1_ID) ? TIM_CCER_CC3E   : 0) | ((pPort & LCD_2_ID) ? TIM_CCER_CC4E   : 0));
 8001c06:	6a19      	ldr	r1, [r3, #32]
 8001c08:	0202      	lsls	r2, r0, #8
 8001c0a:	f402 7280 	and.w	r2, r2, #256	; 0x100
 8001c0e:	02c4      	lsls	r4, r0, #11
 8001c10:	f404 5480 	and.w	r4, r4, #4096	; 0x1000
 8001c14:	4322      	orrs	r2, r4
 8001c16:	430a      	orrs	r2, r1
 8001c18:	621a      	str	r2, [r3, #32]
  TIM1->CCER &=  ~(((pPort & LCD_1_ID) ? TIM_CCER_CC3P   : 0) | ((pPort & LCD_2_ID) ? TIM_CCER_CC4P   : 0));
 8001c1a:	6a1c      	ldr	r4, [r3, #32]
 8001c1c:	0247      	lsls	r7, r0, #9
 8001c1e:	f407 7100 	and.w	r1, r7, #512	; 0x200
 8001c22:	0302      	lsls	r2, r0, #12
 8001c24:	f402 5c00 	and.w	ip, r2, #8192	; 0x2000
 8001c28:	ea41 010c 	orr.w	r1, r1, ip
 8001c2c:	ea24 0401 	bic.w	r4, r4, r1
 8001c30:	621c      	str	r4, [r3, #32]
  TIM1->CCER |=   (((pPort & LCD_1_ID) ? TIM_CCER_CC3P   : 0) | ((pPort & LCD_2_ID) ? TIM_CCER_CC4P   : 0));
 8001c32:	6a1c      	ldr	r4, [r3, #32]
 8001c34:	4321      	orrs	r1, r4
 8001c36:	6219      	str	r1, [r3, #32]

  TIM1->CCMR2 &= ~(((pPort & LCD_1_ID) ? TIM_CCMR2_OC3CE : 0) | ((pPort & LCD_2_ID) ? TIM_CCMR2_OC4CE : 0));
 8001c38:	69dc      	ldr	r4, [r3, #28]
 8001c3a:	01c1      	lsls	r1, r0, #7
 8001c3c:	b2c9      	uxtb	r1, r1
 8001c3e:	ea4f 3c80 	mov.w	ip, r0, lsl #14
 8001c42:	f40c 4c00 	and.w	ip, ip, #32768	; 0x8000
 8001c46:	ea41 010c 	orr.w	r1, r1, ip
 8001c4a:	ea24 0101 	bic.w	r1, r4, r1
 8001c4e:	61d9      	str	r1, [r3, #28]
  TIM1->CCMR2 &= ~(((pPort & LCD_1_ID) ? TIM_CCMR2_OC3M  : 0) | ((pPort & LCD_2_ID) ? TIM_CCMR2_OC4M  : 0));
 8001c50:	69d9      	ldr	r1, [r3, #28]
 8001c52:	2d00      	cmp	r5, #0
 8001c54:	d060      	beq.n	8001d18 <LCD_Parallel_Port_Setup+0x2a4>
 8001c56:	2370      	movs	r3, #112	; 0x70
 8001c58:	2e00      	cmp	r6, #0
 8001c5a:	d05f      	beq.n	8001d1c <LCD_Parallel_Port_Setup+0x2a8>
 8001c5c:	f44f 44e0 	mov.w	r4, #28672	; 0x7000
 8001c60:	4323      	orrs	r3, r4
 8001c62:	ea21 0103 	bic.w	r1, r1, r3
 8001c66:	2300      	movs	r3, #0
 8001c68:	f2c4 0301 	movt	r3, #16385	; 0x4001
 8001c6c:	61d9      	str	r1, [r3, #28]
  TIM1->CCMR2 |=  (((pPort & LCD_1_ID) ? TIM_OC3Mode_PWM : 0) | ((pPort & LCD_2_ID) ? TIM_OC4Mode_PWM : 0));
 8001c6e:	69d9      	ldr	r1, [r3, #28]
 8001c70:	2d00      	cmp	r5, #0
 8001c72:	d055      	beq.n	8001d20 <LCD_Parallel_Port_Setup+0x2ac>
 8001c74:	2360      	movs	r3, #96	; 0x60
 8001c76:	2e00      	cmp	r6, #0
 8001c78:	d054      	beq.n	8001d24 <LCD_Parallel_Port_Setup+0x2b0>
 8001c7a:	f44f 44c0 	mov.w	r4, #24576	; 0x6000
 8001c7e:	4323      	orrs	r3, r4
 8001c80:	4319      	orrs	r1, r3
 8001c82:	2300      	movs	r3, #0
 8001c84:	f2c4 0301 	movt	r3, #16385	; 0x4001
 8001c88:	61d9      	str	r1, [r3, #28]
  TIM1->CCMR2 |=  (((pPort & LCD_1_ID) ? TIM_CCMR2_OC3PE : 0) | ((pPort & LCD_2_ID) ? TIM_CCMR2_OC4PE : 0));
 8001c8a:	69d9      	ldr	r1, [r3, #28]
 8001c8c:	00c4      	lsls	r4, r0, #3
 8001c8e:	f004 0408 	and.w	r4, r4, #8
 8001c92:	ea4f 2c80 	mov.w	ip, r0, lsl #10
 8001c96:	f40c 6c00 	and.w	ip, ip, #2048	; 0x800
 8001c9a:	ea44 040c 	orr.w	r4, r4, ip
 8001c9e:	430c      	orrs	r4, r1
 8001ca0:	61dc      	str	r4, [r3, #28]
  TIM1->CCMR2 &= ~(((pPort & LCD_1_ID) ? TIM_CCMR2_OC3FE : 0) | ((pPort & LCD_2_ID) ? TIM_CCMR2_OC4FE : 0));
 8001ca2:	69dc      	ldr	r4, [r3, #28]
 8001ca4:	0081      	lsls	r1, r0, #2
 8001ca6:	f001 0104 	and.w	r1, r1, #4
 8001caa:	f407 6780 	and.w	r7, r7, #1024	; 0x400
 8001cae:	4339      	orrs	r1, r7
 8001cb0:	ea24 0101 	bic.w	r1, r4, r1
 8001cb4:	61d9      	str	r1, [r3, #28]
  TIM1->CCMR2 &= ~(((pPort & LCD_1_ID) ? TIM_CCMR2_CC3S  : 0) | ((pPort & LCD_2_ID) ? TIM_CCMR2_CC4S  : 0));
 8001cb6:	69d9      	ldr	r1, [r3, #28]
 8001cb8:	2d00      	cmp	r5, #0
 8001cba:	d035      	beq.n	8001d28 <LCD_Parallel_Port_Setup+0x2b4>
 8001cbc:	2303      	movs	r3, #3
 8001cbe:	2e00      	cmp	r6, #0
 8001cc0:	d034      	beq.n	8001d2c <LCD_Parallel_Port_Setup+0x2b8>
 8001cc2:	f44f 7440 	mov.w	r4, #768	; 0x300
 8001cc6:	4323      	orrs	r3, r4
 8001cc8:	ea21 0103 	bic.w	r1, r1, r3
 8001ccc:	2300      	movs	r3, #0
 8001cce:	f2c4 0301 	movt	r3, #16385	; 0x4001
 8001cd2:	61d9      	str	r1, [r3, #28]

  TIM1->CR2 |=    (((pPort & LCD_1_ID) ? TIM_CR2_OIS3    : 0) | ((pPort & LCD_2_ID) ? TIM_CR2_OIS4    : 0));
 8001cd4:	6859      	ldr	r1, [r3, #4]
 8001cd6:	f402 5280 	and.w	r2, r2, #4096	; 0x1000
 8001cda:	0340      	lsls	r0, r0, #13
 8001cdc:	f400 4080 	and.w	r0, r0, #16384	; 0x4000
 8001ce0:	4310      	orrs	r0, r2
 8001ce2:	4308      	orrs	r0, r1
 8001ce4:	6058      	str	r0, [r3, #4]

  TIM1->CCR3 = 0;
 8001ce6:	2200      	movs	r2, #0
 8001ce8:	63da      	str	r2, [r3, #60]	; 0x3c
  TIM1->CCR4 = 0;
 8001cea:	641a      	str	r2, [r3, #64]	; 0x40

  TIM1->BDTR = 0;
 8001cec:	645a      	str	r2, [r3, #68]	; 0x44
  TIM1->BDTR |= TIM_BDTR_MOE;
 8001cee:	6c5a      	ldr	r2, [r3, #68]	; 0x44
 8001cf0:	f442 4200 	orr.w	r2, r2, #32768	; 0x8000
 8001cf4:	645a      	str	r2, [r3, #68]	; 0x44

  TIM1->CR2 |= TIM_CR2_CCPC;
 8001cf6:	685a      	ldr	r2, [r3, #4]
 8001cf8:	f042 0201 	orr.w	r2, r2, #1
 8001cfc:	605a      	str	r2, [r3, #4]

  TIM1->CR1 |= TIM_CR1_CEN;
 8001cfe:	681a      	ldr	r2, [r3, #0]
 8001d00:	f042 0201 	orr.w	r2, r2, #1
 8001d04:	601a      	str	r2, [r3, #0]

  // Shows a message to serial port as debug
  if (gDevices & ARCADEIT_DEVICE_SERIAL)
 8001d06:	f240 2308 	movw	r3, #520	; 0x208
 8001d0a:	f2c2 0300 	movt	r3, #8192	; 0x2000
 8001d0e:	681b      	ldr	r3, [r3, #0]
 8001d10:	f413 4f80 	tst.w	r3, #16384	; 0x4000
 8001d14:	d10c      	bne.n	8001d30 <LCD_Parallel_Port_Setup+0x2bc>
    // Starts and configure the serial port.
    ArcadeIT_Serial_Port_String_Send("LCD hardware setup." CURSOR_NEWLINE);

  } // End if.

} // End LCD_Parallel_Port_Setup.
 8001d16:	bdf8      	pop	{r3, r4, r5, r6, r7, pc}
  TIM1->CCMR2 &= ~(((pPort & LCD_1_ID) ? TIM_CCMR2_OC3M  : 0) | ((pPort & LCD_2_ID) ? TIM_CCMR2_OC4M  : 0));
 8001d18:	2300      	movs	r3, #0
 8001d1a:	e79d      	b.n	8001c58 <LCD_Parallel_Port_Setup+0x1e4>
 8001d1c:	2400      	movs	r4, #0
 8001d1e:	e79f      	b.n	8001c60 <LCD_Parallel_Port_Setup+0x1ec>
  TIM1->CCMR2 |=  (((pPort & LCD_1_ID) ? TIM_OC3Mode_PWM : 0) | ((pPort & LCD_2_ID) ? TIM_OC4Mode_PWM : 0));
 8001d20:	2300      	movs	r3, #0
 8001d22:	e7a8      	b.n	8001c76 <LCD_Parallel_Port_Setup+0x202>
 8001d24:	2400      	movs	r4, #0
 8001d26:	e7aa      	b.n	8001c7e <LCD_Parallel_Port_Setup+0x20a>
  TIM1->CCMR2 &= ~(((pPort & LCD_1_ID) ? TIM_CCMR2_CC3S  : 0) | ((pPort & LCD_2_ID) ? TIM_CCMR2_CC4S  : 0));
 8001d28:	2300      	movs	r3, #0
 8001d2a:	e7c8      	b.n	8001cbe <LCD_Parallel_Port_Setup+0x24a>
 8001d2c:	2400      	movs	r4, #0
 8001d2e:	e7ca      	b.n	8001cc6 <LCD_Parallel_Port_Setup+0x252>
    ArcadeIT_Serial_Port_String_Send("LCD hardware setup." CURSOR_NEWLINE);
 8001d30:	f247 70a4 	movw	r0, #30628	; 0x77a4
 8001d34:	f6c0 0000 	movt	r0, #2048	; 0x800
 8001d38:	f000 fcf8 	bl	800272c <ArcadeIT_Serial_Port_String_Send>
} // End LCD_Parallel_Port_Setup.
 8001d3c:	e7eb      	b.n	8001d16 <LCD_Parallel_Port_Setup+0x2a2>

08001d3e <LCD_Wr_Data>:
  DESCRIPTION:  Write data to the LCD.
  PARMS:        See above.
  RETURNS:      Nothing.
  */

  __IO uint8_t* lLCDPtr = gLCDDriver[pLCDId].address;
 8001d3e:	f240 42f0 	movw	r2, #1264	; 0x4f0
 8001d42:	f2c2 0200 	movt	r2, #8192	; 0x2000
 8001d46:	f44f 730d 	mov.w	r3, #564	; 0x234
 8001d4a:	fb03 2000 	mla	r0, r3, r0, r2
 8001d4e:	6883      	ldr	r3, [r0, #8]

  lLCDPtr[LCD_DATA] = pData;
 8001d50:	f503 3380 	add.w	r3, r3, #65536	; 0x10000
 8001d54:	7019      	strb	r1, [r3, #0]

} // End LCD_Wr_Data.
 8001d56:	4770      	bx	lr

08001d58 <LCD_Wr_Register>:
  DESCRIPTION:  Select a register to the LCD.
  PARMS:        See above.
  RETURNS:      Nothing.
  */

  __IO uint8_t* lLCDPtr = gLCDDriver[pLCDId].address;
 8001d58:	f240 42f0 	movw	r2, #1264	; 0x4f0
 8001d5c:	f2c2 0200 	movt	r2, #8192	; 0x2000
 8001d60:	f44f 730d 	mov.w	r3, #564	; 0x234
 8001d64:	fb03 2000 	mla	r0, r3, r0, r2
 8001d68:	6883      	ldr	r3, [r0, #8]

  lLCDPtr[LCD_REGISTER] = pRegister;
 8001d6a:	7019      	strb	r1, [r3, #0]

} // End LCD_Wr_Register. 
 8001d6c:	4770      	bx	lr

08001d6e <LCD_Area_Set>:
  uint16_t pX1,
  uint16_t pY1,
  uint16_t pX2,
  uint16_t pY2
)
{  
 8001d6e:	e92d 41f0 	stmdb	sp!, {r4, r5, r6, r7, r8, lr}
 8001d72:	4604      	mov	r4, r0
 8001d74:	4688      	mov	r8, r1
 8001d76:	4616      	mov	r6, r2
 8001d78:	461f      	mov	r7, r3
 8001d7a:	f8bd 5018 	ldrh.w	r5, [sp, #24]
  PARMS:        See above.
  RETURNS:      Nothing.
  */

  #if (LCD_CONTROLLER == ILI9341)
  LCD_Wr_Register(pLCDId, COLUMN_ADDRESS_SET);
 8001d7e:	212a      	movs	r1, #42	; 0x2a
 8001d80:	f7ff ffea 	bl	8001d58 <LCD_Wr_Register>
  LCD_Wr_Data(pLCDId, pX1 >> 8);
 8001d84:	ea4f 2118 	mov.w	r1, r8, lsr #8
 8001d88:	4620      	mov	r0, r4
 8001d8a:	f7ff ffd8 	bl	8001d3e <LCD_Wr_Data>
  LCD_Wr_Data(pLCDId, pX1);
 8001d8e:	fa5f f188 	uxtb.w	r1, r8
 8001d92:	4620      	mov	r0, r4
 8001d94:	f7ff ffd3 	bl	8001d3e <LCD_Wr_Data>
  LCD_Wr_Data(pLCDId, pX2 >> 8);
 8001d98:	0a39      	lsrs	r1, r7, #8
 8001d9a:	4620      	mov	r0, r4
 8001d9c:	f7ff ffcf 	bl	8001d3e <LCD_Wr_Data>
  LCD_Wr_Data(pLCDId, pX2);
 8001da0:	b2f9      	uxtb	r1, r7
 8001da2:	4620      	mov	r0, r4
 8001da4:	f7ff ffcb 	bl	8001d3e <LCD_Wr_Data>

  LCD_Wr_Register(pLCDId, PAGE_ADDRESS_SET);
 8001da8:	212b      	movs	r1, #43	; 0x2b
 8001daa:	4620      	mov	r0, r4
 8001dac:	f7ff ffd4 	bl	8001d58 <LCD_Wr_Register>
  LCD_Wr_Data(pLCDId, pY1 >> 8);
 8001db0:	0a31      	lsrs	r1, r6, #8
 8001db2:	4620      	mov	r0, r4
 8001db4:	f7ff ffc3 	bl	8001d3e <LCD_Wr_Data>
  LCD_Wr_Data(pLCDId, pY1);
 8001db8:	b2f1      	uxtb	r1, r6
 8001dba:	4620      	mov	r0, r4
 8001dbc:	f7ff ffbf 	bl	8001d3e <LCD_Wr_Data>
  LCD_Wr_Data(pLCDId, pY2 >> 8);
 8001dc0:	0a29      	lsrs	r1, r5, #8
 8001dc2:	4620      	mov	r0, r4
 8001dc4:	f7ff ffbb 	bl	8001d3e <LCD_Wr_Data>
  LCD_Wr_Data(pLCDId, pY2);
 8001dc8:	b2e9      	uxtb	r1, r5
 8001dca:	4620      	mov	r0, r4
 8001dcc:	f7ff ffb7 	bl	8001d3e <LCD_Wr_Data>

  LCD_Wr_Register(pLCDId, MEMORY_WRITE);
 8001dd0:	212c      	movs	r1, #44	; 0x2c
 8001dd2:	4620      	mov	r0, r4
 8001dd4:	f7ff ffc0 	bl	8001d58 <LCD_Wr_Register>
  LCD_Wr_Data(pLCDId, pY2);

  LCD_Wr_Register(pLCDId, 0x22);
  #endif

} // End LCD_Area_Set.
 8001dd8:	e8bd 81f0 	ldmia.w	sp!, {r4, r5, r6, r7, r8, pc}

08001ddc <LCD_Clear>:
void LCD_Clear
(
  uint8_t pLCDId, // The id of the display.
  uint32_t pColor // The Color in hex format 0x00RRGGBB.
)
{
 8001ddc:	b4f0      	push	{r4, r5, r6, r7}

  lRed = (( pColor >> 16 ) & 0xFF );
  lGreen = (( pColor >> 8 ) & 0xFF );
  lBlue = (( pColor ) & 0xFF );

  __IO uint8_t* lLCDPtr = gDisplayAddress[pLCDId];
 8001dde:	4604      	mov	r4, r0
 8001de0:	f240 0300 	movw	r3, #0
 8001de4:	f2c2 0300 	movt	r3, #8192	; 0x2000
 8001de8:	f853 6020 	ldr.w	r6, [r3, r0, lsl #2]

  uint16_t y, x, c = RGB_TO_16BIT565(lRed, lGreen, lBlue);
 8001dec:	f3c1 03c4 	ubfx	r3, r1, #3, #5
 8001df0:	f3c1 2085 	ubfx	r0, r1, #10, #6
 8001df4:	0140      	lsls	r0, r0, #5
 8001df6:	ea40 20c3 	orr.w	r0, r0, r3, lsl #11
 8001dfa:	b200      	sxth	r0, r0
 8001dfc:	f3c1 41c4 	ubfx	r1, r1, #19, #5
 8001e00:	4308      	orrs	r0, r1
 8001e02:	b285      	uxth	r5, r0
  for(y = 0; y < gLCDDriver[pLCDId].height; y++)
 8001e04:	2700      	movs	r7, #0
 8001e06:	e014      	b.n	8001e32 <LCD_Clear+0x56>
  {
    for (x = 0; x < gLCDDriver[pLCDId].width; x++)
    {
      	lLCDPtr[LCD_DATA] = c >> 8;
 8001e08:	0a2a      	lsrs	r2, r5, #8
 8001e0a:	f506 3180 	add.w	r1, r6, #65536	; 0x10000
 8001e0e:	700a      	strb	r2, [r1, #0]
      	lLCDPtr[LCD_DATA] = c & 0xFF;
 8001e10:	b2c2      	uxtb	r2, r0
 8001e12:	700a      	strb	r2, [r1, #0]
    for (x = 0; x < gLCDDriver[pLCDId].width; x++)
 8001e14:	3301      	adds	r3, #1
 8001e16:	b29b      	uxth	r3, r3
 8001e18:	f240 41f0 	movw	r1, #1264	; 0x4f0
 8001e1c:	f2c2 0100 	movt	r1, #8192	; 0x2000
 8001e20:	f44f 720d 	mov.w	r2, #564	; 0x234
 8001e24:	fb02 1204 	mla	r2, r2, r4, r1
 8001e28:	8852      	ldrh	r2, [r2, #2]
 8001e2a:	429a      	cmp	r2, r3
 8001e2c:	d8ec      	bhi.n	8001e08 <LCD_Clear+0x2c>
  for(y = 0; y < gLCDDriver[pLCDId].height; y++)
 8001e2e:	3701      	adds	r7, #1
 8001e30:	b2bf      	uxth	r7, r7
 8001e32:	f240 42f0 	movw	r2, #1264	; 0x4f0
 8001e36:	f2c2 0200 	movt	r2, #8192	; 0x2000
 8001e3a:	f44f 730d 	mov.w	r3, #564	; 0x234
 8001e3e:	fb03 2304 	mla	r3, r3, r4, r2
 8001e42:	889b      	ldrh	r3, [r3, #4]
 8001e44:	42bb      	cmp	r3, r7
 8001e46:	d901      	bls.n	8001e4c <LCD_Clear+0x70>
    for (x = 0; x < gLCDDriver[pLCDId].width; x++)
 8001e48:	2300      	movs	r3, #0
 8001e4a:	e7e5      	b.n	8001e18 <LCD_Clear+0x3c>

    } // End for.

  } // End for.

} // End LCD_Clear.
 8001e4c:	bcf0      	pop	{r4, r5, r6, r7}
 8001e4e:	4770      	bx	lr

08001e50 <LCD_Reset>:

// /////////////////////////////////////////////////////////////////////////////
void LCD_Reset(void)
{
 8001e50:	b510      	push	{r4, lr}
  DESCRIPTION:  Resets the LCDs by asserting and deasserting the Reset line.
  PARMS:        See above.
  RETURNS:      Nothing.
  */

  ARCADEIT_LCD_RST_HIGH();
 8001e52:	f44f 54e0 	mov.w	r4, #7168	; 0x1c00
 8001e56:	f2c4 0402 	movt	r4, #16386	; 0x4002
 8001e5a:	6963      	ldr	r3, [r4, #20]
 8001e5c:	f043 0380 	orr.w	r3, r3, #128	; 0x80
 8001e60:	6163      	str	r3, [r4, #20]
  ArcadeIT_System_Delay(1);   // Delay 1ms
 8001e62:	2001      	movs	r0, #1
 8001e64:	f7fe ff40 	bl	8000ce8 <ArcadeIT_System_Delay>

  ARCADEIT_LCD_RST_LOW();
 8001e68:	6963      	ldr	r3, [r4, #20]
 8001e6a:	f023 0380 	bic.w	r3, r3, #128	; 0x80
 8001e6e:	6163      	str	r3, [r4, #20]
  ArcadeIT_System_Delay(20);  // Delay 20ms
 8001e70:	2014      	movs	r0, #20
 8001e72:	f7fe ff39 	bl	8000ce8 <ArcadeIT_System_Delay>

  ARCADEIT_LCD_RST_HIGH();
 8001e76:	6963      	ldr	r3, [r4, #20]
 8001e78:	f043 0380 	orr.w	r3, r3, #128	; 0x80
 8001e7c:	6163      	str	r3, [r4, #20]
  ArcadeIT_System_Delay(120); // Delay 120ms
 8001e7e:	2078      	movs	r0, #120	; 0x78
 8001e80:	f7fe ff32 	bl	8000ce8 <ArcadeIT_System_Delay>

} // End LCD_Reset.
 8001e84:	bd10      	pop	{r4, pc}

08001e86 <LCD_Configure>:
void LCD_Configure
(
  uint8_t pLCDNumber,     // Id of the LCD to set orientation.
  uint16_t *pData
)
{
 8001e86:	b570      	push	{r4, r5, r6, lr}
 8001e88:	4606      	mov	r6, r0
 8001e8a:	460d      	mov	r5, r1
  DESCRIPTION:  Initializes the LCD sending the commands sequence to set orientation.
  PARMS:        See above.
  RETURNS:      Nothing.
  */

  uint16_t lIndex = 0;
 8001e8c:	2400      	movs	r4, #0

  // Select the LCD.
  while ( pData[lIndex] > 0 )
 8001e8e:	e008      	b.n	8001ea2 <LCD_Configure+0x1c>
  {
      switch (pData[lIndex])
      {
          case LCD_CMD_REGISTER:
              lIndex++;
 8001e90:	3401      	adds	r4, #1
 8001e92:	b2a4      	uxth	r4, r4
              LCD_Wr_Register(pLCDNumber, pData[lIndex]);
 8001e94:	f815 1014 	ldrb.w	r1, [r5, r4, lsl #1]
 8001e98:	4630      	mov	r0, r6
 8001e9a:	f7ff ff5d 	bl	8001d58 <LCD_Wr_Register>
              ArcadeIT_System_Delay(pData[lIndex]);
          break;

      } // End switch.

      lIndex++;
 8001e9e:	3401      	adds	r4, #1
 8001ea0:	b2a4      	uxth	r4, r4
  while ( pData[lIndex] > 0 )
 8001ea2:	f835 3014 	ldrh.w	r3, [r5, r4, lsl #1]
 8001ea6:	b1ab      	cbz	r3, 8001ed4 <LCD_Configure+0x4e>
      switch (pData[lIndex])
 8001ea8:	2b02      	cmp	r3, #2
 8001eaa:	d004      	beq.n	8001eb6 <LCD_Configure+0x30>
 8001eac:	2b03      	cmp	r3, #3
 8001eae:	d00a      	beq.n	8001ec6 <LCD_Configure+0x40>
 8001eb0:	2b01      	cmp	r3, #1
 8001eb2:	d1f4      	bne.n	8001e9e <LCD_Configure+0x18>
 8001eb4:	e7ec      	b.n	8001e90 <LCD_Configure+0xa>
              lIndex++;
 8001eb6:	3401      	adds	r4, #1
 8001eb8:	b2a4      	uxth	r4, r4
              LCD_Wr_Data(pLCDNumber, pData[lIndex]);
 8001eba:	f815 1014 	ldrb.w	r1, [r5, r4, lsl #1]
 8001ebe:	4630      	mov	r0, r6
 8001ec0:	f7ff ff3d 	bl	8001d3e <LCD_Wr_Data>
          break;
 8001ec4:	e7eb      	b.n	8001e9e <LCD_Configure+0x18>
              lIndex++;
 8001ec6:	3401      	adds	r4, #1
 8001ec8:	b2a4      	uxth	r4, r4
              ArcadeIT_System_Delay(pData[lIndex]);
 8001eca:	f835 0014 	ldrh.w	r0, [r5, r4, lsl #1]
 8001ece:	f7fe ff0b 	bl	8000ce8 <ArcadeIT_System_Delay>
          break;
 8001ed2:	e7e4      	b.n	8001e9e <LCD_Configure+0x18>

  } // End while;

} // End LCD_Configure.
 8001ed4:	bd70      	pop	{r4, r5, r6, pc}

08001ed6 <LCD_Parallel_Init>:
  uint16_t pLCDWidth,          // width of the LCD.
  uint16_t pLCDHeight,         // height of the LCD.
  uint8_t pOrientation,        // Orientation of the LCD: 0 Horizontal, 1: Vertical.
  uint32_t pBackgroundColor    // The Color in hex format 0x00RRGGBB.
)
{
 8001ed6:	b5f0      	push	{r4, r5, r6, r7, lr}
 8001ed8:	b083      	sub	sp, #12
 8001eda:	f89d 5020 	ldrb.w	r5, [sp, #32]
  DESCRIPTION:  Initializes 23636the LCD.
  PARMS:        See above.
  RETURNS:      Nothing.
  */

  pLCDId--;
 8001ede:	3801      	subs	r0, #1
 8001ee0:	b2c4      	uxtb	r4, r0

  gLCDDriver[pLCDId].id = pLCDId;
 8001ee2:	f240 47f0 	movw	r7, #1264	; 0x4f0
 8001ee6:	f2c2 0700 	movt	r7, #8192	; 0x2000
 8001eea:	f44f 760d 	mov.w	r6, #564	; 0x234
 8001eee:	fb06 f604 	mul.w	r6, r6, r4
 8001ef2:	19b8      	adds	r0, r7, r6
 8001ef4:	55bc      	strb	r4, [r7, r6]
  gLCDDriver[pLCDId].type = pLCDType;
 8001ef6:	7041      	strb	r1, [r0, #1]
  gLCDDriver[pLCDId].width = pLCDWidth;
 8001ef8:	8042      	strh	r2, [r0, #2]
  gLCDDriver[pLCDId].height = pLCDHeight;
 8001efa:	8083      	strh	r3, [r0, #4]
  gLCDDriver[pLCDId].orientation = pOrientation;
 8001efc:	7185      	strb	r5, [r0, #6]
  gLCDDriver[pLCDId].video_buffer_memory = gLCDLineBuffer;
 8001efe:	f640 1358 	movw	r3, #2392	; 0x958
 8001f02:	f2c2 0300 	movt	r3, #8192	; 0x2000
 8001f06:	61c3      	str	r3, [r0, #28]
  gLCDDriver[pLCDId].scanline = 0;
 8001f08:	2600      	movs	r6, #0
 8001f0a:	8406      	strh	r6, [r0, #32]
  gLCDDriver[pLCDId].address = gDisplayAddress[pLCDId];
 8001f0c:	f240 0300 	movw	r3, #0
 8001f10:	f2c2 0300 	movt	r3, #8192	; 0x2000
 8001f14:	f853 3024 	ldr.w	r3, [r3, r4, lsl #2]
 8001f18:	6083      	str	r3, [r0, #8]

  //gLCDDriver[pLCDId].video_buffer_memory = (uint8_t*)malloc(gLCDDriver[pLCDId].width * gLCDDriver[pLCDId].height);

  LCD_Configure(pLCDId, (uint16_t*)&gLCDSequence[pLCDType][pOrientation][0]);
 8001f1a:	eb05 0541 	add.w	r5, r5, r1, lsl #1
 8001f1e:	f247 71bc 	movw	r1, #30652	; 0x77bc
 8001f22:	f6c0 0100 	movt	r1, #2048	; 0x800
 8001f26:	eb01 2145 	add.w	r1, r1, r5, lsl #9
 8001f2a:	4620      	mov	r0, r4
 8001f2c:	f7ff ffab 	bl	8001e86 <LCD_Configure>

  LCD_Area_Set(pLCDId, 0, 0, 320, 240);
 8001f30:	23f0      	movs	r3, #240	; 0xf0
 8001f32:	9300      	str	r3, [sp, #0]
 8001f34:	f44f 73a0 	mov.w	r3, #320	; 0x140
 8001f38:	4632      	mov	r2, r6
 8001f3a:	4631      	mov	r1, r6
 8001f3c:	4620      	mov	r0, r4
 8001f3e:	f7ff ff16 	bl	8001d6e <LCD_Area_Set>

  // Clear the display with the background color.
  LCD_Clear(pLCDId, pBackgroundColor);
 8001f42:	9909      	ldr	r1, [sp, #36]	; 0x24
 8001f44:	4620      	mov	r0, r4
 8001f46:	f7ff ff49 	bl	8001ddc <LCD_Clear>

  // ---------------------------------------------------------------------------
  // Configure the DMA Stream for fast transfer to LCD using DMA
  // if ((RCC_AHB1ENR & RCC_AHB1Periph_DMA2) == FALSE) RCC_AHB1PeriphClockCmd (RCC_AHB1Periph_DMA2, ENABLE);

  if ((RCC->AHB1ENR & RCC_AHB1Periph_DMA2D) == FALSE) RCC->AHB1ENR |= RCC_AHB1Periph_DMA2D;
 8001f4a:	f44f 5360 	mov.w	r3, #14336	; 0x3800
 8001f4e:	f2c4 0302 	movt	r3, #16386	; 0x4002
 8001f52:	6b1b      	ldr	r3, [r3, #48]	; 0x30
 8001f54:	f413 0f00 	tst.w	r3, #8388608	; 0x800000
 8001f58:	d107      	bne.n	8001f6a <LCD_Parallel_Init+0x94>
 8001f5a:	f44f 5360 	mov.w	r3, #14336	; 0x3800
 8001f5e:	f2c4 0302 	movt	r3, #16386	; 0x4002
 8001f62:	6b1a      	ldr	r2, [r3, #48]	; 0x30
 8001f64:	f442 0200 	orr.w	r2, r2, #8388608	; 0x800000
 8001f68:	631a      	str	r2, [r3, #48]	; 0x30
  lNVIC_InitStructure.NVIC_IRQChannelCmd = ENABLE;
  NVIC_Init (&lNVIC_InitStructure);
  DMA2D_ITConfig(DMA2D_IT_TC, ENABLE);
  */

}; // End LCD_Parallel_Init.
 8001f6a:	b003      	add	sp, #12
 8001f6c:	bdf0      	pop	{r4, r5, r6, r7, pc}

08001f6e <DMA2_Stream0_IRQHandler>:

      DMA2_Stream0->CR |= DMA_SxCR_TCIE;        // enable transfer complete interrupt
      DMA2_Stream0->CR |= DMA_SxCR_EN;
    }
    */
}
 8001f6e:	4770      	bx	lr

08001f70 <LCD_0_Backlight_Set>:
} // LCD_Active.

// /////////////////////////////////////////////////////////////////////////////
void LCD_0_Backlight_Set(uint32_t pValue)
{
  gLCDDriver[0].brightness = (pValue <= LCD_BACKLIGHT_PWM_STEPS) ? pValue : LCD_BACKLIGHT_PWM_STEPS;
 8001f70:	2864      	cmp	r0, #100	; 0x64
 8001f72:	bf28      	it	cs
 8001f74:	2064      	movcs	r0, #100	; 0x64
 8001f76:	f240 43f0 	movw	r3, #1264	; 0x4f0
 8001f7a:	f2c2 0300 	movt	r3, #8192	; 0x2000
 8001f7e:	60d8      	str	r0, [r3, #12]

  TIM1->CCR3 = gLCDDriver[0].brightness;
 8001f80:	2300      	movs	r3, #0
 8001f82:	f2c4 0301 	movt	r3, #16385	; 0x4001
 8001f86:	63d8      	str	r0, [r3, #60]	; 0x3c

} // End
 8001f88:	4770      	bx	lr

08001f8a <LCD_1_Backlight_Set>:
} // End

// /////////////////////////////////////////////////////////////////////////////
void LCD_1_Backlight_Set(uint32_t pValue)
{
  gLCDDriver[1].brightness = (pValue <= LCD_BACKLIGHT_PWM_STEPS) ? pValue : LCD_BACKLIGHT_PWM_STEPS;
 8001f8a:	2864      	cmp	r0, #100	; 0x64
 8001f8c:	bf28      	it	cs
 8001f8e:	2064      	movcs	r0, #100	; 0x64
 8001f90:	f240 43f0 	movw	r3, #1264	; 0x4f0
 8001f94:	f2c2 0300 	movt	r3, #8192	; 0x2000
 8001f98:	f8c3 0240 	str.w	r0, [r3, #576]	; 0x240

  TIM1->CCR4 = gLCDDriver[1].brightness;
 8001f9c:	2300      	movs	r3, #0
 8001f9e:	f2c4 0301 	movt	r3, #16385	; 0x4001
 8001fa2:	6418      	str	r0, [r3, #64]	; 0x40

} // End
 8001fa4:	4770      	bx	lr

08001fa6 <LCD_Driver_Start>:

} // End LCD_Backlight_On

// /////////////////////////////////////////////////////////////////////////////
void LCD_Driver_Start(void)
{
 8001fa6:	b530      	push	{r4, r5, lr}
 8001fa8:	b0c3      	sub	sp, #268	; 0x10c
  RETURNS:      Nothing.
  */

  char lString[256];

  LCD_Parallel_Port_Setup(LCD_1_ID | LCD_2_ID);
 8001faa:	2003      	movs	r0, #3
 8001fac:	f7ff fd62 	bl	8001a74 <LCD_Parallel_Port_Setup>

  // Hardware Reset of the LCDs.
  LCD_Reset();
 8001fb0:	f7ff ff4e 	bl	8001e50 <LCD_Reset>

  // Initialize the LCDs.
  LCD_Parallel_Init(LCD_1_ID, ARCADEIT_A100_LCD, ARCADEIT_A100_LCD_WIDTH, ARCADEIT_A100_LCD_HEIGHT, HORIZONTAL, 0x000000);
 8001fb4:	2400      	movs	r4, #0
 8001fb6:	9401      	str	r4, [sp, #4]
 8001fb8:	9400      	str	r4, [sp, #0]
 8001fba:	23f0      	movs	r3, #240	; 0xf0
 8001fbc:	f44f 72a0 	mov.w	r2, #320	; 0x140
 8001fc0:	4621      	mov	r1, r4
 8001fc2:	2001      	movs	r0, #1
 8001fc4:	f7ff ff87 	bl	8001ed6 <LCD_Parallel_Init>
  LCD_Parallel_Init(LCD_2_ID, ARCADEIT_A100_LCD, ARCADEIT_A100_LCD_WIDTH, ARCADEIT_A100_LCD_HEIGHT, HORIZONTAL, 0x000000);
 8001fc8:	9401      	str	r4, [sp, #4]
 8001fca:	9400      	str	r4, [sp, #0]
 8001fcc:	23f0      	movs	r3, #240	; 0xf0
 8001fce:	f44f 72a0 	mov.w	r2, #320	; 0x140
 8001fd2:	4621      	mov	r1, r4
 8001fd4:	2002      	movs	r0, #2
 8001fd6:	f7ff ff7e 	bl	8001ed6 <LCD_Parallel_Init>
    //ArcadeIT_TGA_Load(1, gDisplayAddress[1], gLCDDriver[1].boot_image, -1, FALSE, TO_LCD);
    //ArcadeIT_TGA_Load(1, gDisplayAddress[1], &EmulatorScreen_Pacman[1], -1, TRUE, TO_LCD);
    //ArcadeIT_TGA_Load_LCD(1, 0, EmulatorScreen_Pacman, -1);
  } // End if.

  if (gDevices & ARCADEIT_DEVICE_SERIAL)
 8001fda:	f240 2308 	movw	r3, #520	; 0x208
 8001fde:	f2c2 0300 	movt	r3, #8192	; 0x2000
 8001fe2:	681b      	ldr	r3, [r3, #0]
 8001fe4:	f413 4f80 	tst.w	r3, #16384	; 0x4000
 8001fe8:	d101      	bne.n	8001fee <LCD_Driver_Start+0x48>
    sprintf(lString, TEXT_LCD_INITED);
    ArcadeIT_Serial_Port_String_Send(lString);

  } // End if.

} // End LCD_Driver_Init.
 8001fea:	b043      	add	sp, #268	; 0x10c
 8001fec:	bd30      	pop	{r4, r5, pc}
    sprintf(lString, TEXT_LCD_INITED);
 8001fee:	ad02      	add	r5, sp, #8
 8001ff0:	f247 748c 	movw	r4, #30604	; 0x778c
 8001ff4:	f6c0 0400 	movt	r4, #2048	; 0x800
 8001ff8:	cc0f      	ldmia	r4!, {r0, r1, r2, r3}
 8001ffa:	c50f      	stmia	r5!, {r0, r1, r2, r3}
 8001ffc:	e894 0003 	ldmia.w	r4, {r0, r1}
 8002000:	f845 0b04 	str.w	r0, [r5], #4
 8002004:	7029      	strb	r1, [r5, #0]
    ArcadeIT_Serial_Port_String_Send(lString);
 8002006:	a802      	add	r0, sp, #8
 8002008:	f000 fb90 	bl	800272c <ArcadeIT_Serial_Port_String_Send>
} // End LCD_Driver_Init.
 800200c:	e7ed      	b.n	8001fea <LCD_Driver_Start+0x44>

0800200e <ArcadeIT_RTC_ReadBackupRegister>:
// -----------------------------------------------------------------------------
uint32_t ArcadeIT_RTC_ReadBackupRegister
(
    uint32_t RTC_BKP_DR // RTC Backup data Register number.
)
{
 800200e:	b082      	sub	sp, #8
   * DESCRIPTION: Reads data from the specified RTC Backup data Register.
   * PARAMETERS:  See above.
   * RETURNS:     Nothing.
   */

  __IO uint32_t tmp = 0;
 8002010:	2300      	movs	r3, #0
 8002012:	9301      	str	r3, [sp, #4]

  tmp = RTC_BASE + 0x50;
 8002014:	f642 0350 	movw	r3, #10320	; 0x2850
 8002018:	f2c4 0300 	movt	r3, #16384	; 0x4000
 800201c:	9301      	str	r3, [sp, #4]
  tmp += (RTC_BKP_DR * 4);
 800201e:	9b01      	ldr	r3, [sp, #4]
 8002020:	eb03 0080 	add.w	r0, r3, r0, lsl #2
 8002024:	9001      	str	r0, [sp, #4]

  /* Read the specified register */
  return (*(__IO uint32_t *)tmp);
 8002026:	9b01      	ldr	r3, [sp, #4]
 8002028:	6818      	ldr	r0, [r3, #0]

} // end ArcadeIT_RTC_ReadBackupRegister
 800202a:	b002      	add	sp, #8
 800202c:	4770      	bx	lr

0800202e <ArcadeIT_RTC_WriteBackupRegister>:
// -----------------------------------------------------------------------------
void ArcadeIT_RTC_WriteBackupRegister(
    uint32_t RTC_BKP_DR, // RTC Backup data Register number.
    uint32_t Data        // Data to be written in the specified RTC Backup data register.
)
{
 800202e:	b082      	sub	sp, #8
  __IO uint32_t tmp = 0;
 8002030:	2300      	movs	r3, #0
 8002032:	9301      	str	r3, [sp, #4]

  tmp = RTC_BASE + 0x50;
 8002034:	f642 0350 	movw	r3, #10320	; 0x2850
 8002038:	f2c4 0300 	movt	r3, #16384	; 0x4000
 800203c:	9301      	str	r3, [sp, #4]
  tmp += (RTC_BKP_DR * 4);
 800203e:	9b01      	ldr	r3, [sp, #4]
 8002040:	eb03 0080 	add.w	r0, r3, r0, lsl #2
 8002044:	9001      	str	r0, [sp, #4]

  /* Write the specified register */
  *(__IO uint32_t *)tmp = (uint32_t)Data;
 8002046:	9b01      	ldr	r3, [sp, #4]
 8002048:	6019      	str	r1, [r3, #0]

} // end RTC_WriteBackupRegister
 800204a:	b002      	add	sp, #8
 800204c:	4770      	bx	lr

0800204e <ArcadeIT_RCC_LSEConfig>:
  * RETURNS:     Nothing.
  */

  /* Reset LSEON and LSEBYP bits before configuring the LSE ------------------*/
  /* Reset LSEON bit */
  *(__IO uint8_t *) BDCR_ADDRESS = RCC_LSE_OFF;
 800204e:	f643 0370 	movw	r3, #14448	; 0x3870
 8002052:	f2c4 0302 	movt	r3, #16386	; 0x4002
 8002056:	2200      	movs	r2, #0
 8002058:	701a      	strb	r2, [r3, #0]

  /* Reset LSEBYP bit */
  *(__IO uint8_t *) BDCR_ADDRESS = RCC_LSE_OFF;
 800205a:	701a      	strb	r2, [r3, #0]

  /* Configure LSE (RCC_LSE_OFF is already covered by the code section above) */
  switch (RCC_LSE)
 800205c:	2801      	cmp	r0, #1
 800205e:	d003      	beq.n	8002068 <ArcadeIT_RCC_LSEConfig+0x1a>
 8002060:	2804      	cmp	r0, #4
 8002062:	d008      	beq.n	8002076 <ArcadeIT_RCC_LSEConfig+0x28>

  } // end switch

  return 0;

} // end ArcadeIT_RCC_LSEConfig
 8002064:	2000      	movs	r0, #0
 8002066:	4770      	bx	lr
      *(__IO uint8_t *) BDCR_ADDRESS = RCC_LSE_ON;
 8002068:	f643 0370 	movw	r3, #14448	; 0x3870
 800206c:	f2c4 0302 	movt	r3, #16386	; 0x4002
 8002070:	2201      	movs	r2, #1
 8002072:	701a      	strb	r2, [r3, #0]
      break;
 8002074:	e7f6      	b.n	8002064 <ArcadeIT_RCC_LSEConfig+0x16>
      *(__IO uint8_t *) BDCR_ADDRESS = RCC_LSE_Bypass | RCC_LSE_ON;
 8002076:	f643 0370 	movw	r3, #14448	; 0x3870
 800207a:	f2c4 0302 	movt	r3, #16386	; 0x4002
 800207e:	2205      	movs	r2, #5
 8002080:	701a      	strb	r2, [r3, #0]
      break;
 8002082:	e7ef      	b.n	8002064 <ArcadeIT_RCC_LSEConfig+0x16>

08002084 <ArcadeIT_RCC_GetFlagStatus>:
  uint32_t tmp = 0;
  uint32_t statusreg = 0;
  FlagStatus bitstatus = RESET;

  /* Get the RCC register index */
  tmp = RCC_FLAG >> 5;
 8002084:	0943      	lsrs	r3, r0, #5
  if (tmp == 1)               /* The flag to check is in CR register */
 8002086:	2b01      	cmp	r3, #1
 8002088:	d00f      	beq.n	80020aa <ArcadeIT_RCC_GetFlagStatus+0x26>
    statusreg = RCC->CR;
  else if (tmp == 2)          /* The flag to check is in BDCR register */
 800208a:	2b02      	cmp	r3, #2
 800208c:	d013      	beq.n	80020b6 <ArcadeIT_RCC_GetFlagStatus+0x32>
    statusreg = RCC->BDCR;
  else                        /* The flag to check is in CSR register */
    statusreg = RCC->CSR;
 800208e:	f44f 5360 	mov.w	r3, #14336	; 0x3800
 8002092:	f2c4 0302 	movt	r3, #16386	; 0x4002
 8002096:	6f5b      	ldr	r3, [r3, #116]	; 0x74

  /* Get the flag position */
  tmp = RCC_FLAG & ((uint8_t)0x1F);
 8002098:	f000 001f 	and.w	r0, r0, #31
  if ((statusreg & ((uint32_t)1 << tmp)) != (uint32_t)RESET)
 800209c:	fa23 f000 	lsr.w	r0, r3, r0
 80020a0:	f010 0f01 	tst.w	r0, #1
 80020a4:	d10d      	bne.n	80020c2 <ArcadeIT_RCC_GetFlagStatus+0x3e>
    bitstatus = SET;
  else
    bitstatus = RESET;
 80020a6:	2000      	movs	r0, #0

  /* Return the flag status */
  return bitstatus;

} // end ArcadeIT_RCC_GetFlagStatus
 80020a8:	4770      	bx	lr
    statusreg = RCC->CR;
 80020aa:	f44f 5360 	mov.w	r3, #14336	; 0x3800
 80020ae:	f2c4 0302 	movt	r3, #16386	; 0x4002
 80020b2:	681b      	ldr	r3, [r3, #0]
 80020b4:	e7f0      	b.n	8002098 <ArcadeIT_RCC_GetFlagStatus+0x14>
    statusreg = RCC->BDCR;
 80020b6:	f44f 5360 	mov.w	r3, #14336	; 0x3800
 80020ba:	f2c4 0302 	movt	r3, #16386	; 0x4002
 80020be:	6f1b      	ldr	r3, [r3, #112]	; 0x70
 80020c0:	e7ea      	b.n	8002098 <ArcadeIT_RCC_GetFlagStatus+0x14>
    bitstatus = SET;
 80020c2:	2001      	movs	r0, #1
 80020c4:	4770      	bx	lr

080020c6 <ArcadeIT_RTC_WaitForSynchro>:

// -----------------------------------------------------------------------------
ErrorStatus ArcadeIT_RTC_WaitForSynchro(void)
{
 80020c6:	b082      	sub	sp, #8
  *              synchronized with RTC APB clock.
  * PARAMETERS:  None.
  * RETURNS:     A Status.
  */

  __IO uint32_t synchrocounter = 0;
 80020c8:	2300      	movs	r3, #0
 80020ca:	9301      	str	r3, [sp, #4]
  ErrorStatus status = ERROR;
  uint32_t synchrostatus = 0x00;

  /* Disable the write protection for RTC registers */
  RTC->WPR = 0xCA;
 80020cc:	f44f 5320 	mov.w	r3, #10240	; 0x2800
 80020d0:	f2c4 0300 	movt	r3, #16384	; 0x4000
 80020d4:	22ca      	movs	r2, #202	; 0xca
 80020d6:	625a      	str	r2, [r3, #36]	; 0x24
  RTC->WPR = 0x53;
 80020d8:	2253      	movs	r2, #83	; 0x53
 80020da:	625a      	str	r2, [r3, #36]	; 0x24

  /* Clear RSF flag */
  RTC->ISR &= (uint32_t)RTC_RSF_MASK;
 80020dc:	68da      	ldr	r2, [r3, #12]
 80020de:	f022 02a0 	bic.w	r2, r2, #160	; 0xa0
 80020e2:	60da      	str	r2, [r3, #12]

  /* Wait the registers to be synchronised */
  do
  {
    synchrostatus = RTC->ISR & RTC_ISR_RSF;
 80020e4:	f44f 5320 	mov.w	r3, #10240	; 0x2800
 80020e8:	f2c4 0300 	movt	r3, #16384	; 0x4000
 80020ec:	68da      	ldr	r2, [r3, #12]
 80020ee:	f002 0220 	and.w	r2, r2, #32
    synchrocounter++;
 80020f2:	9b01      	ldr	r3, [sp, #4]
 80020f4:	3301      	adds	r3, #1
 80020f6:	9301      	str	r3, [sp, #4]

  } while((synchrocounter != SYNCHRO_TIMEOUT) && (synchrostatus == 0x00));
 80020f8:	9b01      	ldr	r3, [sp, #4]
 80020fa:	f5b3 3f00 	cmp.w	r3, #131072	; 0x20000
 80020fe:	d001      	beq.n	8002104 <ArcadeIT_RTC_WaitForSynchro+0x3e>
 8002100:	2a00      	cmp	r2, #0
 8002102:	d0ef      	beq.n	80020e4 <ArcadeIT_RTC_WaitForSynchro+0x1e>

  if ((RTC->ISR & RTC_ISR_RSF) != RESET)
 8002104:	f44f 5320 	mov.w	r3, #10240	; 0x2800
 8002108:	f2c4 0300 	movt	r3, #16384	; 0x4000
 800210c:	68db      	ldr	r3, [r3, #12]
 800210e:	f013 0f20 	tst.w	r3, #32
 8002112:	d108      	bne.n	8002126 <ArcadeIT_RTC_WaitForSynchro+0x60>
    status = SUCCESS;
  else
    status = ERROR;
 8002114:	2001      	movs	r0, #1

  /* Enable the write protection for RTC registers */
  RTC->WPR = 0xFF;
 8002116:	f44f 5320 	mov.w	r3, #10240	; 0x2800
 800211a:	f2c4 0300 	movt	r3, #16384	; 0x4000
 800211e:	22ff      	movs	r2, #255	; 0xff
 8002120:	625a      	str	r2, [r3, #36]	; 0x24

  return (status);

} // end ArcadeIT_RTC_WaitForSynchro
 8002122:	b002      	add	sp, #8
 8002124:	4770      	bx	lr
    status = SUCCESS;
 8002126:	2000      	movs	r0, #0
 8002128:	e7f5      	b.n	8002116 <ArcadeIT_RTC_WaitForSynchro+0x50>

0800212a <ArcadeIT_RTC_EnterInitMode>:

// -----------------------------------------------------------------------------
ErrorStatus ArcadeIT_RTC_EnterInitMode(void)
{
 800212a:	b082      	sub	sp, #8
  * DESCRIPTION: Enters the RTC Initialization mode.
  * PARAMETERS:  None.
  * RETURNS:     An ErrorStatus.
  */

  __IO uint32_t initcounter = 0x00;
 800212c:	2300      	movs	r3, #0
 800212e:	9301      	str	r3, [sp, #4]
  ErrorStatus status = ERROR;
  uint32_t initstatus = 0x00;

  /* Check if the Initialization mode is set */
  if ((RTC->ISR & RTC_ISR_INITF) == (uint32_t)RESET)
 8002130:	f44f 5320 	mov.w	r3, #10240	; 0x2800
 8002134:	f2c4 0300 	movt	r3, #16384	; 0x4000
 8002138:	68db      	ldr	r3, [r3, #12]
 800213a:	f013 0f40 	tst.w	r3, #64	; 0x40
 800213e:	d122      	bne.n	8002186 <ArcadeIT_RTC_EnterInitMode+0x5c>
  {
    /* Set the Initialization mode */
    RTC->ISR = (uint32_t)RTC_INIT_MASK;
 8002140:	f44f 5320 	mov.w	r3, #10240	; 0x2800
 8002144:	f2c4 0300 	movt	r3, #16384	; 0x4000
 8002148:	f04f 32ff 	mov.w	r2, #4294967295
 800214c:	60da      	str	r2, [r3, #12]

    /* Wait till RTC is in INIT state and if Time out is reached exit */
    do
    {
      initstatus = RTC->ISR & RTC_ISR_INITF;
 800214e:	f44f 5320 	mov.w	r3, #10240	; 0x2800
 8002152:	f2c4 0300 	movt	r3, #16384	; 0x4000
 8002156:	68da      	ldr	r2, [r3, #12]
 8002158:	f002 0240 	and.w	r2, r2, #64	; 0x40
      initcounter++;
 800215c:	9b01      	ldr	r3, [sp, #4]
 800215e:	3301      	adds	r3, #1
 8002160:	9301      	str	r3, [sp, #4]

    } while((initcounter != INITMODE_TIMEOUT) && (initstatus == 0x00));
 8002162:	9b01      	ldr	r3, [sp, #4]
 8002164:	f5b3 3f80 	cmp.w	r3, #65536	; 0x10000
 8002168:	d001      	beq.n	800216e <ArcadeIT_RTC_EnterInitMode+0x44>
 800216a:	2a00      	cmp	r2, #0
 800216c:	d0ef      	beq.n	800214e <ArcadeIT_RTC_EnterInitMode+0x24>

    if ((RTC->ISR & RTC_ISR_INITF) != RESET)
 800216e:	f44f 5320 	mov.w	r3, #10240	; 0x2800
 8002172:	f2c4 0300 	movt	r3, #16384	; 0x4000
 8002176:	68db      	ldr	r3, [r3, #12]
 8002178:	f013 0f40 	tst.w	r3, #64	; 0x40
 800217c:	d101      	bne.n	8002182 <ArcadeIT_RTC_EnterInitMode+0x58>
      status = SUCCESS;
    else
      status = ERROR;
 800217e:	2001      	movs	r0, #1
 8002180:	e002      	b.n	8002188 <ArcadeIT_RTC_EnterInitMode+0x5e>
      status = SUCCESS;
 8002182:	2000      	movs	r0, #0
 8002184:	e000      	b.n	8002188 <ArcadeIT_RTC_EnterInitMode+0x5e>
  }
  else
    status = SUCCESS;
 8002186:	2000      	movs	r0, #0

  return (status);

} // end ArcadeIT_RTC_EnterInitMode
 8002188:	b002      	add	sp, #8
 800218a:	4770      	bx	lr

0800218c <ArcadeIT_RTC_Init>:

// -----------------------------------------------------------------------------
void ArcadeIT_RTC_Init(void)
{
 800218c:	b508      	push	{r3, lr}
  * DESCRIPTION: This function modify the string provided to upper case.
  * PARAMETERS:  None.
  * RETURNS:     Nothing.
  */

  if (ArcadeIT_RTC_ReadBackupRegister(RTC_BKP_DR0) != FIRST_DATA)
 800218e:	2000      	movs	r0, #0
 8002190:	f7ff ff3d 	bl	800200e <ArcadeIT_RTC_ReadBackupRegister>
 8002194:	f243 23f2 	movw	r3, #13042	; 0x32f2
 8002198:	4298      	cmp	r0, r3
 800219a:	d073      	beq.n	8002284 <ArcadeIT_RTC_Init+0xf8>
  {
    // Enable the PWR clock if not yet.
    if ((RCC->APB1ENR & RCC_APB1Periph_PWR) == FALSE) RCC->APB1ENR |= RCC_APB1Periph_PWR;
 800219c:	f44f 5360 	mov.w	r3, #14336	; 0x3800
 80021a0:	f2c4 0302 	movt	r3, #16386	; 0x4002
 80021a4:	6c1b      	ldr	r3, [r3, #64]	; 0x40
 80021a6:	f013 5f80 	tst.w	r3, #268435456	; 0x10000000
 80021aa:	d107      	bne.n	80021bc <ArcadeIT_RTC_Init+0x30>
 80021ac:	f44f 5360 	mov.w	r3, #14336	; 0x3800
 80021b0:	f2c4 0302 	movt	r3, #16386	; 0x4002
 80021b4:	6c1a      	ldr	r2, [r3, #64]	; 0x40
 80021b6:	f042 5280 	orr.w	r2, r2, #268435456	; 0x10000000
 80021ba:	641a      	str	r2, [r3, #64]	; 0x40

    // Allow access to RTC.
    *(__IO uint32_t *) CR_DBP_BB = (uint32_t)ENABLE;
 80021bc:	2320      	movs	r3, #32
 80021be:	f2c4 230e 	movt	r3, #16910	; 0x420e
 80021c2:	2001      	movs	r0, #1
 80021c4:	6018      	str	r0, [r3, #0]
    RTC->WPR = 0xCA;
 80021c6:	f44f 5320 	mov.w	r3, #10240	; 0x2800
 80021ca:	f2c4 0300 	movt	r3, #16384	; 0x4000
 80021ce:	22ca      	movs	r2, #202	; 0xca
 80021d0:	625a      	str	r2, [r3, #36]	; 0x24
    RTC->WPR = 0x53;
 80021d2:	2253      	movs	r2, #83	; 0x53
 80021d4:	625a      	str	r2, [r3, #36]	; 0x24

    // Reset RTC Domain.
    *(__IO uint32_t *) BDCR_BDRST_BB = (uint32_t)(ENABLE);
 80021d6:	f44f 6364 	mov.w	r3, #3648	; 0xe40
 80021da:	f2c4 2347 	movt	r3, #16967	; 0x4247
 80021de:	6018      	str	r0, [r3, #0]
    *(__IO uint32_t *) BDCR_BDRST_BB = (uint32_t)(DISABLE);
 80021e0:	2200      	movs	r2, #0
 80021e2:	601a      	str	r2, [r3, #0]

    // Enable the LSE OSC.
    *(__IO uint32_t *) CSR_LSION_BB = (uint32_t)DISABLE;
 80021e4:	f44f 6368 	mov.w	r3, #3712	; 0xe80
 80021e8:	f2c4 2347 	movt	r3, #16967	; 0x4247
 80021ec:	601a      	str	r2, [r3, #0]
    ArcadeIT_RCC_LSEConfig(RCC_LSE_ON);
 80021ee:	f7ff ff2e 	bl	800204e <ArcadeIT_RCC_LSEConfig>

    // Wait till LSE is ready.
    while(ArcadeIT_RCC_GetFlagStatus(RCC_FLAG_LSERDY) == RESET) {};
 80021f2:	2041      	movs	r0, #65	; 0x41
 80021f4:	f7ff ff46 	bl	8002084 <ArcadeIT_RCC_GetFlagStatus>
 80021f8:	2800      	cmp	r0, #0
 80021fa:	d0fa      	beq.n	80021f2 <ArcadeIT_RTC_Init+0x66>
      /* Store the new value */
      RCC->CFGR = tmpreg;
    }

    /* Select the RTC clock source */
    RCC->BDCR |= (RCC_RTCCLKSource_LSE & 0x00000FFF);
 80021fc:	f44f 5360 	mov.w	r3, #14336	; 0x3800
 8002200:	f2c4 0302 	movt	r3, #16386	; 0x4002
 8002204:	6f1a      	ldr	r2, [r3, #112]	; 0x70
 8002206:	f442 7280 	orr.w	r2, r2, #256	; 0x100
 800220a:	671a      	str	r2, [r3, #112]	; 0x70

    // Enable the RTC Clock.
    *(__IO uint32_t *) BDCR_RTCEN_BB = (uint32_t)ENABLE;
 800220c:	f640 633c 	movw	r3, #3644	; 0xe3c
 8002210:	f2c4 2347 	movt	r3, #16967	; 0x4247
 8002214:	2201      	movs	r2, #1
 8002216:	601a      	str	r2, [r3, #0]

    // Wait for RTC APB registers synchronization.
    ArcadeIT_RTC_WaitForSynchro();
 8002218:	f7ff ff55 	bl	80020c6 <ArcadeIT_RTC_WaitForSynchro>

    /* Disable the write protection for RTC registers */
    RTC->WPR = 0xCA;
 800221c:	f44f 5320 	mov.w	r3, #10240	; 0x2800
 8002220:	f2c4 0300 	movt	r3, #16384	; 0x4000
 8002224:	22ca      	movs	r2, #202	; 0xca
 8002226:	625a      	str	r2, [r3, #36]	; 0x24
    RTC->WPR = 0x53;
 8002228:	2253      	movs	r2, #83	; 0x53
 800222a:	625a      	str	r2, [r3, #36]	; 0x24

    /* Set Initialization mode */
    if (ArcadeIT_RTC_EnterInitMode() != ERROR)
 800222c:	f7ff ff7d 	bl	800212a <ArcadeIT_RTC_EnterInitMode>
 8002230:	2801      	cmp	r0, #1
 8002232:	d013      	beq.n	800225c <ArcadeIT_RTC_Init+0xd0>
    {
      /* Clear RTC CR FMT Bit */
      RTC->CR &= ((uint32_t)~(RTC_CR_FMT));
 8002234:	f44f 5320 	mov.w	r3, #10240	; 0x2800
 8002238:	f2c4 0300 	movt	r3, #16384	; 0x4000
 800223c:	689a      	ldr	r2, [r3, #8]
 800223e:	f022 0240 	bic.w	r2, r2, #64	; 0x40
 8002242:	609a      	str	r2, [r3, #8]

      /* Set RTC_CR register */
      RTC->CR |=  ((uint32_t)(RTC_HourFormat_24));
 8002244:	689a      	ldr	r2, [r3, #8]
 8002246:	609a      	str	r2, [r3, #8]

      /* Configure the RTC PRER */
      RTC->PRER = (uint32_t)(255);
 8002248:	22ff      	movs	r2, #255	; 0xff
 800224a:	611a      	str	r2, [r3, #16]
      RTC->PRER |= (uint32_t)(127 << 16);
 800224c:	691a      	ldr	r2, [r3, #16]
 800224e:	f442 02fe 	orr.w	r2, r2, #8323072	; 0x7f0000
 8002252:	611a      	str	r2, [r3, #16]

      /* Exit Initialization mode */
      RTC->ISR &= (uint32_t)~RTC_ISR_INIT;
 8002254:	68da      	ldr	r2, [r3, #12]
 8002256:	f022 0280 	bic.w	r2, r2, #128	; 0x80
 800225a:	60da      	str	r2, [r3, #12]

    } // end if

    /* Enable the write protection for RTC registers */
    RTC->WPR = 0xFF;
 800225c:	f44f 5320 	mov.w	r3, #10240	; 0x2800
 8002260:	f2c4 0300 	movt	r3, #16384	; 0x4000
 8002264:	22ff      	movs	r2, #255	; 0xff
 8002266:	625a      	str	r2, [r3, #36]	; 0x24

    // Indicator for the RTC configuration.
    ArcadeIT_RTC_WriteBackupRegister(RTC_BKP_DR0, FIRST_DATA);
 8002268:	f243 21f2 	movw	r1, #13042	; 0x32f2
 800226c:	2000      	movs	r0, #0
 800226e:	f7ff fede 	bl	800202e <ArcadeIT_RTC_WriteBackupRegister>
    // Enable BKPSRAM Clock.
    RCC->AHB1ENR |= RCC_AHB1Periph_BKPSRAM;

  } // End if.

  if (gDevices & ARCADEIT_DEVICE_SERIAL)
 8002272:	f240 2308 	movw	r3, #520	; 0x208
 8002276:	f2c2 0300 	movt	r3, #8192	; 0x2000
 800227a:	681b      	ldr	r3, [r3, #0]
 800227c:	f413 4f80 	tst.w	r3, #16384	; 0x4000
 8002280:	d10b      	bne.n	800229a <ArcadeIT_RTC_Init+0x10e>
  {
    ArcadeIT_Serial_Port_String_Send(TEXT_RTC_INITED);

  } // End if.

} // End ArcadeIT_RTC_Init.
 8002282:	bd08      	pop	{r3, pc}
    ArcadeIT_RTC_WaitForSynchro();
 8002284:	f7ff ff1f 	bl	80020c6 <ArcadeIT_RTC_WaitForSynchro>
    RCC->AHB1ENR |= RCC_AHB1Periph_BKPSRAM;
 8002288:	f44f 5360 	mov.w	r3, #14336	; 0x3800
 800228c:	f2c4 0302 	movt	r3, #16386	; 0x4002
 8002290:	6b1a      	ldr	r2, [r3, #48]	; 0x30
 8002292:	f442 2280 	orr.w	r2, r2, #262144	; 0x40000
 8002296:	631a      	str	r2, [r3, #48]	; 0x30
 8002298:	e7eb      	b.n	8002272 <ArcadeIT_RTC_Init+0xe6>
    ArcadeIT_Serial_Port_String_Send(TEXT_RTC_INITED);
 800229a:	f248 70bc 	movw	r0, #34748	; 0x87bc
 800229e:	f6c0 0000 	movt	r0, #2048	; 0x800
 80022a2:	f000 fa43 	bl	800272c <ArcadeIT_Serial_Port_String_Send>
} // End ArcadeIT_RTC_Init.
 80022a6:	e7ec      	b.n	8002282 <ArcadeIT_RTC_Init+0xf6>

080022a8 <ArcadeIT_RTC_TimeDate_Get>:
  return status;
}

// -----------------------------------------------------------------------------
rtc_time_t ArcadeIT_RTC_TimeDate_Get(void)
{
 80022a8:	b410      	push	{r4}

  rtc_time_t lTempTime;

  uint32_t tmpreg;

  tmpreg = (uint32_t)(RTC->TR & RTC_TR_RESERVED_MASK);
 80022aa:	f44f 5120 	mov.w	r1, #10240	; 0x2800
 80022ae:	f2c4 0100 	movt	r1, #16384	; 0x4000
 80022b2:	680b      	ldr	r3, [r1, #0]
 80022b4:	f003 337f 	and.w	r3, r3, #2139062143	; 0x7f7f7f7f
 80022b8:	f023 43fe 	bic.w	r3, r3, #2130706432	; 0x7f000000
  lTempTime.hour = (uint8_t)((tmpreg & (RTC_TR_HT | RTC_TR_HU)) >> 16);
 80022bc:	f3c3 4405 	ubfx	r4, r3, #16, #6
 80022c0:	70c4      	strb	r4, [r0, #3]
  lTempTime.min = (uint8_t)((tmpreg & (RTC_TR_MNT | RTC_TR_MNU)) >>8);
 80022c2:	f3c3 2406 	ubfx	r4, r3, #8, #7
 80022c6:	7104      	strb	r4, [r0, #4]
  lTempTime.sec = (uint8_t)(tmpreg & (RTC_TR_ST | RTC_TR_SU));
 80022c8:	7143      	strb	r3, [r0, #5]

  tmpreg = (uint32_t)(RTC->DR & RTC_DR_RESERVED_MASK);
 80022ca:	684b      	ldr	r3, [r1, #4]
 80022cc:	f023 437f 	bic.w	r3, r3, #4278190080	; 0xff000000
 80022d0:	f023 03c0 	bic.w	r3, r3, #192	; 0xc0
  lTempTime.month = (uint8_t)((tmpreg & (RTC_DR_MT | RTC_DR_MU)) >> 8);
 80022d4:	f3c3 2104 	ubfx	r1, r3, #8, #5
 80022d8:	7001      	strb	r1, [r0, #0]
  lTempTime.mday = (uint8_t)(tmpreg & (RTC_DR_DT | RTC_DR_DU));
 80022da:	7043      	strb	r3, [r0, #1]
  lTempTime.year = (uint8_t)((tmpreg & (RTC_DR_YT | RTC_DR_YU)) >> 16);
 80022dc:	0c1b      	lsrs	r3, r3, #16
 80022de:	7083      	strb	r3, [r0, #2]

  return lTempTime;

} // End ArcadeIT_RTC_TimeDate_Get.
 80022e0:	f85d 4b04 	ldr.w	r4, [sp], #4
 80022e4:	4770      	bx	lr

080022e6 <ArcadeIT_SPI_Port_RW_Byte>:
  // The read byte.
  uint8_t lParameter;
  uint32_t lTimeout;

  //Wait until the transmit buffer is empty.
  lTimeout = SYS_SD_SPI_TIMEOUT;
 80022e6:	f44f 72fa 	mov.w	r2, #500	; 0x1f4

  while ((SYS_SD_SPI_PORT->SR & SPI_I2S_FLAG_TXE) == RESET)
 80022ea:	f44f 5340 	mov.w	r3, #12288	; 0x3000
 80022ee:	f2c4 0301 	movt	r3, #16385	; 0x4001
 80022f2:	689b      	ldr	r3, [r3, #8]
 80022f4:	f013 0f02 	tst.w	r3, #2
 80022f8:	d103      	bne.n	8002302 <ArcadeIT_SPI_Port_RW_Byte+0x1c>
  {
    if (lTimeout-- == 0) break;
 80022fa:	1e53      	subs	r3, r2, #1
 80022fc:	b10a      	cbz	r2, 8002302 <ArcadeIT_SPI_Port_RW_Byte+0x1c>
 80022fe:	461a      	mov	r2, r3
 8002300:	e7f3      	b.n	80022ea <ArcadeIT_SPI_Port_RW_Byte+0x4>
  };

  // Send the byte.
  SYS_SD_SPI_PORT->DR = pData;
 8002302:	f44f 5340 	mov.w	r3, #12288	; 0x3000
 8002306:	f2c4 0301 	movt	r3, #16385	; 0x4001
 800230a:	60d8      	str	r0, [r3, #12]

  // Wait to receive a byte.
  lTimeout = SYS_SD_SPI_TIMEOUT;
 800230c:	f44f 72fa 	mov.w	r2, #500	; 0x1f4
  while ((SYS_SD_SPI_PORT->SR & SPI_I2S_FLAG_RXNE) == RESET)
 8002310:	f44f 5340 	mov.w	r3, #12288	; 0x3000
 8002314:	f2c4 0301 	movt	r3, #16385	; 0x4001
 8002318:	689b      	ldr	r3, [r3, #8]
 800231a:	f013 0f01 	tst.w	r3, #1
 800231e:	d103      	bne.n	8002328 <ArcadeIT_SPI_Port_RW_Byte+0x42>
  {
    if (lTimeout-- == 0) break;
 8002320:	1e53      	subs	r3, r2, #1
 8002322:	b10a      	cbz	r2, 8002328 <ArcadeIT_SPI_Port_RW_Byte+0x42>
 8002324:	461a      	mov	r2, r3
 8002326:	e7f3      	b.n	8002310 <ArcadeIT_SPI_Port_RW_Byte+0x2a>
  };

  // Return the byte read from the SPI bus.
  lParameter = SYS_SD_SPI_PORT->DR;
 8002328:	f44f 5340 	mov.w	r3, #12288	; 0x3000
 800232c:	f2c4 0301 	movt	r3, #16385	; 0x4001
 8002330:	68d8      	ldr	r0, [r3, #12]

  return lParameter;

} // End ArcadeIT_SPI_Port_RW_Byte.
 8002332:	b2c0      	uxtb	r0, r0
 8002334:	4770      	bx	lr

08002336 <ArcadeIT_SPI_Port_Read_Buffer>:
void ArcadeIT_SPI_Port_Read_Buffer
(
  uint8_t *pBuffer,       // Pointer to data buffer.
  uint32_t pNumberOfBytes // Number of bytes to receive.
)
{
 8002336:	b570      	push	{r4, r5, r6, lr}
 8002338:	4606      	mov	r6, r0
 800233a:	460d      	mov	r5, r1
  * RETURNS:     Nothing.
  */

  uint8_t lData;

  for (uint32_t lBytes = 0; lBytes < pNumberOfBytes; lBytes++)
 800233c:	2400      	movs	r4, #0
 800233e:	e004      	b.n	800234a <ArcadeIT_SPI_Port_Read_Buffer+0x14>
  {
    // Receive the data block into buffer.
    lData = ArcadeIT_SPI_Port_RW_Byte(ARCADEIT_DUMMY_BYTE);
 8002340:	20ff      	movs	r0, #255	; 0xff
 8002342:	f7ff ffd0 	bl	80022e6 <ArcadeIT_SPI_Port_RW_Byte>
    pBuffer[lBytes] = lData;
 8002346:	5530      	strb	r0, [r6, r4]
  for (uint32_t lBytes = 0; lBytes < pNumberOfBytes; lBytes++)
 8002348:	3401      	adds	r4, #1
 800234a:	42ac      	cmp	r4, r5
 800234c:	d3f8      	bcc.n	8002340 <ArcadeIT_SPI_Port_Read_Buffer+0xa>

  } // End for.

} // End ArcadeIT_SPI_Port_Read_Buffer.
 800234e:	bd70      	pop	{r4, r5, r6, pc}

08002350 <ArcadeIT_SPI_Port_Write_Buffer>:
void ArcadeIT_SPI_Port_Write_Buffer
(
  uint8_t *pBuffer,       // Pointer to data buffer.
  uint32_t pNumberOfBytes // Number of bytes to send.
)
{
 8002350:	b570      	push	{r4, r5, r6, lr}
 8002352:	4606      	mov	r6, r0
 8002354:	460d      	mov	r5, r1
  * DESCRIPTION: This function is used to write a block of memory to the SPI port.
  * PARAMETERS:  See above.
  * RETURNS:     Nothing.
  */

  for (uint32_t lBytes = 0; lBytes < pNumberOfBytes; lBytes++)
 8002356:	2400      	movs	r4, #0
 8002358:	e003      	b.n	8002362 <ArcadeIT_SPI_Port_Write_Buffer+0x12>
  {
    // Sends the data block to the SPI.
    ArcadeIT_SPI_Port_RW_Byte(pBuffer[lBytes]);
 800235a:	5d30      	ldrb	r0, [r6, r4]
 800235c:	f7ff ffc3 	bl	80022e6 <ArcadeIT_SPI_Port_RW_Byte>
  for (uint32_t lBytes = 0; lBytes < pNumberOfBytes; lBytes++)
 8002360:	3401      	adds	r4, #1
 8002362:	42ac      	cmp	r4, r5
 8002364:	d3f9      	bcc.n	800235a <ArcadeIT_SPI_Port_Write_Buffer+0xa>

  } // End for.

} // End ArcadeIT_SPI_Port_Write_Buffer.
 8002366:	bd70      	pop	{r4, r5, r6, pc}

08002368 <ArcadeIT_SPI_Port_Init>:

// /////////////////////////////////////////////////////////////////////////////
int ArcadeIT_SPI_Port_Init (
  uint16_t pClock // the clock frequency to set the SPI port
  )
{
 8002368:	b508      	push	{r3, lr}
   * PARAMETERS:  None.
   * RETURNS:     Nothing.
   */

  // Enable GPIOs used by the SPI.
  if ((RCC->AHB1ENR & RCC_AHB1Periph_GPIOA) == FALSE) RCC->AHB1ENR |= RCC_AHB1Periph_GPIOA;
 800236a:	f44f 5360 	mov.w	r3, #14336	; 0x3800
 800236e:	f2c4 0302 	movt	r3, #16386	; 0x4002
 8002372:	6b1b      	ldr	r3, [r3, #48]	; 0x30
 8002374:	f013 0f01 	tst.w	r3, #1
 8002378:	d107      	bne.n	800238a <ArcadeIT_SPI_Port_Init+0x22>
 800237a:	f44f 5360 	mov.w	r3, #14336	; 0x3800
 800237e:	f2c4 0302 	movt	r3, #16386	; 0x4002
 8002382:	6b1a      	ldr	r2, [r3, #48]	; 0x30
 8002384:	f042 0201 	orr.w	r2, r2, #1
 8002388:	631a      	str	r2, [r3, #48]	; 0x30
  if ((RCC->AHB1ENR & RCC_AHB1Periph_GPIOC) == FALSE) RCC->AHB1ENR |= RCC_AHB1Periph_GPIOC;
 800238a:	f44f 5360 	mov.w	r3, #14336	; 0x3800
 800238e:	f2c4 0302 	movt	r3, #16386	; 0x4002
 8002392:	6b1b      	ldr	r3, [r3, #48]	; 0x30
 8002394:	f013 0f04 	tst.w	r3, #4
 8002398:	d107      	bne.n	80023aa <ArcadeIT_SPI_Port_Init+0x42>
 800239a:	f44f 5360 	mov.w	r3, #14336	; 0x3800
 800239e:	f2c4 0302 	movt	r3, #16386	; 0x4002
 80023a2:	6b1a      	ldr	r2, [r3, #48]	; 0x30
 80023a4:	f042 0204 	orr.w	r2, r2, #4
 80023a8:	631a      	str	r2, [r3, #48]	; 0x30
  if ((RCC->AHB1ENR & RCC_AHB1Periph_GPIOD) == FALSE) RCC->AHB1ENR |= RCC_AHB1Periph_GPIOD;
 80023aa:	f44f 5360 	mov.w	r3, #14336	; 0x3800
 80023ae:	f2c4 0302 	movt	r3, #16386	; 0x4002
 80023b2:	6b1b      	ldr	r3, [r3, #48]	; 0x30
 80023b4:	f013 0f08 	tst.w	r3, #8
 80023b8:	d107      	bne.n	80023ca <ArcadeIT_SPI_Port_Init+0x62>
 80023ba:	f44f 5360 	mov.w	r3, #14336	; 0x3800
 80023be:	f2c4 0302 	movt	r3, #16386	; 0x4002
 80023c2:	6b1a      	ldr	r2, [r3, #48]	; 0x30
 80023c4:	f042 0208 	orr.w	r2, r2, #8
 80023c8:	631a      	str	r2, [r3, #48]	; 0x30
  if ((RCC->APB2ENR & RCC_APB2Periph_SPI1) == FALSE) RCC->APB2ENR |= RCC_APB2Periph_SPI1;
 80023ca:	f44f 5360 	mov.w	r3, #14336	; 0x3800
 80023ce:	f2c4 0302 	movt	r3, #16386	; 0x4002
 80023d2:	6c5b      	ldr	r3, [r3, #68]	; 0x44
 80023d4:	f413 5f80 	tst.w	r3, #4096	; 0x1000
 80023d8:	d107      	bne.n	80023ea <ArcadeIT_SPI_Port_Init+0x82>
 80023da:	f44f 5360 	mov.w	r3, #14336	; 0x3800
 80023de:	f2c4 0302 	movt	r3, #16386	; 0x4002
 80023e2:	6c5a      	ldr	r2, [r3, #68]	; 0x44
 80023e4:	f442 5280 	orr.w	r2, r2, #4096	; 0x1000
 80023e8:	645a      	str	r2, [r3, #68]	; 0x44
  uint32_t lPinPosition;

  // Configure the output line SCK as alternate function.
  lPinPosition = (SYS_SD_SPI_SCK_PIN_NO * 2);

  SYS_SD_SPI_SCK_PER->MODER   &= ~GPIO_MODER_MODER5;
 80023ea:	2300      	movs	r3, #0
 80023ec:	f2c4 0302 	movt	r3, #16386	; 0x4002
 80023f0:	681a      	ldr	r2, [r3, #0]
 80023f2:	f422 6240 	bic.w	r2, r2, #3072	; 0xc00
 80023f6:	601a      	str	r2, [r3, #0]
  SYS_SD_SPI_SCK_PER->MODER   |= (((uint32_t)GPIO_Mode_AF) << lPinPosition);
 80023f8:	681a      	ldr	r2, [r3, #0]
 80023fa:	f442 6200 	orr.w	r2, r2, #2048	; 0x800
 80023fe:	601a      	str	r2, [r3, #0]
  SYS_SD_SPI_SCK_PER->OSPEEDR &= ~GPIO_OSPEEDER_OSPEEDR5;
 8002400:	689a      	ldr	r2, [r3, #8]
 8002402:	f422 6240 	bic.w	r2, r2, #3072	; 0xc00
 8002406:	609a      	str	r2, [r3, #8]
  SYS_SD_SPI_SCK_PER->OSPEEDR |= ((uint32_t)(GPIO_Speed_100MHz) << lPinPosition);
 8002408:	689a      	ldr	r2, [r3, #8]
 800240a:	f442 6240 	orr.w	r2, r2, #3072	; 0xc00
 800240e:	609a      	str	r2, [r3, #8]
  SYS_SD_SPI_SCK_PER->OTYPER  &= ~GPIO_OTYPER_OT_5;
 8002410:	685a      	ldr	r2, [r3, #4]
 8002412:	f022 0220 	bic.w	r2, r2, #32
 8002416:	605a      	str	r2, [r3, #4]
  SYS_SD_SPI_SCK_PER->OTYPER  |= (uint16_t)(GPIO_OType_PP << SYS_SD_SPI_SCK_PIN_NO);
 8002418:	685a      	ldr	r2, [r3, #4]
 800241a:	605a      	str	r2, [r3, #4]
  SYS_SD_SPI_SCK_PER->PUPDR   &= ~GPIO_PUPDR_PUPDR5;
 800241c:	68da      	ldr	r2, [r3, #12]
 800241e:	f422 6240 	bic.w	r2, r2, #3072	; 0xc00
 8002422:	60da      	str	r2, [r3, #12]
  SYS_SD_SPI_SCK_PER->PUPDR   |= (((uint32_t)GPIO_PuPd_DOWN) << lPinPosition);
 8002424:	68da      	ldr	r2, [r3, #12]
 8002426:	f442 6200 	orr.w	r2, r2, #2048	; 0x800
 800242a:	60da      	str	r2, [r3, #12]

  SYS_SD_SPI_SCK_PER->AFR[0]  &= ~((uint32_t)0xF << ((uint32_t)((uint32_t)SYS_SD_SPI_SCK_PIN_NO & (uint32_t)0x07) * 4));
 800242c:	6a1a      	ldr	r2, [r3, #32]
 800242e:	f422 0270 	bic.w	r2, r2, #15728640	; 0xf00000
 8002432:	621a      	str	r2, [r3, #32]
  SYS_SD_SPI_SCK_PER->AFR[0]  |= ((uint32_t)(SYS_SD_SPI_AF) << ((uint32_t)((uint32_t)SYS_SD_SPI_SCK_PIN_NO & (uint32_t)0x07) * 4));
 8002434:	6a1a      	ldr	r2, [r3, #32]
 8002436:	f442 02a0 	orr.w	r2, r2, #5242880	; 0x500000
 800243a:	621a      	str	r2, [r3, #32]

  // Configure the output line MOSI as alternate function.
  lPinPosition = (SYS_SD_SPI_MOSI_PIN_NO * 2);

  SYS_SD_SPI_MOSI_PER->MODER   &= ~GPIO_MODER_MODER7;
 800243c:	681a      	ldr	r2, [r3, #0]
 800243e:	f422 4240 	bic.w	r2, r2, #49152	; 0xc000
 8002442:	601a      	str	r2, [r3, #0]
  SYS_SD_SPI_MOSI_PER->MODER   |= (((uint32_t)GPIO_Mode_AF) << lPinPosition);
 8002444:	681a      	ldr	r2, [r3, #0]
 8002446:	f442 4200 	orr.w	r2, r2, #32768	; 0x8000
 800244a:	601a      	str	r2, [r3, #0]
  SYS_SD_SPI_MOSI_PER->OSPEEDR &= ~GPIO_OSPEEDER_OSPEEDR7;
 800244c:	689a      	ldr	r2, [r3, #8]
 800244e:	f422 4240 	bic.w	r2, r2, #49152	; 0xc000
 8002452:	609a      	str	r2, [r3, #8]
  SYS_SD_SPI_MOSI_PER->OSPEEDR |= ((uint32_t)(GPIO_Speed_100MHz) << lPinPosition);
 8002454:	689a      	ldr	r2, [r3, #8]
 8002456:	f442 4240 	orr.w	r2, r2, #49152	; 0xc000
 800245a:	609a      	str	r2, [r3, #8]
  SYS_SD_SPI_MOSI_PER->OTYPER  &= ~GPIO_OTYPER_OT_7;
 800245c:	685a      	ldr	r2, [r3, #4]
 800245e:	f022 0280 	bic.w	r2, r2, #128	; 0x80
 8002462:	605a      	str	r2, [r3, #4]
  SYS_SD_SPI_MOSI_PER->OTYPER  |= (uint16_t)(GPIO_OType_PP << SYS_SD_SPI_MOSI_PIN_NO);
 8002464:	685a      	ldr	r2, [r3, #4]
 8002466:	605a      	str	r2, [r3, #4]
  SYS_SD_SPI_MOSI_PER->PUPDR   &= ~GPIO_PUPDR_PUPDR7;
 8002468:	68da      	ldr	r2, [r3, #12]
 800246a:	f422 4240 	bic.w	r2, r2, #49152	; 0xc000
 800246e:	60da      	str	r2, [r3, #12]
  SYS_SD_SPI_MOSI_PER->PUPDR   |= (((uint32_t)GPIO_PuPd_DOWN) << lPinPosition);
 8002470:	68da      	ldr	r2, [r3, #12]
 8002472:	f442 4200 	orr.w	r2, r2, #32768	; 0x8000
 8002476:	60da      	str	r2, [r3, #12]

  SYS_SD_SPI_MOSI_PER->AFR[0]  &= ~((uint32_t)0xF << ((uint32_t)((uint32_t)SYS_SD_SPI_MOSI_PIN_NO & (uint32_t)0x07) * 4));
 8002478:	6a1a      	ldr	r2, [r3, #32]
 800247a:	f022 4270 	bic.w	r2, r2, #4026531840	; 0xf0000000
 800247e:	621a      	str	r2, [r3, #32]
  SYS_SD_SPI_MOSI_PER->AFR[0]  |= ((uint32_t)(SYS_SD_SPI_AF) << ((uint32_t)((uint32_t)SYS_SD_SPI_MOSI_PIN_NO & (uint32_t)0x07) * 4));
 8002480:	6a1a      	ldr	r2, [r3, #32]
 8002482:	f042 42a0 	orr.w	r2, r2, #1342177280	; 0x50000000
 8002486:	621a      	str	r2, [r3, #32]

  // Configure the output line MISO as alternate function.
  lPinPosition = (SYS_SD_SPI_MISO_PIN_NO * 2);

  SYS_SD_SPI_MISO_PER->MODER   &= ~GPIO_MODER_MODER6;
 8002488:	681a      	ldr	r2, [r3, #0]
 800248a:	f422 5240 	bic.w	r2, r2, #12288	; 0x3000
 800248e:	601a      	str	r2, [r3, #0]
  SYS_SD_SPI_MISO_PER->MODER   |= (((uint32_t)GPIO_Mode_AF) << lPinPosition);
 8002490:	681a      	ldr	r2, [r3, #0]
 8002492:	f442 5200 	orr.w	r2, r2, #8192	; 0x2000
 8002496:	601a      	str	r2, [r3, #0]
  SYS_SD_SPI_MISO_PER->OSPEEDR &= ~GPIO_OSPEEDER_OSPEEDR6;
 8002498:	689a      	ldr	r2, [r3, #8]
 800249a:	f422 5240 	bic.w	r2, r2, #12288	; 0x3000
 800249e:	609a      	str	r2, [r3, #8]
  SYS_SD_SPI_MISO_PER->OSPEEDR |= ((uint32_t)(GPIO_Speed_100MHz) << lPinPosition);
 80024a0:	689a      	ldr	r2, [r3, #8]
 80024a2:	f442 5240 	orr.w	r2, r2, #12288	; 0x3000
 80024a6:	609a      	str	r2, [r3, #8]
  SYS_SD_SPI_MISO_PER->OTYPER  &= ~GPIO_OTYPER_OT_6;
 80024a8:	685a      	ldr	r2, [r3, #4]
 80024aa:	f022 0240 	bic.w	r2, r2, #64	; 0x40
 80024ae:	605a      	str	r2, [r3, #4]
  SYS_SD_SPI_MISO_PER->OTYPER  |= (uint16_t)(GPIO_OType_PP << SYS_SD_SPI_MISO_PIN_NO);
 80024b0:	685a      	ldr	r2, [r3, #4]
 80024b2:	605a      	str	r2, [r3, #4]
  SYS_SD_SPI_MISO_PER->PUPDR   &= ~GPIO_PUPDR_PUPDR6;
 80024b4:	68da      	ldr	r2, [r3, #12]
 80024b6:	f422 5240 	bic.w	r2, r2, #12288	; 0x3000
 80024ba:	60da      	str	r2, [r3, #12]
  SYS_SD_SPI_MISO_PER->PUPDR   |= (((uint32_t)GPIO_PuPd_UP) << lPinPosition);
 80024bc:	68da      	ldr	r2, [r3, #12]
 80024be:	f442 5280 	orr.w	r2, r2, #4096	; 0x1000
 80024c2:	60da      	str	r2, [r3, #12]

  SYS_SD_SPI_MISO_PER->AFR[0]  &= ~((uint32_t)0xF << ((uint32_t)((uint32_t)SYS_SD_SPI_MISO_PIN_NO & (uint32_t)0x07) * 4));
 80024c4:	6a1a      	ldr	r2, [r3, #32]
 80024c6:	f022 6270 	bic.w	r2, r2, #251658240	; 0xf000000
 80024ca:	621a      	str	r2, [r3, #32]
  SYS_SD_SPI_MISO_PER->AFR[0]  |= ((uint32_t)(SYS_SD_SPI_AF) << ((uint32_t)((uint32_t)SYS_SD_SPI_MISO_PIN_NO & (uint32_t)0x07) * 4));
 80024cc:	6a1a      	ldr	r2, [r3, #32]
 80024ce:	f042 62a0 	orr.w	r2, r2, #83886080	; 0x5000000
 80024d2:	621a      	str	r2, [r3, #32]

  // Configure the output line CS as a normal output GPIO.
  lPinPosition = (SYS_SD_SPI_CS_PIN_NO * 2);

  SYS_SD_SPI_CS_PER->MODER   &= ~GPIO_MODER_MODER4;
 80024d4:	f44f 6300 	mov.w	r3, #2048	; 0x800
 80024d8:	f2c4 0302 	movt	r3, #16386	; 0x4002
 80024dc:	681a      	ldr	r2, [r3, #0]
 80024de:	f422 7240 	bic.w	r2, r2, #768	; 0x300
 80024e2:	601a      	str	r2, [r3, #0]
  SYS_SD_SPI_CS_PER->MODER   |= (((uint32_t)GPIO_Mode_OUT) << lPinPosition);
 80024e4:	681a      	ldr	r2, [r3, #0]
 80024e6:	f442 7280 	orr.w	r2, r2, #256	; 0x100
 80024ea:	601a      	str	r2, [r3, #0]
  SYS_SD_SPI_CS_PER->OSPEEDR &= ~GPIO_OSPEEDER_OSPEEDR4;
 80024ec:	689a      	ldr	r2, [r3, #8]
 80024ee:	f422 7240 	bic.w	r2, r2, #768	; 0x300
 80024f2:	609a      	str	r2, [r3, #8]
  SYS_SD_SPI_CS_PER->OSPEEDR |= ((uint32_t)(GPIO_Speed_100MHz) << lPinPosition);
 80024f4:	689a      	ldr	r2, [r3, #8]
 80024f6:	f442 7240 	orr.w	r2, r2, #768	; 0x300
 80024fa:	609a      	str	r2, [r3, #8]
  SYS_SD_SPI_CS_PER->OTYPER  &= ~GPIO_OTYPER_OT_4;
 80024fc:	685a      	ldr	r2, [r3, #4]
 80024fe:	f022 0210 	bic.w	r2, r2, #16
 8002502:	605a      	str	r2, [r3, #4]
  SYS_SD_SPI_CS_PER->OTYPER  |= (uint16_t)(GPIO_OType_PP << SYS_SD_SPI_CS_PIN_NO);
 8002504:	685a      	ldr	r2, [r3, #4]
 8002506:	605a      	str	r2, [r3, #4]
  SYS_SD_SPI_CS_PER->PUPDR   &= ~GPIO_PUPDR_PUPDR4;
 8002508:	68da      	ldr	r2, [r3, #12]
 800250a:	f422 7240 	bic.w	r2, r2, #768	; 0x300
 800250e:	60da      	str	r2, [r3, #12]
  SYS_SD_SPI_CS_PER->PUPDR   |= (((uint32_t)GPIO_PuPd_UP) << lPinPosition);
 8002510:	68da      	ldr	r2, [r3, #12]
 8002512:	f442 7280 	orr.w	r2, r2, #256	; 0x100
 8002516:	60da      	str	r2, [r3, #12]

  // Initially the SPI port has 4 multiplexed lines to use as CS.
  // CS1 0 1 0 1
  SYS_SPI_CS_HIGH();
 8002518:	695a      	ldr	r2, [r3, #20]
 800251a:	f042 0210 	orr.w	r2, r2, #16
 800251e:	615a      	str	r2, [r3, #20]

  // SPI configuration.
  // Reset SPI
  RCC->APB2RSTR |= RCC_APB2Periph_SPI1;
 8002520:	f44f 5360 	mov.w	r3, #14336	; 0x3800
 8002524:	f2c4 0302 	movt	r3, #16386	; 0x4002
 8002528:	6a5a      	ldr	r2, [r3, #36]	; 0x24
 800252a:	f442 5280 	orr.w	r2, r2, #4096	; 0x1000
 800252e:	625a      	str	r2, [r3, #36]	; 0x24
  RCC->APB2RSTR &= ~RCC_APB2Periph_SPI1;
 8002530:	6a5a      	ldr	r2, [r3, #36]	; 0x24
 8002532:	f422 5280 	bic.w	r2, r2, #4096	; 0x1000
 8002536:	625a      	str	r2, [r3, #36]	; 0x24

  // configuration of SPI port for common use
  SYS_SD_SPI_PORT->CR1 |=
 8002538:	f44f 5340 	mov.w	r3, #12288	; 0x3000
 800253c:	f2c4 0301 	movt	r3, #16385	; 0x4001
 8002540:	681a      	ldr	r2, [r3, #0]
      (uint16_t)((uint32_t)SPI_Direction_2Lines_FullDuplex
 8002542:	f440 7041 	orr.w	r0, r0, #772	; 0x304
  SYS_SD_SPI_PORT->CR1 |=
 8002546:	4310      	orrs	r0, r2
 8002548:	6018      	str	r0, [r3, #0]
                         | SPI_CPHA_1Edge
                         | SPI_NSS_Soft
                         | pClock
                         | SPI_FirstBit_MSB);

  SYS_SD_SPI_PORT->CR1 |= SPI_CR1_SPE;
 800254a:	681a      	ldr	r2, [r3, #0]
 800254c:	f042 0240 	orr.w	r2, r2, #64	; 0x40
 8002550:	601a      	str	r2, [r3, #0]

  if (gDevices & ARCADEIT_DEVICE_SERIAL)
 8002552:	f240 2308 	movw	r3, #520	; 0x208
 8002556:	f2c2 0300 	movt	r3, #8192	; 0x2000
 800255a:	681b      	ldr	r3, [r3, #0]
 800255c:	f413 4f80 	tst.w	r3, #16384	; 0x4000
 8002560:	d101      	bne.n	8002566 <ArcadeIT_SPI_Port_Init+0x1fe>

  } // End if.

  return TRUE;

} // End ArcadeIT_SPI_Port_Init.
 8002562:	2001      	movs	r0, #1
 8002564:	bd08      	pop	{r3, pc}
    ArcadeIT_Serial_Port_String_Send(TEXT_SPI_PORT_INITED);
 8002566:	f248 70d8 	movw	r0, #34776	; 0x87d8
 800256a:	f6c0 0000 	movt	r0, #2048	; 0x800
 800256e:	f000 f8dd 	bl	800272c <ArcadeIT_Serial_Port_String_Send>
 8002572:	e7f6      	b.n	8002562 <ArcadeIT_SPI_Port_Init+0x1fa>

08002574 <ArcadeIT_SRAM_Init>:
  char lString[ARCADEIT_STRING_LENGTH_MAX];
  uint8_t lRead = 0;
  uint8_t lMemoryBanks = 0;
  uint32_t lErrorBytes = 0, lBytes = 0;

  if (gStatus[DEV_RAM] == STA_NOINIT)
 8002574:	f240 0310 	movw	r3, #16
 8002578:	f2c2 0300 	movt	r3, #8192	; 0x2000
 800257c:	781b      	ldrb	r3, [r3, #0]
 800257e:	2b01      	cmp	r3, #1
 8002580:	d005      	beq.n	800258e <ArcadeIT_SRAM_Init+0x1a>

    } // End if.

  } // End if.

  return gStatus[DEV_RAM];
 8002582:	f240 0310 	movw	r3, #16
 8002586:	f2c2 0300 	movt	r3, #8192	; 0x2000

} // End ArcadeIT_SRAM_Init.
 800258a:	7818      	ldrb	r0, [r3, #0]
 800258c:	4770      	bx	lr
{
 800258e:	b5f0      	push	{r4, r5, r6, r7, lr}
 8002590:	f5ad 7d01 	sub.w	sp, sp, #516	; 0x204
    gStatus[DEV_RAM] &= ~STA_NOINIT;  // Clear STA_NOINIT flag
 8002594:	f240 0210 	movw	r2, #16
 8002598:	f2c2 0200 	movt	r2, #8192	; 0x2000
 800259c:	f023 0301 	bic.w	r3, r3, #1
 80025a0:	7013      	strb	r3, [r2, #0]
    for (lBanks = 0; lBanks < 4; lBanks++)
 80025a2:	2400      	movs	r4, #0
  uint8_t lMemoryBanks = 0;
 80025a4:	4625      	mov	r5, r4
    for (lBanks = 0; lBanks < 4; lBanks++)
 80025a6:	e036      	b.n	8002616 <ArcadeIT_SRAM_Init+0xa2>
        sprintf(lString, "Checking memory bank %d: ", lBanks);
 80025a8:	4622      	mov	r2, r4
 80025aa:	f248 71ec 	movw	r1, #34796	; 0x87ec
 80025ae:	f6c0 0100 	movt	r1, #2048	; 0x800
 80025b2:	4668      	mov	r0, sp
 80025b4:	f003 fd9a 	bl	80060ec <siprintf>
        ArcadeIT_Serial_Port_String_Send(lString);
 80025b8:	4668      	mov	r0, sp
 80025ba:	f000 f8b7 	bl	800272c <ArcadeIT_Serial_Port_String_Send>
 80025be:	e034      	b.n	800262a <ArcadeIT_SRAM_Init+0xb6>
        gRAMAddress[lBytes] = lBytes & 0xFF;
 80025c0:	f240 0308 	movw	r3, #8
 80025c4:	f2c2 0300 	movt	r3, #8192	; 0x2000
 80025c8:	681b      	ldr	r3, [r3, #0]
 80025ca:	5459      	strb	r1, [r3, r1]
      for (lBytes = lBanks*512*1024; lBytes < (uint32_t)((lBanks+1)*512*1024); lBytes++)
 80025cc:	3101      	adds	r1, #1
 80025ce:	1c7b      	adds	r3, r7, #1
 80025d0:	04db      	lsls	r3, r3, #19
 80025d2:	428b      	cmp	r3, r1
 80025d4:	d8f4      	bhi.n	80025c0 <ArcadeIT_SRAM_Init+0x4c>
 80025d6:	2600      	movs	r6, #0
 80025d8:	e000      	b.n	80025dc <ArcadeIT_SRAM_Init+0x68>
      for (lBytes = lBanks*512*1024; lBytes < (uint32_t)((lBanks+1)*512*1024); lBytes++)
 80025da:	3201      	adds	r2, #1
 80025dc:	4293      	cmp	r3, r2
 80025de:	d90a      	bls.n	80025f6 <ArcadeIT_SRAM_Init+0x82>
        lRead = gRAMAddress[lBytes];
 80025e0:	f240 0108 	movw	r1, #8
 80025e4:	f2c2 0100 	movt	r1, #8192	; 0x2000
 80025e8:	6809      	ldr	r1, [r1, #0]
 80025ea:	5c88      	ldrb	r0, [r1, r2]
        if (lRead != (lBytes & 0xFF))
 80025ec:	b2d1      	uxtb	r1, r2
 80025ee:	4288      	cmp	r0, r1
 80025f0:	d0f3      	beq.n	80025da <ArcadeIT_SRAM_Init+0x66>
            lErrorBytes++;
 80025f2:	3601      	adds	r6, #1
 80025f4:	e7f1      	b.n	80025da <ArcadeIT_SRAM_Init+0x66>
      if (lErrorBytes == 0)
 80025f6:	bb1e      	cbnz	r6, 8002640 <ArcadeIT_SRAM_Init+0xcc>
        lMemoryBanks |= (1<<lBanks);
 80025f8:	2301      	movs	r3, #1
 80025fa:	fa03 f707 	lsl.w	r7, r3, r7
 80025fe:	433d      	orrs	r5, r7
 8002600:	b2ed      	uxtb	r5, r5
        if (gDevices & ARCADEIT_DEVICE_SERIAL)
 8002602:	f240 2308 	movw	r3, #520	; 0x208
 8002606:	f2c2 0300 	movt	r3, #8192	; 0x2000
 800260a:	681b      	ldr	r3, [r3, #0]
 800260c:	f413 4f80 	tst.w	r3, #16384	; 0x4000
 8002610:	d10f      	bne.n	8002632 <ArcadeIT_SRAM_Init+0xbe>
    for (lBanks = 0; lBanks < 4; lBanks++)
 8002612:	3401      	adds	r4, #1
 8002614:	b2e4      	uxtb	r4, r4
 8002616:	2c03      	cmp	r4, #3
 8002618:	d821      	bhi.n	800265e <ArcadeIT_SRAM_Init+0xea>
      if (gDevices & ARCADEIT_DEVICE_SERIAL)
 800261a:	f240 2308 	movw	r3, #520	; 0x208
 800261e:	f2c2 0300 	movt	r3, #8192	; 0x2000
 8002622:	681b      	ldr	r3, [r3, #0]
 8002624:	f413 4f80 	tst.w	r3, #16384	; 0x4000
 8002628:	d1be      	bne.n	80025a8 <ArcadeIT_SRAM_Init+0x34>
      for (lBytes = lBanks*512*1024; lBytes < (uint32_t)((lBanks+1)*512*1024); lBytes++)
 800262a:	4627      	mov	r7, r4
 800262c:	04e2      	lsls	r2, r4, #19
 800262e:	4611      	mov	r1, r2
 8002630:	e7cd      	b.n	80025ce <ArcadeIT_SRAM_Init+0x5a>
          ArcadeIT_Serial_Port_String_Send("OK" CURSOR_NEWLINE);
 8002632:	f648 0008 	movw	r0, #34824	; 0x8808
 8002636:	f6c0 0000 	movt	r0, #2048	; 0x800
 800263a:	f000 f877 	bl	800272c <ArcadeIT_Serial_Port_String_Send>
 800263e:	e7e8      	b.n	8002612 <ArcadeIT_SRAM_Init+0x9e>
        if (gDevices & ARCADEIT_DEVICE_SERIAL)
 8002640:	f240 2308 	movw	r3, #520	; 0x208
 8002644:	f2c2 0300 	movt	r3, #8192	; 0x2000
 8002648:	681b      	ldr	r3, [r3, #0]
 800264a:	f413 4f80 	tst.w	r3, #16384	; 0x4000
 800264e:	d0e0      	beq.n	8002612 <ArcadeIT_SRAM_Init+0x9e>
          ArcadeIT_Serial_Port_String_Send("-" CURSOR_NEWLINE);
 8002650:	f648 0010 	movw	r0, #34832	; 0x8810
 8002654:	f6c0 0000 	movt	r0, #2048	; 0x800
 8002658:	f000 f868 	bl	800272c <ArcadeIT_Serial_Port_String_Send>
 800265c:	e7d9      	b.n	8002612 <ArcadeIT_SRAM_Init+0x9e>
    switch (lMemoryBanks)
 800265e:	2d03      	cmp	r5, #3
 8002660:	d035      	beq.n	80026ce <ArcadeIT_SRAM_Init+0x15a>
 8002662:	2d0f      	cmp	r5, #15
 8002664:	d03b      	beq.n	80026de <ArcadeIT_SRAM_Init+0x16a>
 8002666:	2d01      	cmp	r5, #1
 8002668:	d01a      	beq.n	80026a0 <ArcadeIT_SRAM_Init+0x12c>
        gRAMSize = 0;
 800266a:	f240 2320 	movw	r3, #544	; 0x220
 800266e:	f2c2 0300 	movt	r3, #8192	; 0x2000
 8002672:	2200      	movs	r2, #0
 8002674:	601a      	str	r2, [r3, #0]
        gStatus[DEV_RAM] = STA_NOINIT;
 8002676:	f240 0310 	movw	r3, #16
 800267a:	f2c2 0300 	movt	r3, #8192	; 0x2000
 800267e:	2201      	movs	r2, #1
 8002680:	701a      	strb	r2, [r3, #0]
        if (gDevices & ARCADEIT_DEVICE_SERIAL)
 8002682:	f240 2308 	movw	r3, #520	; 0x208
 8002686:	f2c2 0300 	movt	r3, #8192	; 0x2000
 800268a:	681b      	ldr	r3, [r3, #0]
 800268c:	f413 4f80 	tst.w	r3, #16384	; 0x4000
 8002690:	d00d      	beq.n	80026ae <ArcadeIT_SRAM_Init+0x13a>
          ArcadeIT_Serial_Port_String_Send("SRAM R/W Error or not present." CURSOR_NEWLINE);
 8002692:	f648 0014 	movw	r0, #34836	; 0x8814
 8002696:	f6c0 0000 	movt	r0, #2048	; 0x800
 800269a:	f000 f847 	bl	800272c <ArcadeIT_Serial_Port_String_Send>
 800269e:	e006      	b.n	80026ae <ArcadeIT_SRAM_Init+0x13a>
        gRAMSize = 1 * 512 * 1024;
 80026a0:	f240 2320 	movw	r3, #544	; 0x220
 80026a4:	f2c2 0300 	movt	r3, #8192	; 0x2000
 80026a8:	f44f 2200 	mov.w	r2, #524288	; 0x80000
 80026ac:	601a      	str	r2, [r3, #0]
    if (gDevices & ARCADEIT_DEVICE_SERIAL)
 80026ae:	f240 2308 	movw	r3, #520	; 0x208
 80026b2:	f2c2 0300 	movt	r3, #8192	; 0x2000
 80026b6:	681b      	ldr	r3, [r3, #0]
 80026b8:	f413 4f80 	tst.w	r3, #16384	; 0x4000
 80026bc:	d117      	bne.n	80026ee <ArcadeIT_SRAM_Init+0x17a>
  return gStatus[DEV_RAM];
 80026be:	f240 0310 	movw	r3, #16
 80026c2:	f2c2 0300 	movt	r3, #8192	; 0x2000
} // End ArcadeIT_SRAM_Init.
 80026c6:	7818      	ldrb	r0, [r3, #0]
 80026c8:	f50d 7d01 	add.w	sp, sp, #516	; 0x204
 80026cc:	bdf0      	pop	{r4, r5, r6, r7, pc}
        gRAMSize = 2 * 512 * 1024;
 80026ce:	f240 2320 	movw	r3, #544	; 0x220
 80026d2:	f2c2 0300 	movt	r3, #8192	; 0x2000
 80026d6:	f44f 1280 	mov.w	r2, #1048576	; 0x100000
 80026da:	601a      	str	r2, [r3, #0]
        break;
 80026dc:	e7e7      	b.n	80026ae <ArcadeIT_SRAM_Init+0x13a>
        gRAMSize = 4 * 512 * 1024;
 80026de:	f240 2320 	movw	r3, #544	; 0x220
 80026e2:	f2c2 0300 	movt	r3, #8192	; 0x2000
 80026e6:	f44f 1200 	mov.w	r2, #2097152	; 0x200000
 80026ea:	601a      	str	r2, [r3, #0]
        break;
 80026ec:	e7df      	b.n	80026ae <ArcadeIT_SRAM_Init+0x13a>
      sprintf(lString, "RAM: %luKB." CURSOR_NEWLINE, (gRAMSize/1024));
 80026ee:	f240 2320 	movw	r3, #544	; 0x220
 80026f2:	f2c2 0300 	movt	r3, #8192	; 0x2000
 80026f6:	681a      	ldr	r2, [r3, #0]
 80026f8:	0a92      	lsrs	r2, r2, #10
 80026fa:	f648 0138 	movw	r1, #34872	; 0x8838
 80026fe:	f6c0 0100 	movt	r1, #2048	; 0x800
 8002702:	4668      	mov	r0, sp
 8002704:	f003 fcf2 	bl	80060ec <siprintf>
      ArcadeIT_Serial_Port_String_Send(lString);
 8002708:	4668      	mov	r0, sp
 800270a:	f000 f80f 	bl	800272c <ArcadeIT_Serial_Port_String_Send>
 800270e:	e7d6      	b.n	80026be <ArcadeIT_SRAM_Init+0x14a>

08002710 <ArcadeIT_Serial_Port_Char_Send>:
   * RETURNS:     Nothing.
   */

  // wait until data register is empty. The status register should have the flag
  // Transmit data register empty
  while ((SYS_SERIAL_PORT->SR & SYS_SERIAL_FLAG_TXE) == RESET);
 8002710:	f44f 4388 	mov.w	r3, #17408	; 0x4400
 8002714:	f2c4 0300 	movt	r3, #16384	; 0x4000
 8002718:	681b      	ldr	r3, [r3, #0]
 800271a:	f013 0f80 	tst.w	r3, #128	; 0x80
 800271e:	d0f7      	beq.n	8002710 <ArcadeIT_Serial_Port_Char_Send>

  // send the character. We put the data into the data register so that the USART
  // start transmit it.
  SYS_SERIAL_PORT->DR = (pCharacter & (uint16_t)0x01FF);
 8002720:	f44f 4388 	mov.w	r3, #17408	; 0x4400
 8002724:	f2c4 0300 	movt	r3, #16384	; 0x4000
 8002728:	6058      	str	r0, [r3, #4]

} // End ArcadeIT_Serial_Port_Char_Send.
 800272a:	4770      	bx	lr

0800272c <ArcadeIT_Serial_Port_String_Send>:
// -----------------------------------------------------------------------------
void ArcadeIT_Serial_Port_String_Send
(
    char *pString   // The string to send character by character to the serial port.
)
{
 800272c:	b510      	push	{r4, lr}
   */

  // while not NULL transmit next character.
  char lCharacter;

  while ((lCharacter = *((char*)pString++)) != 0)
 800272e:	e002      	b.n	8002736 <ArcadeIT_Serial_Port_String_Send+0xa>
  {
    ArcadeIT_Serial_Port_Char_Send (lCharacter);
 8002730:	f7ff ffee 	bl	8002710 <ArcadeIT_Serial_Port_Char_Send>
  while ((lCharacter = *((char*)pString++)) != 0)
 8002734:	4620      	mov	r0, r4
 8002736:	1c44      	adds	r4, r0, #1
 8002738:	7800      	ldrb	r0, [r0, #0]
 800273a:	2800      	cmp	r0, #0
 800273c:	d1f8      	bne.n	8002730 <ArcadeIT_Serial_Port_String_Send+0x4>

  } // End while.

} // End ArcadeIT_Serial_Port_String_Send.
 800273e:	bd10      	pop	{r4, pc}

08002740 <ArcadeIT_Serial_Port_Init>:
// -----------------------------------------------------------------------------
void ArcadeIT_Serial_Port_Init
(
    uint32_t pBaud   // Baud rate to set the serial port to.
)
{
 8002740:	b508      	push	{r3, lr}
   */

  uint32_t lPinPosition;

  // ArcadeIT_Serial_Port_Init
  if ((RCC->AHB1ENR & RCC_AHB1Periph_GPIOA) == FALSE) RCC->AHB1ENR |= RCC_AHB1Periph_GPIOA;
 8002742:	f44f 5360 	mov.w	r3, #14336	; 0x3800
 8002746:	f2c4 0302 	movt	r3, #16386	; 0x4002
 800274a:	6b1b      	ldr	r3, [r3, #48]	; 0x30
 800274c:	f013 0f01 	tst.w	r3, #1
 8002750:	d107      	bne.n	8002762 <ArcadeIT_Serial_Port_Init+0x22>
 8002752:	f44f 5360 	mov.w	r3, #14336	; 0x3800
 8002756:	f2c4 0302 	movt	r3, #16386	; 0x4002
 800275a:	6b1a      	ldr	r2, [r3, #48]	; 0x30
 800275c:	f042 0201 	orr.w	r2, r2, #1
 8002760:	631a      	str	r2, [r3, #48]	; 0x30
  if ((RCC->APB1ENR & RCC_APB1Periph_USART2) == FALSE) RCC->APB1ENR |= RCC_APB1Periph_USART2;
 8002762:	f44f 5360 	mov.w	r3, #14336	; 0x3800
 8002766:	f2c4 0302 	movt	r3, #16386	; 0x4002
 800276a:	6c1b      	ldr	r3, [r3, #64]	; 0x40
 800276c:	f413 3f00 	tst.w	r3, #131072	; 0x20000
 8002770:	d107      	bne.n	8002782 <ArcadeIT_Serial_Port_Init+0x42>
 8002772:	f44f 5360 	mov.w	r3, #14336	; 0x3800
 8002776:	f2c4 0302 	movt	r3, #16386	; 0x4002
 800277a:	6c1a      	ldr	r2, [r3, #64]	; 0x40
 800277c:	f442 3200 	orr.w	r2, r2, #131072	; 0x20000
 8002780:	641a      	str	r2, [r3, #64]	; 0x40
  if ((RCC->AHB1ENR & RCC_AHB1Periph_DMA1) == FALSE) RCC->AHB1ENR |= RCC_AHB1Periph_DMA1;
 8002782:	f44f 5360 	mov.w	r3, #14336	; 0x3800
 8002786:	f2c4 0302 	movt	r3, #16386	; 0x4002
 800278a:	6b1b      	ldr	r3, [r3, #48]	; 0x30
 800278c:	f413 1f00 	tst.w	r3, #2097152	; 0x200000
 8002790:	d107      	bne.n	80027a2 <ArcadeIT_Serial_Port_Init+0x62>
 8002792:	f44f 5360 	mov.w	r3, #14336	; 0x3800
 8002796:	f2c4 0302 	movt	r3, #16386	; 0x4002
 800279a:	6b1a      	ldr	r2, [r3, #48]	; 0x30
 800279c:	f442 1200 	orr.w	r2, r2, #2097152	; 0x200000
 80027a0:	631a      	str	r2, [r3, #48]	; 0x30

  // Configure the pin PA2 as alternate function 7 (USART Tx).
  lPinPosition = (SYS_SERIAL_TX_PIN_NO * 2);
  SYS_SERIAL_TX_PER->MODER   &= ~GPIO_MODER_MODER2;
 80027a2:	2300      	movs	r3, #0
 80027a4:	f2c4 0302 	movt	r3, #16386	; 0x4002
 80027a8:	681a      	ldr	r2, [r3, #0]
 80027aa:	f022 0230 	bic.w	r2, r2, #48	; 0x30
 80027ae:	601a      	str	r2, [r3, #0]
  SYS_SERIAL_TX_PER->MODER   |= (((uint32_t)GPIO_Mode_AF) << lPinPosition);
 80027b0:	681a      	ldr	r2, [r3, #0]
 80027b2:	f042 0220 	orr.w	r2, r2, #32
 80027b6:	601a      	str	r2, [r3, #0]
  SYS_SERIAL_TX_PER->OSPEEDR &= ~GPIO_OSPEEDER_OSPEEDR2;
 80027b8:	689a      	ldr	r2, [r3, #8]
 80027ba:	f022 0230 	bic.w	r2, r2, #48	; 0x30
 80027be:	609a      	str	r2, [r3, #8]
  SYS_SERIAL_TX_PER->OSPEEDR |= ((uint32_t)(GPIO_Speed_50MHz) << lPinPosition);
 80027c0:	689a      	ldr	r2, [r3, #8]
 80027c2:	f042 0220 	orr.w	r2, r2, #32
 80027c6:	609a      	str	r2, [r3, #8]
  SYS_SERIAL_TX_PER->OTYPER  &= ~GPIO_OTYPER_OT_2;
 80027c8:	685a      	ldr	r2, [r3, #4]
 80027ca:	f022 0204 	bic.w	r2, r2, #4
 80027ce:	605a      	str	r2, [r3, #4]
  SYS_SERIAL_TX_PER->OTYPER  |= (uint16_t)(GPIO_OType_PP << SYS_SERIAL_TX_PIN_NO);
 80027d0:	685a      	ldr	r2, [r3, #4]
 80027d2:	605a      	str	r2, [r3, #4]
  SYS_SERIAL_TX_PER->PUPDR   &= ~GPIO_PUPDR_PUPDR2;
 80027d4:	68da      	ldr	r2, [r3, #12]
 80027d6:	f022 0230 	bic.w	r2, r2, #48	; 0x30
 80027da:	60da      	str	r2, [r3, #12]
  SYS_SERIAL_TX_PER->PUPDR   |= (((uint32_t)GPIO_PuPd_NOPULL) << lPinPosition);
 80027dc:	68da      	ldr	r2, [r3, #12]
 80027de:	60da      	str	r2, [r3, #12]
  SYS_SERIAL_TX_PER->AFR[0] &= ~((uint32_t)0xF << ((uint32_t)((uint32_t)SYS_SERIAL_TX_PIN_NO & (uint32_t)0x07) * 4));
 80027e0:	6a1a      	ldr	r2, [r3, #32]
 80027e2:	f422 6270 	bic.w	r2, r2, #3840	; 0xf00
 80027e6:	621a      	str	r2, [r3, #32]
  SYS_SERIAL_TX_PER->AFR[0] |=  ((uint32_t)(SYS_SERIAL_TX_AF) << ((uint32_t)((uint32_t)SYS_SERIAL_TX_PIN_NO & (uint32_t)0x07) * 4));
 80027e8:	6a1a      	ldr	r2, [r3, #32]
 80027ea:	f442 62e0 	orr.w	r2, r2, #1792	; 0x700
 80027ee:	621a      	str	r2, [r3, #32]

  // Configure the pin PA3 as alternate function 7 (USART Rx).
  lPinPosition = (SYS_SERIAL_RX_PIN_NO * 2);
  SYS_SERIAL_RX_PER->MODER   &= ~GPIO_MODER_MODER3;
 80027f0:	681a      	ldr	r2, [r3, #0]
 80027f2:	f022 02c0 	bic.w	r2, r2, #192	; 0xc0
 80027f6:	601a      	str	r2, [r3, #0]
  SYS_SERIAL_RX_PER->MODER   |= (((uint32_t)GPIO_Mode_AF) << lPinPosition);
 80027f8:	681a      	ldr	r2, [r3, #0]
 80027fa:	f042 0280 	orr.w	r2, r2, #128	; 0x80
 80027fe:	601a      	str	r2, [r3, #0]
  SYS_SERIAL_RX_PER->OSPEEDR &= ~GPIO_OSPEEDER_OSPEEDR3;
 8002800:	689a      	ldr	r2, [r3, #8]
 8002802:	f022 02c0 	bic.w	r2, r2, #192	; 0xc0
 8002806:	609a      	str	r2, [r3, #8]
  SYS_SERIAL_RX_PER->OSPEEDR |= ((uint32_t)(GPIO_Speed_50MHz) << lPinPosition);
 8002808:	689a      	ldr	r2, [r3, #8]
 800280a:	f042 0280 	orr.w	r2, r2, #128	; 0x80
 800280e:	609a      	str	r2, [r3, #8]
  SYS_SERIAL_RX_PER->OTYPER  &= ~GPIO_OTYPER_OT_3;
 8002810:	685a      	ldr	r2, [r3, #4]
 8002812:	f022 0208 	bic.w	r2, r2, #8
 8002816:	605a      	str	r2, [r3, #4]
  SYS_SERIAL_RX_PER->OTYPER  |= (uint16_t)(GPIO_OType_PP << SYS_SERIAL_RX_PIN_NO);
 8002818:	685a      	ldr	r2, [r3, #4]
 800281a:	605a      	str	r2, [r3, #4]
  SYS_SERIAL_RX_PER->PUPDR   &= ~GPIO_PUPDR_PUPDR3;
 800281c:	68da      	ldr	r2, [r3, #12]
 800281e:	f022 02c0 	bic.w	r2, r2, #192	; 0xc0
 8002822:	60da      	str	r2, [r3, #12]
  SYS_SERIAL_RX_PER->PUPDR   |= (((uint32_t)GPIO_PuPd_NOPULL) << lPinPosition);
 8002824:	68da      	ldr	r2, [r3, #12]
 8002826:	60da      	str	r2, [r3, #12]
  SYS_SERIAL_RX_PER->AFR[0] &= ~((uint32_t)0xF << ((uint32_t)((uint32_t)SYS_SERIAL_RX_PIN_NO & (uint32_t)0x07) * 4)) ;
 8002828:	6a1a      	ldr	r2, [r3, #32]
 800282a:	f422 4270 	bic.w	r2, r2, #61440	; 0xf000
 800282e:	621a      	str	r2, [r3, #32]
  SYS_SERIAL_RX_PER->AFR[0] |= ((uint32_t)(SYS_SERIAL_RX_AF) << ((uint32_t)((uint32_t)SYS_SERIAL_RX_PIN_NO & (uint32_t)0x07) * 4));
 8002830:	6a1a      	ldr	r2, [r3, #32]
 8002832:	f442 42e0 	orr.w	r2, r2, #28672	; 0x7000
 8002836:	621a      	str	r2, [r3, #32]
  uint32_t tmpreg = 0x00, apbclock = 0x00;
  uint32_t integerdivider = 0x00;
  uint32_t fractionaldivider = 0x00;

  // USART CR2 Configuration
  tmpreg = SYS_SERIAL_PORT->CR2;
 8002838:	f44f 4388 	mov.w	r3, #17408	; 0x4400
 800283c:	f2c4 0300 	movt	r3, #16384	; 0x4000
 8002840:	691a      	ldr	r2, [r3, #16]
 8002842:	f422 5240 	bic.w	r2, r2, #12288	; 0x3000
 8002846:	0412      	lsls	r2, r2, #16
 8002848:	0c12      	lsrs	r2, r2, #16
  // Configure the USART Stop Bits, Clock, CPOL, CPHA and LastBit :
  // Set STOP[13:12] bits according to USART_StopBits value
  tmpreg |= (uint32_t)SYS_SERIAL_StopBits_1;

  // Write to USART CR2
  SYS_SERIAL_PORT->CR2 = (uint16_t)tmpreg;
 800284a:	611a      	str	r2, [r3, #16]

  // USART CR1 Configuration
  tmpreg = SYS_SERIAL_PORT->CR1;
 800284c:	68da      	ldr	r2, [r3, #12]
  tmpreg = (uint32_t)(SYS_SERIAL_WordLength_8b
                    | SYS_SERIAL_Parity_No
                    |(SYS_SERIAL_Mode_Rx | SYS_SERIAL_Mode_Tx));

  // Write to USART CR1
  SYS_SERIAL_PORT->CR1 = (uint16_t)tmpreg;
 800284e:	220c      	movs	r2, #12
 8002850:	60da      	str	r2, [r3, #12]

  // USART CR3 Configuration
  tmpreg = SYS_SERIAL_PORT->CR3;
 8002852:	695a      	ldr	r2, [r3, #20]
 8002854:	f422 7240 	bic.w	r2, r2, #768	; 0x300
 8002858:	0412      	lsls	r2, r2, #16
 800285a:	0c12      	lsrs	r2, r2, #16
  // Configure the USART HFC :
  //   Set CTSE and RTSE bits according to USART_HardwareFlowControl value
  tmpreg |= SYS_SERIAL_HardwareFlowControl_None;

  // Write to USART CR3
  SYS_SERIAL_PORT->CR3 = (uint16_t)tmpreg;
 800285c:	615a      	str	r2, [r3, #20]

  // Configure the USART Baud Rate
  apbclock = (((HSE_VALUE / PLL_M) * PLL_N) / PLL_P) >> 2; // for the ArcadeIT! should be 45MHz

  // Determine the integer part
  if ((SYS_SERIAL_PORT->CR1 & USART_CR1_OVER8) != 0)
 800285e:	68db      	ldr	r3, [r3, #12]
 8002860:	f413 4f00 	tst.w	r3, #32768	; 0x8000
 8002864:	d03b      	beq.n	80028de <ArcadeIT_Serial_Port_Init+0x19e>
  {
    // Integer part computing in case Oversampling mode is 8 Samples
    integerdivider = ((25 * apbclock) / (2 * pBaud));
 8002866:	0040      	lsls	r0, r0, #1
 8002868:	f44f 520d 	mov.w	r2, #9024	; 0x2340
 800286c:	f2c4 320e 	movt	r2, #17166	; 0x430e
 8002870:	fbb2 f2f0 	udiv	r2, r2, r0
    integerdivider = ((25 * apbclock) / (4 * pBaud));
    // 25 * 45000000 / 4 * 115200
    // 1125000000 / 460800
    // 2441
  }
  tmpreg = (integerdivider / 100) << 4;
 8002874:	f248 531f 	movw	r3, #34079	; 0x851f
 8002878:	f2c5 13eb 	movt	r3, #20971	; 0x51eb
 800287c:	fba3 1302 	umull	r1, r3, r3, r2
 8002880:	095b      	lsrs	r3, r3, #5
 8002882:	0119      	lsls	r1, r3, #4
  // 2441 / 100 * 16
  // 24 * 16 (FOUND 24, we already shift this left of 4 bits to create room for fraction)
  // 384 (0x18 << 4 = 0x180)

  // Determine the fractional part
  fractionaldivider = integerdivider - (100 * (tmpreg >> 4));
 8002884:	2064      	movs	r0, #100	; 0x64
 8002886:	fb03 2010 	mls	r0, r3, r0, r2
  // 2441 - 38400 / 16
  // 2441 - 2400
  // 41 (FOUND 41)

  // Implement the fractional part in the register
  if ((SYS_SERIAL_PORT->CR1 & USART_CR1_OVER8) != 0)
 800288a:	f44f 4388 	mov.w	r3, #17408	; 0x4400
 800288e:	f2c4 0300 	movt	r3, #16384	; 0x4000
 8002892:	68db      	ldr	r3, [r3, #12]
 8002894:	f413 4f00 	tst.w	r3, #32768	; 0x8000
 8002898:	d129      	bne.n	80028ee <ArcadeIT_Serial_Port_Init+0x1ae>
  {
    tmpreg |= ((((fractionaldivider * 8) + 50) / 100)) & ((uint8_t)0x07);
  }
  else // if ((USARTx->CR1 & USART_CR1_OVER8) == 0)
  {
    tmpreg |= ((((fractionaldivider * 16) + 50) / 100)) & ((uint8_t)0x0F);
 800289a:	0100      	lsls	r0, r0, #4
 800289c:	3032      	adds	r0, #50	; 0x32
 800289e:	f248 531f 	movw	r3, #34079	; 0x851f
 80028a2:	f2c5 13eb 	movt	r3, #20971	; 0x51eb
 80028a6:	fba3 3000 	umull	r3, r0, r3, r0
 80028aa:	f3c0 1043 	ubfx	r0, r0, #5, #4
 80028ae:	4308      	orrs	r0, r1
 80028b0:	b280      	uxth	r0, r0
    // mmmmmmmmm   ffff
    // 0x180     |  0x7
  }

  // Write to USART BRR register
  SYS_SERIAL_PORT->BRR = (uint16_t)tmpreg;
 80028b2:	f44f 4288 	mov.w	r2, #17408	; 0x4400
 80028b6:	f2c4 0200 	movt	r2, #16384	; 0x4000
 80028ba:	6090      	str	r0, [r2, #8]

  // Enable the USART2
  SYS_SERIAL_PORT->CR1 |= USART_CR1_UE;
 80028bc:	68d3      	ldr	r3, [r2, #12]
 80028be:	f443 5300 	orr.w	r3, r3, #8192	; 0x2000
 80028c2:	60d3      	str	r3, [r2, #12]

  ArcadeIT_Serial_Port_String_Send(RESET_DEVICE);
 80028c4:	f648 0048 	movw	r0, #34888	; 0x8848
 80028c8:	f6c0 0000 	movt	r0, #2048	; 0x800
 80028cc:	f7ff ff2e 	bl	800272c <ArcadeIT_Serial_Port_String_Send>

  ArcadeIT_Serial_Port_String_Send(TEXT_SERIAL_PORT_INITED);
 80028d0:	f648 004c 	movw	r0, #34892	; 0x884c
 80028d4:	f6c0 0000 	movt	r0, #2048	; 0x800
 80028d8:	f7ff ff28 	bl	800272c <ArcadeIT_Serial_Port_String_Send>

} // End ArcadeIT_Serial_Port_Init.
 80028dc:	bd08      	pop	{r3, pc}
    integerdivider = ((25 * apbclock) / (4 * pBaud));
 80028de:	0080      	lsls	r0, r0, #2
 80028e0:	f44f 520d 	mov.w	r2, #9024	; 0x2340
 80028e4:	f2c4 320e 	movt	r2, #17166	; 0x430e
 80028e8:	fbb2 f2f0 	udiv	r2, r2, r0
 80028ec:	e7c2      	b.n	8002874 <ArcadeIT_Serial_Port_Init+0x134>
    tmpreg |= ((((fractionaldivider * 8) + 50) / 100)) & ((uint8_t)0x07);
 80028ee:	00c3      	lsls	r3, r0, #3
 80028f0:	3332      	adds	r3, #50	; 0x32
 80028f2:	f248 501f 	movw	r0, #34079	; 0x851f
 80028f6:	f2c5 10eb 	movt	r0, #20971	; 0x51eb
 80028fa:	fba0 2303 	umull	r2, r3, r0, r3
 80028fe:	f3c3 1342 	ubfx	r3, r3, #5, #3
 8002902:	ea43 0001 	orr.w	r0, r3, r1
 8002906:	e7d3      	b.n	80028b0 <ArcadeIT_Serial_Port_Init+0x170>

08002908 <ArcadeIT_Status_LEDS_Init>:

// //////////////////////////////////////////////////////////////////////////////
// Functions.
// //////////////////////////////////////////////////////////////////////////////
void ArcadeIT_Status_LEDS_Init(void)
{
 8002908:	b508      	push	{r3, lr}
 */

  uint32_t lPinPosition = 0;

  // Turn on the MCU peripheral by enabling its Clock.
  if ((RCC->AHB1ENR & RCC_AHB1Periph_GPIOH) == FALSE) RCC->AHB1ENR |= RCC_AHB1Periph_GPIOH;
 800290a:	f44f 5360 	mov.w	r3, #14336	; 0x3800
 800290e:	f2c4 0302 	movt	r3, #16386	; 0x4002
 8002912:	6b1b      	ldr	r3, [r3, #48]	; 0x30
 8002914:	f013 0f80 	tst.w	r3, #128	; 0x80
 8002918:	d107      	bne.n	800292a <ArcadeIT_Status_LEDS_Init+0x22>
 800291a:	f44f 5360 	mov.w	r3, #14336	; 0x3800
 800291e:	f2c4 0302 	movt	r3, #16386	; 0x4002
 8002922:	6b1a      	ldr	r2, [r3, #48]	; 0x30
 8002924:	f042 0280 	orr.w	r2, r2, #128	; 0x80
 8002928:	631a      	str	r2, [r3, #48]	; 0x30
  // level as default.
  // -----------------------
  lPinPosition = (SYS_STATUS_LED1_PIN_NO * 2); // the position is a multiple of 2

  // GPIO pin(PH2) in output
  SYS_STATUS_LED1_PER->MODER   &= ~GPIO_MODER_MODER2;
 800292a:	f44f 53e0 	mov.w	r3, #7168	; 0x1c00
 800292e:	f2c4 0302 	movt	r3, #16386	; 0x4002
 8002932:	681a      	ldr	r2, [r3, #0]
 8002934:	f022 0230 	bic.w	r2, r2, #48	; 0x30
 8002938:	601a      	str	r2, [r3, #0]
  SYS_STATUS_LED1_PER->MODER   |= (((uint32_t)GPIO_Mode_OUT) << lPinPosition);
 800293a:	681a      	ldr	r2, [r3, #0]
 800293c:	f042 0210 	orr.w	r2, r2, #16
 8002940:	601a      	str	r2, [r3, #0]
  SYS_STATUS_LED1_PER->OSPEEDR &= ~GPIO_OSPEEDER_OSPEEDR2;
 8002942:	689a      	ldr	r2, [r3, #8]
 8002944:	f022 0230 	bic.w	r2, r2, #48	; 0x30
 8002948:	609a      	str	r2, [r3, #8]
  SYS_STATUS_LED1_PER->OSPEEDR |= ((uint32_t)(GPIO_Speed_100MHz) << lPinPosition);
 800294a:	689a      	ldr	r2, [r3, #8]
 800294c:	f042 0230 	orr.w	r2, r2, #48	; 0x30
 8002950:	609a      	str	r2, [r3, #8]
  SYS_STATUS_LED1_PER->OTYPER  &= ~GPIO_OTYPER_OT_2;
 8002952:	685a      	ldr	r2, [r3, #4]
 8002954:	f022 0204 	bic.w	r2, r2, #4
 8002958:	605a      	str	r2, [r3, #4]
  SYS_STATUS_LED1_PER->OTYPER  |= (uint16_t)(GPIO_OType_PP << SYS_STATUS_LED1_PIN_NO);
 800295a:	685a      	ldr	r2, [r3, #4]
 800295c:	605a      	str	r2, [r3, #4]
  SYS_STATUS_LED1_PER->PUPDR   &= ~GPIO_PUPDR_PUPDR2;
 800295e:	68da      	ldr	r2, [r3, #12]
 8002960:	f022 0230 	bic.w	r2, r2, #48	; 0x30
 8002964:	60da      	str	r2, [r3, #12]
  SYS_STATUS_LED1_PER->PUPDR   |= (((uint32_t)GPIO_PuPd_DOWN) << lPinPosition);
 8002966:	68da      	ldr	r2, [r3, #12]
 8002968:	f042 0220 	orr.w	r2, r2, #32
 800296c:	60da      	str	r2, [r3, #12]

  // -----------------------
  lPinPosition = (SYS_STATUS_LED2_PIN_NO * 2); // the position is a multiple of 2

  // GPIO pin(PH3) in output
  SYS_STATUS_LED2_PER->MODER   &= ~GPIO_MODER_MODER3;
 800296e:	681a      	ldr	r2, [r3, #0]
 8002970:	f022 02c0 	bic.w	r2, r2, #192	; 0xc0
 8002974:	601a      	str	r2, [r3, #0]
  SYS_STATUS_LED2_PER->MODER   |= (((uint32_t)GPIO_Mode_OUT) << lPinPosition);
 8002976:	681a      	ldr	r2, [r3, #0]
 8002978:	f042 0240 	orr.w	r2, r2, #64	; 0x40
 800297c:	601a      	str	r2, [r3, #0]
  SYS_STATUS_LED2_PER->OSPEEDR &= ~GPIO_OSPEEDER_OSPEEDR3;
 800297e:	689a      	ldr	r2, [r3, #8]
 8002980:	f022 02c0 	bic.w	r2, r2, #192	; 0xc0
 8002984:	609a      	str	r2, [r3, #8]
  SYS_STATUS_LED2_PER->OSPEEDR |= ((uint32_t)(GPIO_Speed_100MHz) << lPinPosition);
 8002986:	689a      	ldr	r2, [r3, #8]
 8002988:	f042 02c0 	orr.w	r2, r2, #192	; 0xc0
 800298c:	609a      	str	r2, [r3, #8]
  SYS_STATUS_LED2_PER->OTYPER  &= ~GPIO_OTYPER_OT_3;
 800298e:	685a      	ldr	r2, [r3, #4]
 8002990:	f022 0208 	bic.w	r2, r2, #8
 8002994:	605a      	str	r2, [r3, #4]
  SYS_STATUS_LED2_PER->OTYPER  |= (uint16_t)(GPIO_OType_PP << SYS_STATUS_LED2_PIN_NO);
 8002996:	685a      	ldr	r2, [r3, #4]
 8002998:	605a      	str	r2, [r3, #4]
  SYS_STATUS_LED2_PER->PUPDR   &= ~GPIO_PUPDR_PUPDR3;
 800299a:	68da      	ldr	r2, [r3, #12]
 800299c:	f022 02c0 	bic.w	r2, r2, #192	; 0xc0
 80029a0:	60da      	str	r2, [r3, #12]
  SYS_STATUS_LED2_PER->PUPDR   |= (((uint32_t)GPIO_PuPd_DOWN) << lPinPosition);
 80029a2:	68da      	ldr	r2, [r3, #12]
 80029a4:	f042 0280 	orr.w	r2, r2, #128	; 0x80
 80029a8:	60da      	str	r2, [r3, #12]

  // -----------------------
  // Put LEDs line LOW.
  SYS_STATUS_LED1_PER->ODR &= ~(SYS_STATUS_LED1_PIN);
 80029aa:	695a      	ldr	r2, [r3, #20]
 80029ac:	f022 0204 	bic.w	r2, r2, #4
 80029b0:	615a      	str	r2, [r3, #20]
  SYS_STATUS_LED2_PER->ODR &= ~(SYS_STATUS_LED2_PIN);
 80029b2:	695a      	ldr	r2, [r3, #20]
 80029b4:	f022 0208 	bic.w	r2, r2, #8
 80029b8:	615a      	str	r2, [r3, #20]

  // Shows a message to serial port as debug
  if (gDevices & ARCADEIT_DEVICE_SERIAL)
 80029ba:	f240 2308 	movw	r3, #520	; 0x208
 80029be:	f2c2 0300 	movt	r3, #8192	; 0x2000
 80029c2:	681b      	ldr	r3, [r3, #0]
 80029c4:	f413 4f80 	tst.w	r3, #16384	; 0x4000
 80029c8:	d100      	bne.n	80029cc <ArcadeIT_Status_LEDS_Init+0xc4>
  {
    ArcadeIT_Serial_Port_String_Send(TEXT_STATUS_LEDS_INITED);

  } // End if.

} // End ArcadeIT_Status_LEDS_Init.
 80029ca:	bd08      	pop	{r3, pc}
    ArcadeIT_Serial_Port_String_Send(TEXT_STATUS_LEDS_INITED);
 80029cc:	f648 0064 	movw	r0, #34916	; 0x8864
 80029d0:	f6c0 0000 	movt	r0, #2048	; 0x800
 80029d4:	f7ff feaa 	bl	800272c <ArcadeIT_Serial_Port_String_Send>
} // End ArcadeIT_Status_LEDS_Init.
 80029d8:	e7f7      	b.n	80029ca <ArcadeIT_Status_LEDS_Init+0xc2>

080029da <ArcadeIT_Status_LED1_Toggle>:
  * PARAMETERS:  None.
  * RETURNS:     Nothing.
  */

  // Set LEDs line LOW or HIGH depending the current status of the LED.
  if (GPIOH->ODR & SYS_STATUS_LED1_PIN)
 80029da:	f44f 53e0 	mov.w	r3, #7168	; 0x1c00
 80029de:	f2c4 0302 	movt	r3, #16386	; 0x4002
 80029e2:	695b      	ldr	r3, [r3, #20]
 80029e4:	f013 0f04 	tst.w	r3, #4
 80029e8:	d108      	bne.n	80029fc <ArcadeIT_Status_LED1_Toggle+0x22>
  {
    GPIOH->ODR &= ~(SYS_STATUS_LED1_PIN);
  }
  else
  {
    GPIOH->ODR |= SYS_STATUS_LED1_PIN;
 80029ea:	f44f 53e0 	mov.w	r3, #7168	; 0x1c00
 80029ee:	f2c4 0302 	movt	r3, #16386	; 0x4002
 80029f2:	695a      	ldr	r2, [r3, #20]
 80029f4:	f042 0204 	orr.w	r2, r2, #4
 80029f8:	615a      	str	r2, [r3, #20]

  } // End if.

} // End ArcadeIT_Status_LED1_Toggle.
 80029fa:	4770      	bx	lr
    GPIOH->ODR &= ~(SYS_STATUS_LED1_PIN);
 80029fc:	f44f 53e0 	mov.w	r3, #7168	; 0x1c00
 8002a00:	f2c4 0302 	movt	r3, #16386	; 0x4002
 8002a04:	695a      	ldr	r2, [r3, #20]
 8002a06:	f022 0204 	bic.w	r2, r2, #4
 8002a0a:	615a      	str	r2, [r3, #20]
 8002a0c:	4770      	bx	lr

08002a0e <ArcadeIT_Status_LED2_Toggle>:
  * PARAMETERS:  None.
  * RETURNS:     Nothing.
  */

  // Set LEDs line LOW or HIGH depending the current status of the LED.
  if (SYS_STATUS_LED2_PER->ODR & SYS_STATUS_LED2_PIN)
 8002a0e:	f44f 53e0 	mov.w	r3, #7168	; 0x1c00
 8002a12:	f2c4 0302 	movt	r3, #16386	; 0x4002
 8002a16:	695b      	ldr	r3, [r3, #20]
 8002a18:	f013 0f08 	tst.w	r3, #8
 8002a1c:	d108      	bne.n	8002a30 <ArcadeIT_Status_LED2_Toggle+0x22>
  {
    SYS_STATUS_LED2_PER->ODR &= ~(SYS_STATUS_LED2_PIN);
  }
  else
  {
    SYS_STATUS_LED2_PER->ODR |= SYS_STATUS_LED2_PIN;
 8002a1e:	f44f 53e0 	mov.w	r3, #7168	; 0x1c00
 8002a22:	f2c4 0302 	movt	r3, #16386	; 0x4002
 8002a26:	695a      	ldr	r2, [r3, #20]
 8002a28:	f042 0208 	orr.w	r2, r2, #8
 8002a2c:	615a      	str	r2, [r3, #20]

  } // End if.

} // End ArcadeIT_Status_LED2_Toggle.
 8002a2e:	4770      	bx	lr
    SYS_STATUS_LED2_PER->ODR &= ~(SYS_STATUS_LED2_PIN);
 8002a30:	f44f 53e0 	mov.w	r3, #7168	; 0x1c00
 8002a34:	f2c4 0302 	movt	r3, #16386	; 0x4002
 8002a38:	695a      	ldr	r2, [r3, #20]
 8002a3a:	f022 0208 	bic.w	r2, r2, #8
 8002a3e:	615a      	str	r2, [r3, #20]
 8002a40:	4770      	bx	lr

08002a42 <ArcadeIT_TestPad_Set>:
  *  RCC_MCO2Div_4
  *  RCC_MCO2Div_5
  *
  */

  uint32_t lTmpReg = RCC->CFGR;
 8002a42:	f44f 5360 	mov.w	r3, #14336	; 0x3800
 8002a46:	f2c4 0302 	movt	r3, #16386	; 0x4002
 8002a4a:	689a      	ldr	r2, [r3, #8]
  lTmpReg  &= CFGR_MCO2_RESET_MASK;                 // Clear MCO2 and MCO2PRE[2:0] bits
 8002a4c:	f022 4278 	bic.w	r2, r2, #4160749568	; 0xf8000000
  lTmpReg  |= pFrequencySystem | pFrequencyDivider; // Select MCO2 clock source and prescaler
 8002a50:	4301      	orrs	r1, r0
 8002a52:	4311      	orrs	r1, r2
  RCC->CFGR = lTmpReg;
 8002a54:	6099      	str	r1, [r3, #8]

} // End ArcadeIT_TestPad_Set.
 8002a56:	4770      	bx	lr

08002a58 <ArcadeIT_TestPad_Init>:
void ArcadeIT_TestPad_Init
(
    uint32_t pFrequencySystem,  // What frequency source to test.
    uint32_t pFrequencyDivider  // What divider to test.
)
{
 8002a58:	b508      	push	{r3, lr}
  * RETURNS:     Nothing.
  */

  uint32_t lPinPosition;

  if ((RCC->AHB1ENR & RCC_AHB1Periph_GPIOC) == FALSE) RCC->AHB1ENR |= RCC_AHB1Periph_GPIOC;
 8002a5a:	f44f 5360 	mov.w	r3, #14336	; 0x3800
 8002a5e:	f2c4 0302 	movt	r3, #16386	; 0x4002
 8002a62:	6b1b      	ldr	r3, [r3, #48]	; 0x30
 8002a64:	f013 0f04 	tst.w	r3, #4
 8002a68:	d107      	bne.n	8002a7a <ArcadeIT_TestPad_Init+0x22>
 8002a6a:	f44f 5360 	mov.w	r3, #14336	; 0x3800
 8002a6e:	f2c4 0302 	movt	r3, #16386	; 0x4002
 8002a72:	6b1a      	ldr	r2, [r3, #48]	; 0x30
 8002a74:	f042 0204 	orr.w	r2, r2, #4
 8002a78:	631a      	str	r2, [r3, #48]	; 0x30

  // Configure pin PC9 in alternate function 0 (MCO2)
  lPinPosition = (SYS_TESTPADS_PIN_NO * 2);

  SYS_TESTPADS_PER->MODER   &= ~GPIO_MODER_MODER9;
 8002a7a:	f44f 6300 	mov.w	r3, #2048	; 0x800
 8002a7e:	f2c4 0302 	movt	r3, #16386	; 0x4002
 8002a82:	681a      	ldr	r2, [r3, #0]
 8002a84:	f422 2240 	bic.w	r2, r2, #786432	; 0xc0000
 8002a88:	601a      	str	r2, [r3, #0]
  SYS_TESTPADS_PER->MODER   |= (((uint32_t)GPIO_Mode_AF) << lPinPosition);
 8002a8a:	681a      	ldr	r2, [r3, #0]
 8002a8c:	f442 2200 	orr.w	r2, r2, #524288	; 0x80000
 8002a90:	601a      	str	r2, [r3, #0]

  // Maximum frequency allowed is 100MHz, so keep it in mind when you want
  // to test 180MHz, you have to set the divider at least 2
  SYS_TESTPADS_PER->OSPEEDR &= ~GPIO_OSPEEDER_OSPEEDR9;
 8002a92:	689a      	ldr	r2, [r3, #8]
 8002a94:	f422 2240 	bic.w	r2, r2, #786432	; 0xc0000
 8002a98:	609a      	str	r2, [r3, #8]
  SYS_TESTPADS_PER->OSPEEDR |= ((uint32_t)(GPIO_Speed_100MHz) << lPinPosition);
 8002a9a:	689a      	ldr	r2, [r3, #8]
 8002a9c:	f442 2240 	orr.w	r2, r2, #786432	; 0xc0000
 8002aa0:	609a      	str	r2, [r3, #8]
  SYS_TESTPADS_PER->OTYPER  &= ~GPIO_OTYPER_OT_9;
 8002aa2:	685a      	ldr	r2, [r3, #4]
 8002aa4:	f422 7200 	bic.w	r2, r2, #512	; 0x200
 8002aa8:	605a      	str	r2, [r3, #4]
  SYS_TESTPADS_PER->OTYPER  |= (uint16_t)(GPIO_OType_PP << SYS_TESTPADS_PIN_NO);
 8002aaa:	685a      	ldr	r2, [r3, #4]
 8002aac:	605a      	str	r2, [r3, #4]
  SYS_TESTPADS_PER->PUPDR   &= ~GPIO_PUPDR_PUPDR9;
 8002aae:	68da      	ldr	r2, [r3, #12]
 8002ab0:	f422 2240 	bic.w	r2, r2, #786432	; 0xc0000
 8002ab4:	60da      	str	r2, [r3, #12]
  SYS_TESTPADS_PER->PUPDR   |= (((uint32_t)GPIO_PuPd_UP) << lPinPosition);
 8002ab6:	68da      	ldr	r2, [r3, #12]
 8002ab8:	f442 2280 	orr.w	r2, r2, #262144	; 0x40000
 8002abc:	60da      	str	r2, [r3, #12]
  SYS_TESTPADS_PER->AFR[1] &= ~((uint32_t)0xF << ((uint32_t)((uint32_t)SYS_TESTPADS_PIN_NO & (uint32_t)0x07) * 4));
 8002abe:	6a5a      	ldr	r2, [r3, #36]	; 0x24
 8002ac0:	f022 02f0 	bic.w	r2, r2, #240	; 0xf0
 8002ac4:	625a      	str	r2, [r3, #36]	; 0x24
  SYS_TESTPADS_PER->AFR[1] |=  ((uint32_t)(SYS_TESTPADS_AF) << ((uint32_t)((uint32_t)SYS_TESTPADS_PIN_NO & (uint32_t)0x07) * 4));
 8002ac6:	6a5a      	ldr	r2, [r3, #36]	; 0x24
 8002ac8:	625a      	str	r2, [r3, #36]	; 0x24

  ArcadeIT_TestPad_Set(pFrequencySystem, pFrequencyDivider);
 8002aca:	f7ff ffba 	bl	8002a42 <ArcadeIT_TestPad_Set>

  // Shows a message to serial port as debug
  if (gDevices & ARCADEIT_DEVICE_SERIAL)
 8002ace:	f240 2308 	movw	r3, #520	; 0x208
 8002ad2:	f2c2 0300 	movt	r3, #8192	; 0x2000
 8002ad6:	681b      	ldr	r3, [r3, #0]
 8002ad8:	f413 4f80 	tst.w	r3, #16384	; 0x4000
 8002adc:	d100      	bne.n	8002ae0 <ArcadeIT_TestPad_Init+0x88>
    // Starts and configure the serial port.
    ArcadeIT_Serial_Port_String_Send(TEXT_TEST_PADS_INITED);

  } // End if.

} // End ArcadeIT_TestPads_Init.
 8002ade:	bd08      	pop	{r3, pc}
    ArcadeIT_Serial_Port_String_Send(TEXT_TEST_PADS_INITED);
 8002ae0:	f648 007c 	movw	r0, #34940	; 0x887c
 8002ae4:	f6c0 0000 	movt	r0, #2048	; 0x800
 8002ae8:	f7ff fe20 	bl	800272c <ArcadeIT_Serial_Port_String_Send>
} // End ArcadeIT_TestPads_Init.
 8002aec:	e7f7      	b.n	8002ade <ArcadeIT_TestPad_Init+0x86>

08002aee <DMA2_Stream1_IRQHandler>:
} // End ArcadeIT_VGA_Wait_VBlank.

// /////////////////////////////////////////////////////////////////////////////
void
DMA2_Stream1_IRQHandler (void)
{
 8002aee:	b4f0      	push	{r4, r5, r6, r7}
   DESCRIPTION:  Interrupt service routine for the scanline renderer.
   PARMS:        See above.
   RETURNS:      Nothing.
   */

  DMA2_LIFCR = (uint32_t) (DMA_IT_TCIF1 & (uint32_t) 0x0F7D0F7D);
 8002af0:	f246 4308 	movw	r3, #25608	; 0x6408
 8002af4:	f2c4 0302 	movt	r3, #16386	; 0x4002
 8002af8:	f44f 6200 	mov.w	r2, #2048	; 0x800
 8002afc:	601a      	str	r2, [r3, #0]
   *  _______________________________________|__     _____
   *                                         |  \___/
   *  0                                      |
   */

  if (gVGAHWScanline == VGA_LINE_VSYNC_ON)
 8002afe:	f240 2334 	movw	r3, #564	; 0x234
 8002b02:	f2c2 0300 	movt	r3, #8192	; 0x2000
 8002b06:	881b      	ldrh	r3, [r3, #0]
 8002b08:	b21b      	sxth	r3, r3
 8002b0a:	f5b3 7ff5 	cmp.w	r3, #490	; 0x1ea
 8002b0e:	f000 80aa 	beq.w	8002c66 <DMA2_Stream1_IRQHandler+0x178>
    {
      GPIOA->ODR &= ~VGA_VSYNC_PIN;
    }
  else if (gVGAHWScanline == VGA_LINE_VSYNC_OFF)
 8002b12:	f240 2334 	movw	r3, #564	; 0x234
 8002b16:	f2c2 0300 	movt	r3, #8192	; 0x2000
 8002b1a:	881b      	ldrh	r3, [r3, #0]
 8002b1c:	b21b      	sxth	r3, r3
 8002b1e:	f5b3 7ff6 	cmp.w	r3, #492	; 0x1ec
 8002b22:	f000 80b9 	beq.w	8002c98 <DMA2_Stream1_IRQHandler+0x1aa>
    {
      GPIOA->ODR |= VGA_VSYNC_PIN;
    }
  else if (gVGAHWScanline < VGA_LINE_ACTIVE_OFF)
 8002b26:	f240 2334 	movw	r3, #564	; 0x234
 8002b2a:	f2c2 0300 	movt	r3, #8192	; 0x2000
 8002b2e:	881b      	ldrh	r3, [r3, #0]
 8002b30:	b21b      	sxth	r3, r3
 8002b32:	f5b3 7ff0 	cmp.w	r3, #480	; 0x1e0
 8002b36:	f280 820a 	bge.w	8002f4e <DMA2_Stream1_IRQHandler+0x460>
    {
      if ((gVGAHWScanline == VGA_LINE_ACTIVE_ON) || (gVGAHWScanline == VGA_LINE_ACTIVE_ON + 1))
 8002b3a:	f240 2334 	movw	r3, #564	; 0x234
 8002b3e:	f2c2 0300 	movt	r3, #8192	; 0x2000
 8002b42:	881b      	ldrh	r3, [r3, #0]
 8002b44:	b21b      	sxth	r3, r3
 8002b46:	b13b      	cbz	r3, 8002b58 <DMA2_Stream1_IRQHandler+0x6a>
 8002b48:	f240 2334 	movw	r3, #564	; 0x234
 8002b4c:	f2c2 0300 	movt	r3, #8192	; 0x2000
 8002b50:	881b      	ldrh	r3, [r3, #0]
 8002b52:	b21b      	sxth	r3, r3
 8002b54:	2b01      	cmp	r3, #1
 8002b56:	d112      	bne.n	8002b7e <DMA2_Stream1_IRQHandler+0x90>
        {
          if (DMA2_Stream1_CR & ((uint32_t) (DMA_SxCR_CT)))
 8002b58:	f246 4328 	movw	r3, #25640	; 0x6428
 8002b5c:	f2c4 0302 	movt	r3, #16386	; 0x4002
 8002b60:	681b      	ldr	r3, [r3, #0]
 8002b62:	f413 2f00 	tst.w	r3, #524288	; 0x80000
 8002b66:	f000 809f 	beq.w	8002ca8 <DMA2_Stream1_IRQHandler+0x1ba>
            *DMA2_Stream1_M0AR = (uint32_t) gVGALineBufferShow;
 8002b6a:	f240 2348 	movw	r3, #584	; 0x248
 8002b6e:	f2c2 0300 	movt	r3, #8192	; 0x2000
 8002b72:	681a      	ldr	r2, [r3, #0]
 8002b74:	f246 4334 	movw	r3, #25652	; 0x6434
 8002b78:	f2c4 0302 	movt	r3, #16386	; 0x4002
 8002b7c:	601a      	str	r2, [r3, #0]
      // other wise set the render buffer equal to the play buffer.
      // Check the buffer that is currently being read
      // set the buffer not played to the buffer to render into
      // render the line by converting the pixels from the frame buffer
      // At that Point the line is ready for the next cycle of the renderer
      if (gVGASubScanline == (1 << gVideoDriver.resolution->factor))
 8002b7e:	f240 2358 	movw	r3, #600	; 0x258
 8002b82:	f2c2 0300 	movt	r3, #8192	; 0x2000
 8002b86:	881a      	ldrh	r2, [r3, #0]
 8002b88:	b212      	sxth	r2, r2
 8002b8a:	f240 43b0 	movw	r3, #1200	; 0x4b0
 8002b8e:	f2c2 0300 	movt	r3, #8192	; 0x2000
 8002b92:	685b      	ldr	r3, [r3, #4]
 8002b94:	7819      	ldrb	r1, [r3, #0]
 8002b96:	2301      	movs	r3, #1
 8002b98:	408b      	lsls	r3, r1
 8002b9a:	429a      	cmp	r2, r3
 8002b9c:	f000 808f 	beq.w	8002cbe <DMA2_Stream1_IRQHandler+0x1d0>
          gLineRender = TRUE;
          gVGASubScanline = 0;

        } // End if

      uint8_t *lTmpPtr = gVGAHWScanlineFrameBuffer;
 8002ba0:	f240 2338 	movw	r3, #568	; 0x238
 8002ba4:	f2c2 0300 	movt	r3, #8192	; 0x2000
 8002ba8:	681a      	ldr	r2, [r3, #0]
      uint8_t *lTmpPtr2 = gVGAHWScanlineFrameBuffer;
      uint8_t *lTmpPtr3 = gVGAHWScanlineFrameBuffer;
      uint16_t lColorTmp1, lColorTmp2;

      if (gLineRender)
 8002baa:	f240 030e 	movw	r3, #14
 8002bae:	f2c2 0300 	movt	r3, #8192	; 0x2000
 8002bb2:	781b      	ldrb	r3, [r3, #0]
 8002bb4:	2b00      	cmp	r3, #0
 8002bb6:	d05d      	beq.n	8002c74 <DMA2_Stream1_IRQHandler+0x186>
        {
          if (DMA2_Stream1_CR & ((uint32_t) (DMA_SxCR_CT)))
 8002bb8:	f246 4328 	movw	r3, #25640	; 0x6428
 8002bbc:	f2c4 0302 	movt	r3, #16386	; 0x4002
 8002bc0:	681b      	ldr	r3, [r3, #0]
 8002bc2:	f413 2f00 	tst.w	r3, #524288	; 0x80000
 8002bc6:	f000 8087 	beq.w	8002cd8 <DMA2_Stream1_IRQHandler+0x1ea>
            {
              gVGALineBufferRender = *DMA2_Stream1_M0AR;
 8002bca:	f246 4334 	movw	r3, #25652	; 0x6434
 8002bce:	f2c4 0302 	movt	r3, #16386	; 0x4002
 8002bd2:	6819      	ldr	r1, [r3, #0]
 8002bd4:	f240 2340 	movw	r3, #576	; 0x240
 8002bd8:	f2c2 0300 	movt	r3, #8192	; 0x2000
 8002bdc:	6019      	str	r1, [r3, #0]
              gVGALineBufferShow = *DMA2_Stream1_M1AR;   //DMA2_Stream1_M1AR, being played
 8002bde:	f246 4338 	movw	r3, #25656	; 0x6438
 8002be2:	f2c4 0302 	movt	r3, #16386	; 0x4002
 8002be6:	6819      	ldr	r1, [r3, #0]
 8002be8:	f240 2348 	movw	r3, #584	; 0x248
 8002bec:	f2c2 0300 	movt	r3, #8192	; 0x2000
 8002bf0:	6019      	str	r1, [r3, #0]
            {
              gVGALineBufferRender = *DMA2_Stream1_M1AR;
              gVGALineBufferShow = *DMA2_Stream1_M0AR;   //DMA2_Stream1_M1AR, being played
            }

          if ((gVGAHWScanline < (gVideoDriver.padding_v << gVideoDriver.resolution->factor)) || (gVGAHWScanline >= ((gVideoDriver.padding_v + gVideoDriver.height) << gVideoDriver.resolution->factor)))
 8002bf2:	f240 2334 	movw	r3, #564	; 0x234
 8002bf6:	f2c2 0300 	movt	r3, #8192	; 0x2000
 8002bfa:	8818      	ldrh	r0, [r3, #0]
 8002bfc:	b200      	sxth	r0, r0
 8002bfe:	f240 41b0 	movw	r1, #1200	; 0x4b0
 8002c02:	f2c2 0100 	movt	r1, #8192	; 0x2000
 8002c06:	7c4b      	ldrb	r3, [r1, #17]
 8002c08:	b2db      	uxtb	r3, r3
 8002c0a:	6849      	ldr	r1, [r1, #4]
 8002c0c:	7809      	ldrb	r1, [r1, #0]
 8002c0e:	408b      	lsls	r3, r1
 8002c10:	4298      	cmp	r0, r3
 8002c12:	db12      	blt.n	8002c3a <DMA2_Stream1_IRQHandler+0x14c>
 8002c14:	f240 2334 	movw	r3, #564	; 0x234
 8002c18:	f2c2 0300 	movt	r3, #8192	; 0x2000
 8002c1c:	8818      	ldrh	r0, [r3, #0]
 8002c1e:	b200      	sxth	r0, r0
 8002c20:	f240 41b0 	movw	r1, #1200	; 0x4b0
 8002c24:	f2c2 0100 	movt	r1, #8192	; 0x2000
 8002c28:	7c4b      	ldrb	r3, [r1, #17]
 8002c2a:	89cc      	ldrh	r4, [r1, #14]
 8002c2c:	4423      	add	r3, r4
 8002c2e:	6849      	ldr	r1, [r1, #4]
 8002c30:	7809      	ldrb	r1, [r1, #0]
 8002c32:	408b      	lsls	r3, r1
 8002c34:	4298      	cmp	r0, r3
 8002c36:	f2c0 8082 	blt.w	8002d3e <DMA2_Stream1_IRQHandler+0x250>
            {
              gScanlinePixel = gVideoDriver.resolution->pixel_clock_definition.active;
 8002c3a:	f240 43b0 	movw	r3, #1200	; 0x4b0
 8002c3e:	f2c2 0300 	movt	r3, #8192	; 0x2000
 8002c42:	685b      	ldr	r3, [r3, #4]
 8002c44:	8cda      	ldrh	r2, [r3, #38]	; 0x26
 8002c46:	f240 2324 	movw	r3, #548	; 0x224
 8002c4a:	f2c2 0300 	movt	r3, #8192	; 0x2000
 8002c4e:	601a      	str	r2, [r3, #0]
              gVGALineBufferRenderTmp = gVGALineBufferRender;
 8002c50:	f240 2344 	movw	r3, #580	; 0x244
 8002c54:	f2c2 0300 	movt	r3, #8192	; 0x2000
 8002c58:	f240 2240 	movw	r2, #576	; 0x240
 8002c5c:	f2c2 0200 	movt	r2, #8192	; 0x2000
 8002c60:	6812      	ldr	r2, [r2, #0]
 8002c62:	601a      	str	r2, [r3, #0]
              while (gScanlinePixel--)
 8002c64:	e05b      	b.n	8002d1e <DMA2_Stream1_IRQHandler+0x230>
      GPIOA->ODR &= ~VGA_VSYNC_PIN;
 8002c66:	2300      	movs	r3, #0
 8002c68:	f2c4 0302 	movt	r3, #16386	; 0x4002
 8002c6c:	695a      	ldr	r2, [r3, #20]
 8002c6e:	f022 0202 	bic.w	r2, r2, #2
 8002c72:	615a      	str	r2, [r3, #20]
      gVideoDriver.v_blank = FALSE;
      gBorderColor = gVGAPaletteShow->colors[0];

    } // End if chain.

  gVGAHWScanline++;
 8002c74:	f240 2234 	movw	r2, #564	; 0x234
 8002c78:	f2c2 0200 	movt	r2, #8192	; 0x2000
 8002c7c:	8813      	ldrh	r3, [r2, #0]
 8002c7e:	3301      	adds	r3, #1
 8002c80:	b21b      	sxth	r3, r3
 8002c82:	8013      	strh	r3, [r2, #0]
  gVGASubScanline++;
 8002c84:	f240 2258 	movw	r2, #600	; 0x258
 8002c88:	f2c2 0200 	movt	r2, #8192	; 0x2000
 8002c8c:	8813      	ldrh	r3, [r2, #0]
 8002c8e:	3301      	adds	r3, #1
 8002c90:	b21b      	sxth	r3, r3
 8002c92:	8013      	strh	r3, [r2, #0]

} // End DMA2_Stream1_IRQHandler.
 8002c94:	bcf0      	pop	{r4, r5, r6, r7}
 8002c96:	4770      	bx	lr
      GPIOA->ODR |= VGA_VSYNC_PIN;
 8002c98:	2300      	movs	r3, #0
 8002c9a:	f2c4 0302 	movt	r3, #16386	; 0x4002
 8002c9e:	695a      	ldr	r2, [r3, #20]
 8002ca0:	f042 0202 	orr.w	r2, r2, #2
 8002ca4:	615a      	str	r2, [r3, #20]
 8002ca6:	e7e5      	b.n	8002c74 <DMA2_Stream1_IRQHandler+0x186>
            *DMA2_Stream1_M1AR = (uint32_t) gVGALineBufferShow;
 8002ca8:	f240 2348 	movw	r3, #584	; 0x248
 8002cac:	f2c2 0300 	movt	r3, #8192	; 0x2000
 8002cb0:	681a      	ldr	r2, [r3, #0]
 8002cb2:	f246 4338 	movw	r3, #25656	; 0x6438
 8002cb6:	f2c4 0302 	movt	r3, #16386	; 0x4002
 8002cba:	601a      	str	r2, [r3, #0]
 8002cbc:	e75f      	b.n	8002b7e <DMA2_Stream1_IRQHandler+0x90>
          gLineRender = TRUE;
 8002cbe:	f240 030e 	movw	r3, #14
 8002cc2:	f2c2 0300 	movt	r3, #8192	; 0x2000
 8002cc6:	2201      	movs	r2, #1
 8002cc8:	701a      	strb	r2, [r3, #0]
          gVGASubScanline = 0;
 8002cca:	f240 2358 	movw	r3, #600	; 0x258
 8002cce:	f2c2 0300 	movt	r3, #8192	; 0x2000
 8002cd2:	2200      	movs	r2, #0
 8002cd4:	801a      	strh	r2, [r3, #0]
 8002cd6:	e763      	b.n	8002ba0 <DMA2_Stream1_IRQHandler+0xb2>
              gVGALineBufferRender = *DMA2_Stream1_M1AR;
 8002cd8:	f246 4338 	movw	r3, #25656	; 0x6438
 8002cdc:	f2c4 0302 	movt	r3, #16386	; 0x4002
 8002ce0:	6819      	ldr	r1, [r3, #0]
 8002ce2:	f240 2340 	movw	r3, #576	; 0x240
 8002ce6:	f2c2 0300 	movt	r3, #8192	; 0x2000
 8002cea:	6019      	str	r1, [r3, #0]
              gVGALineBufferShow = *DMA2_Stream1_M0AR;   //DMA2_Stream1_M1AR, being played
 8002cec:	f246 4334 	movw	r3, #25652	; 0x6434
 8002cf0:	f2c4 0302 	movt	r3, #16386	; 0x4002
 8002cf4:	6819      	ldr	r1, [r3, #0]
 8002cf6:	f240 2348 	movw	r3, #584	; 0x248
 8002cfa:	f2c2 0300 	movt	r3, #8192	; 0x2000
 8002cfe:	6019      	str	r1, [r3, #0]
 8002d00:	e777      	b.n	8002bf2 <DMA2_Stream1_IRQHandler+0x104>
                *gVGALineBufferRenderTmp++ = gBorderColor;
 8002d02:	f240 2344 	movw	r3, #580	; 0x244
 8002d06:	f2c2 0300 	movt	r3, #8192	; 0x2000
 8002d0a:	681a      	ldr	r2, [r3, #0]
 8002d0c:	1c91      	adds	r1, r2, #2
 8002d0e:	6019      	str	r1, [r3, #0]
 8002d10:	f240 030c 	movw	r3, #12
 8002d14:	f2c2 0300 	movt	r3, #8192	; 0x2000
 8002d18:	881b      	ldrh	r3, [r3, #0]
 8002d1a:	b29b      	uxth	r3, r3
 8002d1c:	8013      	strh	r3, [r2, #0]
              while (gScanlinePixel--)
 8002d1e:	f240 2324 	movw	r3, #548	; 0x224
 8002d22:	f2c2 0300 	movt	r3, #8192	; 0x2000
 8002d26:	681a      	ldr	r2, [r3, #0]
 8002d28:	1e51      	subs	r1, r2, #1
 8002d2a:	6019      	str	r1, [r3, #0]
 8002d2c:	2a00      	cmp	r2, #0
 8002d2e:	d1e8      	bne.n	8002d02 <DMA2_Stream1_IRQHandler+0x214>
          gLineRender = FALSE;
 8002d30:	f240 030e 	movw	r3, #14
 8002d34:	f2c2 0300 	movt	r3, #8192	; 0x2000
 8002d38:	2200      	movs	r2, #0
 8002d3a:	701a      	strb	r2, [r3, #0]
 8002d3c:	e79a      	b.n	8002c74 <DMA2_Stream1_IRQHandler+0x186>
              gVGALineBufferRenderTmp = gVGALineBufferRender;
 8002d3e:	f240 2344 	movw	r3, #580	; 0x244
 8002d42:	f2c2 0300 	movt	r3, #8192	; 0x2000
 8002d46:	f240 2140 	movw	r1, #576	; 0x240
 8002d4a:	f2c2 0100 	movt	r1, #8192	; 0x2000
 8002d4e:	6809      	ldr	r1, [r1, #0]
 8002d50:	6019      	str	r1, [r3, #0]
              if (gVideoDriver.output)
 8002d52:	f240 43b0 	movw	r3, #1200	; 0x4b0
 8002d56:	f2c2 0300 	movt	r3, #8192	; 0x2000
 8002d5a:	7a9b      	ldrb	r3, [r3, #10]
 8002d5c:	2b00      	cmp	r3, #0
 8002d5e:	f000 80d0 	beq.w	8002f02 <DMA2_Stream1_IRQHandler+0x414>
                  gScanlinePixel = gVideoDriver.padding_h;
 8002d62:	f240 43b0 	movw	r3, #1200	; 0x4b0
 8002d66:	f2c2 0300 	movt	r3, #8192	; 0x2000
 8002d6a:	7c19      	ldrb	r1, [r3, #16]
 8002d6c:	f240 2324 	movw	r3, #548	; 0x224
 8002d70:	f2c2 0300 	movt	r3, #8192	; 0x2000
 8002d74:	6019      	str	r1, [r3, #0]
                  while (gScanlinePixel--)
 8002d76:	e00d      	b.n	8002d94 <DMA2_Stream1_IRQHandler+0x2a6>
                    *gVGALineBufferRenderTmp++ = gBorderColor;
 8002d78:	f240 2344 	movw	r3, #580	; 0x244
 8002d7c:	f2c2 0300 	movt	r3, #8192	; 0x2000
 8002d80:	6819      	ldr	r1, [r3, #0]
 8002d82:	1c88      	adds	r0, r1, #2
 8002d84:	6018      	str	r0, [r3, #0]
 8002d86:	f240 030c 	movw	r3, #12
 8002d8a:	f2c2 0300 	movt	r3, #8192	; 0x2000
 8002d8e:	881b      	ldrh	r3, [r3, #0]
 8002d90:	b29b      	uxth	r3, r3
 8002d92:	800b      	strh	r3, [r1, #0]
                  while (gScanlinePixel--)
 8002d94:	f240 2324 	movw	r3, #548	; 0x224
 8002d98:	f2c2 0300 	movt	r3, #8192	; 0x2000
 8002d9c:	6819      	ldr	r1, [r3, #0]
 8002d9e:	1e48      	subs	r0, r1, #1
 8002da0:	6018      	str	r0, [r3, #0]
 8002da2:	2900      	cmp	r1, #0
 8002da4:	d1e8      	bne.n	8002d78 <DMA2_Stream1_IRQHandler+0x28a>
                  if (gVideoDriver.renderer == RGB_RENDERER)
 8002da6:	f240 43b0 	movw	r3, #1200	; 0x4b0
 8002daa:	f2c2 0300 	movt	r3, #8192	; 0x2000
 8002dae:	f893 3030 	ldrb.w	r3, [r3, #48]	; 0x30
 8002db2:	b2db      	uxtb	r3, r3
 8002db4:	2b01      	cmp	r3, #1
 8002db6:	d00b      	beq.n	8002dd0 <DMA2_Stream1_IRQHandler+0x2e2>
                      gScanlinePixel = gVideoDriver.width / 8;
 8002db8:	f240 43b0 	movw	r3, #1200	; 0x4b0
 8002dbc:	f2c2 0300 	movt	r3, #8192	; 0x2000
 8002dc0:	8999      	ldrh	r1, [r3, #12]
 8002dc2:	08c9      	lsrs	r1, r1, #3
 8002dc4:	f240 2324 	movw	r3, #548	; 0x224
 8002dc8:	f2c2 0300 	movt	r3, #8192	; 0x2000
 8002dcc:	6019      	str	r1, [r3, #0]
                      while (gScanlinePixel--)
 8002dce:	e06c      	b.n	8002eaa <DMA2_Stream1_IRQHandler+0x3bc>
                      gScanlinePixel = gVideoDriver.width / 2;
 8002dd0:	f240 43b0 	movw	r3, #1200	; 0x4b0
 8002dd4:	f2c2 0300 	movt	r3, #8192	; 0x2000
 8002dd8:	899a      	ldrh	r2, [r3, #12]
 8002dda:	0852      	lsrs	r2, r2, #1
 8002ddc:	f240 2324 	movw	r3, #548	; 0x224
 8002de0:	f2c2 0300 	movt	r3, #8192	; 0x2000
 8002de4:	601a      	str	r2, [r3, #0]
                      while (gScanlinePixel--)
 8002de6:	f240 2324 	movw	r3, #548	; 0x224
 8002dea:	f2c2 0300 	movt	r3, #8192	; 0x2000
 8002dee:	681a      	ldr	r2, [r3, #0]
 8002df0:	1e51      	subs	r1, r2, #1
 8002df2:	6019      	str	r1, [r3, #0]
 8002df4:	2a00      	cmp	r2, #0
 8002df6:	d061      	beq.n	8002ebc <DMA2_Stream1_IRQHandler+0x3ce>
                          *(uint32_t*) gVGALineBufferRenderTmp = *(uint32_t*) gVGAHWScanlineFrameBuffer; // active area
 8002df8:	f240 2338 	movw	r3, #568	; 0x238
 8002dfc:	f2c2 0300 	movt	r3, #8192	; 0x2000
 8002e00:	6818      	ldr	r0, [r3, #0]
 8002e02:	f240 2244 	movw	r2, #580	; 0x244
 8002e06:	f2c2 0200 	movt	r2, #8192	; 0x2000
 8002e0a:	6811      	ldr	r1, [r2, #0]
 8002e0c:	6800      	ldr	r0, [r0, #0]
 8002e0e:	6008      	str	r0, [r1, #0]
                          gVGALineBufferRenderTmp += 2;
 8002e10:	6811      	ldr	r1, [r2, #0]
 8002e12:	3104      	adds	r1, #4
 8002e14:	6011      	str	r1, [r2, #0]
                          gVGAHWScanlineFrameBuffer += 2;
 8002e16:	681a      	ldr	r2, [r3, #0]
 8002e18:	3202      	adds	r2, #2
 8002e1a:	601a      	str	r2, [r3, #0]
 8002e1c:	e7e3      	b.n	8002de6 <DMA2_Stream1_IRQHandler+0x2f8>
                          lColorTmp1 = gVGAPaletteShow->colors[lTmpPtr[0]];
 8002e1e:	f240 2350 	movw	r3, #592	; 0x250
 8002e22:	f2c2 0300 	movt	r3, #8192	; 0x2000
 8002e26:	6819      	ldr	r1, [r3, #0]
 8002e28:	7810      	ldrb	r0, [r2, #0]
 8002e2a:	eb01 0040 	add.w	r0, r1, r0, lsl #1
 8002e2e:	8880      	ldrh	r0, [r0, #4]
                          lColorTmp2 = gVGAPaletteShow->colors[lTmpPtr[1]];
 8002e30:	7854      	ldrb	r4, [r2, #1]
 8002e32:	eb01 0144 	add.w	r1, r1, r4, lsl #1
 8002e36:	888d      	ldrh	r5, [r1, #4]
                          ((uint32_t*) gVGALineBufferRenderTmp)[0] = lColorTmp1 | lColorTmp2 << 16; // active area
 8002e38:	f240 2144 	movw	r1, #580	; 0x244
 8002e3c:	f2c2 0100 	movt	r1, #8192	; 0x2000
 8002e40:	680c      	ldr	r4, [r1, #0]
 8002e42:	ea40 4005 	orr.w	r0, r0, r5, lsl #16
 8002e46:	6020      	str	r0, [r4, #0]
                          lColorTmp1 = gVGAPaletteShow->colors[lTmpPtr[2]];
 8002e48:	681b      	ldr	r3, [r3, #0]
 8002e4a:	7890      	ldrb	r0, [r2, #2]
 8002e4c:	eb03 0040 	add.w	r0, r3, r0, lsl #1
 8002e50:	8880      	ldrh	r0, [r0, #4]
                          lColorTmp2 = gVGAPaletteShow->colors[lTmpPtr[3]];
 8002e52:	78d4      	ldrb	r4, [r2, #3]
 8002e54:	eb03 0444 	add.w	r4, r3, r4, lsl #1
 8002e58:	88a4      	ldrh	r4, [r4, #4]
                          ((uint32_t*) gVGALineBufferRenderTmp)[1] = lColorTmp1 | lColorTmp2 << 16; // active area
 8002e5a:	680e      	ldr	r6, [r1, #0]
 8002e5c:	ea40 4004 	orr.w	r0, r0, r4, lsl #16
 8002e60:	6070      	str	r0, [r6, #4]
                          gVGALineBufferRenderTmp += 4;
 8002e62:	f106 0408 	add.w	r4, r6, #8
                          gVGAHWScanlineFrameBuffer += 4;
 8002e66:	f240 2038 	movw	r0, #568	; 0x238
 8002e6a:	f2c2 0000 	movt	r0, #8192	; 0x2000
 8002e6e:	6805      	ldr	r5, [r0, #0]
                          lColorTmp1 = gVGAPaletteShow->colors[lTmpPtr[0]];
 8002e70:	7917      	ldrb	r7, [r2, #4]
 8002e72:	eb03 0747 	add.w	r7, r3, r7, lsl #1
 8002e76:	88bf      	ldrh	r7, [r7, #4]
                          lColorTmp2 = gVGAPaletteShow->colors[lTmpPtr[1]];
 8002e78:	f892 c005 	ldrb.w	ip, [r2, #5]
 8002e7c:	eb03 0c4c 	add.w	ip, r3, ip, lsl #1
 8002e80:	f8bc c004 	ldrh.w	ip, [ip, #4]
                          ((uint32_t*) gVGALineBufferRenderTmp)[0] = lColorTmp1 | lColorTmp2 << 16; // active area
 8002e84:	ea47 470c 	orr.w	r7, r7, ip, lsl #16
 8002e88:	60b7      	str	r7, [r6, #8]
                          lColorTmp1 = gVGAPaletteShow->colors[lTmpPtr[2]];
 8002e8a:	7996      	ldrb	r6, [r2, #6]
 8002e8c:	eb03 0646 	add.w	r6, r3, r6, lsl #1
 8002e90:	88b6      	ldrh	r6, [r6, #4]
                          lColorTmp2 = gVGAPaletteShow->colors[lTmpPtr[3]];
 8002e92:	79d7      	ldrb	r7, [r2, #7]
 8002e94:	eb03 0347 	add.w	r3, r3, r7, lsl #1
 8002e98:	889b      	ldrh	r3, [r3, #4]
                          ((uint32_t*) gVGALineBufferRenderTmp)[1] = lColorTmp1 | lColorTmp2 << 16; // active area
 8002e9a:	ea46 4303 	orr.w	r3, r6, r3, lsl #16
 8002e9e:	6063      	str	r3, [r4, #4]
                          lTmpPtr += 4;
 8002ea0:	3208      	adds	r2, #8
                          gVGALineBufferRenderTmp += 4;
 8002ea2:	3408      	adds	r4, #8
 8002ea4:	600c      	str	r4, [r1, #0]
                          gVGAHWScanlineFrameBuffer += 4;
 8002ea6:	3508      	adds	r5, #8
 8002ea8:	6005      	str	r5, [r0, #0]
                      while (gScanlinePixel--)
 8002eaa:	f240 2324 	movw	r3, #548	; 0x224
 8002eae:	f2c2 0300 	movt	r3, #8192	; 0x2000
 8002eb2:	6819      	ldr	r1, [r3, #0]
 8002eb4:	1e48      	subs	r0, r1, #1
 8002eb6:	6018      	str	r0, [r3, #0]
 8002eb8:	2900      	cmp	r1, #0
 8002eba:	d1b0      	bne.n	8002e1e <DMA2_Stream1_IRQHandler+0x330>
                  gScanlinePixel = gVideoDriver.padding_h;
 8002ebc:	f240 43b0 	movw	r3, #1200	; 0x4b0
 8002ec0:	f2c2 0300 	movt	r3, #8192	; 0x2000
 8002ec4:	7c1a      	ldrb	r2, [r3, #16]
 8002ec6:	f240 2324 	movw	r3, #548	; 0x224
 8002eca:	f2c2 0300 	movt	r3, #8192	; 0x2000
 8002ece:	601a      	str	r2, [r3, #0]
                  while (gScanlinePixel--)
 8002ed0:	e00d      	b.n	8002eee <DMA2_Stream1_IRQHandler+0x400>
                    *gVGALineBufferRenderTmp++ = gBorderColor;
 8002ed2:	f240 2344 	movw	r3, #580	; 0x244
 8002ed6:	f2c2 0300 	movt	r3, #8192	; 0x2000
 8002eda:	681a      	ldr	r2, [r3, #0]
 8002edc:	1c91      	adds	r1, r2, #2
 8002ede:	6019      	str	r1, [r3, #0]
 8002ee0:	f240 030c 	movw	r3, #12
 8002ee4:	f2c2 0300 	movt	r3, #8192	; 0x2000
 8002ee8:	881b      	ldrh	r3, [r3, #0]
 8002eea:	b29b      	uxth	r3, r3
 8002eec:	8013      	strh	r3, [r2, #0]
                  while (gScanlinePixel--)
 8002eee:	f240 2324 	movw	r3, #548	; 0x224
 8002ef2:	f2c2 0300 	movt	r3, #8192	; 0x2000
 8002ef6:	681a      	ldr	r2, [r3, #0]
 8002ef8:	1e51      	subs	r1, r2, #1
 8002efa:	6019      	str	r1, [r3, #0]
 8002efc:	2a00      	cmp	r2, #0
 8002efe:	d1e8      	bne.n	8002ed2 <DMA2_Stream1_IRQHandler+0x3e4>
 8002f00:	e716      	b.n	8002d30 <DMA2_Stream1_IRQHandler+0x242>
                  gScanlinePixel = gVideoDriver.width + (gVideoDriver.padding_h * 2);
 8002f02:	f240 43b0 	movw	r3, #1200	; 0x4b0
 8002f06:	f2c2 0300 	movt	r3, #8192	; 0x2000
 8002f0a:	899a      	ldrh	r2, [r3, #12]
 8002f0c:	7c1b      	ldrb	r3, [r3, #16]
 8002f0e:	eb02 0243 	add.w	r2, r2, r3, lsl #1
 8002f12:	f240 2324 	movw	r3, #548	; 0x224
 8002f16:	f2c2 0300 	movt	r3, #8192	; 0x2000
 8002f1a:	601a      	str	r2, [r3, #0]
                  while (gScanlinePixel--)
 8002f1c:	e00d      	b.n	8002f3a <DMA2_Stream1_IRQHandler+0x44c>
                    *gVGALineBufferRenderTmp++ = gBorderColor;
 8002f1e:	f240 2344 	movw	r3, #580	; 0x244
 8002f22:	f2c2 0300 	movt	r3, #8192	; 0x2000
 8002f26:	681a      	ldr	r2, [r3, #0]
 8002f28:	1c91      	adds	r1, r2, #2
 8002f2a:	6019      	str	r1, [r3, #0]
 8002f2c:	f240 030c 	movw	r3, #12
 8002f30:	f2c2 0300 	movt	r3, #8192	; 0x2000
 8002f34:	881b      	ldrh	r3, [r3, #0]
 8002f36:	b29b      	uxth	r3, r3
 8002f38:	8013      	strh	r3, [r2, #0]
                  while (gScanlinePixel--)
 8002f3a:	f240 2324 	movw	r3, #548	; 0x224
 8002f3e:	f2c2 0300 	movt	r3, #8192	; 0x2000
 8002f42:	681a      	ldr	r2, [r3, #0]
 8002f44:	1e51      	subs	r1, r2, #1
 8002f46:	6019      	str	r1, [r3, #0]
 8002f48:	2a00      	cmp	r2, #0
 8002f4a:	d1e8      	bne.n	8002f1e <DMA2_Stream1_IRQHandler+0x430>
 8002f4c:	e6f0      	b.n	8002d30 <DMA2_Stream1_IRQHandler+0x242>
  else if ((gVGAHWScanline == 480) || (gVGAHWScanline == 481))
 8002f4e:	f240 2334 	movw	r3, #564	; 0x234
 8002f52:	f2c2 0300 	movt	r3, #8192	; 0x2000
 8002f56:	881b      	ldrh	r3, [r3, #0]
 8002f58:	b21b      	sxth	r3, r3
 8002f5a:	f5b3 7ff0 	cmp.w	r3, #480	; 0x1e0
 8002f5e:	d07b      	beq.n	8003058 <DMA2_Stream1_IRQHandler+0x56a>
 8002f60:	f240 2334 	movw	r3, #564	; 0x234
 8002f64:	f2c2 0300 	movt	r3, #8192	; 0x2000
 8002f68:	881b      	ldrh	r3, [r3, #0]
 8002f6a:	b21b      	sxth	r3, r3
 8002f6c:	f240 12e1 	movw	r2, #481	; 0x1e1
 8002f70:	4293      	cmp	r3, r2
 8002f72:	d071      	beq.n	8003058 <DMA2_Stream1_IRQHandler+0x56a>
  else if (gVGAHWScanline == 524)
 8002f74:	f240 2334 	movw	r3, #564	; 0x234
 8002f78:	f2c2 0300 	movt	r3, #8192	; 0x2000
 8002f7c:	881b      	ldrh	r3, [r3, #0]
 8002f7e:	b21b      	sxth	r3, r3
 8002f80:	f5b3 7f03 	cmp.w	r3, #524	; 0x20c
 8002f84:	f47f ae76 	bne.w	8002c74 <DMA2_Stream1_IRQHandler+0x186>
      if (gSwapBuffer && gVideoDriver.double_buffer)
 8002f88:	f240 2328 	movw	r3, #552	; 0x228
 8002f8c:	f2c2 0300 	movt	r3, #8192	; 0x2000
 8002f90:	781b      	ldrb	r3, [r3, #0]
 8002f92:	b1cb      	cbz	r3, 8002fc8 <DMA2_Stream1_IRQHandler+0x4da>
 8002f94:	f240 43b0 	movw	r3, #1200	; 0x4b0
 8002f98:	f2c2 0300 	movt	r3, #8192	; 0x2000
 8002f9c:	f893 3028 	ldrb.w	r3, [r3, #40]	; 0x28
 8002fa0:	b193      	cbz	r3, 8002fc8 <DMA2_Stream1_IRQHandler+0x4da>
          gVGAFrameBufferTemp = gVideoDriver.video_buffer_render;
 8002fa2:	f240 43b0 	movw	r3, #1200	; 0x4b0
 8002fa6:	f2c2 0300 	movt	r3, #8192	; 0x2000
 8002faa:	6a59      	ldr	r1, [r3, #36]	; 0x24
 8002fac:	f240 2230 	movw	r2, #560	; 0x230
 8002fb0:	f2c2 0200 	movt	r2, #8192	; 0x2000
 8002fb4:	6011      	str	r1, [r2, #0]
          gVideoDriver.video_buffer_render = gVideoDriver.video_buffer_show;
 8002fb6:	6a1a      	ldr	r2, [r3, #32]
 8002fb8:	625a      	str	r2, [r3, #36]	; 0x24
          gVideoDriver.video_buffer_show = gVGAFrameBufferTemp;
 8002fba:	6219      	str	r1, [r3, #32]
          gSwapBuffer = FALSE;
 8002fbc:	f240 2328 	movw	r3, #552	; 0x228
 8002fc0:	f2c2 0300 	movt	r3, #8192	; 0x2000
 8002fc4:	2200      	movs	r2, #0
 8002fc6:	701a      	strb	r2, [r3, #0]
      if (gSwapPalette)
 8002fc8:	f240 2329 	movw	r3, #553	; 0x229
 8002fcc:	f2c2 0300 	movt	r3, #8192	; 0x2000
 8002fd0:	781b      	ldrb	r3, [r3, #0]
 8002fd2:	b1b3      	cbz	r3, 8003002 <DMA2_Stream1_IRQHandler+0x514>
          gVGAPaletteTemp = gVGAPaletteRender;
 8002fd4:	f240 224c 	movw	r2, #588	; 0x24c
 8002fd8:	f2c2 0200 	movt	r2, #8192	; 0x2000
 8002fdc:	6811      	ldr	r1, [r2, #0]
 8002fde:	f240 2354 	movw	r3, #596	; 0x254
 8002fe2:	f2c2 0300 	movt	r3, #8192	; 0x2000
 8002fe6:	6019      	str	r1, [r3, #0]
          gVGAPaletteRender = gVGAPaletteShow;
 8002fe8:	f240 2350 	movw	r3, #592	; 0x250
 8002fec:	f2c2 0300 	movt	r3, #8192	; 0x2000
 8002ff0:	6818      	ldr	r0, [r3, #0]
 8002ff2:	6010      	str	r0, [r2, #0]
          gVGAPaletteShow = gVGAPaletteTemp;
 8002ff4:	6019      	str	r1, [r3, #0]
          gSwapPalette = FALSE;
 8002ff6:	f240 2329 	movw	r3, #553	; 0x229
 8002ffa:	f2c2 0300 	movt	r3, #8192	; 0x2000
 8002ffe:	2200      	movs	r2, #0
 8003000:	701a      	strb	r2, [r3, #0]
      gVGAHWScanline = -1;
 8003002:	f240 2334 	movw	r3, #564	; 0x234
 8003006:	f2c2 0300 	movt	r3, #8192	; 0x2000
 800300a:	f64f 72ff 	movw	r2, #65535	; 0xffff
 800300e:	801a      	strh	r2, [r3, #0]
      gVGASubScanline = 0;
 8003010:	f240 2358 	movw	r3, #600	; 0x258
 8003014:	f2c2 0300 	movt	r3, #8192	; 0x2000
 8003018:	2100      	movs	r1, #0
 800301a:	8019      	strh	r1, [r3, #0]
      gVGAFrame++;
 800301c:	f240 232c 	movw	r3, #556	; 0x22c
 8003020:	f2c2 0300 	movt	r3, #8192	; 0x2000
 8003024:	681a      	ldr	r2, [r3, #0]
 8003026:	3201      	adds	r2, #1
 8003028:	601a      	str	r2, [r3, #0]
      gVGAHWScanlineFrameBuffer = gVideoDriver.video_buffer_show;
 800302a:	f240 43b0 	movw	r3, #1200	; 0x4b0
 800302e:	f2c2 0300 	movt	r3, #8192	; 0x2000
 8003032:	6a18      	ldr	r0, [r3, #32]
 8003034:	f240 2238 	movw	r2, #568	; 0x238
 8003038:	f2c2 0200 	movt	r2, #8192	; 0x2000
 800303c:	6010      	str	r0, [r2, #0]
      gVideoDriver.v_blank = FALSE;
 800303e:	72d9      	strb	r1, [r3, #11]
      gBorderColor = gVGAPaletteShow->colors[0];
 8003040:	f240 2350 	movw	r3, #592	; 0x250
 8003044:	f2c2 0300 	movt	r3, #8192	; 0x2000
 8003048:	681b      	ldr	r3, [r3, #0]
 800304a:	889a      	ldrh	r2, [r3, #4]
 800304c:	f240 030c 	movw	r3, #12
 8003050:	f2c2 0300 	movt	r3, #8192	; 0x2000
 8003054:	801a      	strh	r2, [r3, #0]
 8003056:	e60d      	b.n	8002c74 <DMA2_Stream1_IRQHandler+0x186>
      if (DMA2_Stream1_CR & ((uint32_t) (DMA_SxCR_CT)))
 8003058:	f246 4328 	movw	r3, #25640	; 0x6428
 800305c:	f2c4 0302 	movt	r3, #16386	; 0x4002
 8003060:	681b      	ldr	r3, [r3, #0]
 8003062:	f413 2f00 	tst.w	r3, #524288	; 0x80000
 8003066:	d01a      	beq.n	800309e <DMA2_Stream1_IRQHandler+0x5b0>
        *DMA2_Stream1_M0AR = (uint32_t) gVGALineBufferBlank;
 8003068:	f240 233c 	movw	r3, #572	; 0x23c
 800306c:	f2c2 0300 	movt	r3, #8192	; 0x2000
 8003070:	681a      	ldr	r2, [r3, #0]
 8003072:	f246 4334 	movw	r3, #25652	; 0x6434
 8003076:	f2c4 0302 	movt	r3, #16386	; 0x4002
 800307a:	601a      	str	r2, [r3, #0]
      if (gVGAHWScanline == 480)
 800307c:	f240 2334 	movw	r3, #564	; 0x234
 8003080:	f2c2 0300 	movt	r3, #8192	; 0x2000
 8003084:	881b      	ldrh	r3, [r3, #0]
 8003086:	b21b      	sxth	r3, r3
 8003088:	f5b3 7ff0 	cmp.w	r3, #480	; 0x1e0
 800308c:	f47f adf2 	bne.w	8002c74 <DMA2_Stream1_IRQHandler+0x186>
        gVideoDriver.v_blank = TRUE;
 8003090:	f240 43b0 	movw	r3, #1200	; 0x4b0
 8003094:	f2c2 0300 	movt	r3, #8192	; 0x2000
 8003098:	2201      	movs	r2, #1
 800309a:	72da      	strb	r2, [r3, #11]
 800309c:	e5ea      	b.n	8002c74 <DMA2_Stream1_IRQHandler+0x186>
        *DMA2_Stream1_M1AR = (uint32_t) gVGALineBufferBlank;
 800309e:	f240 233c 	movw	r3, #572	; 0x23c
 80030a2:	f2c2 0300 	movt	r3, #8192	; 0x2000
 80030a6:	681a      	ldr	r2, [r3, #0]
 80030a8:	f246 4338 	movw	r3, #25656	; 0x6438
 80030ac:	f2c4 0302 	movt	r3, #16386	; 0x4002
 80030b0:	601a      	str	r2, [r3, #0]
 80030b2:	e7e3      	b.n	800307c <DMA2_Stream1_IRQHandler+0x58e>

080030b4 <ArcadeIT_RAMDisk_Initialize>:
// /////////////////////////////////////////////////////////////////////////////
// Functions
// /////////////////////////////////////////////////////////////////////////////
DRESULT ArcadeIT_RAMDisk_Initialize(void)
{
  if (gRAMSize >= (512 * 1024))
 80030b4:	f240 2320 	movw	r3, #544	; 0x220
 80030b8:	f2c2 0300 	movt	r3, #8192	; 0x2000
 80030bc:	681b      	ldr	r3, [r3, #0]
 80030be:	f5b3 2f00 	cmp.w	r3, #524288	; 0x80000
 80030c2:	d20d      	bcs.n	80030e0 <ArcadeIT_RAMDisk_Initialize+0x2c>
    gStatus[DEV_RAM] &= ~STA_NOINIT;  // Clear STA_NOINIT flag
  else
    gStatus[DEV_RAM] |= STA_NOINIT;  // STA_NOINIT flag
 80030c4:	f240 0310 	movw	r3, #16
 80030c8:	f2c2 0300 	movt	r3, #8192	; 0x2000
 80030cc:	781a      	ldrb	r2, [r3, #0]
 80030ce:	f042 0201 	orr.w	r2, r2, #1
 80030d2:	701a      	strb	r2, [r3, #0]

  return gStatus[DEV_RAM];
 80030d4:	f240 0310 	movw	r3, #16
 80030d8:	f2c2 0300 	movt	r3, #8192	; 0x2000
}
 80030dc:	7818      	ldrb	r0, [r3, #0]
 80030de:	4770      	bx	lr
    gStatus[DEV_RAM] &= ~STA_NOINIT;  // Clear STA_NOINIT flag
 80030e0:	f240 0310 	movw	r3, #16
 80030e4:	f2c2 0300 	movt	r3, #8192	; 0x2000
 80030e8:	781a      	ldrb	r2, [r3, #0]
 80030ea:	f022 0201 	bic.w	r2, r2, #1
 80030ee:	701a      	strb	r2, [r3, #0]
 80030f0:	e7f0      	b.n	80030d4 <ArcadeIT_RAMDisk_Initialize+0x20>

080030f2 <ArcadeIT_RAMDisk_Status>:
  * PARAMETERS:  None.
  * RETURNS:     Nothing.
  */

  // Return disk status.
  return gStatus[DEV_RAM];
 80030f2:	f240 0310 	movw	r3, #16
 80030f6:	f2c2 0300 	movt	r3, #8192	; 0x2000

} // End ArcadeIT_SDCard_Disk_Status.
 80030fa:	7818      	ldrb	r0, [r3, #0]
 80030fc:	4770      	bx	lr

080030fe <ArcadeIT_RAMDisk_Read>:
  * DESCRIPTION: This function reads a block of data from the RAM disk.
  * PARAMETERS:  See above.
  * RETURNS:     Nothing.
  */

  if (!pCount) return RES_PARERR;   // Check parameter
 80030fe:	b16a      	cbz	r2, 800311c <ArcadeIT_RAMDisk_Read+0x1e>
{
 8003100:	b508      	push	{r3, lr}

  uint32_t lBufferSize = (BLOCK_SIZE * pCount) + pCount;

  memcpy(pBuffer, (gRAMAddress + (pSector * BLOCK_SIZE)), lBufferSize);
 8003102:	f240 0308 	movw	r3, #8
 8003106:	f2c2 0300 	movt	r3, #8192	; 0x2000
 800310a:	681b      	ldr	r3, [r3, #0]
 800310c:	eb02 2242 	add.w	r2, r2, r2, lsl #9
 8003110:	eb03 2141 	add.w	r1, r3, r1, lsl #9
 8003114:	f002 fac2 	bl	800569c <memcpy>

  // Return result
  return RES_OK;
 8003118:	2000      	movs	r0, #0

} // End ArcadeIT_RAMDisk_Read.
 800311a:	bd08      	pop	{r3, pc}
  if (!pCount) return RES_PARERR;   // Check parameter
 800311c:	2004      	movs	r0, #4
} // End ArcadeIT_RAMDisk_Read.
 800311e:	4770      	bx	lr

08003120 <ArcadeIT_RAMDisk_Write>:
  * DESCRIPTION: This function writes a block of data into the RAM disk.
  * PARAMETERS:  See above.
  * RETURNS:     Nothing.
  */

  if (!pCount) return RES_PARERR;   // Check parameter
 8003120:	b17a      	cbz	r2, 8003142 <ArcadeIT_RAMDisk_Write+0x22>
{
 8003122:	b508      	push	{r3, lr}
 8003124:	460b      	mov	r3, r1
 8003126:	4601      	mov	r1, r0

  uint32_t lBufferSize = (BLOCK_SIZE * pCount) + pCount;

  memcpy((gRAMAddress + (pSector * BLOCK_SIZE)), pBuffer, lBufferSize);
 8003128:	f240 0008 	movw	r0, #8
 800312c:	f2c2 0000 	movt	r0, #8192	; 0x2000
 8003130:	6800      	ldr	r0, [r0, #0]
 8003132:	eb02 2242 	add.w	r2, r2, r2, lsl #9
 8003136:	eb00 2043 	add.w	r0, r0, r3, lsl #9
 800313a:	f002 faaf 	bl	800569c <memcpy>

  return RES_OK;
 800313e:	2000      	movs	r0, #0

} // End ArcadeIT_RAMDisk_Write.
 8003140:	bd08      	pop	{r3, pc}
  if (!pCount) return RES_PARERR;   // Check parameter
 8003142:	2004      	movs	r0, #4
} // End ArcadeIT_RAMDisk_Write.
 8003144:	4770      	bx	lr

08003146 <ArcadeIT_RAMDisk_Ioctl>:

  DRESULT lResult;

  lResult = RES_ERROR;

  switch (pCommand)
 8003146:	2803      	cmp	r0, #3
 8003148:	d818      	bhi.n	800317c <ArcadeIT_RAMDisk_Ioctl+0x36>
 800314a:	e8df f000 	tbb	[pc, r0]
 800314e:	0402      	.short	0x0402
 8003150:	0d12      	.short	0x0d12
  {
    case CTRL_SYNC :    // Wait for end of internal write process of the drive
      lResult = RES_OK;
 8003152:	2000      	movs	r0, #0
 8003154:	4770      	bx	lr
      break;

    case GET_SECTOR_COUNT : // Get drive capacity in unit of sector (DWORD)
       *(DWORD*)pBuffer = gRAMSize / SECTOR_SIZE;
 8003156:	f240 2320 	movw	r3, #544	; 0x220
 800315a:	f2c2 0300 	movt	r3, #8192	; 0x2000
 800315e:	681b      	ldr	r3, [r3, #0]
 8003160:	0a5b      	lsrs	r3, r3, #9
 8003162:	600b      	str	r3, [r1, #0]
       lResult = RES_OK;
 8003164:	2000      	movs	r0, #0
      break;
 8003166:	4770      	bx	lr

    case GET_BLOCK_SIZE : // Get erase block size in unit of sector (DWORD)
       *(DWORD*)pBuffer = BLOCK_SIZE;
 8003168:	f44f 7300 	mov.w	r3, #512	; 0x200
 800316c:	600b      	str	r3, [r1, #0]
       lResult = RES_OK;
 800316e:	2000      	movs	r0, #0
      break;
 8003170:	4770      	bx	lr

    case GET_SECTOR_SIZE : // Get erase block size in unit of sector (DWORD)
       *(WORD*)pBuffer = BLOCK_SIZE;
 8003172:	f44f 7300 	mov.w	r3, #512	; 0x200
 8003176:	800b      	strh	r3, [r1, #0]
       lResult = RES_OK;
 8003178:	2000      	movs	r0, #0
      break;
 800317a:	4770      	bx	lr

    default: lResult = RES_PARERR; break;
 800317c:	2004      	movs	r0, #4

  } // End switch.

  return lResult;

} // End ArcadeIT_RAMDisk_Ioctl.
 800317e:	4770      	bx	lr

08003180 <ArcadeIT_RAMDisk_Start>:

// -----------------------------------------------------------------------------
FRESULT ArcadeIT_RAMDisk_Start(void)
{
 8003180:	b530      	push	{r4, r5, lr}
 8003182:	f5ad 5d90 	sub.w	sp, sp, #4608	; 0x1200
 8003186:	b085      	sub	sp, #20

  FATFS *lFileSystemReferenceTemp;

  lActive = FR_NOT_READY;

  lResult = f_mkfs(ArcadeIT_Utility_Get_String_ID(DEV_RAM, (char*)gDriveName), NULL, lBuffer, sizeof(lBuffer));
 8003188:	f648 1180 	movw	r1, #35200	; 0x8980
 800318c:	f6c0 0100 	movt	r1, #2048	; 0x800
 8003190:	2000      	movs	r0, #0
 8003192:	f7fe f90f 	bl	80013b4 <ArcadeIT_Utility_Get_String_ID>
 8003196:	f44f 5380 	mov.w	r3, #4096	; 0x1000
 800319a:	aa84      	add	r2, sp, #528	; 0x210
 800319c:	2100      	movs	r1, #0
 800319e:	f001 fe62 	bl	8004e66 <f_mkfs>
  if (lResult == FR_OK)
 80031a2:	2800      	cmp	r0, #0
 80031a4:	d178      	bne.n	8003298 <ArcadeIT_RAMDisk_Start+0x118>
  {
    lResult = f_mount(&gFileSystemRAM, ArcadeIT_Utility_Get_String_ID(DEV_RAM, (char*)gDriveName), 1);
 80031a6:	f648 1180 	movw	r1, #35200	; 0x8980
 80031aa:	f6c0 0100 	movt	r1, #2048	; 0x800
 80031ae:	f7fe f901 	bl	80013b4 <ArcadeIT_Utility_Get_String_ID>
 80031b2:	2201      	movs	r2, #1
 80031b4:	4601      	mov	r1, r0
 80031b6:	f640 2098 	movw	r0, #2712	; 0xa98
 80031ba:	f2c2 0000 	movt	r0, #8192	; 0x2000
 80031be:	f001 fd06 	bl	8004bce <f_mount>
    if (lResult == FR_OK)
 80031c2:	4604      	mov	r4, r0
 80031c4:	2800      	cmp	r0, #0
 80031c6:	d154      	bne.n	8003272 <ArcadeIT_RAMDisk_Start+0xf2>
    {
      // FIXME Include only with a debug flag
      sprintf(lString, "RAM Disk Device: [%s] ", ArcadeIT_Utility_Get_String_ID(DEV_RAM, (char*)gDriveName));
 80031c8:	f648 1580 	movw	r5, #35200	; 0x8980
 80031cc:	f6c0 0500 	movt	r5, #2048	; 0x800
 80031d0:	4629      	mov	r1, r5
 80031d2:	f7fe f8ef 	bl	80013b4 <ArcadeIT_Utility_Get_String_ID>
 80031d6:	4602      	mov	r2, r0
 80031d8:	f648 0198 	movw	r1, #34968	; 0x8898
 80031dc:	f6c0 0100 	movt	r1, #2048	; 0x800
 80031e0:	a803      	add	r0, sp, #12
 80031e2:	f002 ff83 	bl	80060ec <siprintf>
      //ArcadeIT_Terminal_Debug(0, lString);
      ArcadeIT_Serial_Port_String_Send(lString);
 80031e6:	a803      	add	r0, sp, #12
 80031e8:	f7ff faa0 	bl	800272c <ArcadeIT_Serial_Port_String_Send>

      f_chdrive(ArcadeIT_Utility_Get_String_ID(DEV_RAM, (char*)gDriveName));
 80031ec:	4629      	mov	r1, r5
 80031ee:	2000      	movs	r0, #0
 80031f0:	f7fe f8e0 	bl	80013b4 <ArcadeIT_Utility_Get_String_ID>
 80031f4:	f001 fd17 	bl	8004c26 <f_chdrive>

      f_setlabel(ARCADEIT_TEXT_RAMDISK_NAME);
 80031f8:	f648 00b0 	movw	r0, #34992	; 0x88b0
 80031fc:	f6c0 0000 	movt	r0, #2048	; 0x800
 8003200:	f001 fd91 	bl	8004d26 <f_setlabel>

      lResult = f_getfree(ArcadeIT_Utility_Get_String_ID(DEV_RAM, (char*)gDriveName), &lFreeCluster, &lFileSystemReferenceTemp);
 8003204:	4629      	mov	r1, r5
 8003206:	2000      	movs	r0, #0
 8003208:	f7fe f8d4 	bl	80013b4 <ArcadeIT_Utility_Get_String_ID>
 800320c:	aa02      	add	r2, sp, #8
 800320e:	a983      	add	r1, sp, #524	; 0x20c
 8003210:	f001 fd1e 	bl	8004c50 <f_getfree>
      if (lResult == FR_OK)
 8003214:	4605      	mov	r5, r0
 8003216:	b9d0      	cbnz	r0, 800324e <ArcadeIT_RAMDisk_Start+0xce>
        // end of the formula.

        // FIXME Include only with a debug flag
        sprintf(lString,
               "%lu/%lu KiB free.\n\r",
               (lFreeCluster * ((lFileSystemReferenceTemp->csize * SECTOR_SIZE)))/1024,
 8003218:	9b02      	ldr	r3, [sp, #8]
 800321a:	8959      	ldrh	r1, [r3, #10]
 800321c:	9a83      	ldr	r2, [sp, #524]	; 0x20c
 800321e:	fb02 f201 	mul.w	r2, r2, r1
               ((lFileSystemReferenceTemp->n_fatent - 2) * ((lFileSystemReferenceTemp->csize * SECTOR_SIZE)))/1024
 8003222:	69db      	ldr	r3, [r3, #28]
 8003224:	3b02      	subs	r3, #2
 8003226:	fb03 f301 	mul.w	r3, r3, r1
        sprintf(lString,
 800322a:	a903      	add	r1, sp, #12
 800322c:	9101      	str	r1, [sp, #4]
 800322e:	f3c3 0355 	ubfx	r3, r3, #1, #22
 8003232:	f3c2 0255 	ubfx	r2, r2, #1, #22
 8003236:	f648 01b8 	movw	r1, #35000	; 0x88b8
 800323a:	f6c0 0100 	movt	r1, #2048	; 0x800
 800323e:	9801      	ldr	r0, [sp, #4]
 8003240:	f002 ff54 	bl	80060ec <siprintf>
               );
        // Print the free space.
        ArcadeIT_Serial_Port_String_Send(lString);
 8003244:	9801      	ldr	r0, [sp, #4]
 8003246:	f7ff fa71 	bl	800272c <ArcadeIT_Serial_Port_String_Send>

        return FALSE;

      } // End if get free.

      lActive = FR_OK;
 800324a:	462c      	mov	r4, r5
 800324c:	e025      	b.n	800329a <ArcadeIT_RAMDisk_Start+0x11a>
        sprintf(lString, "%s" CURSOR_NEWLINE, ArcadeIT_Utility_Get_String_ID(lResult, (char*)gErrorMessages));
 800324e:	f648 1194 	movw	r1, #35220	; 0x8994
 8003252:	f6c0 0100 	movt	r1, #2048	; 0x800
 8003256:	f7fe f8ad 	bl	80013b4 <ArcadeIT_Utility_Get_String_ID>
 800325a:	4602      	mov	r2, r0
 800325c:	f247 7128 	movw	r1, #30504	; 0x7728
 8003260:	f6c0 0100 	movt	r1, #2048	; 0x800
 8003264:	a803      	add	r0, sp, #12
 8003266:	f002 ff41 	bl	80060ec <siprintf>
        ArcadeIT_Serial_Port_String_Send(lString);
 800326a:	a803      	add	r0, sp, #12
 800326c:	f7ff fa5e 	bl	800272c <ArcadeIT_Serial_Port_String_Send>
        return FALSE;
 8003270:	e013      	b.n	800329a <ArcadeIT_RAMDisk_Start+0x11a>
    }
    else
    {
      // FIXME Include only with a debug flag
      sprintf(lString, "Mounting RAM Disk Drive: %s", ArcadeIT_Utility_Get_String_ID(lResult, (char*)gErrorMessages));
 8003272:	f648 1194 	movw	r1, #35220	; 0x8994
 8003276:	f6c0 0100 	movt	r1, #2048	; 0x800
 800327a:	f7fe f89b 	bl	80013b4 <ArcadeIT_Utility_Get_String_ID>
 800327e:	4602      	mov	r2, r0
 8003280:	f648 01cc 	movw	r1, #35020	; 0x88cc
 8003284:	f6c0 0100 	movt	r1, #2048	; 0x800
 8003288:	a803      	add	r0, sp, #12
 800328a:	f002 ff2f 	bl	80060ec <siprintf>
      //ArcadeIT_Terminal_Debug(0, lString);
      ArcadeIT_Serial_Port_String_Send(lString);
 800328e:	a803      	add	r0, sp, #12
 8003290:	f7ff fa4c 	bl	800272c <ArcadeIT_Serial_Port_String_Send>
  lActive = FR_NOT_READY;
 8003294:	2403      	movs	r4, #3
 8003296:	e000      	b.n	800329a <ArcadeIT_RAMDisk_Start+0x11a>
 8003298:	2403      	movs	r4, #3

  } // End if.

  return lActive;

} // End ArcadeIT_RAMDisk_Initialize.
 800329a:	4620      	mov	r0, r4
 800329c:	f50d 5d90 	add.w	sp, sp, #4608	; 0x1200
 80032a0:	b005      	add	sp, #20
 80032a2:	bd30      	pop	{r4, r5, pc}

080032a4 <wait_ready>:
// /////////////////////////////////////////////////////////////////////////////
static int32_t wait_ready
(
  uint32_t pTimeOut   // Timeout in milliseconds.
)
{
 80032a4:	b508      	push	{r3, lr}
  // pTimeOut:  Timeout [ms]
  // lReturnValue : 1:Ready, 0:Timeout

  uint8_t lData;

  gSecondaryTimer = pTimeOut;
 80032a6:	f240 230c 	movw	r3, #524	; 0x20c
 80032aa:	f2c2 0300 	movt	r3, #8192	; 0x2000
 80032ae:	6018      	str	r0, [r3, #0]

  do {
    lData = ArcadeIT_SPI_Port_RW_Byte(DUMMY_BYTE);
 80032b0:	20ff      	movs	r0, #255	; 0xff
 80032b2:	f7ff f818 	bl	80022e6 <ArcadeIT_SPI_Port_RW_Byte>
    // This loop takes a time. Insert rot_rdq() here for multi task environment.

  } while (lData != DUMMY_BYTE && gSecondaryTimer); // Wait for card goes ready or timeout
 80032b6:	28ff      	cmp	r0, #255	; 0xff
 80032b8:	d006      	beq.n	80032c8 <wait_ready+0x24>
 80032ba:	f240 230c 	movw	r3, #524	; 0x20c
 80032be:	f2c2 0300 	movt	r3, #8192	; 0x2000
 80032c2:	681b      	ldr	r3, [r3, #0]
 80032c4:	2b00      	cmp	r3, #0
 80032c6:	d1f3      	bne.n	80032b0 <wait_ready+0xc>

  return (lData == DUMMY_BYTE) ? 1 : 0;

} // End wait_ready.
 80032c8:	28ff      	cmp	r0, #255	; 0xff
 80032ca:	bf14      	ite	ne
 80032cc:	2000      	movne	r0, #0
 80032ce:	2001      	moveq	r0, #1
 80032d0:	bd08      	pop	{r3, pc}

080032d2 <sd_deselect>:

// /////////////////////////////////////////////////////////////////////////////
static void sd_deselect(void)
{
 80032d2:	b508      	push	{r3, lr}
  // Deselect card and release SPI.
  SYS_SPI_CS_HIGH();
 80032d4:	f44f 6300 	mov.w	r3, #2048	; 0x800
 80032d8:	f2c4 0302 	movt	r3, #16386	; 0x4002
 80032dc:	695a      	ldr	r2, [r3, #20]
 80032de:	f042 0210 	orr.w	r2, r2, #16
 80032e2:	615a      	str	r2, [r3, #20]

  // Dummy clock (force DO hi-z for multiple slave SPI).
  ArcadeIT_SPI_Port_RW_Byte(DUMMY_BYTE);
 80032e4:	20ff      	movs	r0, #255	; 0xff
 80032e6:	f7fe fffe 	bl	80022e6 <ArcadeIT_SPI_Port_RW_Byte>

} // End sd_deselect.
 80032ea:	bd08      	pop	{r3, pc}

080032ec <sd_select>:

// /////////////////////////////////////////////////////////////////////////////
static int sd_select (void) /* 1:OK, 0:Timeout */
{
 80032ec:	b508      	push	{r3, lr}
  // Select card and wait for ready
  // lReturnValue :  1:OK, 0:Timeout
  SYS_SPI_CS_LOW();
 80032ee:	f44f 6300 	mov.w	r3, #2048	; 0x800
 80032f2:	f2c4 0302 	movt	r3, #16386	; 0x4002
 80032f6:	695a      	ldr	r2, [r3, #20]
 80032f8:	f022 0210 	bic.w	r2, r2, #16
 80032fc:	615a      	str	r2, [r3, #20]

  // Dummy clock (force DO enabled).
  ArcadeIT_SPI_Port_RW_Byte(DUMMY_BYTE);
 80032fe:	20ff      	movs	r0, #255	; 0xff
 8003300:	f7fe fff1 	bl	80022e6 <ArcadeIT_SPI_Port_RW_Byte>

  if (wait_ready(ARCADEIT_MILLISECOND)) return TRUE; // OK
 8003304:	f44f 707a 	mov.w	r0, #1000	; 0x3e8
 8003308:	f7ff ffcc 	bl	80032a4 <wait_ready>
 800330c:	b108      	cbz	r0, 8003312 <sd_select+0x26>
 800330e:	2001      	movs	r0, #1

  sd_deselect();

  return FALSE; // Timeout.

} // End sd_select.
 8003310:	bd08      	pop	{r3, pc}
  sd_deselect();
 8003312:	f7ff ffde 	bl	80032d2 <sd_deselect>
  return FALSE; // Timeout.
 8003316:	2000      	movs	r0, #0
 8003318:	e7fa      	b.n	8003310 <sd_select+0x24>

0800331a <send_cmd>:
(
  BYTE  pCommand,   // Command index
  DWORD pArgument   // Argument
                    // Return value: R1 resp (bit7==1:Failed to send)
)
{
 800331a:	b538      	push	{r3, r4, r5, lr}
 800331c:	4604      	mov	r4, r0
 800331e:	460d      	mov	r5, r1
  BYTE n, lResult;

  uint8_t lData;

  if (pCommand & 0x80)
 8003320:	f010 0f80 	tst.w	r0, #128	; 0x80
 8003324:	d12c      	bne.n	8003380 <send_cmd+0x66>
    if (lResult > 1) return lResult;

  } // End if.

  // Select the card and wait for ready except to stop multiple block read.
  if (pCommand != CMD12)
 8003326:	2c0c      	cmp	r4, #12
 8003328:	d004      	beq.n	8003334 <send_cmd+0x1a>
  {
    sd_deselect();
 800332a:	f7ff ffd2 	bl	80032d2 <sd_deselect>

    if (!sd_select()) return DUMMY_BYTE;
 800332e:	f7ff ffdd 	bl	80032ec <sd_select>
 8003332:	b3b0      	cbz	r0, 80033a2 <send_cmd+0x88>

  } // End if.

  // Send command packet.
  ArcadeIT_SPI_Port_RW_Byte(0x40 | pCommand);          // Start + command index
 8003334:	f044 0040 	orr.w	r0, r4, #64	; 0x40
 8003338:	f7fe ffd5 	bl	80022e6 <ArcadeIT_SPI_Port_RW_Byte>
  ArcadeIT_SPI_Port_RW_Byte((pArgument >> 24) & 0xFF); // Argument[31..24]
 800333c:	0e28      	lsrs	r0, r5, #24
 800333e:	f7fe ffd2 	bl	80022e6 <ArcadeIT_SPI_Port_RW_Byte>
  ArcadeIT_SPI_Port_RW_Byte((pArgument >> 16) & 0xFF); // Argument[23..16]
 8003342:	f3c5 4007 	ubfx	r0, r5, #16, #8
 8003346:	f7fe ffce 	bl	80022e6 <ArcadeIT_SPI_Port_RW_Byte>
  ArcadeIT_SPI_Port_RW_Byte((pArgument >> 8) & 0xFF);  // Argument[15..8]
 800334a:	f3c5 2007 	ubfx	r0, r5, #8, #8
 800334e:	f7fe ffca 	bl	80022e6 <ArcadeIT_SPI_Port_RW_Byte>
  ArcadeIT_SPI_Port_RW_Byte(pArgument & 0xFF);         // Argument[7..0]
 8003352:	b2e8      	uxtb	r0, r5
 8003354:	f7fe ffc7 	bl	80022e6 <ArcadeIT_SPI_Port_RW_Byte>

  lData = 0x01;                        // Dummy CRC + Stop.
  if (pCommand == CMD0) lData = 0x95;  // Valid CRC for CMD0(0).
 8003358:	b1dc      	cbz	r4, 8003392 <send_cmd+0x78>
  lData = 0x01;                        // Dummy CRC + Stop.
 800335a:	2001      	movs	r0, #1
  if (pCommand == CMD8) lData = 0x87;  // Valid CRC for CMD8(0x1AA).
 800335c:	2c08      	cmp	r4, #8
 800335e:	d01a      	beq.n	8003396 <send_cmd+0x7c>

  ArcadeIT_SPI_Port_RW_Byte(lData);
 8003360:	f7fe ffc1 	bl	80022e6 <ArcadeIT_SPI_Port_RW_Byte>

  // Receive command response.
  lData = DUMMY_BYTE;

  // Discard following one byte when CMD12.
  if (pCommand == CMD12) ArcadeIT_SPI_Port_RW_Byte(lData);
 8003364:	2c0c      	cmp	r4, #12
 8003366:	d018      	beq.n	800339a <send_cmd+0x80>
  if (pCommand == CMD8) lData = 0x87;  // Valid CRC for CMD8(0x1AA).
 8003368:	240a      	movs	r4, #10

  // Wait for response (10 bytes max).
  n = 10;
  do {
    lResult = ArcadeIT_SPI_Port_RW_Byte(lData);
 800336a:	20ff      	movs	r0, #255	; 0xff
 800336c:	f7fe ffbb 	bl	80022e6 <ArcadeIT_SPI_Port_RW_Byte>

  } while ((lResult & 0x80) && --n);
 8003370:	f010 0f80 	tst.w	r0, #128	; 0x80
 8003374:	d003      	beq.n	800337e <send_cmd+0x64>
 8003376:	1e63      	subs	r3, r4, #1
 8003378:	f013 04ff 	ands.w	r4, r3, #255	; 0xff
 800337c:	d1f5      	bne.n	800336a <send_cmd+0x50>

  // Return received response.
  return lResult;

} // End send_cmd.
 800337e:	bd38      	pop	{r3, r4, r5, pc}
    pCommand &= 0x7F;
 8003380:	f000 047f 	and.w	r4, r0, #127	; 0x7f
    lResult = send_cmd(CMD55, 0);
 8003384:	2100      	movs	r1, #0
 8003386:	2037      	movs	r0, #55	; 0x37
 8003388:	f7ff ffc7 	bl	800331a <send_cmd>
    if (lResult > 1) return lResult;
 800338c:	2801      	cmp	r0, #1
 800338e:	d8f6      	bhi.n	800337e <send_cmd+0x64>
 8003390:	e7c9      	b.n	8003326 <send_cmd+0xc>
  if (pCommand == CMD0) lData = 0x95;  // Valid CRC for CMD0(0).
 8003392:	2095      	movs	r0, #149	; 0x95
 8003394:	e7e2      	b.n	800335c <send_cmd+0x42>
  if (pCommand == CMD8) lData = 0x87;  // Valid CRC for CMD8(0x1AA).
 8003396:	2087      	movs	r0, #135	; 0x87
 8003398:	e7e2      	b.n	8003360 <send_cmd+0x46>
  if (pCommand == CMD12) ArcadeIT_SPI_Port_RW_Byte(lData);
 800339a:	20ff      	movs	r0, #255	; 0xff
 800339c:	f7fe ffa3 	bl	80022e6 <ArcadeIT_SPI_Port_RW_Byte>
 80033a0:	e7e2      	b.n	8003368 <send_cmd+0x4e>
    if (!sd_select()) return DUMMY_BYTE;
 80033a2:	20ff      	movs	r0, #255	; 0xff
 80033a4:	e7eb      	b.n	800337e <send_cmd+0x64>

080033a6 <sd_read_block>:
{
 80033a6:	b538      	push	{r3, r4, r5, lr}
 80033a8:	4604      	mov	r4, r0
 80033aa:	460d      	mov	r5, r1
  gSecondaryTimer = 200;
 80033ac:	f240 230c 	movw	r3, #524	; 0x20c
 80033b0:	f2c2 0300 	movt	r3, #8192	; 0x2000
 80033b4:	22c8      	movs	r2, #200	; 0xc8
 80033b6:	601a      	str	r2, [r3, #0]
    lToken = ArcadeIT_SPI_Port_RW_Byte(DUMMY_BYTE);
 80033b8:	20ff      	movs	r0, #255	; 0xff
 80033ba:	f7fe ff94 	bl	80022e6 <ArcadeIT_SPI_Port_RW_Byte>
  } while ((lToken == DUMMY_BYTE) && gSecondaryTimer);
 80033be:	28ff      	cmp	r0, #255	; 0xff
 80033c0:	d106      	bne.n	80033d0 <sd_read_block+0x2a>
 80033c2:	f240 230c 	movw	r3, #524	; 0x20c
 80033c6:	f2c2 0300 	movt	r3, #8192	; 0x2000
 80033ca:	681b      	ldr	r3, [r3, #0]
 80033cc:	2b00      	cmp	r3, #0
 80033ce:	d1f3      	bne.n	80033b8 <sd_read_block+0x12>
  if(lToken != 0xFE) return 0;
 80033d0:	28fe      	cmp	r0, #254	; 0xfe
 80033d2:	d001      	beq.n	80033d8 <sd_read_block+0x32>
 80033d4:	2000      	movs	r0, #0
} // End sd_read_block.
 80033d6:	bd38      	pop	{r3, r4, r5, pc}
  ArcadeIT_SPI_Port_Read_Buffer(pBuffer, pNumberOfBytes);
 80033d8:	4629      	mov	r1, r5
 80033da:	4620      	mov	r0, r4
 80033dc:	f7fe ffab 	bl	8002336 <ArcadeIT_SPI_Port_Read_Buffer>
  ArcadeIT_SPI_Port_RW_Byte(DUMMY_BYTE);
 80033e0:	20ff      	movs	r0, #255	; 0xff
 80033e2:	f7fe ff80 	bl	80022e6 <ArcadeIT_SPI_Port_RW_Byte>
  ArcadeIT_SPI_Port_RW_Byte(DUMMY_BYTE);
 80033e6:	20ff      	movs	r0, #255	; 0xff
 80033e8:	f7fe ff7d 	bl	80022e6 <ArcadeIT_SPI_Port_RW_Byte>
  return 1;
 80033ec:	2001      	movs	r0, #1
 80033ee:	e7f2      	b.n	80033d6 <sd_read_block+0x30>

080033f0 <sd_write_block>:
{
 80033f0:	b538      	push	{r3, r4, r5, lr}
 80033f2:	4605      	mov	r5, r0
 80033f4:	460c      	mov	r4, r1
  if (!wait_ready(500)) return 0;
 80033f6:	f44f 70fa 	mov.w	r0, #500	; 0x1f4
 80033fa:	f7ff ff53 	bl	80032a4 <wait_ready>
 80033fe:	b908      	cbnz	r0, 8003404 <sd_write_block+0x14>
 8003400:	2000      	movs	r0, #0
} // End sd_write_block.
 8003402:	bd38      	pop	{r3, r4, r5, pc}
  ArcadeIT_SPI_Port_RW_Byte(pToken);
 8003404:	4620      	mov	r0, r4
 8003406:	f7fe ff6e 	bl	80022e6 <ArcadeIT_SPI_Port_RW_Byte>
  if (pToken != 0xFD)
 800340a:	2cfd      	cmp	r4, #253	; 0xfd
 800340c:	d013      	beq.n	8003436 <sd_write_block+0x46>
    ArcadeIT_SPI_Port_Write_Buffer(pBuffer, 512);
 800340e:	f44f 7100 	mov.w	r1, #512	; 0x200
 8003412:	4628      	mov	r0, r5
 8003414:	f7fe ff9c 	bl	8002350 <ArcadeIT_SPI_Port_Write_Buffer>
    ArcadeIT_SPI_Port_RW_Byte(DUMMY_BYTE);
 8003418:	20ff      	movs	r0, #255	; 0xff
 800341a:	f7fe ff64 	bl	80022e6 <ArcadeIT_SPI_Port_RW_Byte>
    ArcadeIT_SPI_Port_RW_Byte(DUMMY_BYTE);
 800341e:	20ff      	movs	r0, #255	; 0xff
 8003420:	f7fe ff61 	bl	80022e6 <ArcadeIT_SPI_Port_RW_Byte>
    lResponse = ArcadeIT_SPI_Port_RW_Byte(DUMMY_BYTE);
 8003424:	20ff      	movs	r0, #255	; 0xff
 8003426:	f7fe ff5e 	bl	80022e6 <ArcadeIT_SPI_Port_RW_Byte>
    if ((lResponse & 0x1F) != 0x05) return 0;
 800342a:	f000 001f 	and.w	r0, r0, #31
 800342e:	2805      	cmp	r0, #5
 8003430:	d003      	beq.n	800343a <sd_write_block+0x4a>
 8003432:	2000      	movs	r0, #0
 8003434:	e7e5      	b.n	8003402 <sd_write_block+0x12>
  return 1;
 8003436:	2001      	movs	r0, #1
 8003438:	e7e3      	b.n	8003402 <sd_write_block+0x12>
 800343a:	2001      	movs	r0, #1
 800343c:	e7e1      	b.n	8003402 <sd_write_block+0x12>

0800343e <ArcadeIT_SDCard_Disk_Initialize>:

// /////////////////////////////////////////////////////////////////////////////
DSTATUS ArcadeIT_SDCard_Disk_Initialize(void)
{
 800343e:	b570      	push	{r4, r5, r6, lr}
 8003440:	b082      	sub	sp, #8
  BYTE n, cmd, ty, ocr[4];

  BYTE lData = DUMMY_BYTE;

  SYS_SPI_SLOW();
 8003442:	f44f 5340 	mov.w	r3, #12288	; 0x3000
 8003446:	f2c4 0301 	movt	r3, #16385	; 0x4001
 800344a:	681a      	ldr	r2, [r3, #0]
 800344c:	f042 0238 	orr.w	r2, r2, #56	; 0x38
 8003450:	601a      	str	r2, [r3, #0]

  // Send 80 dummy clocks.
  for (n = 40; n; n--) ArcadeIT_SPI_Port_RW_Byte(DUMMY_BYTE);
 8003452:	2428      	movs	r4, #40	; 0x28
 8003454:	e004      	b.n	8003460 <ArcadeIT_SDCard_Disk_Initialize+0x22>
 8003456:	20ff      	movs	r0, #255	; 0xff
 8003458:	f7fe ff45 	bl	80022e6 <ArcadeIT_SPI_Port_RW_Byte>
 800345c:	3c01      	subs	r4, #1
 800345e:	b2e4      	uxtb	r4, r4
 8003460:	2c00      	cmp	r4, #0
 8003462:	d1f8      	bne.n	8003456 <ArcadeIT_SDCard_Disk_Initialize+0x18>

  ty = 0;
  if (send_cmd(CMD0, 0) == 1)
 8003464:	2100      	movs	r1, #0
 8003466:	4608      	mov	r0, r1
 8003468:	f7ff ff57 	bl	800331a <send_cmd>
 800346c:	4605      	mov	r5, r0
 800346e:	2801      	cmp	r0, #1
 8003470:	d016      	beq.n	80034a0 <ArcadeIT_SDCard_Disk_Initialize+0x62>

    } // End if.

  } // End if.

  gCardType = ty;  // Card type
 8003472:	f640 730c 	movw	r3, #3852	; 0xf0c
 8003476:	f2c2 0300 	movt	r3, #8192	; 0x2000
 800347a:	701c      	strb	r4, [r3, #0]

  sd_deselect();
 800347c:	f7ff ff29 	bl	80032d2 <sd_deselect>

  if (ty)
 8003480:	2c00      	cmp	r4, #0
 8003482:	f040 808e 	bne.w	80035a2 <ArcadeIT_SDCard_Disk_Initialize+0x164>
    gStatus[DEV_SD] &= ~STA_NOINIT;  // Clear STA_NOINIT flag
  }
  else
  {
    // Failed
    gStatus[DEV_SD] = STA_NOINIT;
 8003486:	f240 0310 	movw	r3, #16
 800348a:	f2c2 0300 	movt	r3, #8192	; 0x2000
 800348e:	2201      	movs	r2, #1
 8003490:	705a      	strb	r2, [r3, #1]

  } // End if.

  return gStatus[DEV_SD];
 8003492:	f240 0310 	movw	r3, #16
 8003496:	f2c2 0300 	movt	r3, #8192	; 0x2000

} // End ArcadeIT_SDCard_Disk_Initialize.
 800349a:	7858      	ldrb	r0, [r3, #1]
 800349c:	b002      	add	sp, #8
 800349e:	bd70      	pop	{r4, r5, r6, pc}
    if (send_cmd(CMD8, 0x1AA) == 1)
 80034a0:	f44f 71d5 	mov.w	r1, #426	; 0x1aa
 80034a4:	2008      	movs	r0, #8
 80034a6:	f7ff ff38 	bl	800331a <send_cmd>
 80034aa:	2801      	cmp	r0, #1
 80034ac:	d148      	bne.n	8003540 <ArcadeIT_SDCard_Disk_Initialize+0x102>
      for (n = 0; n < 4; n++)
 80034ae:	4625      	mov	r5, r4
 80034b0:	e008      	b.n	80034c4 <ArcadeIT_SDCard_Disk_Initialize+0x86>
        lData = ArcadeIT_SPI_Port_RW_Byte(DUMMY_BYTE);
 80034b2:	20ff      	movs	r0, #255	; 0xff
 80034b4:	f7fe ff17 	bl	80022e6 <ArcadeIT_SPI_Port_RW_Byte>
        ocr[n] = lData;
 80034b8:	ab02      	add	r3, sp, #8
 80034ba:	442b      	add	r3, r5
 80034bc:	f803 0c04 	strb.w	r0, [r3, #-4]
      for (n = 0; n < 4; n++)
 80034c0:	3501      	adds	r5, #1
 80034c2:	b2ed      	uxtb	r5, r5
 80034c4:	2d03      	cmp	r5, #3
 80034c6:	d9f4      	bls.n	80034b2 <ArcadeIT_SDCard_Disk_Initialize+0x74>
      if (ocr[2] == 0x01 && ocr[3] == 0xAA)
 80034c8:	f89d 3006 	ldrb.w	r3, [sp, #6]
 80034cc:	2b01      	cmp	r3, #1
 80034ce:	d1d0      	bne.n	8003472 <ArcadeIT_SDCard_Disk_Initialize+0x34>
 80034d0:	f89d 3007 	ldrb.w	r3, [sp, #7]
 80034d4:	2baa      	cmp	r3, #170	; 0xaa
 80034d6:	d1cc      	bne.n	8003472 <ArcadeIT_SDCard_Disk_Initialize+0x34>
        gSecondaryTimer = ARCADEIT_MILLISECOND;
 80034d8:	f240 230c 	movw	r3, #524	; 0x20c
 80034dc:	f2c2 0300 	movt	r3, #8192	; 0x2000
 80034e0:	f44f 727a 	mov.w	r2, #1000	; 0x3e8
 80034e4:	601a      	str	r2, [r3, #0]
        while (gSecondaryTimer && send_cmd(ACMD41, 1UL << 30)); // Wait for end of initialization with ACMD41(HCS)
 80034e6:	f240 230c 	movw	r3, #524	; 0x20c
 80034ea:	f2c2 0300 	movt	r3, #8192	; 0x2000
 80034ee:	681b      	ldr	r3, [r3, #0]
 80034f0:	b133      	cbz	r3, 8003500 <ArcadeIT_SDCard_Disk_Initialize+0xc2>
 80034f2:	f04f 4180 	mov.w	r1, #1073741824	; 0x40000000
 80034f6:	20a9      	movs	r0, #169	; 0xa9
 80034f8:	f7ff ff0f 	bl	800331a <send_cmd>
 80034fc:	2800      	cmp	r0, #0
 80034fe:	d1f2      	bne.n	80034e6 <ArcadeIT_SDCard_Disk_Initialize+0xa8>
        if (gSecondaryTimer && send_cmd(CMD58, 0) == 0)
 8003500:	f240 230c 	movw	r3, #524	; 0x20c
 8003504:	f2c2 0300 	movt	r3, #8192	; 0x2000
 8003508:	681b      	ldr	r3, [r3, #0]
 800350a:	2b00      	cmp	r3, #0
 800350c:	d0b1      	beq.n	8003472 <ArcadeIT_SDCard_Disk_Initialize+0x34>
 800350e:	2100      	movs	r1, #0
 8003510:	203a      	movs	r0, #58	; 0x3a
 8003512:	f7ff ff02 	bl	800331a <send_cmd>
 8003516:	4605      	mov	r5, r0
 8003518:	b148      	cbz	r0, 800352e <ArcadeIT_SDCard_Disk_Initialize+0xf0>
 800351a:	e7aa      	b.n	8003472 <ArcadeIT_SDCard_Disk_Initialize+0x34>
            lData = ArcadeIT_SPI_Port_RW_Byte(DUMMY_BYTE);
 800351c:	20ff      	movs	r0, #255	; 0xff
 800351e:	f7fe fee2 	bl	80022e6 <ArcadeIT_SPI_Port_RW_Byte>
            ocr[n] = lData;
 8003522:	ab02      	add	r3, sp, #8
 8003524:	442b      	add	r3, r5
 8003526:	f803 0c04 	strb.w	r0, [r3, #-4]
          for (n = 0; n < 4; n++)
 800352a:	3501      	adds	r5, #1
 800352c:	b2ed      	uxtb	r5, r5
 800352e:	2d03      	cmp	r5, #3
 8003530:	d9f4      	bls.n	800351c <ArcadeIT_SDCard_Disk_Initialize+0xde>
          ty = (ocr[0] & 0x40) ? CT_SD2 | CT_BLOCK : CT_SD2;  // Card id SDv2
 8003532:	f89d 3004 	ldrb.w	r3, [sp, #4]
 8003536:	f013 0f40 	tst.w	r3, #64	; 0x40
 800353a:	d030      	beq.n	800359e <ArcadeIT_SDCard_Disk_Initialize+0x160>
 800353c:	240c      	movs	r4, #12
 800353e:	e798      	b.n	8003472 <ArcadeIT_SDCard_Disk_Initialize+0x34>
      if (send_cmd(ACMD41, 0) <= 1)
 8003540:	2100      	movs	r1, #0
 8003542:	20a9      	movs	r0, #169	; 0xa9
 8003544:	f7ff fee9 	bl	800331a <send_cmd>
 8003548:	2801      	cmp	r0, #1
 800354a:	d925      	bls.n	8003598 <ArcadeIT_SDCard_Disk_Initialize+0x15a>
        ty = CT_MMC;
 800354c:	462e      	mov	r6, r5
      gSecondaryTimer = ARCADEIT_MILLISECOND;
 800354e:	f240 230c 	movw	r3, #524	; 0x20c
 8003552:	f2c2 0300 	movt	r3, #8192	; 0x2000
 8003556:	f44f 727a 	mov.w	r2, #1000	; 0x3e8
 800355a:	601a      	str	r2, [r3, #0]
      while (gSecondaryTimer && send_cmd(cmd, 0));    // Wait for end of initialization
 800355c:	f240 230c 	movw	r3, #524	; 0x20c
 8003560:	f2c2 0300 	movt	r3, #8192	; 0x2000
 8003564:	681b      	ldr	r3, [r3, #0]
 8003566:	b12b      	cbz	r3, 8003574 <ArcadeIT_SDCard_Disk_Initialize+0x136>
 8003568:	2100      	movs	r1, #0
 800356a:	4628      	mov	r0, r5
 800356c:	f7ff fed5 	bl	800331a <send_cmd>
 8003570:	2800      	cmp	r0, #0
 8003572:	d1f3      	bne.n	800355c <ArcadeIT_SDCard_Disk_Initialize+0x11e>
      if (!gSecondaryTimer || send_cmd(CMD16, 512) != 0) // Set block length: 512
 8003574:	f240 230c 	movw	r3, #524	; 0x20c
 8003578:	f2c2 0300 	movt	r3, #8192	; 0x2000
 800357c:	681b      	ldr	r3, [r3, #0]
 800357e:	2b00      	cmp	r3, #0
 8003580:	f43f af77 	beq.w	8003472 <ArcadeIT_SDCard_Disk_Initialize+0x34>
 8003584:	f44f 7100 	mov.w	r1, #512	; 0x200
 8003588:	2010      	movs	r0, #16
 800358a:	f7ff fec6 	bl	800331a <send_cmd>
 800358e:	2800      	cmp	r0, #0
 8003590:	f47f af6f 	bne.w	8003472 <ArcadeIT_SDCard_Disk_Initialize+0x34>
 8003594:	4634      	mov	r4, r6
 8003596:	e76c      	b.n	8003472 <ArcadeIT_SDCard_Disk_Initialize+0x34>
        ty = CT_SD1;
 8003598:	2602      	movs	r6, #2
        cmd = ACMD41;  // SDv1 (ACMD41(0))
 800359a:	25a9      	movs	r5, #169	; 0xa9
 800359c:	e7d7      	b.n	800354e <ArcadeIT_SDCard_Disk_Initialize+0x110>
          ty = (ocr[0] & 0x40) ? CT_SD2 | CT_BLOCK : CT_SD2;  // Card id SDv2
 800359e:	2404      	movs	r4, #4
 80035a0:	e767      	b.n	8003472 <ArcadeIT_SDCard_Disk_Initialize+0x34>
    SYS_SPI_FAST();                      // Set fast clock
 80035a2:	f44f 5240 	mov.w	r2, #12288	; 0x3000
 80035a6:	f2c4 0201 	movt	r2, #16385	; 0x4001
 80035aa:	6813      	ldr	r3, [r2, #0]
 80035ac:	f023 0338 	bic.w	r3, r3, #56	; 0x38
 80035b0:	f043 0308 	orr.w	r3, r3, #8
 80035b4:	6013      	str	r3, [r2, #0]
    gStatus[DEV_SD] &= ~STA_NOINIT;  // Clear STA_NOINIT flag
 80035b6:	f240 0310 	movw	r3, #16
 80035ba:	f2c2 0300 	movt	r3, #8192	; 0x2000
 80035be:	785a      	ldrb	r2, [r3, #1]
 80035c0:	f022 0201 	bic.w	r2, r2, #1
 80035c4:	705a      	strb	r2, [r3, #1]
 80035c6:	e764      	b.n	8003492 <ArcadeIT_SDCard_Disk_Initialize+0x54>

080035c8 <ArcadeIT_SDCard_Disk_Status>:

// /////////////////////////////////////////////////////////////////////////////
DSTATUS ArcadeIT_SDCard_Disk_Status (void)
{
  // Return disk status.
  return gStatus[DEV_SD];
 80035c8:	f240 0310 	movw	r3, #16
 80035cc:	f2c2 0300 	movt	r3, #8192	; 0x2000

} // End ArcadeIT_SDCard_Disk_Status.
 80035d0:	7858      	ldrb	r0, [r3, #1]
 80035d2:	4770      	bx	lr

080035d4 <ArcadeIT_SDCard_Disk_Read>:
  BYTE *pBuffer,   // Pointer to the data buffer to store read data
  DWORD pSector,   // Start pSector number (LBA)
  UINT  pCount     // Number of sectors to read (1..128)
)
{
  if (!pCount) return RES_PARERR;   // Check parameter
 80035d4:	2a00      	cmp	r2, #0
 80035d6:	d03b      	beq.n	8003650 <ArcadeIT_SDCard_Disk_Read+0x7c>
{
 80035d8:	b538      	push	{r3, r4, r5, lr}
 80035da:	4605      	mov	r5, r0
 80035dc:	4614      	mov	r4, r2

  if (gStatus[DEV_SD] & STA_NOINIT) return RES_NOTRDY; // Check if drive is ready
 80035de:	f240 0310 	movw	r3, #16
 80035e2:	f2c2 0300 	movt	r3, #8192	; 0x2000
 80035e6:	785b      	ldrb	r3, [r3, #1]
 80035e8:	f013 0f01 	tst.w	r3, #1
 80035ec:	d132      	bne.n	8003654 <ArcadeIT_SDCard_Disk_Read+0x80>

  if (!(gCardType & CT_BLOCK)) pSector *= 512;  // LBA of BA conversion (byte addressing cards)
 80035ee:	f640 730c 	movw	r3, #3852	; 0xf0c
 80035f2:	f2c2 0300 	movt	r3, #8192	; 0x2000
 80035f6:	781b      	ldrb	r3, [r3, #0]
 80035f8:	f013 0f08 	tst.w	r3, #8
 80035fc:	d100      	bne.n	8003600 <ArcadeIT_SDCard_Disk_Read+0x2c>
 80035fe:	0249      	lsls	r1, r1, #9

  if (pCount == 1)
 8003600:	2c01      	cmp	r4, #1
 8003602:	d017      	beq.n	8003634 <ArcadeIT_SDCard_Disk_Read+0x60>
    }
  }
  else
  {
    // Multiple pSector read
    if (send_cmd(CMD18, pSector) == 0)
 8003604:	2012      	movs	r0, #18
 8003606:	f7ff fe88 	bl	800331a <send_cmd>
 800360a:	b968      	cbnz	r0, 8003628 <ArcadeIT_SDCard_Disk_Read+0x54>
    {
      // READ_MULTIPLE_BLOCK
      do {
        if (!sd_read_block(pBuffer, 512)) break;
 800360c:	f44f 7100 	mov.w	r1, #512	; 0x200
 8003610:	4628      	mov	r0, r5
 8003612:	f7ff fec8 	bl	80033a6 <sd_read_block>
 8003616:	b118      	cbz	r0, 8003620 <ArcadeIT_SDCard_Disk_Read+0x4c>

        pBuffer += 512;
 8003618:	f505 7500 	add.w	r5, r5, #512	; 0x200

      } while (--pCount);
 800361c:	3c01      	subs	r4, #1
 800361e:	d1f5      	bne.n	800360c <ArcadeIT_SDCard_Disk_Read+0x38>

      // STOP_TRANSMISSION
      send_cmd(CMD12, 0);
 8003620:	2100      	movs	r1, #0
 8003622:	200c      	movs	r0, #12
 8003624:	f7ff fe79 	bl	800331a <send_cmd>
    }
  }

  sd_deselect();
 8003628:	f7ff fe53 	bl	80032d2 <sd_deselect>

  // Return result
  return pCount ? RES_ERROR : RES_OK;
 800362c:	1c20      	adds	r0, r4, #0
 800362e:	bf18      	it	ne
 8003630:	2001      	movne	r0, #1

} // End ArcadeIT_SDCard_Disk_Read.
 8003632:	bd38      	pop	{r3, r4, r5, pc}
    if ((send_cmd(CMD17, pSector) == 0) && sd_read_block(pBuffer, 512))
 8003634:	2011      	movs	r0, #17
 8003636:	f7ff fe70 	bl	800331a <send_cmd>
 800363a:	2800      	cmp	r0, #0
 800363c:	d1f4      	bne.n	8003628 <ArcadeIT_SDCard_Disk_Read+0x54>
 800363e:	f44f 7100 	mov.w	r1, #512	; 0x200
 8003642:	4628      	mov	r0, r5
 8003644:	f7ff feaf 	bl	80033a6 <sd_read_block>
 8003648:	2800      	cmp	r0, #0
 800364a:	d0ed      	beq.n	8003628 <ArcadeIT_SDCard_Disk_Read+0x54>
      pCount = 0;
 800364c:	2400      	movs	r4, #0
 800364e:	e7eb      	b.n	8003628 <ArcadeIT_SDCard_Disk_Read+0x54>
  if (!pCount) return RES_PARERR;   // Check parameter
 8003650:	2004      	movs	r0, #4
} // End ArcadeIT_SDCard_Disk_Read.
 8003652:	4770      	bx	lr
  if (gStatus[DEV_SD] & STA_NOINIT) return RES_NOTRDY; // Check if drive is ready
 8003654:	2003      	movs	r0, #3
 8003656:	e7ec      	b.n	8003632 <ArcadeIT_SDCard_Disk_Read+0x5e>

08003658 <ArcadeIT_SDCard_Disk_Write>:
  const BYTE *pBuffer,   // Pointer to the data to write
  DWORD pSector,   // Start pSector number (LBA)
  UINT  pCount     // Number of sectors to write (1..128)
)
{
  if (!pCount) return RES_PARERR;   // Check parameter
 8003658:	2a00      	cmp	r2, #0
 800365a:	d04a      	beq.n	80036f2 <ArcadeIT_SDCard_Disk_Write+0x9a>
{
 800365c:	b570      	push	{r4, r5, r6, lr}
 800365e:	4605      	mov	r5, r0
 8003660:	460e      	mov	r6, r1
 8003662:	4614      	mov	r4, r2
  if (gStatus[DEV_SD] & STA_NOINIT) return RES_NOTRDY; // Check if drive is ready
 8003664:	f240 0310 	movw	r3, #16
 8003668:	f2c2 0300 	movt	r3, #8192	; 0x2000
 800366c:	785b      	ldrb	r3, [r3, #1]
 800366e:	f013 0f01 	tst.w	r3, #1
 8003672:	d140      	bne.n	80036f6 <ArcadeIT_SDCard_Disk_Write+0x9e>
  if (gStatus[DEV_SD] & STA_PROTECT) return RES_WRPRT; // Check write protect
 8003674:	f013 0f04 	tst.w	r3, #4
 8003678:	d13f      	bne.n	80036fa <ArcadeIT_SDCard_Disk_Write+0xa2>

  if (!(gCardType & CT_BLOCK)) pSector *= 512;  // LBA ==> BA conversion (byte addressing cards)
 800367a:	f640 730c 	movw	r3, #3852	; 0xf0c
 800367e:	f2c2 0300 	movt	r3, #8192	; 0x2000
 8003682:	781b      	ldrb	r3, [r3, #0]
 8003684:	f013 0f08 	tst.w	r3, #8
 8003688:	d100      	bne.n	800368c <ArcadeIT_SDCard_Disk_Write+0x34>
 800368a:	024e      	lsls	r6, r1, #9

  if (pCount == 1)
 800368c:	2c01      	cmp	r4, #1
 800368e:	d01b      	beq.n	80036c8 <ArcadeIT_SDCard_Disk_Write+0x70>

    } // End if.
  }
  else
  {        // Multiple pSector write
    if (gCardType & CT_SDC) send_cmd(ACMD23, pCount); // Predefine number of sectors
 8003690:	f013 0f06 	tst.w	r3, #6
 8003694:	d126      	bne.n	80036e4 <ArcadeIT_SDCard_Disk_Write+0x8c>

    if (send_cmd(CMD25, pSector) == 0)
 8003696:	4631      	mov	r1, r6
 8003698:	2019      	movs	r0, #25
 800369a:	f7ff fe3e 	bl	800331a <send_cmd>
 800369e:	b968      	cbnz	r0, 80036bc <ArcadeIT_SDCard_Disk_Write+0x64>
    {
      // WRITE_MULTIPLE_BLOCK
      do {
        if (!sd_write_block((BYTE*)pBuffer, 0xFC)) break;
 80036a0:	21fc      	movs	r1, #252	; 0xfc
 80036a2:	4628      	mov	r0, r5
 80036a4:	f7ff fea4 	bl	80033f0 <sd_write_block>
 80036a8:	b118      	cbz	r0, 80036b2 <ArcadeIT_SDCard_Disk_Write+0x5a>

        pBuffer += 512;
 80036aa:	f505 7500 	add.w	r5, r5, #512	; 0x200

      } while (--pCount);
 80036ae:	3c01      	subs	r4, #1
 80036b0:	d1f6      	bne.n	80036a0 <ArcadeIT_SDCard_Disk_Write+0x48>

      if (!sd_write_block(0, 0xFD)) pCount = 1;  // STOP_TRAN token
 80036b2:	21fd      	movs	r1, #253	; 0xfd
 80036b4:	2000      	movs	r0, #0
 80036b6:	f7ff fe9b 	bl	80033f0 <sd_write_block>
 80036ba:	b1c0      	cbz	r0, 80036ee <ArcadeIT_SDCard_Disk_Write+0x96>

    } // End if.

  } // End if.

  sd_deselect();
 80036bc:	f7ff fe09 	bl	80032d2 <sd_deselect>

  // Return result.
  return pCount ? RES_ERROR : RES_OK;
 80036c0:	1c20      	adds	r0, r4, #0
 80036c2:	bf18      	it	ne
 80036c4:	2001      	movne	r0, #1

} // End ArcadeIT_SDCard_Disk_Write.
 80036c6:	bd70      	pop	{r4, r5, r6, pc}
    if ((send_cmd(CMD24, pSector) == 0) && sd_write_block((BYTE*)pBuffer, 0xFE))
 80036c8:	4631      	mov	r1, r6
 80036ca:	2018      	movs	r0, #24
 80036cc:	f7ff fe25 	bl	800331a <send_cmd>
 80036d0:	2800      	cmp	r0, #0
 80036d2:	d1f3      	bne.n	80036bc <ArcadeIT_SDCard_Disk_Write+0x64>
 80036d4:	21fe      	movs	r1, #254	; 0xfe
 80036d6:	4628      	mov	r0, r5
 80036d8:	f7ff fe8a 	bl	80033f0 <sd_write_block>
 80036dc:	2800      	cmp	r0, #0
 80036de:	d0ed      	beq.n	80036bc <ArcadeIT_SDCard_Disk_Write+0x64>
      pCount = 0;
 80036e0:	2400      	movs	r4, #0
 80036e2:	e7eb      	b.n	80036bc <ArcadeIT_SDCard_Disk_Write+0x64>
    if (gCardType & CT_SDC) send_cmd(ACMD23, pCount); // Predefine number of sectors
 80036e4:	4621      	mov	r1, r4
 80036e6:	2097      	movs	r0, #151	; 0x97
 80036e8:	f7ff fe17 	bl	800331a <send_cmd>
 80036ec:	e7d3      	b.n	8003696 <ArcadeIT_SDCard_Disk_Write+0x3e>
      if (!sd_write_block(0, 0xFD)) pCount = 1;  // STOP_TRAN token
 80036ee:	2401      	movs	r4, #1
 80036f0:	e7e4      	b.n	80036bc <ArcadeIT_SDCard_Disk_Write+0x64>
  if (!pCount) return RES_PARERR;   // Check parameter
 80036f2:	2004      	movs	r0, #4
} // End ArcadeIT_SDCard_Disk_Write.
 80036f4:	4770      	bx	lr
  if (gStatus[DEV_SD] & STA_NOINIT) return RES_NOTRDY; // Check if drive is ready
 80036f6:	2003      	movs	r0, #3
 80036f8:	e7e5      	b.n	80036c6 <ArcadeIT_SDCard_Disk_Write+0x6e>
  if (gStatus[DEV_SD] & STA_PROTECT) return RES_WRPRT; // Check write protect
 80036fa:	2002      	movs	r0, #2
 80036fc:	e7e3      	b.n	80036c6 <ArcadeIT_SDCard_Disk_Write+0x6e>

080036fe <ArcadeIT_SDCard_Disk_Ioctl>:
DRESULT ArcadeIT_SDCard_Disk_Ioctl
(
  BYTE pCommand,   // Control command code
  void *pBuffer    // Pointer to the conrtol data
)
{
 80036fe:	b530      	push	{r4, r5, lr}
 8003700:	b085      	sub	sp, #20
  DRESULT res;
  BYTE n, csd[16];
  DWORD *dp, st, ed, csize;

  if (gStatus[DEV_SD] & STA_NOINIT) return RES_NOTRDY; // Check if drive is ready
 8003702:	f240 0310 	movw	r3, #16
 8003706:	f2c2 0300 	movt	r3, #8192	; 0x2000
 800370a:	785b      	ldrb	r3, [r3, #1]
 800370c:	f013 0f01 	tst.w	r3, #1
 8003710:	f040 810b 	bne.w	800392a <ArcadeIT_SDCard_Disk_Ioctl+0x22c>
 8003714:	460d      	mov	r5, r1

  res = RES_ERROR;

  switch (pCommand)
 8003716:	2804      	cmp	r0, #4
 8003718:	f200 80fb 	bhi.w	8003912 <ArcadeIT_SDCard_Disk_Ioctl+0x214>
 800371c:	e8df f010 	tbh	[pc, r0, lsl #1]
 8003720:	000c0005 	.word	0x000c0005
 8003724:	005500f9 	.word	0x005500f9
 8003728:	00b6      	.short	0x00b6
  {
    case CTRL_SYNC :    // Wait for end of internal write process of the drive
      if (sd_select()) res = RES_OK;
 800372a:	f7ff fddf 	bl	80032ec <sd_select>
 800372e:	2800      	cmp	r0, #0
 8003730:	f040 80f1 	bne.w	8003916 <ArcadeIT_SDCard_Disk_Ioctl+0x218>
  res = RES_ERROR;
 8003734:	2401      	movs	r4, #1
 8003736:	e005      	b.n	8003744 <ArcadeIT_SDCard_Disk_Ioctl+0x46>
      break;

    case GET_SECTOR_COUNT : // Get drive capacity in unit of sector (DWORD)
      if ((send_cmd(CMD9, 0) == 0) && sd_read_block(csd, 16))
 8003738:	2100      	movs	r1, #0
 800373a:	2009      	movs	r0, #9
 800373c:	f7ff fded 	bl	800331a <send_cmd>
 8003740:	b128      	cbz	r0, 800374e <ArcadeIT_SDCard_Disk_Ioctl+0x50>
  res = RES_ERROR;
 8003742:	2401      	movs	r4, #1

    default: res = RES_PARERR; break;

  } // End switch.

  sd_deselect();
 8003744:	f7ff fdc5 	bl	80032d2 <sd_deselect>

  return res;

} // End ArcadeIT_SDCard_Disk_Ioctl.
 8003748:	4620      	mov	r0, r4
 800374a:	b005      	add	sp, #20
 800374c:	bd30      	pop	{r4, r5, pc}
      if ((send_cmd(CMD9, 0) == 0) && sd_read_block(csd, 16))
 800374e:	2110      	movs	r1, #16
 8003750:	4668      	mov	r0, sp
 8003752:	f7ff fe28 	bl	80033a6 <sd_read_block>
 8003756:	2800      	cmp	r0, #0
 8003758:	f000 80df 	beq.w	800391a <ArcadeIT_SDCard_Disk_Ioctl+0x21c>
        if ((csd[0] >> 6) == 1)
 800375c:	f89d 3000 	ldrb.w	r3, [sp]
 8003760:	099b      	lsrs	r3, r3, #6
 8003762:	2b01      	cmp	r3, #1
 8003764:	d020      	beq.n	80037a8 <ArcadeIT_SDCard_Disk_Ioctl+0xaa>
          n = (csd[5] & 15) + ((csd[10] & 128) >> 7) + ((csd[9] & 3) << 1) + 2;
 8003766:	f89d 2005 	ldrb.w	r2, [sp, #5]
 800376a:	f002 020f 	and.w	r2, r2, #15
 800376e:	f89d 300a 	ldrb.w	r3, [sp, #10]
 8003772:	eb02 12d3 	add.w	r2, r2, r3, lsr #7
 8003776:	f89d 3009 	ldrb.w	r3, [sp, #9]
 800377a:	005b      	lsls	r3, r3, #1
 800377c:	f003 0306 	and.w	r3, r3, #6
 8003780:	441a      	add	r2, r3
          csize = (csd[8] >> 6) + ((WORD)csd[7] << 2) + ((WORD)(csd[6] & 3) << 10) + 1;
 8003782:	f89d 1008 	ldrb.w	r1, [sp, #8]
 8003786:	f89d 3007 	ldrb.w	r3, [sp, #7]
 800378a:	009b      	lsls	r3, r3, #2
 800378c:	eb03 1391 	add.w	r3, r3, r1, lsr #6
 8003790:	f89d 1006 	ldrb.w	r1, [sp, #6]
 8003794:	0289      	lsls	r1, r1, #10
 8003796:	f401 6140 	and.w	r1, r1, #3072	; 0xc00
 800379a:	440b      	add	r3, r1
 800379c:	3301      	adds	r3, #1
          *(DWORD*)pBuffer = csize << (n - 9);
 800379e:	3a07      	subs	r2, #7
 80037a0:	4093      	lsls	r3, r2
 80037a2:	602b      	str	r3, [r5, #0]
        res = RES_OK;
 80037a4:	2400      	movs	r4, #0
 80037a6:	e7cd      	b.n	8003744 <ArcadeIT_SDCard_Disk_Ioctl+0x46>
          csize = csd[9] + ((WORD)csd[8] << 8) + ((DWORD)(csd[7] & 63) << 16) + 1;
 80037a8:	f89d 3009 	ldrb.w	r3, [sp, #9]
 80037ac:	f89d 2008 	ldrb.w	r2, [sp, #8]
 80037b0:	eb03 2302 	add.w	r3, r3, r2, lsl #8
 80037b4:	f89d 2007 	ldrb.w	r2, [sp, #7]
 80037b8:	0412      	lsls	r2, r2, #16
 80037ba:	f402 127c 	and.w	r2, r2, #4128768	; 0x3f0000
 80037be:	4413      	add	r3, r2
 80037c0:	3301      	adds	r3, #1
          *(DWORD*)pBuffer = csize << 10;
 80037c2:	029b      	lsls	r3, r3, #10
 80037c4:	602b      	str	r3, [r5, #0]
        res = RES_OK;
 80037c6:	2400      	movs	r4, #0
 80037c8:	e7bc      	b.n	8003744 <ArcadeIT_SDCard_Disk_Ioctl+0x46>
      if (gCardType & CT_SD2)
 80037ca:	f640 730c 	movw	r3, #3852	; 0xf0c
 80037ce:	f2c2 0300 	movt	r3, #8192	; 0x2000
 80037d2:	781b      	ldrb	r3, [r3, #0]
 80037d4:	f013 0f04 	tst.w	r3, #4
 80037d8:	d020      	beq.n	800381c <ArcadeIT_SDCard_Disk_Ioctl+0x11e>
        if (send_cmd(ACMD13, 0) == 0)
 80037da:	2100      	movs	r1, #0
 80037dc:	208d      	movs	r0, #141	; 0x8d
 80037de:	f7ff fd9c 	bl	800331a <send_cmd>
 80037e2:	b108      	cbz	r0, 80037e8 <ArcadeIT_SDCard_Disk_Ioctl+0xea>
  res = RES_ERROR;
 80037e4:	2401      	movs	r4, #1
 80037e6:	e7ad      	b.n	8003744 <ArcadeIT_SDCard_Disk_Ioctl+0x46>
          ArcadeIT_SPI_Port_RW_Byte(DUMMY_BYTE);
 80037e8:	20ff      	movs	r0, #255	; 0xff
 80037ea:	f7fe fd7c 	bl	80022e6 <ArcadeIT_SPI_Port_RW_Byte>
          if (sd_read_block(csd, 16))
 80037ee:	2110      	movs	r1, #16
 80037f0:	4668      	mov	r0, sp
 80037f2:	f7ff fdd8 	bl	80033a6 <sd_read_block>
 80037f6:	b978      	cbnz	r0, 8003818 <ArcadeIT_SDCard_Disk_Ioctl+0x11a>
  res = RES_ERROR;
 80037f8:	2401      	movs	r4, #1
 80037fa:	e7a3      	b.n	8003744 <ArcadeIT_SDCard_Disk_Ioctl+0x46>
            for (n = 64 - 16; n; n--) ArcadeIT_SPI_Port_RW_Byte(DUMMY_BYTE); // Purge trailing data
 80037fc:	20ff      	movs	r0, #255	; 0xff
 80037fe:	f7fe fd72 	bl	80022e6 <ArcadeIT_SPI_Port_RW_Byte>
 8003802:	3c01      	subs	r4, #1
 8003804:	b2e4      	uxtb	r4, r4
 8003806:	2c00      	cmp	r4, #0
 8003808:	d1f8      	bne.n	80037fc <ArcadeIT_SDCard_Disk_Ioctl+0xfe>
            *(DWORD*)pBuffer = 16UL << (csd[10] >> 4);
 800380a:	f89d 300a 	ldrb.w	r3, [sp, #10]
 800380e:	091a      	lsrs	r2, r3, #4
 8003810:	2310      	movs	r3, #16
 8003812:	4093      	lsls	r3, r2
 8003814:	602b      	str	r3, [r5, #0]
 8003816:	e795      	b.n	8003744 <ArcadeIT_SDCard_Disk_Ioctl+0x46>
            for (n = 64 - 16; n; n--) ArcadeIT_SPI_Port_RW_Byte(DUMMY_BYTE); // Purge trailing data
 8003818:	2430      	movs	r4, #48	; 0x30
 800381a:	e7f4      	b.n	8003806 <ArcadeIT_SDCard_Disk_Ioctl+0x108>
        if ((send_cmd(CMD9, 0) == 0) && sd_read_block(csd, 16))
 800381c:	2100      	movs	r1, #0
 800381e:	2009      	movs	r0, #9
 8003820:	f7ff fd7b 	bl	800331a <send_cmd>
 8003824:	b108      	cbz	r0, 800382a <ArcadeIT_SDCard_Disk_Ioctl+0x12c>
  res = RES_ERROR;
 8003826:	2401      	movs	r4, #1
 8003828:	e78c      	b.n	8003744 <ArcadeIT_SDCard_Disk_Ioctl+0x46>
        if ((send_cmd(CMD9, 0) == 0) && sd_read_block(csd, 16))
 800382a:	2110      	movs	r1, #16
 800382c:	4668      	mov	r0, sp
 800382e:	f7ff fdba 	bl	80033a6 <sd_read_block>
 8003832:	2800      	cmp	r0, #0
 8003834:	d073      	beq.n	800391e <ArcadeIT_SDCard_Disk_Ioctl+0x220>
          if (gCardType & CT_SD1)
 8003836:	f640 730c 	movw	r3, #3852	; 0xf0c
 800383a:	f2c2 0300 	movt	r3, #8192	; 0x2000
 800383e:	781b      	ldrb	r3, [r3, #0]
 8003840:	f013 0f02 	tst.w	r3, #2
 8003844:	d011      	beq.n	800386a <ArcadeIT_SDCard_Disk_Ioctl+0x16c>
            *(DWORD*)pBuffer = (((csd[10] & 63) << 1) + ((WORD)(csd[11] & 128) >> 7) + 1) << ((csd[13] >> 6) - 1);
 8003846:	f89d 300a 	ldrb.w	r3, [sp, #10]
 800384a:	005b      	lsls	r3, r3, #1
 800384c:	f003 037e 	and.w	r3, r3, #126	; 0x7e
 8003850:	f89d 200b 	ldrb.w	r2, [sp, #11]
 8003854:	eb03 13d2 	add.w	r3, r3, r2, lsr #7
 8003858:	3301      	adds	r3, #1
 800385a:	f89d 200d 	ldrb.w	r2, [sp, #13]
 800385e:	0992      	lsrs	r2, r2, #6
 8003860:	3a01      	subs	r2, #1
 8003862:	4093      	lsls	r3, r2
 8003864:	602b      	str	r3, [r5, #0]
          res = RES_OK;
 8003866:	2400      	movs	r4, #0
 8003868:	e76c      	b.n	8003744 <ArcadeIT_SDCard_Disk_Ioctl+0x46>
            *(DWORD*)pBuffer = ((WORD)((csd[10] & 124) >> 2) + 1) * (((csd[11] & 3) << 3) + ((csd[11] & 224) >> 5) + 1);
 800386a:	f89d 300a 	ldrb.w	r3, [sp, #10]
 800386e:	f3c3 0284 	ubfx	r2, r3, #2, #5
 8003872:	f89d 100b 	ldrb.w	r1, [sp, #11]
 8003876:	00cb      	lsls	r3, r1, #3
 8003878:	f003 0318 	and.w	r3, r3, #24
 800387c:	eb03 1351 	add.w	r3, r3, r1, lsr #5
 8003880:	3301      	adds	r3, #1
 8003882:	fb02 3303 	mla	r3, r2, r3, r3
 8003886:	602b      	str	r3, [r5, #0]
          res = RES_OK;
 8003888:	2400      	movs	r4, #0
 800388a:	e75b      	b.n	8003744 <ArcadeIT_SDCard_Disk_Ioctl+0x46>
      if (!(gCardType & CT_SDC)) break;        // Check if the card is SDC
 800388c:	f640 730c 	movw	r3, #3852	; 0xf0c
 8003890:	f2c2 0300 	movt	r3, #8192	; 0x2000
 8003894:	781b      	ldrb	r3, [r3, #0]
 8003896:	f013 0f06 	tst.w	r3, #6
 800389a:	d101      	bne.n	80038a0 <ArcadeIT_SDCard_Disk_Ioctl+0x1a2>
  res = RES_ERROR;
 800389c:	2401      	movs	r4, #1
 800389e:	e751      	b.n	8003744 <ArcadeIT_SDCard_Disk_Ioctl+0x46>
      if (disk_ioctl(DEV_SD, SD_GET_CSD, csd)) break; // Get CSD
 80038a0:	466a      	mov	r2, sp
 80038a2:	210b      	movs	r1, #11
 80038a4:	2001      	movs	r0, #1
 80038a6:	f000 fa74 	bl	8003d92 <disk_ioctl>
 80038aa:	4604      	mov	r4, r0
 80038ac:	bbc8      	cbnz	r0, 8003922 <ArcadeIT_SDCard_Disk_Ioctl+0x224>
      if (!(csd[0] >> 6) && !(csd[10] & 0x40)) break; // Check if sector erase can be applied to the card
 80038ae:	f89d 3000 	ldrb.w	r3, [sp]
 80038b2:	099b      	lsrs	r3, r3, #6
 80038b4:	d104      	bne.n	80038c0 <ArcadeIT_SDCard_Disk_Ioctl+0x1c2>
 80038b6:	f89d 300a 	ldrb.w	r3, [sp, #10]
 80038ba:	f013 0f40 	tst.w	r3, #64	; 0x40
 80038be:	d032      	beq.n	8003926 <ArcadeIT_SDCard_Disk_Ioctl+0x228>
      dp = pBuffer; st = dp[0]; ed = dp[1];        // Load sector block
 80038c0:	6829      	ldr	r1, [r5, #0]
 80038c2:	686d      	ldr	r5, [r5, #4]
      if (!(gCardType & CT_BLOCK))
 80038c4:	f640 730c 	movw	r3, #3852	; 0xf0c
 80038c8:	f2c2 0300 	movt	r3, #8192	; 0x2000
 80038cc:	781b      	ldrb	r3, [r3, #0]
 80038ce:	f013 0f08 	tst.w	r3, #8
 80038d2:	d101      	bne.n	80038d8 <ArcadeIT_SDCard_Disk_Ioctl+0x1da>
        st *= 512; ed *= 512;
 80038d4:	0249      	lsls	r1, r1, #9
 80038d6:	026d      	lsls	r5, r5, #9
      if (send_cmd(CMD32, st) == 0 && send_cmd(CMD33, ed) == 0 && send_cmd(CMD38, 0) == 0 && wait_ready(30000))
 80038d8:	2020      	movs	r0, #32
 80038da:	f7ff fd1e 	bl	800331a <send_cmd>
 80038de:	b108      	cbz	r0, 80038e4 <ArcadeIT_SDCard_Disk_Ioctl+0x1e6>
  res = RES_ERROR;
 80038e0:	2401      	movs	r4, #1
 80038e2:	e72f      	b.n	8003744 <ArcadeIT_SDCard_Disk_Ioctl+0x46>
      if (send_cmd(CMD32, st) == 0 && send_cmd(CMD33, ed) == 0 && send_cmd(CMD38, 0) == 0 && wait_ready(30000))
 80038e4:	4629      	mov	r1, r5
 80038e6:	2021      	movs	r0, #33	; 0x21
 80038e8:	f7ff fd17 	bl	800331a <send_cmd>
 80038ec:	b108      	cbz	r0, 80038f2 <ArcadeIT_SDCard_Disk_Ioctl+0x1f4>
  res = RES_ERROR;
 80038ee:	2401      	movs	r4, #1
 80038f0:	e728      	b.n	8003744 <ArcadeIT_SDCard_Disk_Ioctl+0x46>
      if (send_cmd(CMD32, st) == 0 && send_cmd(CMD33, ed) == 0 && send_cmd(CMD38, 0) == 0 && wait_ready(30000))
 80038f2:	2100      	movs	r1, #0
 80038f4:	2026      	movs	r0, #38	; 0x26
 80038f6:	f7ff fd10 	bl	800331a <send_cmd>
 80038fa:	b108      	cbz	r0, 8003900 <ArcadeIT_SDCard_Disk_Ioctl+0x202>
  res = RES_ERROR;
 80038fc:	2401      	movs	r4, #1
 80038fe:	e721      	b.n	8003744 <ArcadeIT_SDCard_Disk_Ioctl+0x46>
      if (send_cmd(CMD32, st) == 0 && send_cmd(CMD33, ed) == 0 && send_cmd(CMD38, 0) == 0 && wait_ready(30000))
 8003900:	f247 5030 	movw	r0, #30000	; 0x7530
 8003904:	f7ff fcce 	bl	80032a4 <wait_ready>
 8003908:	2800      	cmp	r0, #0
 800390a:	f47f af1b 	bne.w	8003744 <ArcadeIT_SDCard_Disk_Ioctl+0x46>
  res = RES_ERROR;
 800390e:	2401      	movs	r4, #1
 8003910:	e718      	b.n	8003744 <ArcadeIT_SDCard_Disk_Ioctl+0x46>
    default: res = RES_PARERR; break;
 8003912:	2404      	movs	r4, #4
 8003914:	e716      	b.n	8003744 <ArcadeIT_SDCard_Disk_Ioctl+0x46>
      if (sd_select()) res = RES_OK;
 8003916:	2400      	movs	r4, #0
 8003918:	e714      	b.n	8003744 <ArcadeIT_SDCard_Disk_Ioctl+0x46>
  res = RES_ERROR;
 800391a:	2401      	movs	r4, #1
 800391c:	e712      	b.n	8003744 <ArcadeIT_SDCard_Disk_Ioctl+0x46>
 800391e:	2401      	movs	r4, #1
 8003920:	e710      	b.n	8003744 <ArcadeIT_SDCard_Disk_Ioctl+0x46>
 8003922:	2401      	movs	r4, #1
 8003924:	e70e      	b.n	8003744 <ArcadeIT_SDCard_Disk_Ioctl+0x46>
 8003926:	2401      	movs	r4, #1
 8003928:	e70c      	b.n	8003744 <ArcadeIT_SDCard_Disk_Ioctl+0x46>
  if (gStatus[DEV_SD] & STA_NOINIT) return RES_NOTRDY; // Check if drive is ready
 800392a:	2403      	movs	r4, #3
 800392c:	e70c      	b.n	8003748 <ArcadeIT_SDCard_Disk_Ioctl+0x4a>

0800392e <ArcadeIT_SDCard_Disk_Start>:

// /////////////////////////////////////////////////////////////////////////////
FRESULT ArcadeIT_SDCard_Disk_Start (void)
{
 800392e:	b570      	push	{r4, r5, r6, lr}
 8003930:	f5ad 5d90 	sub.w	sp, sp, #4608	; 0x1200
 8003934:	b082      	sub	sp, #8
  char lString[ARCADEIT_STRING_LENGTH_MAX];
  FATFS *lFileSystemReferenceTemp;

  lActive = FR_NOT_READY;

  lResult = f_mount(&gFileSystemSD, ArcadeIT_Utility_Get_String_ID(DEV_SD, (char*)gDriveName), 1);
 8003936:	f648 1180 	movw	r1, #35200	; 0x8980
 800393a:	f6c0 0100 	movt	r1, #2048	; 0x800
 800393e:	2001      	movs	r0, #1
 8003940:	f7fd fd38 	bl	80013b4 <ArcadeIT_Utility_Get_String_ID>
 8003944:	2201      	movs	r2, #1
 8003946:	4601      	mov	r1, r0
 8003948:	f640 40d4 	movw	r0, #3284	; 0xcd4
 800394c:	f2c2 0000 	movt	r0, #8192	; 0x2000
 8003950:	f001 f93d 	bl	8004bce <f_mount>
  switch (lResult)
 8003954:	4606      	mov	r6, r0
 8003956:	2800      	cmp	r0, #0
 8003958:	d055      	beq.n	8003a06 <ArcadeIT_SDCard_Disk_Start+0xd8>
 800395a:	280d      	cmp	r0, #13
 800395c:	f040 8097 	bne.w	8003a8e <ArcadeIT_SDCard_Disk_Start+0x160>
  {
    case FR_NO_FILESYSTEM:
      sprintf(lString, "No file system on SD-Card");
 8003960:	ac01      	add	r4, sp, #4
 8003962:	f648 05e8 	movw	r5, #35048	; 0x88e8
 8003966:	f6c0 0500 	movt	r5, #2048	; 0x800
 800396a:	cd0f      	ldmia	r5!, {r0, r1, r2, r3}
 800396c:	c40f      	stmia	r4!, {r0, r1, r2, r3}
 800396e:	e895 0007 	ldmia.w	r5, {r0, r1, r2}
 8003972:	c403      	stmia	r4!, {r0, r1}
 8003974:	8022      	strh	r2, [r4, #0]
      // Shows a message to serial port as debug
      if (gDevices & ARCADEIT_DEVICE_SERIAL)
 8003976:	f240 2308 	movw	r3, #520	; 0x208
 800397a:	f2c2 0300 	movt	r3, #8192	; 0x2000
 800397e:	681b      	ldr	r3, [r3, #0]
 8003980:	f413 4f80 	tst.w	r3, #16384	; 0x4000
 8003984:	d137      	bne.n	80039f6 <ArcadeIT_SDCard_Disk_Start+0xc8>
      {
        ArcadeIT_Serial_Port_String_Send(lString);

      } // End if.

      lResult = f_mkfs(ArcadeIT_Utility_Get_String_ID(DEV_SD, (char*)gDriveName), NULL, lBuffer, sizeof(lBuffer));
 8003986:	f648 1180 	movw	r1, #35200	; 0x8980
 800398a:	f6c0 0100 	movt	r1, #2048	; 0x800
 800398e:	2001      	movs	r0, #1
 8003990:	f7fd fd10 	bl	80013b4 <ArcadeIT_Utility_Get_String_ID>
 8003994:	f44f 5380 	mov.w	r3, #4096	; 0x1000
 8003998:	aa82      	add	r2, sp, #520	; 0x208
 800399a:	2100      	movs	r1, #0
 800399c:	f001 fa63 	bl	8004e66 <f_mkfs>
      sprintf(lString, "Preparing SD-Card Disk Drive: %s", ArcadeIT_Utility_Get_String_ID(lResult, (char*)gErrorMessages));
 80039a0:	f648 1194 	movw	r1, #35220	; 0x8994
 80039a4:	f6c0 0100 	movt	r1, #2048	; 0x800
 80039a8:	f7fd fd04 	bl	80013b4 <ArcadeIT_Utility_Get_String_ID>
 80039ac:	4602      	mov	r2, r0
 80039ae:	f648 1104 	movw	r1, #35076	; 0x8904
 80039b2:	f6c0 0100 	movt	r1, #2048	; 0x800
 80039b6:	a801      	add	r0, sp, #4
 80039b8:	f002 fb98 	bl	80060ec <siprintf>
      // Shows a message to serial port as debug
      if (gDevices & ARCADEIT_DEVICE_SERIAL)
 80039bc:	f240 2308 	movw	r3, #520	; 0x208
 80039c0:	f2c2 0300 	movt	r3, #8192	; 0x2000
 80039c4:	681b      	ldr	r3, [r3, #0]
 80039c6:	f413 4f80 	tst.w	r3, #16384	; 0x4000
 80039ca:	d118      	bne.n	80039fe <ArcadeIT_SDCard_Disk_Start+0xd0>
      {
        ArcadeIT_Serial_Port_String_Send(lString);

      } // End if.

      f_chdrive(ArcadeIT_Utility_Get_String_ID(DEV_SD, (char*)gDriveName));
 80039cc:	f648 1180 	movw	r1, #35200	; 0x8980
 80039d0:	f6c0 0100 	movt	r1, #2048	; 0x800
 80039d4:	2001      	movs	r0, #1
 80039d6:	f7fd fced 	bl	80013b4 <ArcadeIT_Utility_Get_String_ID>
 80039da:	f001 f924 	bl	8004c26 <f_chdrive>
      f_setlabel(ARCADEIT_TEXT_SDCARD_NAME);
 80039de:	f648 1028 	movw	r0, #35112	; 0x8928
 80039e2:	f6c0 0000 	movt	r0, #2048	; 0x800
 80039e6:	f001 f99e 	bl	8004d26 <f_setlabel>
  lActive = FR_NOT_READY;
 80039ea:	2603      	movs	r6, #3

  } // End switch.

  return lActive;

} // End ArcadeIT_SDCard_Disk_Start.
 80039ec:	4630      	mov	r0, r6
 80039ee:	f50d 5d90 	add.w	sp, sp, #4608	; 0x1200
 80039f2:	b002      	add	sp, #8
 80039f4:	bd70      	pop	{r4, r5, r6, pc}
        ArcadeIT_Serial_Port_String_Send(lString);
 80039f6:	a801      	add	r0, sp, #4
 80039f8:	f7fe fe98 	bl	800272c <ArcadeIT_Serial_Port_String_Send>
 80039fc:	e7c3      	b.n	8003986 <ArcadeIT_SDCard_Disk_Start+0x58>
        ArcadeIT_Serial_Port_String_Send(lString);
 80039fe:	a801      	add	r0, sp, #4
 8003a00:	f7fe fe94 	bl	800272c <ArcadeIT_Serial_Port_String_Send>
 8003a04:	e7e2      	b.n	80039cc <ArcadeIT_SDCard_Disk_Start+0x9e>
      sprintf(lString, "SD-Card Disk device: [%s] ",ArcadeIT_Utility_Get_String_ID(DEV_SD, (char*)gDriveName));
 8003a06:	f648 1180 	movw	r1, #35200	; 0x8980
 8003a0a:	f6c0 0100 	movt	r1, #2048	; 0x800
 8003a0e:	2001      	movs	r0, #1
 8003a10:	f7fd fcd0 	bl	80013b4 <ArcadeIT_Utility_Get_String_ID>
 8003a14:	4602      	mov	r2, r0
 8003a16:	f648 1138 	movw	r1, #35128	; 0x8938
 8003a1a:	f6c0 0100 	movt	r1, #2048	; 0x800
 8003a1e:	a801      	add	r0, sp, #4
 8003a20:	f002 fb64 	bl	80060ec <siprintf>
      if (gDevices & ARCADEIT_DEVICE_SERIAL)
 8003a24:	f240 2308 	movw	r3, #520	; 0x208
 8003a28:	f2c2 0300 	movt	r3, #8192	; 0x2000
 8003a2c:	681b      	ldr	r3, [r3, #0]
 8003a2e:	f413 4f80 	tst.w	r3, #16384	; 0x4000
 8003a32:	d128      	bne.n	8003a86 <ArcadeIT_SDCard_Disk_Start+0x158>
      lResult = f_getfree(ArcadeIT_Utility_Get_String_ID(DEV_SD, (char*)gDriveName), &lFreeCluster, &lFileSystemReferenceTemp);
 8003a34:	f648 1180 	movw	r1, #35200	; 0x8980
 8003a38:	f6c0 0100 	movt	r1, #2048	; 0x800
 8003a3c:	2001      	movs	r0, #1
 8003a3e:	f7fd fcb9 	bl	80013b4 <ArcadeIT_Utility_Get_String_ID>
 8003a42:	466a      	mov	r2, sp
 8003a44:	a981      	add	r1, sp, #516	; 0x204
 8003a46:	f001 f903 	bl	8004c50 <f_getfree>
             (lFreeCluster * ((lFileSystemReferenceTemp->csize * SECTOR_SIZE) / 1024)),
 8003a4a:	9b00      	ldr	r3, [sp, #0]
 8003a4c:	895a      	ldrh	r2, [r3, #10]
 8003a4e:	0252      	lsls	r2, r2, #9
 8003a50:	1292      	asrs	r2, r2, #10
             ((lFileSystemReferenceTemp->n_fatent - 2) * ((lFileSystemReferenceTemp->csize * SECTOR_SIZE) / 1024))
 8003a52:	69db      	ldr	r3, [r3, #28]
 8003a54:	3b02      	subs	r3, #2
      sprintf(lString,
 8003a56:	9981      	ldr	r1, [sp, #516]	; 0x204
 8003a58:	fb03 f302 	mul.w	r3, r3, r2
 8003a5c:	fb01 f202 	mul.w	r2, r1, r2
 8003a60:	f648 01b8 	movw	r1, #35000	; 0x88b8
 8003a64:	f6c0 0100 	movt	r1, #2048	; 0x800
 8003a68:	a801      	add	r0, sp, #4
 8003a6a:	f002 fb3f 	bl	80060ec <siprintf>
      if (gDevices & ARCADEIT_DEVICE_SERIAL)
 8003a6e:	f240 2308 	movw	r3, #520	; 0x208
 8003a72:	f2c2 0300 	movt	r3, #8192	; 0x2000
 8003a76:	681b      	ldr	r3, [r3, #0]
 8003a78:	f413 4f80 	tst.w	r3, #16384	; 0x4000
 8003a7c:	d0b6      	beq.n	80039ec <ArcadeIT_SDCard_Disk_Start+0xbe>
        ArcadeIT_Serial_Port_String_Send(lString);
 8003a7e:	a801      	add	r0, sp, #4
 8003a80:	f7fe fe54 	bl	800272c <ArcadeIT_Serial_Port_String_Send>
 8003a84:	e7b2      	b.n	80039ec <ArcadeIT_SDCard_Disk_Start+0xbe>
        ArcadeIT_Serial_Port_String_Send(lString);
 8003a86:	a801      	add	r0, sp, #4
 8003a88:	f7fe fe50 	bl	800272c <ArcadeIT_Serial_Port_String_Send>
 8003a8c:	e7d2      	b.n	8003a34 <ArcadeIT_SDCard_Disk_Start+0x106>
      sprintf(lString, "SD-Card not present or hardware error.\n\r");
 8003a8e:	ac01      	add	r4, sp, #4
 8003a90:	f648 1554 	movw	r5, #35156	; 0x8954
 8003a94:	f6c0 0500 	movt	r5, #2048	; 0x800
 8003a98:	cd0f      	ldmia	r5!, {r0, r1, r2, r3}
 8003a9a:	c40f      	stmia	r4!, {r0, r1, r2, r3}
 8003a9c:	cd0f      	ldmia	r5!, {r0, r1, r2, r3}
 8003a9e:	c40f      	stmia	r4!, {r0, r1, r2, r3}
 8003aa0:	e895 0007 	ldmia.w	r5, {r0, r1, r2}
 8003aa4:	c403      	stmia	r4!, {r0, r1}
 8003aa6:	7022      	strb	r2, [r4, #0]
      if (gDevices & ARCADEIT_DEVICE_SERIAL)
 8003aa8:	f240 2308 	movw	r3, #520	; 0x208
 8003aac:	f2c2 0300 	movt	r3, #8192	; 0x2000
 8003ab0:	681b      	ldr	r3, [r3, #0]
 8003ab2:	f413 4f80 	tst.w	r3, #16384	; 0x4000
 8003ab6:	d099      	beq.n	80039ec <ArcadeIT_SDCard_Disk_Start+0xbe>
        ArcadeIT_Serial_Port_String_Send(lString);
 8003ab8:	a801      	add	r0, sp, #4
 8003aba:	f7fe fe37 	bl	800272c <ArcadeIT_Serial_Port_String_Send>
 8003abe:	e795      	b.n	80039ec <ArcadeIT_SDCard_Disk_Start+0xbe>

08003ac0 <get_fattime>:

// /////////////////////////////////////////////////////////////////////////////
// Shared functions.
// /////////////////////////////////////////////////////////////////////////////
DWORD get_fattime (void)
{
 8003ac0:	b500      	push	{lr}
 8003ac2:	b083      	sub	sp, #12
  rtc_time_t lTempTime = ArcadeIT_RTC_TimeDate_Get();
 8003ac4:	4668      	mov	r0, sp
 8003ac6:	f7fe fbef 	bl	80022a8 <ArcadeIT_RTC_TimeDate_Get>

  return  (  (uint32_t)(2000 + lTempTime.year - 1980) << 25)
 8003aca:	f89d 3002 	ldrb.w	r3, [sp, #2]
 8003ace:	f103 0014 	add.w	r0, r3, #20
          | ((uint32_t)lTempTime.month << 21)
 8003ad2:	f89d 3000 	ldrb.w	r3, [sp]
 8003ad6:	055b      	lsls	r3, r3, #21
 8003ad8:	ea43 6340 	orr.w	r3, r3, r0, lsl #25
          | ((uint32_t)lTempTime.mday << 16)
 8003adc:	f89d 0001 	ldrb.w	r0, [sp, #1]
 8003ae0:	ea43 4300 	orr.w	r3, r3, r0, lsl #16
          | ((uint32_t)lTempTime.hour << 11)
 8003ae4:	f89d 0003 	ldrb.w	r0, [sp, #3]
 8003ae8:	ea43 23c0 	orr.w	r3, r3, r0, lsl #11
          | ((uint32_t)lTempTime.min << 5)
 8003aec:	f89d 0004 	ldrb.w	r0, [sp, #4]
 8003af0:	ea43 1340 	orr.w	r3, r3, r0, lsl #5
          | ((uint32_t)lTempTime.sec >> 1
 8003af4:	f89d 0005 	ldrb.w	r0, [sp, #5]
          );

} // end get_fattime
 8003af8:	ea43 0050 	orr.w	r0, r3, r0, lsr #1
 8003afc:	b003      	add	sp, #12
 8003afe:	f85d fb04 	ldr.w	pc, [sp], #4

08003b02 <ArcadeIT_Scheduler_Task_Init>:
  PARMS:        See above.
  RETURNS:      Nothing.
  */

  uint8_t lTask = 0;
  for (lTask = 0; lTask < ARCADEIT_SCHEDULER_MAX_TASKS; lTask++)
 8003b02:	2300      	movs	r3, #0
 8003b04:	2b04      	cmp	r3, #4
 8003b06:	d815      	bhi.n	8003b34 <ArcadeIT_Scheduler_Task_Init+0x32>
{
 8003b08:	b410      	push	{r4}
  {
    gArcadeITTasks[lTask].current_cycle = 0;
 8003b0a:	f640 7410 	movw	r4, #3856	; 0xf10
 8003b0e:	f2c2 0400 	movt	r4, #8192	; 0x2000
 8003b12:	202c      	movs	r0, #44	; 0x2c
 8003b14:	fb00 f003 	mul.w	r0, r0, r3
 8003b18:	1821      	adds	r1, r4, r0
 8003b1a:	2200      	movs	r2, #0
 8003b1c:	604a      	str	r2, [r1, #4]
    gArcadeITTasks[lTask].cycles = 0;
 8003b1e:	5022      	str	r2, [r4, r0]
    gArcadeITTasks[lTask].time_period = 0;
 8003b20:	608a      	str	r2, [r1, #8]
    gArcadeITTasks[lTask].time_current = 0;
 8003b22:	60ca      	str	r2, [r1, #12]
    gArcadeITTasks[lTask].function = NULL;
 8003b24:	610a      	str	r2, [r1, #16]
  for (lTask = 0; lTask < ARCADEIT_SCHEDULER_MAX_TASKS; lTask++)
 8003b26:	3301      	adds	r3, #1
 8003b28:	b2db      	uxtb	r3, r3
 8003b2a:	2b04      	cmp	r3, #4
 8003b2c:	d9ed      	bls.n	8003b0a <ArcadeIT_Scheduler_Task_Init+0x8>
  {
    //ArcadeIT_Serial_Port_String_Send(TEXT_SCHEDULER_INITED);

  } // End if.

} // End ArcadeIT_Scheduler_Task_Init.
 8003b2e:	f85d 4b04 	ldr.w	r4, [sp], #4
 8003b32:	4770      	bx	lr
 8003b34:	4770      	bx	lr

08003b36 <ArcadeIT_Scheduler_Task_Set>:
  void *pFunctionPtr,        // The pointer to the function to execute.
  void *pParameters,         // The pointer to the parameters used by the function.
  uint32_t pCycles,          // The number of time that this task has to be executed. 0 = infinite.
  uint32_t pTimePeriod       // The time period in ms to elapse before the next execution.
)
{
 8003b36:	b5f0      	push	{r4, r5, r6, r7, lr}
 8003b38:	9f05      	ldr	r7, [sp, #20]
  DESCRIPTION:  Setup a scheduled task.
  PARMS:        See above.
  RETURNS:      Nothing.
  */

  if (pParameters != NULL)
 8003b3a:	b33a      	cbz	r2, 8003b8c <ArcadeIT_Scheduler_Task_Set+0x56>
 8003b3c:	4616      	mov	r6, r2
  {
    gArcadeITTasks[id].num_parameters = ((uint32_t*)pParameters)[PAR_1];
 8003b3e:	6814      	ldr	r4, [r2, #0]
 8003b40:	4684      	mov	ip, r0
 8003b42:	f640 7510 	movw	r5, #3856	; 0xf10
 8003b46:	f2c2 0500 	movt	r5, #8192	; 0x2000
 8003b4a:	222c      	movs	r2, #44	; 0x2c
 8003b4c:	fb02 5200 	mla	r2, r2, r0, r5
 8003b50:	7514      	strb	r4, [r2, #20]

    // Copy parameters.
    uint8_t lPars = 0;
    for (lPars = 0; lPars < gArcadeITTasks[id].num_parameters+1; lPars++)
 8003b52:	2400      	movs	r4, #0
 8003b54:	e00f      	b.n	8003b76 <ArcadeIT_Scheduler_Task_Set+0x40>
    {
      gArcadeITTasks[id].parameters[lPars] = ((uint32_t*)pParameters)[lPars];
 8003b56:	f856 5024 	ldr.w	r5, [r6, r4, lsl #2]
 8003b5a:	f640 7e10 	movw	lr, #3856	; 0xf10
 8003b5e:	f2c2 0e00 	movt	lr, #8192	; 0x2000
 8003b62:	eb0c 028c 	add.w	r2, ip, ip, lsl #2
 8003b66:	eb0c 0242 	add.w	r2, ip, r2, lsl #1
 8003b6a:	4422      	add	r2, r4
 8003b6c:	3206      	adds	r2, #6
 8003b6e:	f84e 5022 	str.w	r5, [lr, r2, lsl #2]
    for (lPars = 0; lPars < gArcadeITTasks[id].num_parameters+1; lPars++)
 8003b72:	3401      	adds	r4, #1
 8003b74:	b2e4      	uxtb	r4, r4
 8003b76:	f640 7510 	movw	r5, #3856	; 0xf10
 8003b7a:	f2c2 0500 	movt	r5, #8192	; 0x2000
 8003b7e:	222c      	movs	r2, #44	; 0x2c
 8003b80:	fb02 520c 	mla	r2, r2, ip, r5
 8003b84:	7d12      	ldrb	r2, [r2, #20]
 8003b86:	3201      	adds	r2, #1
 8003b88:	4294      	cmp	r4, r2
 8003b8a:	dbe4      	blt.n	8003b56 <ArcadeIT_Scheduler_Task_Set+0x20>

    } // End for.

  } // End if.

  gArcadeITTasks[id].current_cycle = 0;
 8003b8c:	f640 7410 	movw	r4, #3856	; 0xf10
 8003b90:	f2c2 0400 	movt	r4, #8192	; 0x2000
 8003b94:	222c      	movs	r2, #44	; 0x2c
 8003b96:	fb02 f000 	mul.w	r0, r2, r0
 8003b9a:	1822      	adds	r2, r4, r0
 8003b9c:	2500      	movs	r5, #0
 8003b9e:	6055      	str	r5, [r2, #4]
  gArcadeITTasks[id].cycles = pCycles;
 8003ba0:	5023      	str	r3, [r4, r0]
  gArcadeITTasks[id].time_period = pTimePeriod;
 8003ba2:	6097      	str	r7, [r2, #8]
  gArcadeITTasks[id].time_current = gArcadeITTasks[id].time_period;
 8003ba4:	60d7      	str	r7, [r2, #12]
  gArcadeITTasks[id].function = pFunctionPtr;
 8003ba6:	6111      	str	r1, [r2, #16]
  gArcadeITTasks[id].execute = FALSE;
 8003ba8:	f882 5028 	strb.w	r5, [r2, #40]	; 0x28

} // End ArcadeIT_Scheduler_Task_Set.
 8003bac:	bdf0      	pop	{r4, r5, r6, r7, pc}

08003bae <ArcadeIT_Scheduler_Task_Unset>:
  DESCRIPTION:  Reset a scheduled task.
  PARMS:        See above.
  RETURNS:      Nothing.
  */

  gArcadeITTasks[id].current_cycle = 0;
 8003bae:	f640 7110 	movw	r1, #3856	; 0xf10
 8003bb2:	f2c2 0100 	movt	r1, #8192	; 0x2000
 8003bb6:	232c      	movs	r3, #44	; 0x2c
 8003bb8:	fb03 f000 	mul.w	r0, r3, r0
 8003bbc:	180a      	adds	r2, r1, r0
 8003bbe:	2300      	movs	r3, #0
 8003bc0:	6053      	str	r3, [r2, #4]
  gArcadeITTasks[id].cycles = 0;
 8003bc2:	500b      	str	r3, [r1, r0]
  gArcadeITTasks[id].time_period = 0;
 8003bc4:	6093      	str	r3, [r2, #8]
  gArcadeITTasks[id].time_current = 0;
 8003bc6:	60d3      	str	r3, [r2, #12]
  gArcadeITTasks[id].function = NULL;
 8003bc8:	6113      	str	r3, [r2, #16]
  gArcadeITTasks[id].execute = FALSE;
 8003bca:	f882 3028 	strb.w	r3, [r2, #40]	; 0x28

} // End ArcadeIT_Scheduler_Task_Unset.
 8003bce:	4770      	bx	lr

08003bd0 <ArcadeIT_Scheduler_Update>:

// /////////////////////////////////////////////////////////////////////////////
void ArcadeIT_Scheduler_Update(void)
{
 8003bd0:	b538      	push	{r3, r4, r5, lr}
  PARMS:        See above.
  RETURNS:      Nothing.
  */

  uint8_t lTask = 0;
  for (lTask = 0; lTask < ARCADEIT_SCHEDULER_MAX_TASKS; lTask++)
 8003bd2:	2400      	movs	r4, #0
 8003bd4:	e00a      	b.n	8003bec <ArcadeIT_Scheduler_Update+0x1c>

            } // End if.
          }
          else
          {
            gArcadeITTasks[lTask].time_current = gArcadeITTasks[lTask].time_period;
 8003bd6:	f640 7310 	movw	r3, #3856	; 0xf10
 8003bda:	f2c2 0300 	movt	r3, #8192	; 0x2000
 8003bde:	222c      	movs	r2, #44	; 0x2c
 8003be0:	fb02 3104 	mla	r1, r2, r4, r3
 8003be4:	688b      	ldr	r3, [r1, #8]
 8003be6:	60cb      	str	r3, [r1, #12]
  for (lTask = 0; lTask < ARCADEIT_SCHEDULER_MAX_TASKS; lTask++)
 8003be8:	3401      	adds	r4, #1
 8003bea:	b2e4      	uxtb	r4, r4
 8003bec:	2c04      	cmp	r4, #4
 8003bee:	d83f      	bhi.n	8003c70 <ArcadeIT_Scheduler_Update+0xa0>
    if (gArcadeITTasks[lTask].function != NULL)
 8003bf0:	4621      	mov	r1, r4
 8003bf2:	f640 7210 	movw	r2, #3856	; 0xf10
 8003bf6:	f2c2 0200 	movt	r2, #8192	; 0x2000
 8003bfa:	232c      	movs	r3, #44	; 0x2c
 8003bfc:	fb03 2304 	mla	r3, r3, r4, r2
 8003c00:	691b      	ldr	r3, [r3, #16]
 8003c02:	2b00      	cmp	r3, #0
 8003c04:	d0f0      	beq.n	8003be8 <ArcadeIT_Scheduler_Update+0x18>
      if (gArcadeITTasks[lTask].execute == FALSE)
 8003c06:	f640 7210 	movw	r2, #3856	; 0xf10
 8003c0a:	f2c2 0200 	movt	r2, #8192	; 0x2000
 8003c0e:	232c      	movs	r3, #44	; 0x2c
 8003c10:	fb03 2304 	mla	r3, r3, r4, r2
 8003c14:	f893 3028 	ldrb.w	r3, [r3, #40]	; 0x28
 8003c18:	2b00      	cmp	r3, #0
 8003c1a:	d1e5      	bne.n	8003be8 <ArcadeIT_Scheduler_Update+0x18>
        gArcadeITTasks[lTask].time_current--;
 8003c1c:	4613      	mov	r3, r2
 8003c1e:	222c      	movs	r2, #44	; 0x2c
 8003c20:	fb02 3204 	mla	r2, r2, r4, r3
 8003c24:	68d3      	ldr	r3, [r2, #12]
 8003c26:	3b01      	subs	r3, #1
 8003c28:	60d3      	str	r3, [r2, #12]
        if (gArcadeITTasks[lTask].time_current == 0)
 8003c2a:	2b00      	cmp	r3, #0
 8003c2c:	d1dc      	bne.n	8003be8 <ArcadeIT_Scheduler_Update+0x18>
          gArcadeITTasks[lTask].execute = TRUE;
 8003c2e:	f640 7210 	movw	r2, #3856	; 0xf10
 8003c32:	f2c2 0200 	movt	r2, #8192	; 0x2000
 8003c36:	232c      	movs	r3, #44	; 0x2c
 8003c38:	fb03 f304 	mul.w	r3, r3, r4
 8003c3c:	18d0      	adds	r0, r2, r3
 8003c3e:	2501      	movs	r5, #1
 8003c40:	f880 5028 	strb.w	r5, [r0, #40]	; 0x28
          if (gArcadeITTasks[lTask].cycles)
 8003c44:	58d3      	ldr	r3, [r2, r3]
 8003c46:	2b00      	cmp	r3, #0
 8003c48:	d0c5      	beq.n	8003bd6 <ArcadeIT_Scheduler_Update+0x6>
            gArcadeITTasks[lTask].time_current = gArcadeITTasks[lTask].time_period;
 8003c4a:	f640 7210 	movw	r2, #3856	; 0xf10
 8003c4e:	f2c2 0200 	movt	r2, #8192	; 0x2000
 8003c52:	232c      	movs	r3, #44	; 0x2c
 8003c54:	fb03 f101 	mul.w	r1, r3, r1
 8003c58:	6883      	ldr	r3, [r0, #8]
 8003c5a:	60c3      	str	r3, [r0, #12]
            gArcadeITTasks[lTask].current_cycle++;
 8003c5c:	6843      	ldr	r3, [r0, #4]
 8003c5e:	442b      	add	r3, r5
 8003c60:	6043      	str	r3, [r0, #4]
            if (gArcadeITTasks[lTask].current_cycle == gArcadeITTasks[lTask].cycles)
 8003c62:	5852      	ldr	r2, [r2, r1]
 8003c64:	4293      	cmp	r3, r2
 8003c66:	d1bf      	bne.n	8003be8 <ArcadeIT_Scheduler_Update+0x18>
              ArcadeIT_Scheduler_Task_Unset(lTask);
 8003c68:	4620      	mov	r0, r4
 8003c6a:	f7ff ffa0 	bl	8003bae <ArcadeIT_Scheduler_Task_Unset>
 8003c6e:	e7bb      	b.n	8003be8 <ArcadeIT_Scheduler_Update+0x18>

    } // End if.

  } // End for.

} // End ArcadeIT_Scheduler_Update.
 8003c70:	bd38      	pop	{r3, r4, r5, pc}

08003c72 <ArcadeIT_Scheduler_Run>:

// /////////////////////////////////////////////////////////////////////////////
void ArcadeIT_Scheduler_Run(void)
{
 8003c72:	b538      	push	{r3, r4, r5, lr}
  PARMS:        See above.
  RETURNS:      Nothing.
  */

  uint8_t lTask = 0;
  for (lTask = 0; lTask < ARCADEIT_SCHEDULER_MAX_TASKS; lTask++)
 8003c74:	2400      	movs	r4, #0
 8003c76:	e001      	b.n	8003c7c <ArcadeIT_Scheduler_Run+0xa>
 8003c78:	3401      	adds	r4, #1
 8003c7a:	b2e4      	uxtb	r4, r4
 8003c7c:	2c04      	cmp	r4, #4
 8003c7e:	d817      	bhi.n	8003cb0 <ArcadeIT_Scheduler_Run+0x3e>
  {
    if (gArcadeITTasks[lTask].execute)
 8003c80:	f640 7210 	movw	r2, #3856	; 0xf10
 8003c84:	f2c2 0200 	movt	r2, #8192	; 0x2000
 8003c88:	232c      	movs	r3, #44	; 0x2c
 8003c8a:	fb03 2304 	mla	r3, r3, r4, r2
 8003c8e:	f893 3028 	ldrb.w	r3, [r3, #40]	; 0x28
 8003c92:	2b00      	cmp	r3, #0
 8003c94:	d0f0      	beq.n	8003c78 <ArcadeIT_Scheduler_Run+0x6>
    {
        // Here we call the function set for this task.
        gArcadeITTasks[lTask].function(gArcadeITTasks[lTask].parameters);
 8003c96:	4610      	mov	r0, r2
 8003c98:	232c      	movs	r3, #44	; 0x2c
 8003c9a:	fb03 f304 	mul.w	r3, r3, r4
 8003c9e:	18d5      	adds	r5, r2, r3
 8003ca0:	692a      	ldr	r2, [r5, #16]
 8003ca2:	3318      	adds	r3, #24
 8003ca4:	4418      	add	r0, r3
 8003ca6:	4790      	blx	r2

        // Unmark the function.
        gArcadeITTasks[lTask].execute = FALSE;
 8003ca8:	2300      	movs	r3, #0
 8003caa:	f885 3028 	strb.w	r3, [r5, #40]	; 0x28
 8003cae:	e7e3      	b.n	8003c78 <ArcadeIT_Scheduler_Run+0x6>

    } // End if.

  } // End for.

} // End ArcadeIT_Scheduler_Run.
 8003cb0:	bd38      	pop	{r3, r4, r5, pc}

08003cb2 <RAM_disk_status>:
#include <System/Disk/ArcadeIT_SD_Card.h>
#include <System/Disk/ArcadeIT_RAMDisk.h>

// Prototypes for unused functions
DSTATUS RAM_disk_status()
{
 8003cb2:	b508      	push	{r3, lr}
  return ArcadeIT_RAMDisk_Status();
 8003cb4:	f7ff fa1d 	bl	80030f2 <ArcadeIT_RAMDisk_Status>
}
 8003cb8:	bd08      	pop	{r3, pc}

08003cba <SD_disk_status>:
DSTATUS MMC_disk_status();
DSTATUS USB_disk_status();
DSTATUS SD_disk_status()
{
 8003cba:	b508      	push	{r3, lr}
  return ArcadeIT_SDCard_Disk_Status();
 8003cbc:	f7ff fc84 	bl	80035c8 <ArcadeIT_SDCard_Disk_Status>
}
 8003cc0:	bd08      	pop	{r3, pc}

08003cc2 <RAM_disk_initialize>:

DSTATUS RAM_disk_initialize()
{
 8003cc2:	b508      	push	{r3, lr}
  return ArcadeIT_RAMDisk_Initialize();
 8003cc4:	f7ff f9f6 	bl	80030b4 <ArcadeIT_RAMDisk_Initialize>
}
 8003cc8:	bd08      	pop	{r3, pc}

08003cca <SD_disk_initialize>:

DSTATUS MMC_disk_initialize();
DSTATUS USB_disk_initialize();
DSTATUS SD_disk_initialize()
{
 8003cca:	b508      	push	{r3, lr}
  return ArcadeIT_SDCard_Disk_Initialize();
 8003ccc:	f7ff fbb7 	bl	800343e <ArcadeIT_SDCard_Disk_Initialize>
}
 8003cd0:	bd08      	pop	{r3, pc}

08003cd2 <RAM_disk_read>:

DSTATUS RAM_disk_read(BYTE *buff, DWORD sector, UINT count)
{
 8003cd2:	b508      	push	{r3, lr}
  return ArcadeIT_RAMDisk_Read(buff, sector, count);
 8003cd4:	f7ff fa13 	bl	80030fe <ArcadeIT_RAMDisk_Read>
}
 8003cd8:	bd08      	pop	{r3, pc}

08003cda <SD_disk_read>:
DSTATUS MMC_disk_read(BYTE *buff, DWORD sector, UINT count);
DSTATUS USB_disk_read(BYTE *buff, DWORD sector, UINT count);
DSTATUS SD_disk_read(BYTE *buff, DWORD sector, UINT count)
{
 8003cda:	b508      	push	{r3, lr}
  return ArcadeIT_SDCard_Disk_Read(buff, sector, count);
 8003cdc:	f7ff fc7a 	bl	80035d4 <ArcadeIT_SDCard_Disk_Read>
}
 8003ce0:	bd08      	pop	{r3, pc}

08003ce2 <RAM_disk_write>:

DSTATUS RAM_disk_write(const BYTE *buff, DWORD sector, UINT count)
{
 8003ce2:	b508      	push	{r3, lr}
  return ArcadeIT_RAMDisk_Write(buff, sector, count);
 8003ce4:	f7ff fa1c 	bl	8003120 <ArcadeIT_RAMDisk_Write>
}
 8003ce8:	bd08      	pop	{r3, pc}

08003cea <SD_disk_write>:
DSTATUS MMC_disk_write(const BYTE *buff, DWORD sector, UINT count);
DSTATUS USB_disk_write(const BYTE *buff, DWORD sector, UINT count);
DSTATUS SD_disk_write(const BYTE *buff, DWORD sector, UINT count)
{
 8003cea:	b508      	push	{r3, lr}
  return ArcadeIT_SDCard_Disk_Write((BYTE*)buff, sector, count);
 8003cec:	f7ff fcb4 	bl	8003658 <ArcadeIT_SDCard_Disk_Write>
}
 8003cf0:	bd08      	pop	{r3, pc}

08003cf2 <disk_status>:
/*-----------------------------------------------------------------------*/

DSTATUS disk_status (
	BYTE pdrv		/* Physical drive nmuber to identify the drive */
)
{
 8003cf2:	b508      	push	{r3, lr}
  DSTATUS result = 0;

	switch (pdrv) {
 8003cf4:	2803      	cmp	r0, #3
 8003cf6:	d80b      	bhi.n	8003d10 <disk_status+0x1e>
 8003cf8:	e8df f000 	tbb	[pc, r0]
 8003cfc:	02020704 	.word	0x02020704
	case DEV_MMC :
		//result = MMC_disk_status();

		// translate the reslut code here

		return result;
 8003d00:	2000      	movs	r0, #0
		// translate the reslut code here

		return result;
	}
	return STA_NOINIT;
}
 8003d02:	bd08      	pop	{r3, pc}
		result = RAM_disk_status();
 8003d04:	f7ff ffd5 	bl	8003cb2 <RAM_disk_status>
		return result;
 8003d08:	e7fb      	b.n	8003d02 <disk_status+0x10>
		result = SD_disk_status();
 8003d0a:	f7ff ffd6 	bl	8003cba <SD_disk_status>
		return result;
 8003d0e:	e7f8      	b.n	8003d02 <disk_status+0x10>
	return STA_NOINIT;
 8003d10:	2001      	movs	r0, #1
 8003d12:	e7f6      	b.n	8003d02 <disk_status+0x10>

08003d14 <disk_initialize>:
/*-----------------------------------------------------------------------*/

DSTATUS disk_initialize (
	BYTE pdrv				/* Physical drive nmuber to identify the drive */
)
{
 8003d14:	b508      	push	{r3, lr}
  DSTATUS result = 0;

	switch (pdrv) {
 8003d16:	2803      	cmp	r0, #3
 8003d18:	d80b      	bhi.n	8003d32 <disk_initialize+0x1e>
 8003d1a:	e8df f000 	tbb	[pc, r0]
 8003d1e:	0704      	.short	0x0704
 8003d20:	0202      	.short	0x0202
	case DEV_MMC :
		//result = MMC_disk_initialize();

		// translate the result code here

		return result;
 8003d22:	2000      	movs	r0, #0
		// translate the result code here

		return result;
	}
	return STA_NOINIT;
}
 8003d24:	bd08      	pop	{r3, pc}
		result = RAM_disk_initialize();
 8003d26:	f7ff ffcc 	bl	8003cc2 <RAM_disk_initialize>
		return result;
 8003d2a:	e7fb      	b.n	8003d24 <disk_initialize+0x10>
	    result = SD_disk_initialize();
 8003d2c:	f7ff ffcd 	bl	8003cca <SD_disk_initialize>
	    return result;
 8003d30:	e7f8      	b.n	8003d24 <disk_initialize+0x10>
	return STA_NOINIT;
 8003d32:	2001      	movs	r0, #1
 8003d34:	e7f6      	b.n	8003d24 <disk_initialize+0x10>

08003d36 <disk_read>:
	BYTE pdrv,		/* Physical drive nmuber to identify the drive */
	BYTE *buff,		/* Data buffer to store read data */
	LBA_t sector,	/* Start sector in LBA */
	UINT count		/* Number of sectors to read */
)
{
 8003d36:	b510      	push	{r4, lr}
 8003d38:	460c      	mov	r4, r1
 8003d3a:	4611      	mov	r1, r2
  DSTATUS result = 0;

	switch (pdrv) {
 8003d3c:	2803      	cmp	r0, #3
 8003d3e:	d80f      	bhi.n	8003d60 <disk_read+0x2a>
 8003d40:	e8df f000 	tbb	[pc, r0]
 8003d44:	02020904 	.word	0x02020904

		//result = MMC_disk_read(buff, sector, count);

		// translate the reslut code here

		return result;
 8003d48:	2000      	movs	r0, #0

		return result;
	}

	return RES_PARERR;
}
 8003d4a:	bd10      	pop	{r4, pc}
		result = RAM_disk_read(buff, sector, count);
 8003d4c:	461a      	mov	r2, r3
 8003d4e:	4620      	mov	r0, r4
 8003d50:	f7ff ffbf 	bl	8003cd2 <RAM_disk_read>
		return result;
 8003d54:	e7f9      	b.n	8003d4a <disk_read+0x14>
    result = SD_disk_read(buff, sector, count);
 8003d56:	461a      	mov	r2, r3
 8003d58:	4620      	mov	r0, r4
 8003d5a:	f7ff ffbe 	bl	8003cda <SD_disk_read>
    return result;
 8003d5e:	e7f4      	b.n	8003d4a <disk_read+0x14>
	return RES_PARERR;
 8003d60:	2004      	movs	r0, #4
 8003d62:	e7f2      	b.n	8003d4a <disk_read+0x14>

08003d64 <disk_write>:
	BYTE pdrv,			/* Physical drive number to identify the drive */
	const BYTE *buff,	    /* Data to be written */
	LBA_t sector,		/* Start sector in LBA */
	UINT count			/* Number of sectors to write */
)
{
 8003d64:	b510      	push	{r4, lr}
 8003d66:	460c      	mov	r4, r1
 8003d68:	4611      	mov	r1, r2
  DSTATUS result = 0;

	switch (pdrv) {
 8003d6a:	2803      	cmp	r0, #3
 8003d6c:	d80f      	bhi.n	8003d8e <disk_write+0x2a>
 8003d6e:	e8df f000 	tbb	[pc, r0]
 8003d72:	0904      	.short	0x0904
 8003d74:	0202      	.short	0x0202

		//result = MMC_disk_write(buff, sector, count);

		// translate the reslut code here

		return result;
 8003d76:	2000      	movs	r0, #0

		return result;
	}

	return RES_PARERR;
}
 8003d78:	bd10      	pop	{r4, pc}
		result = RAM_disk_write(buff, sector, count);
 8003d7a:	461a      	mov	r2, r3
 8003d7c:	4620      	mov	r0, r4
 8003d7e:	f7ff ffb0 	bl	8003ce2 <RAM_disk_write>
		return result;
 8003d82:	e7f9      	b.n	8003d78 <disk_write+0x14>
    result = SD_disk_write(buff, sector, count);
 8003d84:	461a      	mov	r2, r3
 8003d86:	4620      	mov	r0, r4
 8003d88:	f7ff ffaf 	bl	8003cea <SD_disk_write>
    return result;
 8003d8c:	e7f4      	b.n	8003d78 <disk_write+0x14>
	return RES_PARERR;
 8003d8e:	2004      	movs	r0, #4
 8003d90:	e7f2      	b.n	8003d78 <disk_write+0x14>

08003d92 <disk_ioctl>:
DRESULT disk_ioctl (
	BYTE pdrv,		/* Physical drive nmuber (0..) */
	BYTE cmd,		/* Control code */
	void *buff		/* Buffer to send/receive control data */
)
{
 8003d92:	b508      	push	{r3, lr}
 8003d94:	460b      	mov	r3, r1
  DSTATUS result = 0;

	switch (pdrv) {
 8003d96:	2803      	cmp	r0, #3
 8003d98:	d80f      	bhi.n	8003dba <disk_ioctl+0x28>
 8003d9a:	e8df f000 	tbb	[pc, r0]
 8003d9e:	0904      	.short	0x0904
 8003da0:	0202      	.short	0x0202

	case DEV_MMC :

		// Process of the command for the MMC/SD card

		return result;
 8003da2:	2000      	movs	r0, #0

		return result;
	}

	return RES_PARERR;
}
 8003da4:	bd08      	pop	{r3, pc}
    result = ArcadeIT_RAMDisk_Ioctl(cmd, buff);
 8003da6:	4611      	mov	r1, r2
 8003da8:	4618      	mov	r0, r3
 8003daa:	f7ff f9cc 	bl	8003146 <ArcadeIT_RAMDisk_Ioctl>
		return result;
 8003dae:	e7f9      	b.n	8003da4 <disk_ioctl+0x12>
	  result = ArcadeIT_SDCard_Disk_Ioctl(cmd, buff);
 8003db0:	4611      	mov	r1, r2
 8003db2:	4618      	mov	r0, r3
 8003db4:	f7ff fca3 	bl	80036fe <ArcadeIT_SDCard_Disk_Ioctl>
		return result;
 8003db8:	e7f4      	b.n	8003da4 <disk_ioctl+0x12>
	return RES_PARERR;
 8003dba:	2004      	movs	r0, #4
 8003dbc:	e7f2      	b.n	8003da4 <disk_ioctl+0x12>

08003dbe <ld_word>:
 8003dbe:	7842      	ldrb	r2, [r0, #1]
 8003dc0:	7800      	ldrb	r0, [r0, #0]
 8003dc2:	ea40 2002 	orr.w	r0, r0, r2, lsl #8
 8003dc6:	4770      	bx	lr

08003dc8 <ld_dword>:
 8003dc8:	78c2      	ldrb	r2, [r0, #3]
 8003dca:	7883      	ldrb	r3, [r0, #2]
 8003dcc:	ea43 2202 	orr.w	r2, r3, r2, lsl #8
 8003dd0:	7843      	ldrb	r3, [r0, #1]
 8003dd2:	ea43 2302 	orr.w	r3, r3, r2, lsl #8
 8003dd6:	7800      	ldrb	r0, [r0, #0]
 8003dd8:	ea40 2003 	orr.w	r0, r0, r3, lsl #8
 8003ddc:	4770      	bx	lr

08003dde <st_word>:
 8003dde:	7001      	strb	r1, [r0, #0]
 8003de0:	0a09      	lsrs	r1, r1, #8
 8003de2:	7041      	strb	r1, [r0, #1]
 8003de4:	4770      	bx	lr

08003de6 <st_dword>:
 8003de6:	7001      	strb	r1, [r0, #0]
 8003de8:	f3c1 2307 	ubfx	r3, r1, #8, #8
 8003dec:	7043      	strb	r3, [r0, #1]
 8003dee:	f3c1 4307 	ubfx	r3, r1, #16, #8
 8003df2:	7083      	strb	r3, [r0, #2]
 8003df4:	0e09      	lsrs	r1, r1, #24
 8003df6:	70c1      	strb	r1, [r0, #3]
 8003df8:	4770      	bx	lr

08003dfa <mem_cpy>:
 8003dfa:	4613      	mov	r3, r2
 8003dfc:	b12a      	cbz	r2, 8003e0a <mem_cpy+0x10>
 8003dfe:	780a      	ldrb	r2, [r1, #0]
 8003e00:	7002      	strb	r2, [r0, #0]
 8003e02:	3001      	adds	r0, #1
 8003e04:	3101      	adds	r1, #1
 8003e06:	3b01      	subs	r3, #1
 8003e08:	d1f9      	bne.n	8003dfe <mem_cpy+0x4>
 8003e0a:	4770      	bx	lr

08003e0c <mem_set>:
 8003e0c:	7001      	strb	r1, [r0, #0]
 8003e0e:	3001      	adds	r0, #1
 8003e10:	3a01      	subs	r2, #1
 8003e12:	d1fb      	bne.n	8003e0c <mem_set>
 8003e14:	4770      	bx	lr

08003e16 <mem_cmp>:
 8003e16:	b430      	push	{r4, r5}
 8003e18:	1c45      	adds	r5, r0, #1
 8003e1a:	7803      	ldrb	r3, [r0, #0]
 8003e1c:	7808      	ldrb	r0, [r1, #0]
 8003e1e:	1a1b      	subs	r3, r3, r0
 8003e20:	3a01      	subs	r2, #1
 8003e22:	d004      	beq.n	8003e2e <mem_cmp+0x18>
 8003e24:	1c4c      	adds	r4, r1, #1
 8003e26:	4628      	mov	r0, r5
 8003e28:	4621      	mov	r1, r4
 8003e2a:	2b00      	cmp	r3, #0
 8003e2c:	d0f4      	beq.n	8003e18 <mem_cmp+0x2>
 8003e2e:	4618      	mov	r0, r3
 8003e30:	bc30      	pop	{r4, r5}
 8003e32:	4770      	bx	lr

08003e34 <chk_chr>:
 8003e34:	e000      	b.n	8003e38 <chk_chr+0x4>
 8003e36:	3001      	adds	r0, #1
 8003e38:	7803      	ldrb	r3, [r0, #0]
 8003e3a:	b10b      	cbz	r3, 8003e40 <chk_chr+0xc>
 8003e3c:	428b      	cmp	r3, r1
 8003e3e:	d1fa      	bne.n	8003e36 <chk_chr+0x2>
 8003e40:	4618      	mov	r0, r3
 8003e42:	4770      	bx	lr

08003e44 <dbc_1st>:
 8003e44:	2880      	cmp	r0, #128	; 0x80
 8003e46:	d907      	bls.n	8003e58 <dbc_1st+0x14>
 8003e48:	289f      	cmp	r0, #159	; 0x9f
 8003e4a:	d907      	bls.n	8003e5c <dbc_1st+0x18>
 8003e4c:	28df      	cmp	r0, #223	; 0xdf
 8003e4e:	d907      	bls.n	8003e60 <dbc_1st+0x1c>
 8003e50:	28fc      	cmp	r0, #252	; 0xfc
 8003e52:	d907      	bls.n	8003e64 <dbc_1st+0x20>
 8003e54:	2000      	movs	r0, #0
 8003e56:	4770      	bx	lr
 8003e58:	2000      	movs	r0, #0
 8003e5a:	4770      	bx	lr
 8003e5c:	2001      	movs	r0, #1
 8003e5e:	4770      	bx	lr
 8003e60:	2000      	movs	r0, #0
 8003e62:	4770      	bx	lr
 8003e64:	2001      	movs	r0, #1
 8003e66:	4770      	bx	lr

08003e68 <dbc_2nd>:
 8003e68:	283f      	cmp	r0, #63	; 0x3f
 8003e6a:	d90b      	bls.n	8003e84 <dbc_2nd+0x1c>
 8003e6c:	287e      	cmp	r0, #126	; 0x7e
 8003e6e:	d90b      	bls.n	8003e88 <dbc_2nd+0x20>
 8003e70:	f010 0f80 	tst.w	r0, #128	; 0x80
 8003e74:	d102      	bne.n	8003e7c <dbc_2nd+0x14>
 8003e76:	b148      	cbz	r0, 8003e8c <dbc_2nd+0x24>
 8003e78:	2000      	movs	r0, #0
 8003e7a:	4770      	bx	lr
 8003e7c:	28fc      	cmp	r0, #252	; 0xfc
 8003e7e:	d8fa      	bhi.n	8003e76 <dbc_2nd+0xe>
 8003e80:	2001      	movs	r0, #1
 8003e82:	4770      	bx	lr
 8003e84:	2000      	movs	r0, #0
 8003e86:	4770      	bx	lr
 8003e88:	2001      	movs	r0, #1
 8003e8a:	4770      	bx	lr
 8003e8c:	2001      	movs	r0, #1
 8003e8e:	4770      	bx	lr

08003e90 <clst2sect>:
 8003e90:	3902      	subs	r1, #2
 8003e92:	69c3      	ldr	r3, [r0, #28]
 8003e94:	3b02      	subs	r3, #2
 8003e96:	428b      	cmp	r3, r1
 8003e98:	d904      	bls.n	8003ea4 <clst2sect+0x14>
 8003e9a:	6b03      	ldr	r3, [r0, #48]	; 0x30
 8003e9c:	8940      	ldrh	r0, [r0, #10]
 8003e9e:	fb01 3000 	mla	r0, r1, r0, r3
 8003ea2:	4770      	bx	lr
 8003ea4:	2000      	movs	r0, #0
 8003ea6:	4770      	bx	lr

08003ea8 <pick_lfn>:
 8003ea8:	e92d 41f0 	stmdb	sp!, {r4, r5, r6, r7, r8, lr}
 8003eac:	4607      	mov	r7, r0
 8003eae:	460e      	mov	r6, r1
 8003eb0:	f101 001a 	add.w	r0, r1, #26
 8003eb4:	f7ff ff83 	bl	8003dbe <ld_word>
 8003eb8:	bb90      	cbnz	r0, 8003f20 <pick_lfn+0x78>
 8003eba:	7835      	ldrb	r5, [r6, #0]
 8003ebc:	f025 0540 	bic.w	r5, r5, #64	; 0x40
 8003ec0:	3d01      	subs	r5, #1
 8003ec2:	eb05 0345 	add.w	r3, r5, r5, lsl #1
 8003ec6:	eb05 0583 	add.w	r5, r5, r3, lsl #2
 8003eca:	f04f 0801 	mov.w	r8, #1
 8003ece:	2400      	movs	r4, #0
 8003ed0:	e004      	b.n	8003edc <pick_lfn+0x34>
 8003ed2:	f64f 73ff 	movw	r3, #65535	; 0xffff
 8003ed6:	4298      	cmp	r0, r3
 8003ed8:	d127      	bne.n	8003f2a <pick_lfn+0x82>
 8003eda:	3401      	adds	r4, #1
 8003edc:	2c0c      	cmp	r4, #12
 8003ede:	d811      	bhi.n	8003f04 <pick_lfn+0x5c>
 8003ee0:	f648 43f0 	movw	r3, #36080	; 0x8cf0
 8003ee4:	f6c0 0300 	movt	r3, #2048	; 0x800
 8003ee8:	5d18      	ldrb	r0, [r3, r4]
 8003eea:	4430      	add	r0, r6
 8003eec:	f7ff ff67 	bl	8003dbe <ld_word>
 8003ef0:	f1b8 0f00 	cmp.w	r8, #0
 8003ef4:	d0ed      	beq.n	8003ed2 <pick_lfn+0x2a>
 8003ef6:	2dff      	cmp	r5, #255	; 0xff
 8003ef8:	d815      	bhi.n	8003f26 <pick_lfn+0x7e>
 8003efa:	f827 0015 	strh.w	r0, [r7, r5, lsl #1]
 8003efe:	4680      	mov	r8, r0
 8003f00:	3501      	adds	r5, #1
 8003f02:	e7ea      	b.n	8003eda <pick_lfn+0x32>
 8003f04:	7833      	ldrb	r3, [r6, #0]
 8003f06:	f013 0f40 	tst.w	r3, #64	; 0x40
 8003f0a:	d010      	beq.n	8003f2e <pick_lfn+0x86>
 8003f0c:	f1b8 0f00 	cmp.w	r8, #0
 8003f10:	d00f      	beq.n	8003f32 <pick_lfn+0x8a>
 8003f12:	2dff      	cmp	r5, #255	; 0xff
 8003f14:	d80f      	bhi.n	8003f36 <pick_lfn+0x8e>
 8003f16:	2300      	movs	r3, #0
 8003f18:	f827 3015 	strh.w	r3, [r7, r5, lsl #1]
 8003f1c:	2001      	movs	r0, #1
 8003f1e:	e000      	b.n	8003f22 <pick_lfn+0x7a>
 8003f20:	2000      	movs	r0, #0
 8003f22:	e8bd 81f0 	ldmia.w	sp!, {r4, r5, r6, r7, r8, pc}
 8003f26:	2000      	movs	r0, #0
 8003f28:	e7fb      	b.n	8003f22 <pick_lfn+0x7a>
 8003f2a:	2000      	movs	r0, #0
 8003f2c:	e7f9      	b.n	8003f22 <pick_lfn+0x7a>
 8003f2e:	2001      	movs	r0, #1
 8003f30:	e7f7      	b.n	8003f22 <pick_lfn+0x7a>
 8003f32:	2001      	movs	r0, #1
 8003f34:	e7f5      	b.n	8003f22 <pick_lfn+0x7a>
 8003f36:	2000      	movs	r0, #0
 8003f38:	e7f3      	b.n	8003f22 <pick_lfn+0x7a>

08003f3a <sum_sfn>:
 8003f3a:	4601      	mov	r1, r0
 8003f3c:	220b      	movs	r2, #11
 8003f3e:	2000      	movs	r0, #0
 8003f40:	01c3      	lsls	r3, r0, #7
 8003f42:	ea43 0350 	orr.w	r3, r3, r0, lsr #1
 8003f46:	7808      	ldrb	r0, [r1, #0]
 8003f48:	fa50 f383 	uxtab	r3, r0, r3
 8003f4c:	b2d8      	uxtb	r0, r3
 8003f4e:	3101      	adds	r1, #1
 8003f50:	3a01      	subs	r2, #1
 8003f52:	d1f5      	bne.n	8003f40 <sum_sfn+0x6>
 8003f54:	4770      	bx	lr

08003f56 <get_ldnumber>:
 8003f56:	b5f0      	push	{r4, r5, r6, r7, lr}
 8003f58:	6807      	ldr	r7, [r0, #0]
 8003f5a:	2f00      	cmp	r7, #0
 8003f5c:	d051      	beq.n	8004002 <get_ldnumber+0xac>
 8003f5e:	463a      	mov	r2, r7
 8003f60:	1c54      	adds	r4, r2, #1
 8003f62:	7813      	ldrb	r3, [r2, #0]
 8003f64:	2b1f      	cmp	r3, #31
 8003f66:	d902      	bls.n	8003f6e <get_ldnumber+0x18>
 8003f68:	4622      	mov	r2, r4
 8003f6a:	2b3a      	cmp	r3, #58	; 0x3a
 8003f6c:	d1f8      	bne.n	8003f60 <get_ldnumber+0xa>
 8003f6e:	2b3a      	cmp	r3, #58	; 0x3a
 8003f70:	d007      	beq.n	8003f82 <get_ldnumber+0x2c>
 8003f72:	f240 235a 	movw	r3, #602	; 0x25a
 8003f76:	f2c2 0300 	movt	r3, #8192	; 0x2000
 8003f7a:	f893 e000 	ldrb.w	lr, [r3]
 8003f7e:	4670      	mov	r0, lr
 8003f80:	bdf0      	pop	{r4, r5, r6, r7, pc}
 8003f82:	f897 e000 	ldrb.w	lr, [r7]
 8003f86:	f1ae 0330 	sub.w	r3, lr, #48	; 0x30
 8003f8a:	b2db      	uxtb	r3, r3
 8003f8c:	2b09      	cmp	r3, #9
 8003f8e:	d808      	bhi.n	8003fa2 <get_ldnumber+0x4c>
 8003f90:	1cbb      	adds	r3, r7, #2
 8003f92:	42a3      	cmp	r3, r4
 8003f94:	d002      	beq.n	8003f9c <get_ldnumber+0x46>
 8003f96:	f04f 0e00 	mov.w	lr, #0
 8003f9a:	e004      	b.n	8003fa6 <get_ldnumber+0x50>
 8003f9c:	f1ae 0e30 	sub.w	lr, lr, #48	; 0x30
 8003fa0:	e02a      	b.n	8003ff8 <get_ldnumber+0xa2>
 8003fa2:	f04f 0e00 	mov.w	lr, #0
 8003fa6:	f648 5300 	movw	r3, #36096	; 0x8d00
 8003faa:	f6c0 0300 	movt	r3, #2048	; 0x800
 8003fae:	f853 502e 	ldr.w	r5, [r3, lr, lsl #2]
 8003fb2:	4639      	mov	r1, r7
 8003fb4:	e004      	b.n	8003fc0 <get_ldnumber+0x6a>
 8003fb6:	b1bb      	cbz	r3, 8003fe8 <get_ldnumber+0x92>
 8003fb8:	4631      	mov	r1, r6
 8003fba:	4665      	mov	r5, ip
 8003fbc:	429a      	cmp	r2, r3
 8003fbe:	d113      	bne.n	8003fe8 <get_ldnumber+0x92>
 8003fc0:	f105 0c01 	add.w	ip, r5, #1
 8003fc4:	782b      	ldrb	r3, [r5, #0]
 8003fc6:	1c4e      	adds	r6, r1, #1
 8003fc8:	780a      	ldrb	r2, [r1, #0]
 8003fca:	f1a3 0161 	sub.w	r1, r3, #97	; 0x61
 8003fce:	b2c9      	uxtb	r1, r1
 8003fd0:	2919      	cmp	r1, #25
 8003fd2:	d801      	bhi.n	8003fd8 <get_ldnumber+0x82>
 8003fd4:	3b20      	subs	r3, #32
 8003fd6:	b2db      	uxtb	r3, r3
 8003fd8:	f1a2 0161 	sub.w	r1, r2, #97	; 0x61
 8003fdc:	b2c9      	uxtb	r1, r1
 8003fde:	2919      	cmp	r1, #25
 8003fe0:	d8e9      	bhi.n	8003fb6 <get_ldnumber+0x60>
 8003fe2:	3a20      	subs	r2, #32
 8003fe4:	b2d2      	uxtb	r2, r2
 8003fe6:	e7e6      	b.n	8003fb6 <get_ldnumber+0x60>
 8003fe8:	b90b      	cbnz	r3, 8003fee <get_ldnumber+0x98>
 8003fea:	42b4      	cmp	r4, r6
 8003fec:	d004      	beq.n	8003ff8 <get_ldnumber+0xa2>
 8003fee:	f10e 0e01 	add.w	lr, lr, #1
 8003ff2:	f1be 0f01 	cmp.w	lr, #1
 8003ff6:	ddd6      	ble.n	8003fa6 <get_ldnumber+0x50>
 8003ff8:	f1be 0f01 	cmp.w	lr, #1
 8003ffc:	dc04      	bgt.n	8004008 <get_ldnumber+0xb2>
 8003ffe:	6004      	str	r4, [r0, #0]
 8004000:	e7bd      	b.n	8003f7e <get_ldnumber+0x28>
 8004002:	f04f 3eff 	mov.w	lr, #4294967295
 8004006:	e7ba      	b.n	8003f7e <get_ldnumber+0x28>
 8004008:	f04f 3eff 	mov.w	lr, #4294967295
 800400c:	e7b7      	b.n	8003f7e <get_ldnumber+0x28>

0800400e <sync_window>:
 800400e:	b538      	push	{r3, r4, r5, lr}
 8004010:	78c3      	ldrb	r3, [r0, #3]
 8004012:	b90b      	cbnz	r3, 8004018 <sync_window+0xa>
 8004014:	2000      	movs	r0, #0
 8004016:	bd38      	pop	{r3, r4, r5, pc}
 8004018:	4604      	mov	r4, r0
 800401a:	f100 0538 	add.w	r5, r0, #56	; 0x38
 800401e:	2301      	movs	r3, #1
 8004020:	6b42      	ldr	r2, [r0, #52]	; 0x34
 8004022:	4629      	mov	r1, r5
 8004024:	7840      	ldrb	r0, [r0, #1]
 8004026:	f7ff fe9d 	bl	8003d64 <disk_write>
 800402a:	b9a0      	cbnz	r0, 8004056 <sync_window+0x48>
 800402c:	2300      	movs	r3, #0
 800402e:	70e3      	strb	r3, [r4, #3]
 8004030:	6b61      	ldr	r1, [r4, #52]	; 0x34
 8004032:	6aa3      	ldr	r3, [r4, #40]	; 0x28
 8004034:	1acb      	subs	r3, r1, r3
 8004036:	6a22      	ldr	r2, [r4, #32]
 8004038:	4293      	cmp	r3, r2
 800403a:	d20e      	bcs.n	800405a <sync_window+0x4c>
 800403c:	78a3      	ldrb	r3, [r4, #2]
 800403e:	2b02      	cmp	r3, #2
 8004040:	d001      	beq.n	8004046 <sync_window+0x38>
 8004042:	2000      	movs	r0, #0
 8004044:	e7e7      	b.n	8004016 <sync_window+0x8>
 8004046:	2301      	movs	r3, #1
 8004048:	440a      	add	r2, r1
 800404a:	4629      	mov	r1, r5
 800404c:	7860      	ldrb	r0, [r4, #1]
 800404e:	f7ff fe89 	bl	8003d64 <disk_write>
 8004052:	2000      	movs	r0, #0
 8004054:	e7df      	b.n	8004016 <sync_window+0x8>
 8004056:	2001      	movs	r0, #1
 8004058:	e7dd      	b.n	8004016 <sync_window+0x8>
 800405a:	2000      	movs	r0, #0
 800405c:	e7db      	b.n	8004016 <sync_window+0x8>

0800405e <move_window>:
 800405e:	b570      	push	{r4, r5, r6, lr}
 8004060:	6b43      	ldr	r3, [r0, #52]	; 0x34
 8004062:	428b      	cmp	r3, r1
 8004064:	d012      	beq.n	800408c <move_window+0x2e>
 8004066:	4604      	mov	r4, r0
 8004068:	460d      	mov	r5, r1
 800406a:	f7ff ffd0 	bl	800400e <sync_window>
 800406e:	4606      	mov	r6, r0
 8004070:	b968      	cbnz	r0, 800408e <move_window+0x30>
 8004072:	2301      	movs	r3, #1
 8004074:	462a      	mov	r2, r5
 8004076:	f104 0138 	add.w	r1, r4, #56	; 0x38
 800407a:	7860      	ldrb	r0, [r4, #1]
 800407c:	f7ff fe5b 	bl	8003d36 <disk_read>
 8004080:	b110      	cbz	r0, 8004088 <move_window+0x2a>
 8004082:	2601      	movs	r6, #1
 8004084:	f04f 35ff 	mov.w	r5, #4294967295
 8004088:	6365      	str	r5, [r4, #52]	; 0x34
 800408a:	e000      	b.n	800408e <move_window+0x30>
 800408c:	2600      	movs	r6, #0
 800408e:	4630      	mov	r0, r6
 8004090:	bd70      	pop	{r4, r5, r6, pc}

08004092 <check_fs>:
 8004092:	b510      	push	{r4, lr}
 8004094:	4604      	mov	r4, r0
 8004096:	2300      	movs	r3, #0
 8004098:	70c3      	strb	r3, [r0, #3]
 800409a:	f04f 33ff 	mov.w	r3, #4294967295
 800409e:	6343      	str	r3, [r0, #52]	; 0x34
 80040a0:	f7ff ffdd 	bl	800405e <move_window>
 80040a4:	bb28      	cbnz	r0, 80040f2 <check_fs+0x60>
 80040a6:	f204 2036 	addw	r0, r4, #566	; 0x236
 80040aa:	f7ff fe88 	bl	8003dbe <ld_word>
 80040ae:	f64a 2355 	movw	r3, #43605	; 0xaa55
 80040b2:	4298      	cmp	r0, r3
 80040b4:	d11f      	bne.n	80040f6 <check_fs+0x64>
 80040b6:	f894 3038 	ldrb.w	r3, [r4, #56]	; 0x38
 80040ba:	2be9      	cmp	r3, #233	; 0xe9
 80040bc:	d003      	beq.n	80040c6 <check_fs+0x34>
 80040be:	2beb      	cmp	r3, #235	; 0xeb
 80040c0:	d001      	beq.n	80040c6 <check_fs+0x34>
 80040c2:	2be8      	cmp	r3, #232	; 0xe8
 80040c4:	d119      	bne.n	80040fa <check_fs+0x68>
 80040c6:	2203      	movs	r2, #3
 80040c8:	f648 511c 	movw	r1, #36124	; 0x8d1c
 80040cc:	f6c0 0100 	movt	r1, #2048	; 0x800
 80040d0:	f104 006e 	add.w	r0, r4, #110	; 0x6e
 80040d4:	f7ff fe9f 	bl	8003e16 <mem_cmp>
 80040d8:	b188      	cbz	r0, 80040fe <check_fs+0x6c>
 80040da:	2205      	movs	r2, #5
 80040dc:	f648 5120 	movw	r1, #36128	; 0x8d20
 80040e0:	f6c0 0100 	movt	r1, #2048	; 0x800
 80040e4:	f104 008a 	add.w	r0, r4, #138	; 0x8a
 80040e8:	f7ff fe95 	bl	8003e16 <mem_cmp>
 80040ec:	b120      	cbz	r0, 80040f8 <check_fs+0x66>
 80040ee:	2002      	movs	r0, #2
 80040f0:	e002      	b.n	80040f8 <check_fs+0x66>
 80040f2:	2004      	movs	r0, #4
 80040f4:	e000      	b.n	80040f8 <check_fs+0x66>
 80040f6:	2003      	movs	r0, #3
 80040f8:	bd10      	pop	{r4, pc}
 80040fa:	2002      	movs	r0, #2
 80040fc:	e7fc      	b.n	80040f8 <check_fs+0x66>
 80040fe:	2000      	movs	r0, #0
 8004100:	e7fa      	b.n	80040f8 <check_fs+0x66>

08004102 <find_volume>:
 8004102:	b570      	push	{r4, r5, r6, lr}
 8004104:	b084      	sub	sp, #16
 8004106:	4606      	mov	r6, r0
 8004108:	460d      	mov	r5, r1
 800410a:	2100      	movs	r1, #0
 800410c:	f7ff ffc1 	bl	8004092 <check_fs>
 8004110:	2802      	cmp	r0, #2
 8004112:	d016      	beq.n	8004142 <find_volume+0x40>
 8004114:	d82b      	bhi.n	800416e <find_volume+0x6c>
 8004116:	b355      	cbz	r5, 800416e <find_volume+0x6c>
 8004118:	2400      	movs	r4, #0
 800411a:	e00d      	b.n	8004138 <find_volume+0x36>
 800411c:	f106 0038 	add.w	r0, r6, #56	; 0x38
 8004120:	0123      	lsls	r3, r4, #4
 8004122:	f503 73e3 	add.w	r3, r3, #454	; 0x1c6
 8004126:	4418      	add	r0, r3
 8004128:	f7ff fe4e 	bl	8003dc8 <ld_dword>
 800412c:	ab04      	add	r3, sp, #16
 800412e:	eb03 0384 	add.w	r3, r3, r4, lsl #2
 8004132:	f843 0c10 	str.w	r0, [r3, #-16]
 8004136:	3401      	adds	r4, #1
 8004138:	2c03      	cmp	r4, #3
 800413a:	d9ef      	bls.n	800411c <find_volume+0x1a>
 800413c:	b11d      	cbz	r5, 8004146 <find_volume+0x44>
 800413e:	1e6c      	subs	r4, r5, #1
 8004140:	e00c      	b.n	800415c <find_volume+0x5a>
 8004142:	2400      	movs	r4, #0
 8004144:	e7f8      	b.n	8004138 <find_volume+0x36>
 8004146:	462c      	mov	r4, r5
 8004148:	e008      	b.n	800415c <find_volume+0x5a>
 800414a:	4630      	mov	r0, r6
 800414c:	f7ff ffa1 	bl	8004092 <check_fs>
 8004150:	b96d      	cbnz	r5, 800416e <find_volume+0x6c>
 8004152:	2801      	cmp	r0, #1
 8004154:	d90b      	bls.n	800416e <find_volume+0x6c>
 8004156:	3401      	adds	r4, #1
 8004158:	2c03      	cmp	r4, #3
 800415a:	d808      	bhi.n	800416e <find_volume+0x6c>
 800415c:	ab04      	add	r3, sp, #16
 800415e:	eb03 0384 	add.w	r3, r3, r4, lsl #2
 8004162:	f853 1c10 	ldr.w	r1, [r3, #-16]
 8004166:	2900      	cmp	r1, #0
 8004168:	d1ef      	bne.n	800414a <find_volume+0x48>
 800416a:	2003      	movs	r0, #3
 800416c:	e7f0      	b.n	8004150 <find_volume+0x4e>
 800416e:	b004      	add	sp, #16
 8004170:	bd70      	pop	{r4, r5, r6, pc}

08004172 <mount_volume>:
 8004172:	e92d 47f0 	stmdb	sp!, {r4, r5, r6, r7, r8, r9, sl, lr}
 8004176:	460f      	mov	r7, r1
 8004178:	4616      	mov	r6, r2
 800417a:	2300      	movs	r3, #0
 800417c:	600b      	str	r3, [r1, #0]
 800417e:	f7ff feea 	bl	8003f56 <get_ldnumber>
 8004182:	1e05      	subs	r5, r0, #0
 8004184:	f2c0 812a 	blt.w	80043dc <mount_volume+0x26a>
 8004188:	f240 235c 	movw	r3, #604	; 0x25c
 800418c:	f2c2 0300 	movt	r3, #8192	; 0x2000
 8004190:	f853 4025 	ldr.w	r4, [r3, r5, lsl #2]
 8004194:	2c00      	cmp	r4, #0
 8004196:	f000 8124 	beq.w	80043e2 <mount_volume+0x270>
 800419a:	603c      	str	r4, [r7, #0]
 800419c:	f006 06fe 	and.w	r6, r6, #254	; 0xfe
 80041a0:	7823      	ldrb	r3, [r4, #0]
 80041a2:	b173      	cbz	r3, 80041c2 <mount_volume+0x50>
 80041a4:	7860      	ldrb	r0, [r4, #1]
 80041a6:	f7ff fda4 	bl	8003cf2 <disk_status>
 80041aa:	f010 0f01 	tst.w	r0, #1
 80041ae:	d108      	bne.n	80041c2 <mount_volume+0x50>
 80041b0:	2e00      	cmp	r6, #0
 80041b2:	f000 8118 	beq.w	80043e6 <mount_volume+0x274>
 80041b6:	f010 0f04 	tst.w	r0, #4
 80041ba:	f040 8116 	bne.w	80043ea <mount_volume+0x278>
 80041be:	2000      	movs	r0, #0
 80041c0:	e10d      	b.n	80043de <mount_volume+0x26c>
 80041c2:	2300      	movs	r3, #0
 80041c4:	7023      	strb	r3, [r4, #0]
 80041c6:	b2e8      	uxtb	r0, r5
 80041c8:	7060      	strb	r0, [r4, #1]
 80041ca:	f7ff fda3 	bl	8003d14 <disk_initialize>
 80041ce:	f010 0f01 	tst.w	r0, #1
 80041d2:	f040 810c 	bne.w	80043ee <mount_volume+0x27c>
 80041d6:	b11e      	cbz	r6, 80041e0 <mount_volume+0x6e>
 80041d8:	f010 0f04 	tst.w	r0, #4
 80041dc:	f040 8109 	bne.w	80043f2 <mount_volume+0x280>
 80041e0:	2100      	movs	r1, #0
 80041e2:	4620      	mov	r0, r4
 80041e4:	f7ff ff8d 	bl	8004102 <find_volume>
 80041e8:	2804      	cmp	r0, #4
 80041ea:	f000 8104 	beq.w	80043f6 <mount_volume+0x284>
 80041ee:	2801      	cmp	r0, #1
 80041f0:	f200 8103 	bhi.w	80043fa <mount_volume+0x288>
 80041f4:	6b67      	ldr	r7, [r4, #52]	; 0x34
 80041f6:	f104 0043 	add.w	r0, r4, #67	; 0x43
 80041fa:	f7ff fde0 	bl	8003dbe <ld_word>
 80041fe:	f5b0 7f00 	cmp.w	r0, #512	; 0x200
 8004202:	f040 80fc 	bne.w	80043fe <mount_volume+0x28c>
 8004206:	f104 004e 	add.w	r0, r4, #78	; 0x4e
 800420a:	f7ff fdd8 	bl	8003dbe <ld_word>
 800420e:	4606      	mov	r6, r0
 8004210:	b920      	cbnz	r0, 800421c <mount_volume+0xaa>
 8004212:	f104 005c 	add.w	r0, r4, #92	; 0x5c
 8004216:	f7ff fdd7 	bl	8003dc8 <ld_dword>
 800421a:	4606      	mov	r6, r0
 800421c:	6226      	str	r6, [r4, #32]
 800421e:	f894 2048 	ldrb.w	r2, [r4, #72]	; 0x48
 8004222:	70a2      	strb	r2, [r4, #2]
 8004224:	1e53      	subs	r3, r2, #1
 8004226:	b2db      	uxtb	r3, r3
 8004228:	2b01      	cmp	r3, #1
 800422a:	f200 80ea 	bhi.w	8004402 <mount_volume+0x290>
 800422e:	fb06 f502 	mul.w	r5, r6, r2
 8004232:	f894 8045 	ldrb.w	r8, [r4, #69]	; 0x45
 8004236:	f8a4 800a 	strh.w	r8, [r4, #10]
 800423a:	f1b8 0f00 	cmp.w	r8, #0
 800423e:	f000 80e2 	beq.w	8004406 <mount_volume+0x294>
 8004242:	f108 33ff 	add.w	r3, r8, #4294967295
 8004246:	ea18 0f03 	tst.w	r8, r3
 800424a:	f040 80de 	bne.w	800440a <mount_volume+0x298>
 800424e:	f104 0049 	add.w	r0, r4, #73	; 0x49
 8004252:	f7ff fdb4 	bl	8003dbe <ld_word>
 8004256:	4682      	mov	sl, r0
 8004258:	8120      	strh	r0, [r4, #8]
 800425a:	f010 0f0f 	tst.w	r0, #15
 800425e:	f040 80d6 	bne.w	800440e <mount_volume+0x29c>
 8004262:	f104 004b 	add.w	r0, r4, #75	; 0x4b
 8004266:	f7ff fdaa 	bl	8003dbe <ld_word>
 800426a:	4681      	mov	r9, r0
 800426c:	b920      	cbnz	r0, 8004278 <mount_volume+0x106>
 800426e:	f104 0058 	add.w	r0, r4, #88	; 0x58
 8004272:	f7ff fda9 	bl	8003dc8 <ld_dword>
 8004276:	4681      	mov	r9, r0
 8004278:	f104 0046 	add.w	r0, r4, #70	; 0x46
 800427c:	f7ff fd9f 	bl	8003dbe <ld_word>
 8004280:	4601      	mov	r1, r0
 8004282:	2800      	cmp	r0, #0
 8004284:	f000 80c5 	beq.w	8004412 <mount_volume+0x2a0>
 8004288:	1942      	adds	r2, r0, r5
 800428a:	eb02 121a 	add.w	r2, r2, sl, lsr #4
 800428e:	4591      	cmp	r9, r2
 8004290:	f0c0 80c1 	bcc.w	8004416 <mount_volume+0x2a4>
 8004294:	eba9 0302 	sub.w	r3, r9, r2
 8004298:	fbb3 f3f8 	udiv	r3, r3, r8
 800429c:	2b00      	cmp	r3, #0
 800429e:	f000 80bc 	beq.w	800441a <mount_volume+0x2a8>
 80042a2:	f64f 70f5 	movw	r0, #65525	; 0xfff5
 80042a6:	f6c0 70ff 	movt	r0, #4095	; 0xfff
 80042aa:	4283      	cmp	r3, r0
 80042ac:	d910      	bls.n	80042d0 <mount_volume+0x15e>
 80042ae:	f04f 0900 	mov.w	r9, #0
 80042b2:	f64f 70f5 	movw	r0, #65525	; 0xfff5
 80042b6:	4283      	cmp	r3, r0
 80042b8:	d801      	bhi.n	80042be <mount_volume+0x14c>
 80042ba:	f04f 0902 	mov.w	r9, #2
 80042be:	f640 70f5 	movw	r0, #4085	; 0xff5
 80042c2:	4283      	cmp	r3, r0
 80042c4:	d907      	bls.n	80042d6 <mount_volume+0x164>
 80042c6:	f1b9 0f00 	cmp.w	r9, #0
 80042ca:	d106      	bne.n	80042da <mount_volume+0x168>
 80042cc:	200d      	movs	r0, #13
 80042ce:	e086      	b.n	80043de <mount_volume+0x26c>
 80042d0:	f04f 0903 	mov.w	r9, #3
 80042d4:	e7ed      	b.n	80042b2 <mount_volume+0x140>
 80042d6:	f04f 0901 	mov.w	r9, #1
 80042da:	f103 0802 	add.w	r8, r3, #2
 80042de:	f8c4 801c 	str.w	r8, [r4, #28]
 80042e2:	6267      	str	r7, [r4, #36]	; 0x24
 80042e4:	19cb      	adds	r3, r1, r7
 80042e6:	62a3      	str	r3, [r4, #40]	; 0x28
 80042e8:	443a      	add	r2, r7
 80042ea:	6322      	str	r2, [r4, #48]	; 0x30
 80042ec:	f1b9 0f03 	cmp.w	r9, #3
 80042f0:	d030      	beq.n	8004354 <mount_volume+0x1e2>
 80042f2:	f1ba 0f00 	cmp.w	sl, #0
 80042f6:	f000 8096 	beq.w	8004426 <mount_volume+0x2b4>
 80042fa:	442b      	add	r3, r5
 80042fc:	62e3      	str	r3, [r4, #44]	; 0x2c
 80042fe:	f1b9 0f02 	cmp.w	r9, #2
 8004302:	d038      	beq.n	8004376 <mount_volume+0x204>
 8004304:	eb08 0248 	add.w	r2, r8, r8, lsl #1
 8004308:	f008 0301 	and.w	r3, r8, #1
 800430c:	eb03 0352 	add.w	r3, r3, r2, lsr #1
 8004310:	f203 13ff 	addw	r3, r3, #511	; 0x1ff
 8004314:	ebb6 2f53 	cmp.w	r6, r3, lsr #9
 8004318:	f0c0 8087 	bcc.w	800442a <mount_volume+0x2b8>
 800431c:	f04f 33ff 	mov.w	r3, #4294967295
 8004320:	6163      	str	r3, [r4, #20]
 8004322:	6123      	str	r3, [r4, #16]
 8004324:	2380      	movs	r3, #128	; 0x80
 8004326:	7123      	strb	r3, [r4, #4]
 8004328:	f1b9 0f03 	cmp.w	r9, #3
 800432c:	d026      	beq.n	800437c <mount_volume+0x20a>
 800432e:	f884 9000 	strb.w	r9, [r4]
 8004332:	f240 2264 	movw	r2, #612	; 0x264
 8004336:	f2c2 0200 	movt	r2, #8192	; 0x2000
 800433a:	8813      	ldrh	r3, [r2, #0]
 800433c:	3301      	adds	r3, #1
 800433e:	b29b      	uxth	r3, r3
 8004340:	8013      	strh	r3, [r2, #0]
 8004342:	80e3      	strh	r3, [r4, #6]
 8004344:	f240 2368 	movw	r3, #616	; 0x268
 8004348:	f2c2 0300 	movt	r3, #8192	; 0x2000
 800434c:	60e3      	str	r3, [r4, #12]
 800434e:	2000      	movs	r0, #0
 8004350:	61a0      	str	r0, [r4, #24]
 8004352:	e044      	b.n	80043de <mount_volume+0x26c>
 8004354:	f104 0062 	add.w	r0, r4, #98	; 0x62
 8004358:	f7ff fd31 	bl	8003dbe <ld_word>
 800435c:	2800      	cmp	r0, #0
 800435e:	d15e      	bne.n	800441e <mount_volume+0x2ac>
 8004360:	f1ba 0f00 	cmp.w	sl, #0
 8004364:	d15d      	bne.n	8004422 <mount_volume+0x2b0>
 8004366:	f104 0064 	add.w	r0, r4, #100	; 0x64
 800436a:	f7ff fd2d 	bl	8003dc8 <ld_dword>
 800436e:	62e0      	str	r0, [r4, #44]	; 0x2c
 8004370:	ea4f 0388 	mov.w	r3, r8, lsl #2
 8004374:	e7cc      	b.n	8004310 <mount_volume+0x19e>
 8004376:	ea4f 0348 	mov.w	r3, r8, lsl #1
 800437a:	e7c9      	b.n	8004310 <mount_volume+0x19e>
 800437c:	f104 0068 	add.w	r0, r4, #104	; 0x68
 8004380:	f7ff fd1d 	bl	8003dbe <ld_word>
 8004384:	2801      	cmp	r0, #1
 8004386:	d1d2      	bne.n	800432e <mount_volume+0x1bc>
 8004388:	1c79      	adds	r1, r7, #1
 800438a:	4620      	mov	r0, r4
 800438c:	f7ff fe67 	bl	800405e <move_window>
 8004390:	2800      	cmp	r0, #0
 8004392:	d1cc      	bne.n	800432e <mount_volume+0x1bc>
 8004394:	2300      	movs	r3, #0
 8004396:	7123      	strb	r3, [r4, #4]
 8004398:	f204 2036 	addw	r0, r4, #566	; 0x236
 800439c:	f7ff fd0f 	bl	8003dbe <ld_word>
 80043a0:	f64a 2355 	movw	r3, #43605	; 0xaa55
 80043a4:	4298      	cmp	r0, r3
 80043a6:	d1c2      	bne.n	800432e <mount_volume+0x1bc>
 80043a8:	f104 0038 	add.w	r0, r4, #56	; 0x38
 80043ac:	f7ff fd0c 	bl	8003dc8 <ld_dword>
 80043b0:	f245 2352 	movw	r3, #21074	; 0x5252
 80043b4:	f2c4 1361 	movt	r3, #16737	; 0x4161
 80043b8:	4298      	cmp	r0, r3
 80043ba:	d1b8      	bne.n	800432e <mount_volume+0x1bc>
 80043bc:	f504 7007 	add.w	r0, r4, #540	; 0x21c
 80043c0:	f7ff fd02 	bl	8003dc8 <ld_dword>
 80043c4:	f247 2372 	movw	r3, #29298	; 0x7272
 80043c8:	f2c6 1341 	movt	r3, #24897	; 0x6141
 80043cc:	4298      	cmp	r0, r3
 80043ce:	d1ae      	bne.n	800432e <mount_volume+0x1bc>
 80043d0:	f504 7008 	add.w	r0, r4, #544	; 0x220
 80043d4:	f7ff fcf8 	bl	8003dc8 <ld_dword>
 80043d8:	6160      	str	r0, [r4, #20]
 80043da:	e7a8      	b.n	800432e <mount_volume+0x1bc>
 80043dc:	200b      	movs	r0, #11
 80043de:	e8bd 87f0 	ldmia.w	sp!, {r4, r5, r6, r7, r8, r9, sl, pc}
 80043e2:	200c      	movs	r0, #12
 80043e4:	e7fb      	b.n	80043de <mount_volume+0x26c>
 80043e6:	2000      	movs	r0, #0
 80043e8:	e7f9      	b.n	80043de <mount_volume+0x26c>
 80043ea:	200a      	movs	r0, #10
 80043ec:	e7f7      	b.n	80043de <mount_volume+0x26c>
 80043ee:	2003      	movs	r0, #3
 80043f0:	e7f5      	b.n	80043de <mount_volume+0x26c>
 80043f2:	200a      	movs	r0, #10
 80043f4:	e7f3      	b.n	80043de <mount_volume+0x26c>
 80043f6:	2001      	movs	r0, #1
 80043f8:	e7f1      	b.n	80043de <mount_volume+0x26c>
 80043fa:	200d      	movs	r0, #13
 80043fc:	e7ef      	b.n	80043de <mount_volume+0x26c>
 80043fe:	200d      	movs	r0, #13
 8004400:	e7ed      	b.n	80043de <mount_volume+0x26c>
 8004402:	200d      	movs	r0, #13
 8004404:	e7eb      	b.n	80043de <mount_volume+0x26c>
 8004406:	200d      	movs	r0, #13
 8004408:	e7e9      	b.n	80043de <mount_volume+0x26c>
 800440a:	200d      	movs	r0, #13
 800440c:	e7e7      	b.n	80043de <mount_volume+0x26c>
 800440e:	200d      	movs	r0, #13
 8004410:	e7e5      	b.n	80043de <mount_volume+0x26c>
 8004412:	200d      	movs	r0, #13
 8004414:	e7e3      	b.n	80043de <mount_volume+0x26c>
 8004416:	200d      	movs	r0, #13
 8004418:	e7e1      	b.n	80043de <mount_volume+0x26c>
 800441a:	200d      	movs	r0, #13
 800441c:	e7df      	b.n	80043de <mount_volume+0x26c>
 800441e:	200d      	movs	r0, #13
 8004420:	e7dd      	b.n	80043de <mount_volume+0x26c>
 8004422:	200d      	movs	r0, #13
 8004424:	e7db      	b.n	80043de <mount_volume+0x26c>
 8004426:	200d      	movs	r0, #13
 8004428:	e7d9      	b.n	80043de <mount_volume+0x26c>
 800442a:	200d      	movs	r0, #13
 800442c:	e7d7      	b.n	80043de <mount_volume+0x26c>

0800442e <put_fat>:
 800442e:	e92d 47f0 	stmdb	sp!, {r4, r5, r6, r7, r8, r9, sl, lr}
 8004432:	2901      	cmp	r1, #1
 8004434:	d97a      	bls.n	800452c <put_fat+0xfe>
 8004436:	69c3      	ldr	r3, [r0, #28]
 8004438:	428b      	cmp	r3, r1
 800443a:	d979      	bls.n	8004530 <put_fat+0x102>
 800443c:	4617      	mov	r7, r2
 800443e:	460c      	mov	r4, r1
 8004440:	4606      	mov	r6, r0
 8004442:	7803      	ldrb	r3, [r0, #0]
 8004444:	2b02      	cmp	r3, #2
 8004446:	d043      	beq.n	80044d0 <put_fat+0xa2>
 8004448:	2b03      	cmp	r3, #3
 800444a:	d054      	beq.n	80044f6 <put_fat+0xc8>
 800444c:	2b01      	cmp	r3, #1
 800444e:	d001      	beq.n	8004454 <put_fat+0x26>
 8004450:	2502      	movs	r5, #2
 8004452:	e06e      	b.n	8004532 <put_fat+0x104>
 8004454:	eb01 0851 	add.w	r8, r1, r1, lsr #1
 8004458:	6a81      	ldr	r1, [r0, #40]	; 0x28
 800445a:	eb01 2158 	add.w	r1, r1, r8, lsr #9
 800445e:	f7ff fdfe 	bl	800405e <move_window>
 8004462:	4605      	mov	r5, r0
 8004464:	2800      	cmp	r0, #0
 8004466:	d164      	bne.n	8004532 <put_fat+0x104>
 8004468:	f106 0a38 	add.w	sl, r6, #56	; 0x38
 800446c:	f108 0901 	add.w	r9, r8, #1
 8004470:	f3c8 0808 	ubfx	r8, r8, #0, #9
 8004474:	f014 0401 	ands.w	r4, r4, #1
 8004478:	d01f      	beq.n	80044ba <put_fat+0x8c>
 800447a:	f91a 3008 	ldrsb.w	r3, [sl, r8]
 800447e:	f003 030f 	and.w	r3, r3, #15
 8004482:	013a      	lsls	r2, r7, #4
 8004484:	f402 627f 	and.w	r2, r2, #4080	; 0xff0
 8004488:	4313      	orrs	r3, r2
 800448a:	b2db      	uxtb	r3, r3
 800448c:	f80a 3008 	strb.w	r3, [sl, r8]
 8004490:	2301      	movs	r3, #1
 8004492:	70f3      	strb	r3, [r6, #3]
 8004494:	6ab1      	ldr	r1, [r6, #40]	; 0x28
 8004496:	eb01 2159 	add.w	r1, r1, r9, lsr #9
 800449a:	4630      	mov	r0, r6
 800449c:	f7ff fddf 	bl	800405e <move_window>
 80044a0:	4605      	mov	r5, r0
 80044a2:	2800      	cmp	r0, #0
 80044a4:	d145      	bne.n	8004532 <put_fat+0x104>
 80044a6:	f3c9 0908 	ubfx	r9, r9, #0, #9
 80044aa:	b144      	cbz	r4, 80044be <put_fat+0x90>
 80044ac:	f3c7 1207 	ubfx	r2, r7, #4, #8
 80044b0:	f80a 2009 	strb.w	r2, [sl, r9]
 80044b4:	2301      	movs	r3, #1
 80044b6:	70f3      	strb	r3, [r6, #3]
 80044b8:	e03b      	b.n	8004532 <put_fat+0x104>
 80044ba:	b2fb      	uxtb	r3, r7
 80044bc:	e7e6      	b.n	800448c <put_fat+0x5e>
 80044be:	f91a 2009 	ldrsb.w	r2, [sl, r9]
 80044c2:	f022 020f 	bic.w	r2, r2, #15
 80044c6:	f3c7 2703 	ubfx	r7, r7, #8, #4
 80044ca:	433a      	orrs	r2, r7
 80044cc:	b2d2      	uxtb	r2, r2
 80044ce:	e7ef      	b.n	80044b0 <put_fat+0x82>
 80044d0:	6a81      	ldr	r1, [r0, #40]	; 0x28
 80044d2:	eb01 2114 	add.w	r1, r1, r4, lsr #8
 80044d6:	f7ff fdc2 	bl	800405e <move_window>
 80044da:	4605      	mov	r5, r0
 80044dc:	bb48      	cbnz	r0, 8004532 <put_fat+0x104>
 80044de:	f106 0038 	add.w	r0, r6, #56	; 0x38
 80044e2:	0064      	lsls	r4, r4, #1
 80044e4:	f404 74ff 	and.w	r4, r4, #510	; 0x1fe
 80044e8:	b2b9      	uxth	r1, r7
 80044ea:	4420      	add	r0, r4
 80044ec:	f7ff fc77 	bl	8003dde <st_word>
 80044f0:	2301      	movs	r3, #1
 80044f2:	70f3      	strb	r3, [r6, #3]
 80044f4:	e01d      	b.n	8004532 <put_fat+0x104>
 80044f6:	6a81      	ldr	r1, [r0, #40]	; 0x28
 80044f8:	eb01 11d4 	add.w	r1, r1, r4, lsr #7
 80044fc:	f7ff fdaf 	bl	800405e <move_window>
 8004500:	4605      	mov	r5, r0
 8004502:	b9b0      	cbnz	r0, 8004532 <put_fat+0x104>
 8004504:	f027 4770 	bic.w	r7, r7, #4026531840	; 0xf0000000
 8004508:	f106 0338 	add.w	r3, r6, #56	; 0x38
 800450c:	00a1      	lsls	r1, r4, #2
 800450e:	f401 71fe 	and.w	r1, r1, #508	; 0x1fc
 8004512:	185c      	adds	r4, r3, r1
 8004514:	4620      	mov	r0, r4
 8004516:	f7ff fc57 	bl	8003dc8 <ld_dword>
 800451a:	f000 4170 	and.w	r1, r0, #4026531840	; 0xf0000000
 800451e:	4339      	orrs	r1, r7
 8004520:	4620      	mov	r0, r4
 8004522:	f7ff fc60 	bl	8003de6 <st_dword>
 8004526:	2301      	movs	r3, #1
 8004528:	70f3      	strb	r3, [r6, #3]
 800452a:	e002      	b.n	8004532 <put_fat+0x104>
 800452c:	2502      	movs	r5, #2
 800452e:	e000      	b.n	8004532 <put_fat+0x104>
 8004530:	2502      	movs	r5, #2
 8004532:	4628      	mov	r0, r5
 8004534:	e8bd 87f0 	ldmia.w	sp!, {r4, r5, r6, r7, r8, r9, sl, pc}

08004538 <get_fat>:
 8004538:	b5f8      	push	{r3, r4, r5, r6, r7, lr}
 800453a:	6806      	ldr	r6, [r0, #0]
 800453c:	2901      	cmp	r1, #1
 800453e:	d953      	bls.n	80045e8 <get_fat+0xb0>
 8004540:	69f3      	ldr	r3, [r6, #28]
 8004542:	428b      	cmp	r3, r1
 8004544:	d952      	bls.n	80045ec <get_fat+0xb4>
 8004546:	460c      	mov	r4, r1
 8004548:	7833      	ldrb	r3, [r6, #0]
 800454a:	2b02      	cmp	r3, #2
 800454c:	d02b      	beq.n	80045a6 <get_fat+0x6e>
 800454e:	2b03      	cmp	r3, #3
 8004550:	d039      	beq.n	80045c6 <get_fat+0x8e>
 8004552:	2b01      	cmp	r3, #1
 8004554:	d001      	beq.n	800455a <get_fat+0x22>
 8004556:	2001      	movs	r0, #1
 8004558:	e047      	b.n	80045ea <get_fat+0xb2>
 800455a:	eb01 0551 	add.w	r5, r1, r1, lsr #1
 800455e:	6ab1      	ldr	r1, [r6, #40]	; 0x28
 8004560:	eb01 2155 	add.w	r1, r1, r5, lsr #9
 8004564:	4630      	mov	r0, r6
 8004566:	f7ff fd7a 	bl	800405e <move_window>
 800456a:	2800      	cmp	r0, #0
 800456c:	d140      	bne.n	80045f0 <get_fat+0xb8>
 800456e:	1c6f      	adds	r7, r5, #1
 8004570:	f3c5 0508 	ubfx	r5, r5, #0, #9
 8004574:	4435      	add	r5, r6
 8004576:	f895 5038 	ldrb.w	r5, [r5, #56]	; 0x38
 800457a:	6ab1      	ldr	r1, [r6, #40]	; 0x28
 800457c:	eb01 2157 	add.w	r1, r1, r7, lsr #9
 8004580:	4630      	mov	r0, r6
 8004582:	f7ff fd6c 	bl	800405e <move_window>
 8004586:	bbb0      	cbnz	r0, 80045f6 <get_fat+0xbe>
 8004588:	f3c7 0308 	ubfx	r3, r7, #0, #9
 800458c:	4433      	add	r3, r6
 800458e:	f893 0038 	ldrb.w	r0, [r3, #56]	; 0x38
 8004592:	ea45 2000 	orr.w	r0, r5, r0, lsl #8
 8004596:	f014 0f01 	tst.w	r4, #1
 800459a:	d001      	beq.n	80045a0 <get_fat+0x68>
 800459c:	0900      	lsrs	r0, r0, #4
 800459e:	e024      	b.n	80045ea <get_fat+0xb2>
 80045a0:	f3c0 000b 	ubfx	r0, r0, #0, #12
 80045a4:	e021      	b.n	80045ea <get_fat+0xb2>
 80045a6:	6ab1      	ldr	r1, [r6, #40]	; 0x28
 80045a8:	eb01 2114 	add.w	r1, r1, r4, lsr #8
 80045ac:	4630      	mov	r0, r6
 80045ae:	f7ff fd56 	bl	800405e <move_window>
 80045b2:	bb18      	cbnz	r0, 80045fc <get_fat+0xc4>
 80045b4:	f106 0038 	add.w	r0, r6, #56	; 0x38
 80045b8:	0061      	lsls	r1, r4, #1
 80045ba:	f401 71ff 	and.w	r1, r1, #510	; 0x1fe
 80045be:	4408      	add	r0, r1
 80045c0:	f7ff fbfd 	bl	8003dbe <ld_word>
 80045c4:	e011      	b.n	80045ea <get_fat+0xb2>
 80045c6:	6ab1      	ldr	r1, [r6, #40]	; 0x28
 80045c8:	eb01 11d4 	add.w	r1, r1, r4, lsr #7
 80045cc:	4630      	mov	r0, r6
 80045ce:	f7ff fd46 	bl	800405e <move_window>
 80045d2:	b9b0      	cbnz	r0, 8004602 <get_fat+0xca>
 80045d4:	3638      	adds	r6, #56	; 0x38
 80045d6:	00a1      	lsls	r1, r4, #2
 80045d8:	f401 70fe 	and.w	r0, r1, #508	; 0x1fc
 80045dc:	4430      	add	r0, r6
 80045de:	f7ff fbf3 	bl	8003dc8 <ld_dword>
 80045e2:	f020 4070 	bic.w	r0, r0, #4026531840	; 0xf0000000
 80045e6:	e000      	b.n	80045ea <get_fat+0xb2>
 80045e8:	2001      	movs	r0, #1
 80045ea:	bdf8      	pop	{r3, r4, r5, r6, r7, pc}
 80045ec:	2001      	movs	r0, #1
 80045ee:	e7fc      	b.n	80045ea <get_fat+0xb2>
 80045f0:	f04f 30ff 	mov.w	r0, #4294967295
 80045f4:	e7f9      	b.n	80045ea <get_fat+0xb2>
 80045f6:	f04f 30ff 	mov.w	r0, #4294967295
 80045fa:	e7f6      	b.n	80045ea <get_fat+0xb2>
 80045fc:	f04f 30ff 	mov.w	r0, #4294967295
 8004600:	e7f3      	b.n	80045ea <get_fat+0xb2>
 8004602:	f04f 30ff 	mov.w	r0, #4294967295
 8004606:	e7f0      	b.n	80045ea <get_fat+0xb2>

08004608 <dir_sdi>:
 8004608:	e92d 41f0 	stmdb	sp!, {r4, r5, r6, r7, r8, lr}
 800460c:	6807      	ldr	r7, [r0, #0]
 800460e:	f5b1 1f00 	cmp.w	r1, #2097152	; 0x200000
 8004612:	d23b      	bcs.n	800468c <dir_sdi+0x84>
 8004614:	4606      	mov	r6, r0
 8004616:	460d      	mov	r5, r1
 8004618:	f011 0f1f 	tst.w	r1, #31
 800461c:	d139      	bne.n	8004692 <dir_sdi+0x8a>
 800461e:	6131      	str	r1, [r6, #16]
 8004620:	6884      	ldr	r4, [r0, #8]
 8004622:	b91c      	cbnz	r4, 800462c <dir_sdi+0x24>
 8004624:	783b      	ldrb	r3, [r7, #0]
 8004626:	2b02      	cmp	r3, #2
 8004628:	d900      	bls.n	800462c <dir_sdi+0x24>
 800462a:	6afc      	ldr	r4, [r7, #44]	; 0x2c
 800462c:	b994      	cbnz	r4, 8004654 <dir_sdi+0x4c>
 800462e:	893b      	ldrh	r3, [r7, #8]
 8004630:	ebb3 1f55 	cmp.w	r3, r5, lsr #5
 8004634:	d92f      	bls.n	8004696 <dir_sdi+0x8e>
 8004636:	6afb      	ldr	r3, [r7, #44]	; 0x2c
 8004638:	61b3      	str	r3, [r6, #24]
 800463a:	6174      	str	r4, [r6, #20]
 800463c:	69b3      	ldr	r3, [r6, #24]
 800463e:	b393      	cbz	r3, 80046a6 <dir_sdi+0x9e>
 8004640:	eb03 2355 	add.w	r3, r3, r5, lsr #9
 8004644:	61b3      	str	r3, [r6, #24]
 8004646:	3738      	adds	r7, #56	; 0x38
 8004648:	f3c5 0508 	ubfx	r5, r5, #0, #9
 800464c:	443d      	add	r5, r7
 800464e:	61f5      	str	r5, [r6, #28]
 8004650:	2000      	movs	r0, #0
 8004652:	e01c      	b.n	800468e <dir_sdi+0x86>
 8004654:	f8b7 800a 	ldrh.w	r8, [r7, #10]
 8004658:	ea4f 2848 	mov.w	r8, r8, lsl #9
 800465c:	4545      	cmp	r5, r8
 800465e:	d30f      	bcc.n	8004680 <dir_sdi+0x78>
 8004660:	4621      	mov	r1, r4
 8004662:	4630      	mov	r0, r6
 8004664:	f7ff ff68 	bl	8004538 <get_fat>
 8004668:	4604      	mov	r4, r0
 800466a:	f1b0 3fff 	cmp.w	r0, #4294967295
 800466e:	d014      	beq.n	800469a <dir_sdi+0x92>
 8004670:	2801      	cmp	r0, #1
 8004672:	d914      	bls.n	800469e <dir_sdi+0x96>
 8004674:	69fb      	ldr	r3, [r7, #28]
 8004676:	4283      	cmp	r3, r0
 8004678:	d913      	bls.n	80046a2 <dir_sdi+0x9a>
 800467a:	eba5 0508 	sub.w	r5, r5, r8
 800467e:	e7ed      	b.n	800465c <dir_sdi+0x54>
 8004680:	4621      	mov	r1, r4
 8004682:	4638      	mov	r0, r7
 8004684:	f7ff fc04 	bl	8003e90 <clst2sect>
 8004688:	61b0      	str	r0, [r6, #24]
 800468a:	e7d6      	b.n	800463a <dir_sdi+0x32>
 800468c:	2002      	movs	r0, #2
 800468e:	e8bd 81f0 	ldmia.w	sp!, {r4, r5, r6, r7, r8, pc}
 8004692:	2002      	movs	r0, #2
 8004694:	e7fb      	b.n	800468e <dir_sdi+0x86>
 8004696:	2002      	movs	r0, #2
 8004698:	e7f9      	b.n	800468e <dir_sdi+0x86>
 800469a:	2001      	movs	r0, #1
 800469c:	e7f7      	b.n	800468e <dir_sdi+0x86>
 800469e:	2002      	movs	r0, #2
 80046a0:	e7f5      	b.n	800468e <dir_sdi+0x86>
 80046a2:	2002      	movs	r0, #2
 80046a4:	e7f3      	b.n	800468e <dir_sdi+0x86>
 80046a6:	2002      	movs	r0, #2
 80046a8:	e7f1      	b.n	800468e <dir_sdi+0x86>

080046aa <create_chain>:
 80046aa:	e92d 41f0 	stmdb	sp!, {r4, r5, r6, r7, r8, lr}
 80046ae:	4607      	mov	r7, r0
 80046b0:	6806      	ldr	r6, [r0, #0]
 80046b2:	4688      	mov	r8, r1
 80046b4:	b931      	cbnz	r1, 80046c4 <create_chain+0x1a>
 80046b6:	6935      	ldr	r5, [r6, #16]
 80046b8:	b18d      	cbz	r5, 80046de <create_chain+0x34>
 80046ba:	69f3      	ldr	r3, [r6, #28]
 80046bc:	42ab      	cmp	r3, r5
 80046be:	d80f      	bhi.n	80046e0 <create_chain+0x36>
 80046c0:	2501      	movs	r5, #1
 80046c2:	e00d      	b.n	80046e0 <create_chain+0x36>
 80046c4:	f7ff ff38 	bl	8004538 <get_fat>
 80046c8:	4603      	mov	r3, r0
 80046ca:	2801      	cmp	r0, #1
 80046cc:	d967      	bls.n	800479e <create_chain+0xf4>
 80046ce:	f1b0 3fff 	cmp.w	r0, #4294967295
 80046d2:	d065      	beq.n	80047a0 <create_chain+0xf6>
 80046d4:	69f2      	ldr	r2, [r6, #28]
 80046d6:	4282      	cmp	r2, r0
 80046d8:	d862      	bhi.n	80047a0 <create_chain+0xf6>
 80046da:	4645      	mov	r5, r8
 80046dc:	e000      	b.n	80046e0 <create_chain+0x36>
 80046de:	2501      	movs	r5, #1
 80046e0:	6973      	ldr	r3, [r6, #20]
 80046e2:	2b00      	cmp	r3, #0
 80046e4:	d05c      	beq.n	80047a0 <create_chain+0xf6>
 80046e6:	4545      	cmp	r5, r8
 80046e8:	d001      	beq.n	80046ee <create_chain+0x44>
 80046ea:	462c      	mov	r4, r5
 80046ec:	e041      	b.n	8004772 <create_chain+0xc8>
 80046ee:	1c6c      	adds	r4, r5, #1
 80046f0:	69f3      	ldr	r3, [r6, #28]
 80046f2:	42a3      	cmp	r3, r4
 80046f4:	d800      	bhi.n	80046f8 <create_chain+0x4e>
 80046f6:	2402      	movs	r4, #2
 80046f8:	4621      	mov	r1, r4
 80046fa:	4638      	mov	r0, r7
 80046fc:	f7ff ff1c 	bl	8004538 <get_fat>
 8004700:	4603      	mov	r3, r0
 8004702:	2801      	cmp	r0, #1
 8004704:	d04c      	beq.n	80047a0 <create_chain+0xf6>
 8004706:	f1b0 3fff 	cmp.w	r0, #4294967295
 800470a:	d049      	beq.n	80047a0 <create_chain+0xf6>
 800470c:	b138      	cbz	r0, 800471e <create_chain+0x74>
 800470e:	6933      	ldr	r3, [r6, #16]
 8004710:	2b01      	cmp	r3, #1
 8004712:	d9ea      	bls.n	80046ea <create_chain+0x40>
 8004714:	69f2      	ldr	r2, [r6, #28]
 8004716:	429a      	cmp	r2, r3
 8004718:	d9e7      	bls.n	80046ea <create_chain+0x40>
 800471a:	461d      	mov	r5, r3
 800471c:	e7e5      	b.n	80046ea <create_chain+0x40>
 800471e:	2c00      	cmp	r4, #0
 8004720:	d0e3      	beq.n	80046ea <create_chain+0x40>
 8004722:	f04f 32ff 	mov.w	r2, #4294967295
 8004726:	4621      	mov	r1, r4
 8004728:	4630      	mov	r0, r6
 800472a:	f7ff fe80 	bl	800442e <put_fat>
 800472e:	4603      	mov	r3, r0
 8004730:	b910      	cbnz	r0, 8004738 <create_chain+0x8e>
 8004732:	f1b8 0f00 	cmp.w	r8, #0
 8004736:	d124      	bne.n	8004782 <create_chain+0xd8>
 8004738:	bb53      	cbnz	r3, 8004790 <create_chain+0xe6>
 800473a:	6134      	str	r4, [r6, #16]
 800473c:	6972      	ldr	r2, [r6, #20]
 800473e:	69f3      	ldr	r3, [r6, #28]
 8004740:	3b02      	subs	r3, #2
 8004742:	429a      	cmp	r2, r3
 8004744:	d801      	bhi.n	800474a <create_chain+0xa0>
 8004746:	3a01      	subs	r2, #1
 8004748:	6172      	str	r2, [r6, #20]
 800474a:	7933      	ldrb	r3, [r6, #4]
 800474c:	f043 0301 	orr.w	r3, r3, #1
 8004750:	7133      	strb	r3, [r6, #4]
 8004752:	4623      	mov	r3, r4
 8004754:	e024      	b.n	80047a0 <create_chain+0xf6>
 8004756:	4621      	mov	r1, r4
 8004758:	4638      	mov	r0, r7
 800475a:	f7ff feed 	bl	8004538 <get_fat>
 800475e:	4603      	mov	r3, r0
 8004760:	2800      	cmp	r0, #0
 8004762:	d0de      	beq.n	8004722 <create_chain+0x78>
 8004764:	2801      	cmp	r0, #1
 8004766:	d01b      	beq.n	80047a0 <create_chain+0xf6>
 8004768:	f1b0 3fff 	cmp.w	r0, #4294967295
 800476c:	d018      	beq.n	80047a0 <create_chain+0xf6>
 800476e:	42ac      	cmp	r4, r5
 8004770:	d01b      	beq.n	80047aa <create_chain+0x100>
 8004772:	3401      	adds	r4, #1
 8004774:	69f3      	ldr	r3, [r6, #28]
 8004776:	42a3      	cmp	r3, r4
 8004778:	d8ed      	bhi.n	8004756 <create_chain+0xac>
 800477a:	2d01      	cmp	r5, #1
 800477c:	d913      	bls.n	80047a6 <create_chain+0xfc>
 800477e:	2402      	movs	r4, #2
 8004780:	e7e9      	b.n	8004756 <create_chain+0xac>
 8004782:	4622      	mov	r2, r4
 8004784:	4641      	mov	r1, r8
 8004786:	4630      	mov	r0, r6
 8004788:	f7ff fe51 	bl	800442e <put_fat>
 800478c:	4603      	mov	r3, r0
 800478e:	e7d3      	b.n	8004738 <create_chain+0x8e>
 8004790:	2b01      	cmp	r3, #1
 8004792:	d001      	beq.n	8004798 <create_chain+0xee>
 8004794:	2301      	movs	r3, #1
 8004796:	e003      	b.n	80047a0 <create_chain+0xf6>
 8004798:	f04f 33ff 	mov.w	r3, #4294967295
 800479c:	e000      	b.n	80047a0 <create_chain+0xf6>
 800479e:	2301      	movs	r3, #1
 80047a0:	4618      	mov	r0, r3
 80047a2:	e8bd 81f0 	ldmia.w	sp!, {r4, r5, r6, r7, r8, pc}
 80047a6:	2300      	movs	r3, #0
 80047a8:	e7fa      	b.n	80047a0 <create_chain+0xf6>
 80047aa:	2300      	movs	r3, #0
 80047ac:	e7f8      	b.n	80047a0 <create_chain+0xf6>

080047ae <dir_clear>:
 80047ae:	b5f8      	push	{r3, r4, r5, r6, r7, lr}
 80047b0:	4605      	mov	r5, r0
 80047b2:	460c      	mov	r4, r1
 80047b4:	f7ff fc2b 	bl	800400e <sync_window>
 80047b8:	b108      	cbz	r0, 80047be <dir_clear+0x10>
 80047ba:	2001      	movs	r0, #1
 80047bc:	bdf8      	pop	{r3, r4, r5, r6, r7, pc}
 80047be:	4621      	mov	r1, r4
 80047c0:	4628      	mov	r0, r5
 80047c2:	f7ff fb65 	bl	8003e90 <clst2sect>
 80047c6:	4607      	mov	r7, r0
 80047c8:	6368      	str	r0, [r5, #52]	; 0x34
 80047ca:	f105 0638 	add.w	r6, r5, #56	; 0x38
 80047ce:	f44f 7200 	mov.w	r2, #512	; 0x200
 80047d2:	2100      	movs	r1, #0
 80047d4:	4630      	mov	r0, r6
 80047d6:	f7ff fb19 	bl	8003e0c <mem_set>
 80047da:	2400      	movs	r4, #0
 80047dc:	e000      	b.n	80047e0 <dir_clear+0x32>
 80047de:	3401      	adds	r4, #1
 80047e0:	896b      	ldrh	r3, [r5, #10]
 80047e2:	42a3      	cmp	r3, r4
 80047e4:	d907      	bls.n	80047f6 <dir_clear+0x48>
 80047e6:	2301      	movs	r3, #1
 80047e8:	19e2      	adds	r2, r4, r7
 80047ea:	4631      	mov	r1, r6
 80047ec:	7868      	ldrb	r0, [r5, #1]
 80047ee:	f7ff fab9 	bl	8003d64 <disk_write>
 80047f2:	2800      	cmp	r0, #0
 80047f4:	d0f3      	beq.n	80047de <dir_clear+0x30>
 80047f6:	8968      	ldrh	r0, [r5, #10]
 80047f8:	1b00      	subs	r0, r0, r4
 80047fa:	bf18      	it	ne
 80047fc:	2001      	movne	r0, #1
 80047fe:	e7dd      	b.n	80047bc <dir_clear+0xe>

08004800 <dir_next>:
 8004800:	e92d 43f8 	stmdb	sp!, {r3, r4, r5, r6, r7, r8, r9, lr}
 8004804:	6806      	ldr	r6, [r0, #0]
 8004806:	6905      	ldr	r5, [r0, #16]
 8004808:	3520      	adds	r5, #32
 800480a:	f5b5 1f00 	cmp.w	r5, #2097152	; 0x200000
 800480e:	d301      	bcc.n	8004814 <dir_next+0x14>
 8004810:	2300      	movs	r3, #0
 8004812:	6183      	str	r3, [r0, #24]
 8004814:	6983      	ldr	r3, [r0, #24]
 8004816:	2b00      	cmp	r3, #0
 8004818:	d047      	beq.n	80048aa <dir_next+0xaa>
 800481a:	4688      	mov	r8, r1
 800481c:	4604      	mov	r4, r0
 800481e:	f3c5 0708 	ubfx	r7, r5, #0, #9
 8004822:	b93f      	cbnz	r7, 8004834 <dir_next+0x34>
 8004824:	3301      	adds	r3, #1
 8004826:	6183      	str	r3, [r0, #24]
 8004828:	6941      	ldr	r1, [r0, #20]
 800482a:	b979      	cbnz	r1, 800484c <dir_next+0x4c>
 800482c:	8933      	ldrh	r3, [r6, #8]
 800482e:	ebb3 1f55 	cmp.w	r3, r5, lsr #5
 8004832:	d907      	bls.n	8004844 <dir_next+0x44>
 8004834:	6125      	str	r5, [r4, #16]
 8004836:	f106 0338 	add.w	r3, r6, #56	; 0x38
 800483a:	443b      	add	r3, r7
 800483c:	61e3      	str	r3, [r4, #28]
 800483e:	2000      	movs	r0, #0
 8004840:	e8bd 83f8 	ldmia.w	sp!, {r3, r4, r5, r6, r7, r8, r9, pc}
 8004844:	2300      	movs	r3, #0
 8004846:	6183      	str	r3, [r0, #24]
 8004848:	2004      	movs	r0, #4
 800484a:	e7f9      	b.n	8004840 <dir_next+0x40>
 800484c:	8973      	ldrh	r3, [r6, #10]
 800484e:	3b01      	subs	r3, #1
 8004850:	ea13 2355 	ands.w	r3, r3, r5, lsr #9
 8004854:	d1ee      	bne.n	8004834 <dir_next+0x34>
 8004856:	f7ff fe6f 	bl	8004538 <get_fat>
 800485a:	4681      	mov	r9, r0
 800485c:	2801      	cmp	r0, #1
 800485e:	d926      	bls.n	80048ae <dir_next+0xae>
 8004860:	f1b0 3fff 	cmp.w	r0, #4294967295
 8004864:	d025      	beq.n	80048b2 <dir_next+0xb2>
 8004866:	69f3      	ldr	r3, [r6, #28]
 8004868:	4283      	cmp	r3, r0
 800486a:	d812      	bhi.n	8004892 <dir_next+0x92>
 800486c:	f1b8 0f00 	cmp.w	r8, #0
 8004870:	d017      	beq.n	80048a2 <dir_next+0xa2>
 8004872:	6961      	ldr	r1, [r4, #20]
 8004874:	4620      	mov	r0, r4
 8004876:	f7ff ff18 	bl	80046aa <create_chain>
 800487a:	4681      	mov	r9, r0
 800487c:	b1d8      	cbz	r0, 80048b6 <dir_next+0xb6>
 800487e:	2801      	cmp	r0, #1
 8004880:	d01b      	beq.n	80048ba <dir_next+0xba>
 8004882:	f1b0 3fff 	cmp.w	r0, #4294967295
 8004886:	d01a      	beq.n	80048be <dir_next+0xbe>
 8004888:	4601      	mov	r1, r0
 800488a:	4630      	mov	r0, r6
 800488c:	f7ff ff8f 	bl	80047ae <dir_clear>
 8004890:	b9b8      	cbnz	r0, 80048c2 <dir_next+0xc2>
 8004892:	f8c4 9014 	str.w	r9, [r4, #20]
 8004896:	4649      	mov	r1, r9
 8004898:	4630      	mov	r0, r6
 800489a:	f7ff faf9 	bl	8003e90 <clst2sect>
 800489e:	61a0      	str	r0, [r4, #24]
 80048a0:	e7c8      	b.n	8004834 <dir_next+0x34>
 80048a2:	2300      	movs	r3, #0
 80048a4:	61a3      	str	r3, [r4, #24]
 80048a6:	2004      	movs	r0, #4
 80048a8:	e7ca      	b.n	8004840 <dir_next+0x40>
 80048aa:	2004      	movs	r0, #4
 80048ac:	e7c8      	b.n	8004840 <dir_next+0x40>
 80048ae:	2002      	movs	r0, #2
 80048b0:	e7c6      	b.n	8004840 <dir_next+0x40>
 80048b2:	2001      	movs	r0, #1
 80048b4:	e7c4      	b.n	8004840 <dir_next+0x40>
 80048b6:	2007      	movs	r0, #7
 80048b8:	e7c2      	b.n	8004840 <dir_next+0x40>
 80048ba:	2002      	movs	r0, #2
 80048bc:	e7c0      	b.n	8004840 <dir_next+0x40>
 80048be:	2001      	movs	r0, #1
 80048c0:	e7be      	b.n	8004840 <dir_next+0x40>
 80048c2:	2001      	movs	r0, #1
 80048c4:	e7bc      	b.n	8004840 <dir_next+0x40>

080048c6 <dir_alloc>:
 80048c6:	b5f8      	push	{r3, r4, r5, r6, r7, lr}
 80048c8:	4604      	mov	r4, r0
 80048ca:	460f      	mov	r7, r1
 80048cc:	6806      	ldr	r6, [r0, #0]
 80048ce:	2100      	movs	r1, #0
 80048d0:	f7ff fe9a 	bl	8004608 <dir_sdi>
 80048d4:	4603      	mov	r3, r0
 80048d6:	b9c0      	cbnz	r0, 800490a <dir_alloc+0x44>
 80048d8:	2500      	movs	r5, #0
 80048da:	e008      	b.n	80048ee <dir_alloc+0x28>
 80048dc:	3501      	adds	r5, #1
 80048de:	42bd      	cmp	r5, r7
 80048e0:	d013      	beq.n	800490a <dir_alloc+0x44>
 80048e2:	2101      	movs	r1, #1
 80048e4:	4620      	mov	r0, r4
 80048e6:	f7ff ff8b 	bl	8004800 <dir_next>
 80048ea:	4603      	mov	r3, r0
 80048ec:	b968      	cbnz	r0, 800490a <dir_alloc+0x44>
 80048ee:	69a1      	ldr	r1, [r4, #24]
 80048f0:	4630      	mov	r0, r6
 80048f2:	f7ff fbb4 	bl	800405e <move_window>
 80048f6:	4603      	mov	r3, r0
 80048f8:	b938      	cbnz	r0, 800490a <dir_alloc+0x44>
 80048fa:	69e2      	ldr	r2, [r4, #28]
 80048fc:	7812      	ldrb	r2, [r2, #0]
 80048fe:	2ae5      	cmp	r2, #229	; 0xe5
 8004900:	d0ec      	beq.n	80048dc <dir_alloc+0x16>
 8004902:	2a00      	cmp	r2, #0
 8004904:	d0ea      	beq.n	80048dc <dir_alloc+0x16>
 8004906:	2500      	movs	r5, #0
 8004908:	e7eb      	b.n	80048e2 <dir_alloc+0x1c>
 800490a:	2b04      	cmp	r3, #4
 800490c:	d001      	beq.n	8004912 <dir_alloc+0x4c>
 800490e:	4618      	mov	r0, r3
 8004910:	bdf8      	pop	{r3, r4, r5, r6, r7, pc}
 8004912:	2307      	movs	r3, #7
 8004914:	e7fb      	b.n	800490e <dir_alloc+0x48>

08004916 <dir_read>:
 8004916:	e92d 43f8 	stmdb	sp!, {r3, r4, r5, r6, r7, r8, r9, lr}
 800491a:	4604      	mov	r4, r0
 800491c:	4688      	mov	r8, r1
 800491e:	6807      	ldr	r7, [r0, #0]
 8004920:	f04f 09ff 	mov.w	r9, #255	; 0xff
 8004924:	464e      	mov	r6, r9
 8004926:	2504      	movs	r5, #4
 8004928:	e02e      	b.n	8004988 <dir_read+0x72>
 800492a:	2b0f      	cmp	r3, #15
 800492c:	d119      	bne.n	8004962 <dir_read+0x4c>
 800492e:	f012 0f40 	tst.w	r2, #64	; 0x40
 8004932:	d006      	beq.n	8004942 <dir_read+0x2c>
 8004934:	f891 900d 	ldrb.w	r9, [r1, #13]
 8004938:	f002 02bf 	and.w	r2, r2, #191	; 0xbf
 800493c:	6923      	ldr	r3, [r4, #16]
 800493e:	62e3      	str	r3, [r4, #44]	; 0x2c
 8004940:	4616      	mov	r6, r2
 8004942:	42b2      	cmp	r2, r6
 8004944:	d001      	beq.n	800494a <dir_read+0x34>
 8004946:	26ff      	movs	r6, #255	; 0xff
 8004948:	e018      	b.n	800497c <dir_read+0x66>
 800494a:	7b4b      	ldrb	r3, [r1, #13]
 800494c:	454b      	cmp	r3, r9
 800494e:	d001      	beq.n	8004954 <dir_read+0x3e>
 8004950:	26ff      	movs	r6, #255	; 0xff
 8004952:	e013      	b.n	800497c <dir_read+0x66>
 8004954:	68f8      	ldr	r0, [r7, #12]
 8004956:	f7ff faa7 	bl	8003ea8 <pick_lfn>
 800495a:	b388      	cbz	r0, 80049c0 <dir_read+0xaa>
 800495c:	3e01      	subs	r6, #1
 800495e:	b2f6      	uxtb	r6, r6
 8004960:	e00c      	b.n	800497c <dir_read+0x66>
 8004962:	b926      	cbnz	r6, 800496e <dir_read+0x58>
 8004964:	4608      	mov	r0, r1
 8004966:	f7ff fae8 	bl	8003f3a <sum_sfn>
 800496a:	4548      	cmp	r0, r9
 800496c:	d02b      	beq.n	80049c6 <dir_read+0xb0>
 800496e:	f04f 33ff 	mov.w	r3, #4294967295
 8004972:	62e3      	str	r3, [r4, #44]	; 0x2c
 8004974:	e027      	b.n	80049c6 <dir_read+0xb0>
 8004976:	26ff      	movs	r6, #255	; 0xff
 8004978:	e000      	b.n	800497c <dir_read+0x66>
 800497a:	26ff      	movs	r6, #255	; 0xff
 800497c:	2100      	movs	r1, #0
 800497e:	4620      	mov	r0, r4
 8004980:	f7ff ff3e 	bl	8004800 <dir_next>
 8004984:	4605      	mov	r5, r0
 8004986:	b9f0      	cbnz	r0, 80049c6 <dir_read+0xb0>
 8004988:	69a1      	ldr	r1, [r4, #24]
 800498a:	b1e1      	cbz	r1, 80049c6 <dir_read+0xb0>
 800498c:	4638      	mov	r0, r7
 800498e:	f7ff fb66 	bl	800405e <move_window>
 8004992:	4605      	mov	r5, r0
 8004994:	b9b8      	cbnz	r0, 80049c6 <dir_read+0xb0>
 8004996:	69e1      	ldr	r1, [r4, #28]
 8004998:	780a      	ldrb	r2, [r1, #0]
 800499a:	b19a      	cbz	r2, 80049c4 <dir_read+0xae>
 800499c:	7acb      	ldrb	r3, [r1, #11]
 800499e:	f003 033f 	and.w	r3, r3, #63	; 0x3f
 80049a2:	71a3      	strb	r3, [r4, #6]
 80049a4:	2ae5      	cmp	r2, #229	; 0xe5
 80049a6:	d0e6      	beq.n	8004976 <dir_read+0x60>
 80049a8:	2a2e      	cmp	r2, #46	; 0x2e
 80049aa:	d0e6      	beq.n	800497a <dir_read+0x64>
 80049ac:	f023 0020 	bic.w	r0, r3, #32
 80049b0:	2808      	cmp	r0, #8
 80049b2:	bf14      	ite	ne
 80049b4:	2000      	movne	r0, #0
 80049b6:	2001      	moveq	r0, #1
 80049b8:	4540      	cmp	r0, r8
 80049ba:	d0b6      	beq.n	800492a <dir_read+0x14>
 80049bc:	26ff      	movs	r6, #255	; 0xff
 80049be:	e7dd      	b.n	800497c <dir_read+0x66>
 80049c0:	26ff      	movs	r6, #255	; 0xff
 80049c2:	e7db      	b.n	800497c <dir_read+0x66>
 80049c4:	2504      	movs	r5, #4
 80049c6:	b10d      	cbz	r5, 80049cc <dir_read+0xb6>
 80049c8:	2300      	movs	r3, #0
 80049ca:	61a3      	str	r3, [r4, #24]
 80049cc:	4628      	mov	r0, r5
 80049ce:	e8bd 83f8 	ldmia.w	sp!, {r3, r4, r5, r6, r7, r8, r9, pc}

080049d2 <tchar2uni>:
 80049d2:	b5f8      	push	{r3, r4, r5, r6, r7, lr}
 80049d4:	4606      	mov	r6, r0
 80049d6:	6805      	ldr	r5, [r0, #0]
 80049d8:	1c6f      	adds	r7, r5, #1
 80049da:	7828      	ldrb	r0, [r5, #0]
 80049dc:	b284      	uxth	r4, r0
 80049de:	f7ff fa31 	bl	8003e44 <dbc_1st>
 80049e2:	b140      	cbz	r0, 80049f6 <tchar2uni+0x24>
 80049e4:	1caf      	adds	r7, r5, #2
 80049e6:	786d      	ldrb	r5, [r5, #1]
 80049e8:	4628      	mov	r0, r5
 80049ea:	f7ff fa3d 	bl	8003e68 <dbc_2nd>
 80049ee:	b188      	cbz	r0, 8004a14 <tchar2uni+0x42>
 80049f0:	eb05 2404 	add.w	r4, r5, r4, lsl #8
 80049f4:	b2a4      	uxth	r4, r4
 80049f6:	b914      	cbnz	r4, 80049fe <tchar2uni+0x2c>
 80049f8:	4620      	mov	r0, r4
 80049fa:	6037      	str	r7, [r6, #0]
 80049fc:	bdf8      	pop	{r3, r4, r5, r6, r7, pc}
 80049fe:	f44f 7169 	mov.w	r1, #932	; 0x3a4
 8004a02:	4620      	mov	r0, r4
 8004a04:	f000 fd8a 	bl	800551c <ff_oem2uni>
 8004a08:	4604      	mov	r4, r0
 8004a0a:	2800      	cmp	r0, #0
 8004a0c:	d1f4      	bne.n	80049f8 <tchar2uni+0x26>
 8004a0e:	f04f 30ff 	mov.w	r0, #4294967295
 8004a12:	e7f3      	b.n	80049fc <tchar2uni+0x2a>
 8004a14:	f04f 30ff 	mov.w	r0, #4294967295
 8004a18:	e7f0      	b.n	80049fc <tchar2uni+0x2a>

08004a1a <sync_fs>:
 8004a1a:	b570      	push	{r4, r5, r6, lr}
 8004a1c:	4604      	mov	r4, r0
 8004a1e:	f7ff faf6 	bl	800400e <sync_window>
 8004a22:	4605      	mov	r5, r0
 8004a24:	b948      	cbnz	r0, 8004a3a <sync_fs+0x20>
 8004a26:	7823      	ldrb	r3, [r4, #0]
 8004a28:	2b03      	cmp	r3, #3
 8004a2a:	d008      	beq.n	8004a3e <sync_fs+0x24>
 8004a2c:	2200      	movs	r2, #0
 8004a2e:	4611      	mov	r1, r2
 8004a30:	7860      	ldrb	r0, [r4, #1]
 8004a32:	f7ff f9ae 	bl	8003d92 <disk_ioctl>
 8004a36:	b100      	cbz	r0, 8004a3a <sync_fs+0x20>
 8004a38:	2501      	movs	r5, #1
 8004a3a:	4628      	mov	r0, r5
 8004a3c:	bd70      	pop	{r4, r5, r6, pc}
 8004a3e:	7923      	ldrb	r3, [r4, #4]
 8004a40:	2b01      	cmp	r3, #1
 8004a42:	d1f3      	bne.n	8004a2c <sync_fs+0x12>
 8004a44:	f104 0638 	add.w	r6, r4, #56	; 0x38
 8004a48:	f44f 7200 	mov.w	r2, #512	; 0x200
 8004a4c:	2100      	movs	r1, #0
 8004a4e:	4630      	mov	r0, r6
 8004a50:	f7ff f9dc 	bl	8003e0c <mem_set>
 8004a54:	f64a 2155 	movw	r1, #43605	; 0xaa55
 8004a58:	f204 2036 	addw	r0, r4, #566	; 0x236
 8004a5c:	f7ff f9bf 	bl	8003dde <st_word>
 8004a60:	f245 2152 	movw	r1, #21074	; 0x5252
 8004a64:	f2c4 1161 	movt	r1, #16737	; 0x4161
 8004a68:	4630      	mov	r0, r6
 8004a6a:	f7ff f9bc 	bl	8003de6 <st_dword>
 8004a6e:	f247 2172 	movw	r1, #29298	; 0x7272
 8004a72:	f2c6 1141 	movt	r1, #24897	; 0x6141
 8004a76:	f504 7007 	add.w	r0, r4, #540	; 0x21c
 8004a7a:	f7ff f9b4 	bl	8003de6 <st_dword>
 8004a7e:	6961      	ldr	r1, [r4, #20]
 8004a80:	f504 7008 	add.w	r0, r4, #544	; 0x220
 8004a84:	f7ff f9af 	bl	8003de6 <st_dword>
 8004a88:	6921      	ldr	r1, [r4, #16]
 8004a8a:	f504 7009 	add.w	r0, r4, #548	; 0x224
 8004a8e:	f7ff f9aa 	bl	8003de6 <st_dword>
 8004a92:	6a62      	ldr	r2, [r4, #36]	; 0x24
 8004a94:	3201      	adds	r2, #1
 8004a96:	6362      	str	r2, [r4, #52]	; 0x34
 8004a98:	2301      	movs	r3, #1
 8004a9a:	4631      	mov	r1, r6
 8004a9c:	7860      	ldrb	r0, [r4, #1]
 8004a9e:	f7ff f961 	bl	8003d64 <disk_write>
 8004aa2:	2300      	movs	r3, #0
 8004aa4:	7123      	strb	r3, [r4, #4]
 8004aa6:	e7c1      	b.n	8004a2c <sync_fs+0x12>

08004aa8 <create_partition>:
 8004aa8:	e92d 4ff0 	stmdb	sp!, {r4, r5, r6, r7, r8, r9, sl, fp, lr}
 8004aac:	b085      	sub	sp, #20
 8004aae:	9000      	str	r0, [sp, #0]
 8004ab0:	9101      	str	r1, [sp, #4]
 8004ab2:	4693      	mov	fp, r2
 8004ab4:	4699      	mov	r9, r3
 8004ab6:	aa03      	add	r2, sp, #12
 8004ab8:	2101      	movs	r1, #1
 8004aba:	f7ff f96a 	bl	8003d92 <disk_ioctl>
 8004abe:	2800      	cmp	r0, #0
 8004ac0:	f040 8081 	bne.w	8004bc6 <create_partition+0x11e>
 8004ac4:	f8dd 800c 	ldr.w	r8, [sp, #12]
 8004ac8:	2408      	movs	r4, #8
 8004aca:	b12c      	cbz	r4, 8004ad8 <create_partition+0x30>
 8004acc:	fbb8 f2f4 	udiv	r2, r8, r4
 8004ad0:	f64f 433e 	movw	r3, #64574	; 0xfc3e
 8004ad4:	429a      	cmp	r2, r3
 8004ad6:	d824      	bhi.n	8004b22 <create_partition+0x7a>
 8004ad8:	b904      	cbnz	r4, 8004adc <create_partition+0x34>
 8004ada:	24ff      	movs	r4, #255	; 0xff
 8004adc:	f44f 7200 	mov.w	r2, #512	; 0x200
 8004ae0:	2100      	movs	r1, #0
 8004ae2:	4648      	mov	r0, r9
 8004ae4:	f7ff f992 	bl	8003e0c <mem_set>
 8004ae8:	f509 76df 	add.w	r6, r9, #446	; 0x1be
 8004aec:	253f      	movs	r5, #63	; 0x3f
 8004aee:	f04f 0a00 	mov.w	sl, #0
 8004af2:	f1ba 0f03 	cmp.w	sl, #3
 8004af6:	d802      	bhi.n	8004afe <create_partition+0x56>
 8004af8:	b10d      	cbz	r5, 8004afe <create_partition+0x56>
 8004afa:	4545      	cmp	r5, r8
 8004afc:	d314      	bcc.n	8004b28 <create_partition+0x80>
 8004afe:	f64a 2155 	movw	r1, #43605	; 0xaa55
 8004b02:	f509 70ff 	add.w	r0, r9, #510	; 0x1fe
 8004b06:	f7ff f96a 	bl	8003dde <st_word>
 8004b0a:	2301      	movs	r3, #1
 8004b0c:	2200      	movs	r2, #0
 8004b0e:	4649      	mov	r1, r9
 8004b10:	9800      	ldr	r0, [sp, #0]
 8004b12:	f7ff f927 	bl	8003d64 <disk_write>
 8004b16:	2800      	cmp	r0, #0
 8004b18:	d057      	beq.n	8004bca <create_partition+0x122>
 8004b1a:	2001      	movs	r0, #1
 8004b1c:	b005      	add	sp, #20
 8004b1e:	e8bd 8ff0 	ldmia.w	sp!, {r4, r5, r6, r7, r8, r9, sl, fp, pc}
 8004b22:	0064      	lsls	r4, r4, #1
 8004b24:	b2e4      	uxtb	r4, r4
 8004b26:	e7d0      	b.n	8004aca <create_partition+0x22>
 8004b28:	9b01      	ldr	r3, [sp, #4]
 8004b2a:	f853 702a 	ldr.w	r7, [r3, sl, lsl #2]
 8004b2e:	2f64      	cmp	r7, #100	; 0x64
 8004b30:	d805      	bhi.n	8004b3e <create_partition+0x96>
 8004b32:	d046      	beq.n	8004bc2 <create_partition+0x11a>
 8004b34:	2364      	movs	r3, #100	; 0x64
 8004b36:	fbb8 f3f3 	udiv	r3, r8, r3
 8004b3a:	fb03 f707 	mul.w	r7, r3, r7
 8004b3e:	19eb      	adds	r3, r5, r7
 8004b40:	4543      	cmp	r3, r8
 8004b42:	d801      	bhi.n	8004b48 <create_partition+0xa0>
 8004b44:	42ab      	cmp	r3, r5
 8004b46:	d201      	bcs.n	8004b4c <create_partition+0xa4>
 8004b48:	eba8 0705 	sub.w	r7, r8, r5
 8004b4c:	2f00      	cmp	r7, #0
 8004b4e:	d0d6      	beq.n	8004afe <create_partition+0x56>
 8004b50:	4629      	mov	r1, r5
 8004b52:	f106 0008 	add.w	r0, r6, #8
 8004b56:	f7ff f946 	bl	8003de6 <st_dword>
 8004b5a:	4639      	mov	r1, r7
 8004b5c:	f106 000c 	add.w	r0, r6, #12
 8004b60:	f7ff f941 	bl	8003de6 <st_dword>
 8004b64:	f886 b004 	strb.w	fp, [r6, #4]
 8004b68:	223f      	movs	r2, #63	; 0x3f
 8004b6a:	fbb5 f3f2 	udiv	r3, r5, r2
 8004b6e:	fbb3 f1f4 	udiv	r1, r3, r4
 8004b72:	fb04 3011 	mls	r0, r4, r1, r3
 8004b76:	ebc3 1383 	rsb	r3, r3, r3, lsl #6
 8004b7a:	1aeb      	subs	r3, r5, r3
 8004b7c:	b2db      	uxtb	r3, r3
 8004b7e:	3301      	adds	r3, #1
 8004b80:	b2db      	uxtb	r3, r3
 8004b82:	7070      	strb	r0, [r6, #1]
 8004b84:	0888      	lsrs	r0, r1, #2
 8004b86:	f000 00c0 	and.w	r0, r0, #192	; 0xc0
 8004b8a:	4303      	orrs	r3, r0
 8004b8c:	70b3      	strb	r3, [r6, #2]
 8004b8e:	70f1      	strb	r1, [r6, #3]
 8004b90:	443d      	add	r5, r7
 8004b92:	1e6b      	subs	r3, r5, #1
 8004b94:	fbb3 f2f2 	udiv	r2, r3, r2
 8004b98:	fbb2 f1f4 	udiv	r1, r2, r4
 8004b9c:	fb04 2011 	mls	r0, r4, r1, r2
 8004ba0:	ebc2 1282 	rsb	r2, r2, r2, lsl #6
 8004ba4:	1a9b      	subs	r3, r3, r2
 8004ba6:	b2db      	uxtb	r3, r3
 8004ba8:	3301      	adds	r3, #1
 8004baa:	b2db      	uxtb	r3, r3
 8004bac:	7170      	strb	r0, [r6, #5]
 8004bae:	088a      	lsrs	r2, r1, #2
 8004bb0:	f002 02c0 	and.w	r2, r2, #192	; 0xc0
 8004bb4:	4313      	orrs	r3, r2
 8004bb6:	71b3      	strb	r3, [r6, #6]
 8004bb8:	71f1      	strb	r1, [r6, #7]
 8004bba:	3610      	adds	r6, #16
 8004bbc:	f10a 0a01 	add.w	sl, sl, #1
 8004bc0:	e797      	b.n	8004af2 <create_partition+0x4a>
 8004bc2:	4647      	mov	r7, r8
 8004bc4:	e7bb      	b.n	8004b3e <create_partition+0x96>
 8004bc6:	2001      	movs	r0, #1
 8004bc8:	e7a8      	b.n	8004b1c <create_partition+0x74>
 8004bca:	2000      	movs	r0, #0
 8004bcc:	e7a6      	b.n	8004b1c <create_partition+0x74>

08004bce <f_mount>:
 8004bce:	b510      	push	{r4, lr}
 8004bd0:	b084      	sub	sp, #16
 8004bd2:	9001      	str	r0, [sp, #4]
 8004bd4:	9100      	str	r1, [sp, #0]
 8004bd6:	4614      	mov	r4, r2
 8004bd8:	a804      	add	r0, sp, #16
 8004bda:	f840 1d04 	str.w	r1, [r0, #-4]!
 8004bde:	f7ff f9ba 	bl	8003f56 <get_ldnumber>
 8004be2:	2800      	cmp	r0, #0
 8004be4:	db1d      	blt.n	8004c22 <f_mount+0x54>
 8004be6:	f240 235c 	movw	r3, #604	; 0x25c
 8004bea:	f2c2 0300 	movt	r3, #8192	; 0x2000
 8004bee:	f853 3020 	ldr.w	r3, [r3, r0, lsl #2]
 8004bf2:	b10b      	cbz	r3, 8004bf8 <f_mount+0x2a>
 8004bf4:	2200      	movs	r2, #0
 8004bf6:	701a      	strb	r2, [r3, #0]
 8004bf8:	9b01      	ldr	r3, [sp, #4]
 8004bfa:	b10b      	cbz	r3, 8004c00 <f_mount+0x32>
 8004bfc:	2200      	movs	r2, #0
 8004bfe:	701a      	strb	r2, [r3, #0]
 8004c00:	f240 235c 	movw	r3, #604	; 0x25c
 8004c04:	f2c2 0300 	movt	r3, #8192	; 0x2000
 8004c08:	9a01      	ldr	r2, [sp, #4]
 8004c0a:	f843 2020 	str.w	r2, [r3, r0, lsl #2]
 8004c0e:	b914      	cbnz	r4, 8004c16 <f_mount+0x48>
 8004c10:	2000      	movs	r0, #0
 8004c12:	b004      	add	sp, #16
 8004c14:	bd10      	pop	{r4, pc}
 8004c16:	2200      	movs	r2, #0
 8004c18:	a901      	add	r1, sp, #4
 8004c1a:	4668      	mov	r0, sp
 8004c1c:	f7ff faa9 	bl	8004172 <mount_volume>
 8004c20:	e7f7      	b.n	8004c12 <f_mount+0x44>
 8004c22:	200b      	movs	r0, #11
 8004c24:	e7f5      	b.n	8004c12 <f_mount+0x44>

08004c26 <f_chdrive>:
 8004c26:	b500      	push	{lr}
 8004c28:	b083      	sub	sp, #12
 8004c2a:	ab02      	add	r3, sp, #8
 8004c2c:	f843 0d04 	str.w	r0, [r3, #-4]!
 8004c30:	4618      	mov	r0, r3
 8004c32:	f7ff f990 	bl	8003f56 <get_ldnumber>
 8004c36:	2800      	cmp	r0, #0
 8004c38:	db08      	blt.n	8004c4c <f_chdrive+0x26>
 8004c3a:	f240 235a 	movw	r3, #602	; 0x25a
 8004c3e:	f2c2 0300 	movt	r3, #8192	; 0x2000
 8004c42:	7018      	strb	r0, [r3, #0]
 8004c44:	2000      	movs	r0, #0
 8004c46:	b003      	add	sp, #12
 8004c48:	f85d fb04 	ldr.w	pc, [sp], #4
 8004c4c:	200b      	movs	r0, #11
 8004c4e:	e7fa      	b.n	8004c46 <f_chdrive+0x20>

08004c50 <f_getfree>:
 8004c50:	e92d 47f0 	stmdb	sp!, {r4, r5, r6, r7, r8, r9, sl, lr}
 8004c54:	b088      	sub	sp, #32
 8004c56:	9001      	str	r0, [sp, #4]
 8004c58:	4689      	mov	r9, r1
 8004c5a:	4614      	mov	r4, r2
 8004c5c:	2200      	movs	r2, #0
 8004c5e:	a907      	add	r1, sp, #28
 8004c60:	a801      	add	r0, sp, #4
 8004c62:	f7ff fa86 	bl	8004172 <mount_volume>
 8004c66:	4607      	mov	r7, r0
 8004c68:	2800      	cmp	r0, #0
 8004c6a:	d156      	bne.n	8004d1a <f_getfree+0xca>
 8004c6c:	9b07      	ldr	r3, [sp, #28]
 8004c6e:	6023      	str	r3, [r4, #0]
 8004c70:	695a      	ldr	r2, [r3, #20]
 8004c72:	69dd      	ldr	r5, [r3, #28]
 8004c74:	1ea9      	subs	r1, r5, #2
 8004c76:	428a      	cmp	r2, r1
 8004c78:	d907      	bls.n	8004c8a <f_getfree+0x3a>
 8004c7a:	781a      	ldrb	r2, [r3, #0]
 8004c7c:	2a01      	cmp	r2, #1
 8004c7e:	d007      	beq.n	8004c90 <f_getfree+0x40>
 8004c80:	f8d3 8028 	ldr.w	r8, [r3, #40]	; 0x28
 8004c84:	2400      	movs	r4, #0
 8004c86:	4626      	mov	r6, r4
 8004c88:	e02f      	b.n	8004cea <f_getfree+0x9a>
 8004c8a:	f8c9 2000 	str.w	r2, [r9]
 8004c8e:	e044      	b.n	8004d1a <f_getfree+0xca>
 8004c90:	9303      	str	r3, [sp, #12]
 8004c92:	2402      	movs	r4, #2
 8004c94:	2600      	movs	r6, #0
 8004c96:	e004      	b.n	8004ca2 <f_getfree+0x52>
 8004c98:	3401      	adds	r4, #1
 8004c9a:	9b07      	ldr	r3, [sp, #28]
 8004c9c:	69db      	ldr	r3, [r3, #28]
 8004c9e:	42a3      	cmp	r3, r4
 8004ca0:	d933      	bls.n	8004d0a <f_getfree+0xba>
 8004ca2:	4621      	mov	r1, r4
 8004ca4:	a803      	add	r0, sp, #12
 8004ca6:	f7ff fc47 	bl	8004538 <get_fat>
 8004caa:	f1b0 3fff 	cmp.w	r0, #4294967295
 8004cae:	d02b      	beq.n	8004d08 <f_getfree+0xb8>
 8004cb0:	2801      	cmp	r0, #1
 8004cb2:	d036      	beq.n	8004d22 <f_getfree+0xd2>
 8004cb4:	2800      	cmp	r0, #0
 8004cb6:	d1ef      	bne.n	8004c98 <f_getfree+0x48>
 8004cb8:	3601      	adds	r6, #1
 8004cba:	e7ed      	b.n	8004c98 <f_getfree+0x48>
 8004cbc:	f108 0a01 	add.w	sl, r8, #1
 8004cc0:	4641      	mov	r1, r8
 8004cc2:	9807      	ldr	r0, [sp, #28]
 8004cc4:	f7ff f9cb 	bl	800405e <move_window>
 8004cc8:	4607      	mov	r7, r0
 8004cca:	b9f0      	cbnz	r0, 8004d0a <f_getfree+0xba>
 8004ccc:	46d0      	mov	r8, sl
 8004cce:	e00e      	b.n	8004cee <f_getfree+0x9e>
 8004cd0:	3038      	adds	r0, #56	; 0x38
 8004cd2:	4420      	add	r0, r4
 8004cd4:	f7ff f873 	bl	8003dbe <ld_word>
 8004cd8:	b900      	cbnz	r0, 8004cdc <f_getfree+0x8c>
 8004cda:	3601      	adds	r6, #1
 8004cdc:	3402      	adds	r4, #2
 8004cde:	e000      	b.n	8004ce2 <f_getfree+0x92>
 8004ce0:	3404      	adds	r4, #4
 8004ce2:	f3c4 0408 	ubfx	r4, r4, #0, #9
 8004ce6:	3d01      	subs	r5, #1
 8004ce8:	d00f      	beq.n	8004d0a <f_getfree+0xba>
 8004cea:	2c00      	cmp	r4, #0
 8004cec:	d0e6      	beq.n	8004cbc <f_getfree+0x6c>
 8004cee:	9807      	ldr	r0, [sp, #28]
 8004cf0:	7803      	ldrb	r3, [r0, #0]
 8004cf2:	2b02      	cmp	r3, #2
 8004cf4:	d0ec      	beq.n	8004cd0 <f_getfree+0x80>
 8004cf6:	3038      	adds	r0, #56	; 0x38
 8004cf8:	4420      	add	r0, r4
 8004cfa:	f7ff f865 	bl	8003dc8 <ld_dword>
 8004cfe:	f030 4370 	bics.w	r3, r0, #4026531840	; 0xf0000000
 8004d02:	d1ed      	bne.n	8004ce0 <f_getfree+0x90>
 8004d04:	3601      	adds	r6, #1
 8004d06:	e7eb      	b.n	8004ce0 <f_getfree+0x90>
 8004d08:	2701      	movs	r7, #1
 8004d0a:	f8c9 6000 	str.w	r6, [r9]
 8004d0e:	9b07      	ldr	r3, [sp, #28]
 8004d10:	615e      	str	r6, [r3, #20]
 8004d12:	791a      	ldrb	r2, [r3, #4]
 8004d14:	f042 0201 	orr.w	r2, r2, #1
 8004d18:	711a      	strb	r2, [r3, #4]
 8004d1a:	4638      	mov	r0, r7
 8004d1c:	b008      	add	sp, #32
 8004d1e:	e8bd 87f0 	ldmia.w	sp!, {r4, r5, r6, r7, r8, r9, sl, pc}
 8004d22:	2702      	movs	r7, #2
 8004d24:	e7f1      	b.n	8004d0a <f_getfree+0xba>

08004d26 <f_setlabel>:
 8004d26:	b530      	push	{r4, r5, lr}
 8004d28:	b097      	sub	sp, #92	; 0x5c
 8004d2a:	9001      	str	r0, [sp, #4]
 8004d2c:	2202      	movs	r2, #2
 8004d2e:	a908      	add	r1, sp, #32
 8004d30:	a801      	add	r0, sp, #4
 8004d32:	f7ff fa1e 	bl	8004172 <mount_volume>
 8004d36:	4605      	mov	r5, r0
 8004d38:	b110      	cbz	r0, 8004d40 <f_setlabel+0x1a>
 8004d3a:	4628      	mov	r0, r5
 8004d3c:	b017      	add	sp, #92	; 0x5c
 8004d3e:	bd30      	pop	{r4, r5, pc}
 8004d40:	220b      	movs	r2, #11
 8004d42:	2120      	movs	r1, #32
 8004d44:	a802      	add	r0, sp, #8
 8004d46:	f7ff f861 	bl	8003e0c <mem_set>
 8004d4a:	2400      	movs	r4, #0
 8004d4c:	e006      	b.n	8004d5c <f_setlabel+0x36>
 8004d4e:	230b      	movs	r3, #11
 8004d50:	e023      	b.n	8004d9a <f_setlabel+0x74>
 8004d52:	ab16      	add	r3, sp, #88	; 0x58
 8004d54:	4423      	add	r3, r4
 8004d56:	f803 5c50 	strb.w	r5, [r3, #-80]
 8004d5a:	3401      	adds	r4, #1
 8004d5c:	9b01      	ldr	r3, [sp, #4]
 8004d5e:	781b      	ldrb	r3, [r3, #0]
 8004d60:	2b1f      	cmp	r3, #31
 8004d62:	d926      	bls.n	8004db2 <f_setlabel+0x8c>
 8004d64:	a801      	add	r0, sp, #4
 8004d66:	f7ff fe34 	bl	80049d2 <tchar2uni>
 8004d6a:	f5b0 3f80 	cmp.w	r0, #65536	; 0x10000
 8004d6e:	d272      	bcs.n	8004e56 <f_setlabel+0x130>
 8004d70:	f000 fc00 	bl	8005574 <ff_wtoupper>
 8004d74:	f44f 7169 	mov.w	r1, #932	; 0x3a4
 8004d78:	f000 fb9d 	bl	80054b6 <ff_uni2oem>
 8004d7c:	4605      	mov	r5, r0
 8004d7e:	2800      	cmp	r0, #0
 8004d80:	d06b      	beq.n	8004e5a <f_setlabel+0x134>
 8004d82:	4601      	mov	r1, r0
 8004d84:	f648 5008 	movw	r0, #36104	; 0x8d08
 8004d88:	f6c0 0000 	movt	r0, #2048	; 0x800
 8004d8c:	f7ff f852 	bl	8003e34 <chk_chr>
 8004d90:	2800      	cmp	r0, #0
 8004d92:	d164      	bne.n	8004e5e <f_setlabel+0x138>
 8004d94:	2dff      	cmp	r5, #255	; 0xff
 8004d96:	d9da      	bls.n	8004d4e <f_setlabel+0x28>
 8004d98:	230a      	movs	r3, #10
 8004d9a:	42a3      	cmp	r3, r4
 8004d9c:	d961      	bls.n	8004e62 <f_setlabel+0x13c>
 8004d9e:	2dff      	cmp	r5, #255	; 0xff
 8004da0:	d9d7      	bls.n	8004d52 <f_setlabel+0x2c>
 8004da2:	f3c5 2307 	ubfx	r3, r5, #8, #8
 8004da6:	aa16      	add	r2, sp, #88	; 0x58
 8004da8:	4422      	add	r2, r4
 8004daa:	f802 3c50 	strb.w	r3, [r2, #-80]
 8004dae:	3401      	adds	r4, #1
 8004db0:	e7cf      	b.n	8004d52 <f_setlabel+0x2c>
 8004db2:	f89d 3008 	ldrb.w	r3, [sp, #8]
 8004db6:	2be5      	cmp	r3, #229	; 0xe5
 8004db8:	d102      	bne.n	8004dc0 <f_setlabel+0x9a>
 8004dba:	2506      	movs	r5, #6
 8004dbc:	e7bd      	b.n	8004d3a <f_setlabel+0x14>
 8004dbe:	461c      	mov	r4, r3
 8004dc0:	b134      	cbz	r4, 8004dd0 <f_setlabel+0xaa>
 8004dc2:	1e63      	subs	r3, r4, #1
 8004dc4:	aa16      	add	r2, sp, #88	; 0x58
 8004dc6:	441a      	add	r2, r3
 8004dc8:	f812 2c50 	ldrb.w	r2, [r2, #-80]
 8004dcc:	2a20      	cmp	r2, #32
 8004dce:	d0f6      	beq.n	8004dbe <f_setlabel+0x98>
 8004dd0:	9b08      	ldr	r3, [sp, #32]
 8004dd2:	9309      	str	r3, [sp, #36]	; 0x24
 8004dd4:	2100      	movs	r1, #0
 8004dd6:	910b      	str	r1, [sp, #44]	; 0x2c
 8004dd8:	a809      	add	r0, sp, #36	; 0x24
 8004dda:	f7ff fc15 	bl	8004608 <dir_sdi>
 8004dde:	4605      	mov	r5, r0
 8004de0:	2800      	cmp	r0, #0
 8004de2:	d1aa      	bne.n	8004d3a <f_setlabel+0x14>
 8004de4:	2101      	movs	r1, #1
 8004de6:	a809      	add	r0, sp, #36	; 0x24
 8004de8:	f7ff fd95 	bl	8004916 <dir_read>
 8004dec:	b988      	cbnz	r0, 8004e12 <f_setlabel+0xec>
 8004dee:	b954      	cbnz	r4, 8004e06 <f_setlabel+0xe0>
 8004df0:	9b10      	ldr	r3, [sp, #64]	; 0x40
 8004df2:	22e5      	movs	r2, #229	; 0xe5
 8004df4:	701a      	strb	r2, [r3, #0]
 8004df6:	9b08      	ldr	r3, [sp, #32]
 8004df8:	2201      	movs	r2, #1
 8004dfa:	70da      	strb	r2, [r3, #3]
 8004dfc:	9808      	ldr	r0, [sp, #32]
 8004dfe:	f7ff fe0c 	bl	8004a1a <sync_fs>
 8004e02:	4605      	mov	r5, r0
 8004e04:	e799      	b.n	8004d3a <f_setlabel+0x14>
 8004e06:	220b      	movs	r2, #11
 8004e08:	a902      	add	r1, sp, #8
 8004e0a:	9810      	ldr	r0, [sp, #64]	; 0x40
 8004e0c:	f7fe fff5 	bl	8003dfa <mem_cpy>
 8004e10:	e7f1      	b.n	8004df6 <f_setlabel+0xd0>
 8004e12:	2804      	cmp	r0, #4
 8004e14:	d001      	beq.n	8004e1a <f_setlabel+0xf4>
 8004e16:	4605      	mov	r5, r0
 8004e18:	e78f      	b.n	8004d3a <f_setlabel+0x14>
 8004e1a:	2c00      	cmp	r4, #0
 8004e1c:	d08d      	beq.n	8004d3a <f_setlabel+0x14>
 8004e1e:	2101      	movs	r1, #1
 8004e20:	a809      	add	r0, sp, #36	; 0x24
 8004e22:	f7ff fd50 	bl	80048c6 <dir_alloc>
 8004e26:	4605      	mov	r5, r0
 8004e28:	2800      	cmp	r0, #0
 8004e2a:	d186      	bne.n	8004d3a <f_setlabel+0x14>
 8004e2c:	2220      	movs	r2, #32
 8004e2e:	2100      	movs	r1, #0
 8004e30:	9810      	ldr	r0, [sp, #64]	; 0x40
 8004e32:	f7fe ffeb 	bl	8003e0c <mem_set>
 8004e36:	9b10      	ldr	r3, [sp, #64]	; 0x40
 8004e38:	2208      	movs	r2, #8
 8004e3a:	72da      	strb	r2, [r3, #11]
 8004e3c:	220b      	movs	r2, #11
 8004e3e:	a902      	add	r1, sp, #8
 8004e40:	9810      	ldr	r0, [sp, #64]	; 0x40
 8004e42:	f7fe ffda 	bl	8003dfa <mem_cpy>
 8004e46:	9b08      	ldr	r3, [sp, #32]
 8004e48:	2201      	movs	r2, #1
 8004e4a:	70da      	strb	r2, [r3, #3]
 8004e4c:	9808      	ldr	r0, [sp, #32]
 8004e4e:	f7ff fde4 	bl	8004a1a <sync_fs>
 8004e52:	4605      	mov	r5, r0
 8004e54:	e771      	b.n	8004d3a <f_setlabel+0x14>
 8004e56:	2506      	movs	r5, #6
 8004e58:	e76f      	b.n	8004d3a <f_setlabel+0x14>
 8004e5a:	2506      	movs	r5, #6
 8004e5c:	e76d      	b.n	8004d3a <f_setlabel+0x14>
 8004e5e:	2506      	movs	r5, #6
 8004e60:	e76b      	b.n	8004d3a <f_setlabel+0x14>
 8004e62:	2506      	movs	r5, #6
 8004e64:	e769      	b.n	8004d3a <f_setlabel+0x14>

08004e66 <f_mkfs>:
 8004e66:	e92d 4ff0 	stmdb	sp!, {r4, r5, r6, r7, r8, r9, sl, fp, lr}
 8004e6a:	b08f      	sub	sp, #60	; 0x3c
 8004e6c:	ac0e      	add	r4, sp, #56	; 0x38
 8004e6e:	f844 0d14 	str.w	r0, [r4, #-20]!
 8004e72:	460d      	mov	r5, r1
 8004e74:	9200      	str	r2, [sp, #0]
 8004e76:	461e      	mov	r6, r3
 8004e78:	4620      	mov	r0, r4
 8004e7a:	f7ff f86c 	bl	8003f56 <get_ldnumber>
 8004e7e:	2800      	cmp	r0, #0
 8004e80:	f2c0 82f4 	blt.w	800546c <f_mkfs+0x606>
 8004e84:	f240 235c 	movw	r3, #604	; 0x25c
 8004e88:	f2c2 0300 	movt	r3, #8192	; 0x2000
 8004e8c:	f853 3020 	ldr.w	r3, [r3, r0, lsl #2]
 8004e90:	b10b      	cbz	r3, 8004e96 <f_mkfs+0x30>
 8004e92:	2200      	movs	r2, #0
 8004e94:	701a      	strb	r2, [r3, #0]
 8004e96:	b2c4      	uxtb	r4, r0
 8004e98:	b35d      	cbz	r5, 8004ef2 <f_mkfs+0x8c>
 8004e9a:	4620      	mov	r0, r4
 8004e9c:	f7fe ff3a 	bl	8003d14 <disk_initialize>
 8004ea0:	f010 0f01 	tst.w	r0, #1
 8004ea4:	f040 82e4 	bne.w	8005470 <f_mkfs+0x60a>
 8004ea8:	f010 0f04 	tst.w	r0, #4
 8004eac:	f040 82e5 	bne.w	800547a <f_mkfs+0x614>
 8004eb0:	686b      	ldr	r3, [r5, #4]
 8004eb2:	930d      	str	r3, [sp, #52]	; 0x34
 8004eb4:	b313      	cbz	r3, 8004efc <f_mkfs+0x96>
 8004eb6:	9a0d      	ldr	r2, [sp, #52]	; 0x34
 8004eb8:	1e53      	subs	r3, r2, #1
 8004eba:	f5b3 4f00 	cmp.w	r3, #32768	; 0x8000
 8004ebe:	d201      	bcs.n	8004ec4 <f_mkfs+0x5e>
 8004ec0:	421a      	tst	r2, r3
 8004ec2:	d001      	beq.n	8004ec8 <f_mkfs+0x62>
 8004ec4:	2301      	movs	r3, #1
 8004ec6:	930d      	str	r3, [sp, #52]	; 0x34
 8004ec8:	f895 a000 	ldrb.w	sl, [r5]
 8004ecc:	786f      	ldrb	r7, [r5, #1]
 8004ece:	1e7b      	subs	r3, r7, #1
 8004ed0:	b2db      	uxtb	r3, r3
 8004ed2:	2b01      	cmp	r3, #1
 8004ed4:	d900      	bls.n	8004ed8 <f_mkfs+0x72>
 8004ed6:	2701      	movs	r7, #1
 8004ed8:	f8d5 9008 	ldr.w	r9, [r5, #8]
 8004edc:	f109 33ff 	add.w	r3, r9, #4294967295
 8004ee0:	f5b3 4f00 	cmp.w	r3, #32768	; 0x8000
 8004ee4:	d214      	bcs.n	8004f10 <f_mkfs+0xaa>
 8004ee6:	f019 0f0f 	tst.w	r9, #15
 8004eea:	d013      	beq.n	8004f14 <f_mkfs+0xae>
 8004eec:	f44f 7900 	mov.w	r9, #512	; 0x200
 8004ef0:	e010      	b.n	8004f14 <f_mkfs+0xae>
 8004ef2:	f648 5548 	movw	r5, #36168	; 0x8d48
 8004ef6:	f6c0 0500 	movt	r5, #2048	; 0x800
 8004efa:	e7ce      	b.n	8004e9a <f_mkfs+0x34>
 8004efc:	aa0d      	add	r2, sp, #52	; 0x34
 8004efe:	2103      	movs	r1, #3
 8004f00:	4620      	mov	r0, r4
 8004f02:	f7fe ff46 	bl	8003d92 <disk_ioctl>
 8004f06:	2800      	cmp	r0, #0
 8004f08:	d0d5      	beq.n	8004eb6 <f_mkfs+0x50>
 8004f0a:	2301      	movs	r3, #1
 8004f0c:	930d      	str	r3, [sp, #52]	; 0x34
 8004f0e:	e7d2      	b.n	8004eb6 <f_mkfs+0x50>
 8004f10:	f44f 7900 	mov.w	r9, #512	; 0x200
 8004f14:	68ed      	ldr	r5, [r5, #12]
 8004f16:	f1b5 7f80 	cmp.w	r5, #16777216	; 0x1000000
 8004f1a:	d804      	bhi.n	8004f26 <f_mkfs+0xc0>
 8004f1c:	1e6b      	subs	r3, r5, #1
 8004f1e:	421d      	tst	r5, r3
 8004f20:	d002      	beq.n	8004f28 <f_mkfs+0xc2>
 8004f22:	2500      	movs	r5, #0
 8004f24:	e000      	b.n	8004f28 <f_mkfs+0xc2>
 8004f26:	2500      	movs	r5, #0
 8004f28:	0a6d      	lsrs	r5, r5, #9
 8004f2a:	0a73      	lsrs	r3, r6, #9
 8004f2c:	9301      	str	r3, [sp, #4]
 8004f2e:	f000 82a6 	beq.w	800547e <f_mkfs+0x618>
 8004f32:	9b00      	ldr	r3, [sp, #0]
 8004f34:	2b00      	cmp	r3, #0
 8004f36:	f000 82a4 	beq.w	8005482 <f_mkfs+0x61c>
 8004f3a:	aa0e      	add	r2, sp, #56	; 0x38
 8004f3c:	2300      	movs	r3, #0
 8004f3e:	f842 3d08 	str.w	r3, [r2, #-8]!
 8004f42:	2101      	movs	r1, #1
 8004f44:	4620      	mov	r0, r4
 8004f46:	f7fe ff24 	bl	8003d92 <disk_ioctl>
 8004f4a:	2800      	cmp	r0, #0
 8004f4c:	f040 829b 	bne.w	8005486 <f_mkfs+0x620>
 8004f50:	f01a 0308 	ands.w	r3, sl, #8
 8004f54:	9303      	str	r3, [sp, #12]
 8004f56:	d107      	bne.n	8004f68 <f_mkfs+0x102>
 8004f58:	9b0c      	ldr	r3, [sp, #48]	; 0x30
 8004f5a:	2b3f      	cmp	r3, #63	; 0x3f
 8004f5c:	d97d      	bls.n	800505a <f_mkfs+0x1f4>
 8004f5e:	3b3f      	subs	r3, #63	; 0x3f
 8004f60:	930c      	str	r3, [sp, #48]	; 0x30
 8004f62:	233f      	movs	r3, #63	; 0x3f
 8004f64:	9302      	str	r3, [sp, #8]
 8004f66:	e001      	b.n	8004f6c <f_mkfs+0x106>
 8004f68:	2300      	movs	r3, #0
 8004f6a:	9302      	str	r3, [sp, #8]
 8004f6c:	980c      	ldr	r0, [sp, #48]	; 0x30
 8004f6e:	287f      	cmp	r0, #127	; 0x7f
 8004f70:	f240 828b 	bls.w	800548a <f_mkfs+0x624>
 8004f74:	2d80      	cmp	r5, #128	; 0x80
 8004f76:	d900      	bls.n	8004f7a <f_mkfs+0x114>
 8004f78:	2580      	movs	r5, #128	; 0x80
 8004f7a:	f01a 0c02 	ands.w	ip, sl, #2
 8004f7e:	d002      	beq.n	8004f86 <f_mkfs+0x120>
 8004f80:	f01a 0f01 	tst.w	sl, #1
 8004f84:	d06c      	beq.n	8005060 <f_mkfs+0x1fa>
 8004f86:	f01a 0f01 	tst.w	sl, #1
 8004f8a:	f000 8280 	beq.w	800548e <f_mkfs+0x628>
 8004f8e:	f04f 0802 	mov.w	r8, #2
 8004f92:	9404      	str	r4, [sp, #16]
 8004f94:	9605      	str	r6, [sp, #20]
 8004f96:	f1b8 0f03 	cmp.w	r8, #3
 8004f9a:	d06a      	beq.n	8005072 <f_mkfs+0x20c>
 8004f9c:	2d00      	cmp	r5, #0
 8004f9e:	f000 8094 	beq.w	80050ca <f_mkfs+0x264>
 8004fa2:	46aa      	mov	sl, r5
 8004fa4:	fbb0 f3fa 	udiv	r3, r0, sl
 8004fa8:	f640 72f5 	movw	r2, #4085	; 0xff5
 8004fac:	4293      	cmp	r3, r2
 8004fae:	f240 80a0 	bls.w	80050f2 <f_mkfs+0x28c>
 8004fb2:	f103 0b02 	add.w	fp, r3, #2
 8004fb6:	ea4f 0b4b 	mov.w	fp, fp, lsl #1
 8004fba:	f20b 1bff 	addw	fp, fp, #511	; 0x1ff
 8004fbe:	ea4f 2b5b 	mov.w	fp, fp, lsr #9
 8004fc2:	f3c9 1616 	ubfx	r6, r9, #4, #23
 8004fc6:	2101      	movs	r1, #1
 8004fc8:	9b02      	ldr	r3, [sp, #8]
 8004fca:	185c      	adds	r4, r3, r1
 8004fcc:	fb07 420b 	mla	r2, r7, fp, r4
 8004fd0:	4432      	add	r2, r6
 8004fd2:	f8dd e034 	ldr.w	lr, [sp, #52]	; 0x34
 8004fd6:	eb0e 0302 	add.w	r3, lr, r2
 8004fda:	3b01      	subs	r3, #1
 8004fdc:	f1ce 0e00 	rsb	lr, lr, #0
 8004fe0:	ea03 030e 	and.w	r3, r3, lr
 8004fe4:	1a9b      	subs	r3, r3, r2
 8004fe6:	f1b8 0f03 	cmp.w	r8, #3
 8004fea:	f000 808d 	beq.w	8005108 <f_mkfs+0x2a2>
 8004fee:	fbb3 fef7 	udiv	lr, r3, r7
 8004ff2:	fb07 3e1e 	mls	lr, r7, lr, r3
 8004ff6:	f1be 0f00 	cmp.w	lr, #0
 8004ffa:	d002      	beq.n	8005002 <f_mkfs+0x19c>
 8004ffc:	3b01      	subs	r3, #1
 8004ffe:	3101      	adds	r1, #1
 8005000:	3401      	adds	r4, #1
 8005002:	fbb3 f3f7 	udiv	r3, r3, r7
 8005006:	449b      	add	fp, r3
 8005008:	eb02 120a 	add.w	r2, r2, sl, lsl #4
 800500c:	9b02      	ldr	r3, [sp, #8]
 800500e:	1ad2      	subs	r2, r2, r3
 8005010:	4290      	cmp	r0, r2
 8005012:	f0c0 8240 	bcc.w	8005496 <f_mkfs+0x630>
 8005016:	1a43      	subs	r3, r0, r1
 8005018:	fb07 331b 	mls	r3, r7, fp, r3
 800501c:	1b9b      	subs	r3, r3, r6
 800501e:	fbb3 f3fa 	udiv	r3, r3, sl
 8005022:	f1b8 0f03 	cmp.w	r8, #3
 8005026:	d072      	beq.n	800510e <f_mkfs+0x2a8>
 8005028:	f1b8 0f02 	cmp.w	r8, #2
 800502c:	f040 808a 	bne.w	8005144 <f_mkfs+0x2de>
 8005030:	f64f 72f5 	movw	r2, #65525	; 0xfff5
 8005034:	4293      	cmp	r3, r2
 8005036:	d977      	bls.n	8005128 <f_mkfs+0x2c2>
 8005038:	b91d      	cbnz	r5, 8005042 <f_mkfs+0x1dc>
 800503a:	ea4f 034a 	mov.w	r3, sl, lsl #1
 800503e:	2b40      	cmp	r3, #64	; 0x40
 8005040:	d913      	bls.n	800506a <f_mkfs+0x204>
 8005042:	f1bc 0f00 	cmp.w	ip, #0
 8005046:	d112      	bne.n	800506e <f_mkfs+0x208>
 8005048:	2d00      	cmp	r5, #0
 800504a:	f040 8228 	bne.w	800549e <f_mkfs+0x638>
 800504e:	ea4f 054a 	mov.w	r5, sl, lsl #1
 8005052:	2d80      	cmp	r5, #128	; 0x80
 8005054:	d99f      	bls.n	8004f96 <f_mkfs+0x130>
 8005056:	230e      	movs	r3, #14
 8005058:	e20b      	b.n	8005472 <f_mkfs+0x60c>
 800505a:	2300      	movs	r3, #0
 800505c:	9302      	str	r3, [sp, #8]
 800505e:	e785      	b.n	8004f6c <f_mkfs+0x106>
 8005060:	f04f 0803 	mov.w	r8, #3
 8005064:	9404      	str	r4, [sp, #16]
 8005066:	9605      	str	r6, [sp, #20]
 8005068:	e795      	b.n	8004f96 <f_mkfs+0x130>
 800506a:	461d      	mov	r5, r3
 800506c:	e793      	b.n	8004f96 <f_mkfs+0x130>
 800506e:	f04f 0803 	mov.w	r8, #3
 8005072:	b1bd      	cbz	r5, 80050a4 <f_mkfs+0x23e>
 8005074:	46aa      	mov	sl, r5
 8005076:	fbb0 f3fa 	udiv	r3, r0, sl
 800507a:	f103 0b02 	add.w	fp, r3, #2
 800507e:	ea4f 0b8b 	mov.w	fp, fp, lsl #2
 8005082:	f20b 1bff 	addw	fp, fp, #511	; 0x1ff
 8005086:	ea4f 2b5b 	mov.w	fp, fp, lsr #9
 800508a:	f5a3 437f 	sub.w	r3, r3, #65280	; 0xff00
 800508e:	3bf6      	subs	r3, #246	; 0xf6
 8005090:	f64f 72ff 	movw	r2, #65535	; 0xffff
 8005094:	f6c0 72fe 	movt	r2, #4094	; 0xffe
 8005098:	4293      	cmp	r3, r2
 800509a:	f200 81fa 	bhi.w	8005492 <f_mkfs+0x62c>
 800509e:	2600      	movs	r6, #0
 80050a0:	2120      	movs	r1, #32
 80050a2:	e791      	b.n	8004fc8 <f_mkfs+0x162>
 80050a4:	0c41      	lsrs	r1, r0, #17
 80050a6:	2200      	movs	r2, #0
 80050a8:	f04f 0a01 	mov.w	sl, #1
 80050ac:	e002      	b.n	80050b4 <f_mkfs+0x24e>
 80050ae:	3201      	adds	r2, #1
 80050b0:	ea4f 0a4a 	mov.w	sl, sl, lsl #1
 80050b4:	f648 5338 	movw	r3, #36152	; 0x8d38
 80050b8:	f6c0 0300 	movt	r3, #2048	; 0x800
 80050bc:	f833 3012 	ldrh.w	r3, [r3, r2, lsl #1]
 80050c0:	2b00      	cmp	r3, #0
 80050c2:	d0d8      	beq.n	8005076 <f_mkfs+0x210>
 80050c4:	428b      	cmp	r3, r1
 80050c6:	d9f2      	bls.n	80050ae <f_mkfs+0x248>
 80050c8:	e7d5      	b.n	8005076 <f_mkfs+0x210>
 80050ca:	0b01      	lsrs	r1, r0, #12
 80050cc:	2200      	movs	r2, #0
 80050ce:	f04f 0a01 	mov.w	sl, #1
 80050d2:	e002      	b.n	80050da <f_mkfs+0x274>
 80050d4:	3201      	adds	r2, #1
 80050d6:	ea4f 0a4a 	mov.w	sl, sl, lsl #1
 80050da:	f648 5328 	movw	r3, #36136	; 0x8d28
 80050de:	f6c0 0300 	movt	r3, #2048	; 0x800
 80050e2:	f833 3012 	ldrh.w	r3, [r3, r2, lsl #1]
 80050e6:	2b00      	cmp	r3, #0
 80050e8:	f43f af5c 	beq.w	8004fa4 <f_mkfs+0x13e>
 80050ec:	428b      	cmp	r3, r1
 80050ee:	d9f1      	bls.n	80050d4 <f_mkfs+0x26e>
 80050f0:	e758      	b.n	8004fa4 <f_mkfs+0x13e>
 80050f2:	eb03 0b43 	add.w	fp, r3, r3, lsl #1
 80050f6:	f10b 0b01 	add.w	fp, fp, #1
 80050fa:	ea4f 0b5b 	mov.w	fp, fp, lsr #1
 80050fe:	f10b 0b03 	add.w	fp, fp, #3
 8005102:	f04f 0801 	mov.w	r8, #1
 8005106:	e758      	b.n	8004fba <f_mkfs+0x154>
 8005108:	4419      	add	r1, r3
 800510a:	441c      	add	r4, r3
 800510c:	e77c      	b.n	8005008 <f_mkfs+0x1a2>
 800510e:	f64f 72f5 	movw	r2, #65525	; 0xfff5
 8005112:	4293      	cmp	r3, r2
 8005114:	d888      	bhi.n	8005028 <f_mkfs+0x1c2>
 8005116:	2d00      	cmp	r5, #0
 8005118:	f040 81bf 	bne.w	800549a <f_mkfs+0x634>
 800511c:	ea5f 055a 	movs.w	r5, sl, lsr #1
 8005120:	f47f af39 	bne.w	8004f96 <f_mkfs+0x130>
 8005124:	230e      	movs	r3, #14
 8005126:	e1a4      	b.n	8005472 <f_mkfs+0x60c>
 8005128:	f640 72f5 	movw	r2, #4085	; 0xff5
 800512c:	4293      	cmp	r3, r2
 800512e:	d809      	bhi.n	8005144 <f_mkfs+0x2de>
 8005130:	2d00      	cmp	r5, #0
 8005132:	f040 81b6 	bne.w	80054a2 <f_mkfs+0x63c>
 8005136:	ea4f 054a 	mov.w	r5, sl, lsl #1
 800513a:	2d80      	cmp	r5, #128	; 0x80
 800513c:	f67f af2b 	bls.w	8004f96 <f_mkfs+0x130>
 8005140:	230e      	movs	r3, #14
 8005142:	e196      	b.n	8005472 <f_mkfs+0x60c>
 8005144:	9406      	str	r4, [sp, #24]
 8005146:	9107      	str	r1, [sp, #28]
 8005148:	9608      	str	r6, [sp, #32]
 800514a:	9c04      	ldr	r4, [sp, #16]
 800514c:	461a      	mov	r2, r3
 800514e:	9304      	str	r3, [sp, #16]
 8005150:	9e05      	ldr	r6, [sp, #20]
 8005152:	f1b8 0f01 	cmp.w	r8, #1
 8005156:	d104      	bne.n	8005162 <f_mkfs+0x2fc>
 8005158:	f640 73f5 	movw	r3, #4085	; 0xff5
 800515c:	429a      	cmp	r2, r3
 800515e:	f200 81a2 	bhi.w	80054a6 <f_mkfs+0x640>
 8005162:	f44f 7200 	mov.w	r2, #512	; 0x200
 8005166:	2100      	movs	r1, #0
 8005168:	9d00      	ldr	r5, [sp, #0]
 800516a:	4628      	mov	r0, r5
 800516c:	f7fe fe4e 	bl	8003e0c <mem_set>
 8005170:	220b      	movs	r2, #11
 8005172:	f648 5158 	movw	r1, #36184	; 0x8d58
 8005176:	f6c0 0100 	movt	r1, #2048	; 0x800
 800517a:	4628      	mov	r0, r5
 800517c:	f7fe fe3d 	bl	8003dfa <mem_cpy>
 8005180:	f44f 7100 	mov.w	r1, #512	; 0x200
 8005184:	f105 000b 	add.w	r0, r5, #11
 8005188:	f7fe fe29 	bl	8003dde <st_word>
 800518c:	f885 a00d 	strb.w	sl, [r5, #13]
 8005190:	f8bd 101c 	ldrh.w	r1, [sp, #28]
 8005194:	f105 000e 	add.w	r0, r5, #14
 8005198:	f7fe fe21 	bl	8003dde <st_word>
 800519c:	742f      	strb	r7, [r5, #16]
 800519e:	f105 0011 	add.w	r0, r5, #17
 80051a2:	f1b8 0f03 	cmp.w	r8, #3
 80051a6:	f000 8091 	beq.w	80052cc <f_mkfs+0x466>
 80051aa:	fa1f f189 	uxth.w	r1, r9
 80051ae:	f7fe fe16 	bl	8003dde <st_word>
 80051b2:	990c      	ldr	r1, [sp, #48]	; 0x30
 80051b4:	f5b1 3f80 	cmp.w	r1, #65536	; 0x10000
 80051b8:	f080 808a 	bcs.w	80052d0 <f_mkfs+0x46a>
 80051bc:	b289      	uxth	r1, r1
 80051be:	9b00      	ldr	r3, [sp, #0]
 80051c0:	f103 0013 	add.w	r0, r3, #19
 80051c4:	f7fe fe0b 	bl	8003dde <st_word>
 80051c8:	23f8      	movs	r3, #248	; 0xf8
 80051ca:	9d00      	ldr	r5, [sp, #0]
 80051cc:	756b      	strb	r3, [r5, #21]
 80051ce:	213f      	movs	r1, #63	; 0x3f
 80051d0:	f105 0018 	add.w	r0, r5, #24
 80051d4:	f7fe fe03 	bl	8003dde <st_word>
 80051d8:	21ff      	movs	r1, #255	; 0xff
 80051da:	f105 001a 	add.w	r0, r5, #26
 80051de:	f7fe fdfe 	bl	8003dde <st_word>
 80051e2:	9902      	ldr	r1, [sp, #8]
 80051e4:	f105 001c 	add.w	r0, r5, #28
 80051e8:	f7fe fdfd 	bl	8003de6 <st_dword>
 80051ec:	f1b8 0f03 	cmp.w	r8, #3
 80051f0:	d074      	beq.n	80052dc <f_mkfs+0x476>
 80051f2:	f7fe fc65 	bl	8003ac0 <get_fattime>
 80051f6:	4601      	mov	r1, r0
 80051f8:	9d00      	ldr	r5, [sp, #0]
 80051fa:	f105 0027 	add.w	r0, r5, #39	; 0x27
 80051fe:	f7fe fdf2 	bl	8003de6 <st_dword>
 8005202:	fa1f f18b 	uxth.w	r1, fp
 8005206:	f105 0016 	add.w	r0, r5, #22
 800520a:	f7fe fde8 	bl	8003dde <st_word>
 800520e:	2380      	movs	r3, #128	; 0x80
 8005210:	f885 3024 	strb.w	r3, [r5, #36]	; 0x24
 8005214:	2329      	movs	r3, #41	; 0x29
 8005216:	4628      	mov	r0, r5
 8005218:	f885 3026 	strb.w	r3, [r5, #38]	; 0x26
 800521c:	2213      	movs	r2, #19
 800521e:	f648 5178 	movw	r1, #36216	; 0x8d78
 8005222:	f6c0 0100 	movt	r1, #2048	; 0x800
 8005226:	302b      	adds	r0, #43	; 0x2b
 8005228:	f7fe fde7 	bl	8003dfa <mem_cpy>
 800522c:	9b00      	ldr	r3, [sp, #0]
 800522e:	f503 75ff 	add.w	r5, r3, #510	; 0x1fe
 8005232:	f64a 2155 	movw	r1, #43605	; 0xaa55
 8005236:	4628      	mov	r0, r5
 8005238:	f7fe fdd1 	bl	8003dde <st_word>
 800523c:	2301      	movs	r3, #1
 800523e:	9a02      	ldr	r2, [sp, #8]
 8005240:	9900      	ldr	r1, [sp, #0]
 8005242:	4620      	mov	r0, r4
 8005244:	f7fe fd8e 	bl	8003d64 <disk_write>
 8005248:	2800      	cmp	r0, #0
 800524a:	f040 812e 	bne.w	80054aa <f_mkfs+0x644>
 800524e:	f1b8 0f03 	cmp.w	r8, #3
 8005252:	d06f      	beq.n	8005334 <f_mkfs+0x4ce>
 8005254:	f426 72ff 	bic.w	r2, r6, #510	; 0x1fe
 8005258:	f022 0201 	bic.w	r2, r2, #1
 800525c:	2100      	movs	r1, #0
 800525e:	9800      	ldr	r0, [sp, #0]
 8005260:	f7fe fdd4 	bl	8003e0c <mem_set>
 8005264:	f04f 0900 	mov.w	r9, #0
 8005268:	f8cd b008 	str.w	fp, [sp, #8]
 800526c:	f8cd a010 	str.w	sl, [sp, #16]
 8005270:	f8dd a018 	ldr.w	sl, [sp, #24]
 8005274:	f8dd b004 	ldr.w	fp, [sp, #4]
 8005278:	45b9      	cmp	r9, r7
 800527a:	f080 80b4 	bcs.w	80053e6 <f_mkfs+0x580>
 800527e:	f1b8 0f03 	cmp.w	r8, #3
 8005282:	f000 8099 	beq.w	80053b8 <f_mkfs+0x552>
 8005286:	f1b8 0f01 	cmp.w	r8, #1
 800528a:	f000 80a7 	beq.w	80053dc <f_mkfs+0x576>
 800528e:	f06f 0107 	mvn.w	r1, #7
 8005292:	9800      	ldr	r0, [sp, #0]
 8005294:	f7fe fda7 	bl	8003de6 <st_dword>
 8005298:	9e02      	ldr	r6, [sp, #8]
 800529a:	4635      	mov	r5, r6
 800529c:	455e      	cmp	r6, fp
 800529e:	bf28      	it	cs
 80052a0:	465d      	movcs	r5, fp
 80052a2:	462b      	mov	r3, r5
 80052a4:	4652      	mov	r2, sl
 80052a6:	9900      	ldr	r1, [sp, #0]
 80052a8:	4620      	mov	r0, r4
 80052aa:	f7fe fd5b 	bl	8003d64 <disk_write>
 80052ae:	2800      	cmp	r0, #0
 80052b0:	f040 80fd 	bne.w	80054ae <f_mkfs+0x648>
 80052b4:	f44f 7200 	mov.w	r2, #512	; 0x200
 80052b8:	2100      	movs	r1, #0
 80052ba:	9800      	ldr	r0, [sp, #0]
 80052bc:	f7fe fda6 	bl	8003e0c <mem_set>
 80052c0:	44aa      	add	sl, r5
 80052c2:	1b76      	subs	r6, r6, r5
 80052c4:	d1e9      	bne.n	800529a <f_mkfs+0x434>
 80052c6:	f109 0901 	add.w	r9, r9, #1
 80052ca:	e7d5      	b.n	8005278 <f_mkfs+0x412>
 80052cc:	2100      	movs	r1, #0
 80052ce:	e76e      	b.n	80051ae <f_mkfs+0x348>
 80052d0:	9b00      	ldr	r3, [sp, #0]
 80052d2:	f103 0020 	add.w	r0, r3, #32
 80052d6:	f7fe fd86 	bl	8003de6 <st_dword>
 80052da:	e775      	b.n	80051c8 <f_mkfs+0x362>
 80052dc:	f7fe fbf0 	bl	8003ac0 <get_fattime>
 80052e0:	4601      	mov	r1, r0
 80052e2:	9d00      	ldr	r5, [sp, #0]
 80052e4:	f105 0043 	add.w	r0, r5, #67	; 0x43
 80052e8:	f7fe fd7d 	bl	8003de6 <st_dword>
 80052ec:	4659      	mov	r1, fp
 80052ee:	f105 0024 	add.w	r0, r5, #36	; 0x24
 80052f2:	f7fe fd78 	bl	8003de6 <st_dword>
 80052f6:	2102      	movs	r1, #2
 80052f8:	f105 002c 	add.w	r0, r5, #44	; 0x2c
 80052fc:	f7fe fd73 	bl	8003de6 <st_dword>
 8005300:	2101      	movs	r1, #1
 8005302:	f105 0030 	add.w	r0, r5, #48	; 0x30
 8005306:	f7fe fd6a 	bl	8003dde <st_word>
 800530a:	2106      	movs	r1, #6
 800530c:	f105 0032 	add.w	r0, r5, #50	; 0x32
 8005310:	f7fe fd65 	bl	8003dde <st_word>
 8005314:	2380      	movs	r3, #128	; 0x80
 8005316:	f885 3040 	strb.w	r3, [r5, #64]	; 0x40
 800531a:	2329      	movs	r3, #41	; 0x29
 800531c:	4628      	mov	r0, r5
 800531e:	f885 3042 	strb.w	r3, [r5, #66]	; 0x42
 8005322:	2213      	movs	r2, #19
 8005324:	f648 5164 	movw	r1, #36196	; 0x8d64
 8005328:	f6c0 0100 	movt	r1, #2048	; 0x800
 800532c:	3047      	adds	r0, #71	; 0x47
 800532e:	f7fe fd64 	bl	8003dfa <mem_cpy>
 8005332:	e77b      	b.n	800522c <f_mkfs+0x3c6>
 8005334:	2301      	movs	r3, #1
 8005336:	9a02      	ldr	r2, [sp, #8]
 8005338:	3206      	adds	r2, #6
 800533a:	f8dd 9000 	ldr.w	r9, [sp]
 800533e:	4649      	mov	r1, r9
 8005340:	4620      	mov	r0, r4
 8005342:	f7fe fd0f 	bl	8003d64 <disk_write>
 8005346:	f44f 7200 	mov.w	r2, #512	; 0x200
 800534a:	2100      	movs	r1, #0
 800534c:	4648      	mov	r0, r9
 800534e:	f7fe fd5d 	bl	8003e0c <mem_set>
 8005352:	f245 2152 	movw	r1, #21074	; 0x5252
 8005356:	f2c4 1161 	movt	r1, #16737	; 0x4161
 800535a:	4648      	mov	r0, r9
 800535c:	f7fe fd43 	bl	8003de6 <st_dword>
 8005360:	f247 2172 	movw	r1, #29298	; 0x7272
 8005364:	f2c6 1141 	movt	r1, #24897	; 0x6141
 8005368:	f8cd 9000 	str.w	r9, [sp]
 800536c:	f509 70f2 	add.w	r0, r9, #484	; 0x1e4
 8005370:	f7fe fd39 	bl	8003de6 <st_dword>
 8005374:	9904      	ldr	r1, [sp, #16]
 8005376:	3901      	subs	r1, #1
 8005378:	9b00      	ldr	r3, [sp, #0]
 800537a:	f503 70f4 	add.w	r0, r3, #488	; 0x1e8
 800537e:	f7fe fd32 	bl	8003de6 <st_dword>
 8005382:	2102      	movs	r1, #2
 8005384:	9b00      	ldr	r3, [sp, #0]
 8005386:	f503 70f6 	add.w	r0, r3, #492	; 0x1ec
 800538a:	f7fe fd2c 	bl	8003de6 <st_dword>
 800538e:	f64a 2155 	movw	r1, #43605	; 0xaa55
 8005392:	4628      	mov	r0, r5
 8005394:	f7fe fd23 	bl	8003dde <st_word>
 8005398:	2301      	movs	r3, #1
 800539a:	9d02      	ldr	r5, [sp, #8]
 800539c:	1dea      	adds	r2, r5, #7
 800539e:	f8dd 9000 	ldr.w	r9, [sp]
 80053a2:	4649      	mov	r1, r9
 80053a4:	4620      	mov	r0, r4
 80053a6:	f7fe fcdd 	bl	8003d64 <disk_write>
 80053aa:	2301      	movs	r3, #1
 80053ac:	18ea      	adds	r2, r5, r3
 80053ae:	4649      	mov	r1, r9
 80053b0:	4620      	mov	r0, r4
 80053b2:	f7fe fcd7 	bl	8003d64 <disk_write>
 80053b6:	e74d      	b.n	8005254 <f_mkfs+0x3ee>
 80053b8:	f06f 0107 	mvn.w	r1, #7
 80053bc:	9d00      	ldr	r5, [sp, #0]
 80053be:	4628      	mov	r0, r5
 80053c0:	f7fe fd11 	bl	8003de6 <st_dword>
 80053c4:	f04f 31ff 	mov.w	r1, #4294967295
 80053c8:	1d28      	adds	r0, r5, #4
 80053ca:	f7fe fd0c 	bl	8003de6 <st_dword>
 80053ce:	f06f 4170 	mvn.w	r1, #4026531840	; 0xf0000000
 80053d2:	f105 0008 	add.w	r0, r5, #8
 80053d6:	f7fe fd06 	bl	8003de6 <st_dword>
 80053da:	e75d      	b.n	8005298 <f_mkfs+0x432>
 80053dc:	f64f 71f8 	movw	r1, #65528	; 0xfff8
 80053e0:	f2c0 01ff 	movt	r1, #255	; 0xff
 80053e4:	e755      	b.n	8005292 <f_mkfs+0x42c>
 80053e6:	f8cd a018 	str.w	sl, [sp, #24]
 80053ea:	f8dd a010 	ldr.w	sl, [sp, #16]
 80053ee:	f1b8 0f03 	cmp.w	r8, #3
 80053f2:	d030      	beq.n	8005456 <f_mkfs+0x5f0>
 80053f4:	9f06      	ldr	r7, [sp, #24]
 80053f6:	9e08      	ldr	r6, [sp, #32]
 80053f8:	9b01      	ldr	r3, [sp, #4]
 80053fa:	42b3      	cmp	r3, r6
 80053fc:	bf28      	it	cs
 80053fe:	4633      	movcs	r3, r6
 8005400:	461d      	mov	r5, r3
 8005402:	463a      	mov	r2, r7
 8005404:	9900      	ldr	r1, [sp, #0]
 8005406:	4620      	mov	r0, r4
 8005408:	f7fe fcac 	bl	8003d64 <disk_write>
 800540c:	2800      	cmp	r0, #0
 800540e:	d150      	bne.n	80054b2 <f_mkfs+0x64c>
 8005410:	442f      	add	r7, r5
 8005412:	1b76      	subs	r6, r6, r5
 8005414:	d1f0      	bne.n	80053f8 <f_mkfs+0x592>
 8005416:	f1b8 0f03 	cmp.w	r8, #3
 800541a:	d01f      	beq.n	800545c <f_mkfs+0x5f6>
 800541c:	9b0c      	ldr	r3, [sp, #48]	; 0x30
 800541e:	f5b3 3f80 	cmp.w	r3, #65536	; 0x10000
 8005422:	d21d      	bcs.n	8005460 <f_mkfs+0x5fa>
 8005424:	f1b8 0f02 	cmp.w	r8, #2
 8005428:	d11c      	bne.n	8005464 <f_mkfs+0x5fe>
 800542a:	2204      	movs	r2, #4
 800542c:	9b03      	ldr	r3, [sp, #12]
 800542e:	b953      	cbnz	r3, 8005446 <f_mkfs+0x5e0>
 8005430:	9b0c      	ldr	r3, [sp, #48]	; 0x30
 8005432:	930a      	str	r3, [sp, #40]	; 0x28
 8005434:	2300      	movs	r3, #0
 8005436:	930b      	str	r3, [sp, #44]	; 0x2c
 8005438:	9b00      	ldr	r3, [sp, #0]
 800543a:	a90a      	add	r1, sp, #40	; 0x28
 800543c:	4620      	mov	r0, r4
 800543e:	f7ff fb33 	bl	8004aa8 <create_partition>
 8005442:	4603      	mov	r3, r0
 8005444:	b9a8      	cbnz	r0, 8005472 <f_mkfs+0x60c>
 8005446:	2200      	movs	r2, #0
 8005448:	4611      	mov	r1, r2
 800544a:	4620      	mov	r0, r4
 800544c:	f7fe fca1 	bl	8003d92 <disk_ioctl>
 8005450:	b950      	cbnz	r0, 8005468 <f_mkfs+0x602>
 8005452:	2300      	movs	r3, #0
 8005454:	e00d      	b.n	8005472 <f_mkfs+0x60c>
 8005456:	4656      	mov	r6, sl
 8005458:	9f06      	ldr	r7, [sp, #24]
 800545a:	e7cd      	b.n	80053f8 <f_mkfs+0x592>
 800545c:	220c      	movs	r2, #12
 800545e:	e7e5      	b.n	800542c <f_mkfs+0x5c6>
 8005460:	2206      	movs	r2, #6
 8005462:	e7e3      	b.n	800542c <f_mkfs+0x5c6>
 8005464:	2201      	movs	r2, #1
 8005466:	e7e1      	b.n	800542c <f_mkfs+0x5c6>
 8005468:	2301      	movs	r3, #1
 800546a:	e002      	b.n	8005472 <f_mkfs+0x60c>
 800546c:	230b      	movs	r3, #11
 800546e:	e000      	b.n	8005472 <f_mkfs+0x60c>
 8005470:	2303      	movs	r3, #3
 8005472:	4618      	mov	r0, r3
 8005474:	b00f      	add	sp, #60	; 0x3c
 8005476:	e8bd 8ff0 	ldmia.w	sp!, {r4, r5, r6, r7, r8, r9, sl, fp, pc}
 800547a:	230a      	movs	r3, #10
 800547c:	e7f9      	b.n	8005472 <f_mkfs+0x60c>
 800547e:	2311      	movs	r3, #17
 8005480:	e7f7      	b.n	8005472 <f_mkfs+0x60c>
 8005482:	2311      	movs	r3, #17
 8005484:	e7f5      	b.n	8005472 <f_mkfs+0x60c>
 8005486:	2301      	movs	r3, #1
 8005488:	e7f3      	b.n	8005472 <f_mkfs+0x60c>
 800548a:	230e      	movs	r3, #14
 800548c:	e7f1      	b.n	8005472 <f_mkfs+0x60c>
 800548e:	2313      	movs	r3, #19
 8005490:	e7ef      	b.n	8005472 <f_mkfs+0x60c>
 8005492:	230e      	movs	r3, #14
 8005494:	e7ed      	b.n	8005472 <f_mkfs+0x60c>
 8005496:	230e      	movs	r3, #14
 8005498:	e7eb      	b.n	8005472 <f_mkfs+0x60c>
 800549a:	230e      	movs	r3, #14
 800549c:	e7e9      	b.n	8005472 <f_mkfs+0x60c>
 800549e:	230e      	movs	r3, #14
 80054a0:	e7e7      	b.n	8005472 <f_mkfs+0x60c>
 80054a2:	230e      	movs	r3, #14
 80054a4:	e7e5      	b.n	8005472 <f_mkfs+0x60c>
 80054a6:	230e      	movs	r3, #14
 80054a8:	e7e3      	b.n	8005472 <f_mkfs+0x60c>
 80054aa:	2301      	movs	r3, #1
 80054ac:	e7e1      	b.n	8005472 <f_mkfs+0x60c>
 80054ae:	2301      	movs	r3, #1
 80054b0:	e7df      	b.n	8005472 <f_mkfs+0x60c>
 80054b2:	2301      	movs	r3, #1
 80054b4:	e7dd      	b.n	8005472 <f_mkfs+0x60c>

080054b6 <ff_uni2oem>:
 80054b6:	287f      	cmp	r0, #127	; 0x7f
 80054b8:	d907      	bls.n	80054ca <ff_uni2oem+0x14>
 80054ba:	f5b0 3f80 	cmp.w	r0, #65536	; 0x10000
 80054be:	d229      	bcs.n	8005514 <ff_uni2oem+0x5e>
 80054c0:	f5b1 7f69 	cmp.w	r1, #932	; 0x3a4
 80054c4:	d003      	beq.n	80054ce <ff_uni2oem+0x18>
 80054c6:	2000      	movs	r0, #0
 80054c8:	4770      	bx	lr
 80054ca:	b280      	uxth	r0, r0
 80054cc:	4770      	bx	lr
 80054ce:	b430      	push	{r4, r5}
 80054d0:	b280      	uxth	r0, r0
 80054d2:	f641 45dd 	movw	r5, #7389	; 0x1cdd
 80054d6:	2400      	movs	r4, #0
 80054d8:	2110      	movs	r1, #16
 80054da:	4623      	mov	r3, r4
 80054dc:	e001      	b.n	80054e2 <ff_uni2oem+0x2c>
 80054de:	461d      	mov	r5, r3
 80054e0:	3901      	subs	r1, #1
 80054e2:	b169      	cbz	r1, 8005500 <ff_uni2oem+0x4a>
 80054e4:	1b2b      	subs	r3, r5, r4
 80054e6:	eb04 0353 	add.w	r3, r4, r3, lsr #1
 80054ea:	f240 32bc 	movw	r2, #956	; 0x3bc
 80054ee:	f6c0 0201 	movt	r2, #2049	; 0x801
 80054f2:	f832 2023 	ldrh.w	r2, [r2, r3, lsl #2]
 80054f6:	4282      	cmp	r2, r0
 80054f8:	d002      	beq.n	8005500 <ff_uni2oem+0x4a>
 80054fa:	d2f0      	bcs.n	80054de <ff_uni2oem+0x28>
 80054fc:	461c      	mov	r4, r3
 80054fe:	e7ef      	b.n	80054e0 <ff_uni2oem+0x2a>
 8005500:	b151      	cbz	r1, 8005518 <ff_uni2oem+0x62>
 8005502:	009b      	lsls	r3, r3, #2
 8005504:	3302      	adds	r3, #2
 8005506:	f240 32bc 	movw	r2, #956	; 0x3bc
 800550a:	f6c0 0201 	movt	r2, #2049	; 0x801
 800550e:	5a98      	ldrh	r0, [r3, r2]
 8005510:	bc30      	pop	{r4, r5}
 8005512:	4770      	bx	lr
 8005514:	2000      	movs	r0, #0
 8005516:	4770      	bx	lr
 8005518:	2000      	movs	r0, #0
 800551a:	e7f9      	b.n	8005510 <ff_uni2oem+0x5a>

0800551c <ff_oem2uni>:
 800551c:	287f      	cmp	r0, #127	; 0x7f
 800551e:	d928      	bls.n	8005572 <ff_oem2uni+0x56>
 8005520:	f5b1 7f69 	cmp.w	r1, #932	; 0x3a4
 8005524:	d012      	beq.n	800554c <ff_oem2uni+0x30>
 8005526:	2000      	movs	r0, #0
 8005528:	4770      	bx	lr
 800552a:	461d      	mov	r5, r3
 800552c:	3901      	subs	r1, #1
 800552e:	b1a1      	cbz	r1, 800555a <ff_oem2uni+0x3e>
 8005530:	1b2b      	subs	r3, r5, r4
 8005532:	eb04 0353 	add.w	r3, r4, r3, lsr #1
 8005536:	f249 0244 	movw	r2, #36932	; 0x9044
 800553a:	f6c0 0200 	movt	r2, #2048	; 0x800
 800553e:	f832 2023 	ldrh.w	r2, [r2, r3, lsl #2]
 8005542:	4282      	cmp	r2, r0
 8005544:	d009      	beq.n	800555a <ff_oem2uni+0x3e>
 8005546:	d2f0      	bcs.n	800552a <ff_oem2uni+0xe>
 8005548:	461c      	mov	r4, r3
 800554a:	e7ef      	b.n	800552c <ff_oem2uni+0x10>
 800554c:	b430      	push	{r4, r5}
 800554e:	f641 45dd 	movw	r5, #7389	; 0x1cdd
 8005552:	2400      	movs	r4, #0
 8005554:	2110      	movs	r1, #16
 8005556:	4623      	mov	r3, r4
 8005558:	e7e9      	b.n	800552e <ff_oem2uni+0x12>
 800555a:	b141      	cbz	r1, 800556e <ff_oem2uni+0x52>
 800555c:	009b      	lsls	r3, r3, #2
 800555e:	3302      	adds	r3, #2
 8005560:	f249 0244 	movw	r2, #36932	; 0x9044
 8005564:	f6c0 0200 	movt	r2, #2048	; 0x800
 8005568:	5a98      	ldrh	r0, [r3, r2]
 800556a:	bc30      	pop	{r4, r5}
 800556c:	4770      	bx	lr
 800556e:	2000      	movs	r0, #0
 8005570:	e7fb      	b.n	800556a <ff_oem2uni+0x4e>
 8005572:	4770      	bx	lr

08005574 <ff_wtoupper>:
 8005574:	f5b0 3f80 	cmp.w	r0, #65536	; 0x10000
 8005578:	d24b      	bcs.n	8005612 <ff_wtoupper+0x9e>
 800557a:	b4f0      	push	{r4, r5, r6, r7}
 800557c:	b287      	uxth	r7, r0
 800557e:	f5b7 5f80 	cmp.w	r7, #4096	; 0x1000
 8005582:	d204      	bcs.n	800558e <ff_wtoupper+0x1a>
 8005584:	f648 5394 	movw	r3, #36244	; 0x8d94
 8005588:	f6c0 0300 	movt	r3, #2048	; 0x800
 800558c:	e005      	b.n	800559a <ff_wtoupper+0x26>
 800558e:	f648 7388 	movw	r3, #36744	; 0x8f88
 8005592:	f6c0 0300 	movt	r3, #2048	; 0x800
 8005596:	e000      	b.n	800559a <ff_wtoupper+0x26>
 8005598:	4633      	mov	r3, r6
 800559a:	881a      	ldrh	r2, [r3, #0]
 800559c:	b1d2      	cbz	r2, 80055d4 <ff_wtoupper+0x60>
 800559e:	4297      	cmp	r7, r2
 80055a0:	d318      	bcc.n	80055d4 <ff_wtoupper+0x60>
 80055a2:	1d1e      	adds	r6, r3, #4
 80055a4:	885b      	ldrh	r3, [r3, #2]
 80055a6:	0a19      	lsrs	r1, r3, #8
 80055a8:	b2db      	uxtb	r3, r3
 80055aa:	b284      	uxth	r4, r0
 80055ac:	189d      	adds	r5, r3, r2
 80055ae:	42ac      	cmp	r4, r5
 80055b0:	db04      	blt.n	80055bc <ff_wtoupper+0x48>
 80055b2:	2900      	cmp	r1, #0
 80055b4:	d1f0      	bne.n	8005598 <ff_wtoupper+0x24>
 80055b6:	eb06 0343 	add.w	r3, r6, r3, lsl #1
 80055ba:	e7ee      	b.n	800559a <ff_wtoupper+0x26>
 80055bc:	2908      	cmp	r1, #8
 80055be:	d809      	bhi.n	80055d4 <ff_wtoupper+0x60>
 80055c0:	e8df f001 	tbb	[pc, r1]
 80055c4:	14110b05 	.word	0x14110b05
 80055c8:	201d1a17 	.word	0x201d1a17
 80055cc:	23          	.byte	0x23
 80055cd:	00          	.byte	0x00
 80055ce:	1aa4      	subs	r4, r4, r2
 80055d0:	f836 7014 	ldrh.w	r7, [r6, r4, lsl #1]
 80055d4:	4638      	mov	r0, r7
 80055d6:	bcf0      	pop	{r4, r5, r6, r7}
 80055d8:	4770      	bx	lr
 80055da:	1aba      	subs	r2, r7, r2
 80055dc:	f002 0301 	and.w	r3, r2, #1
 80055e0:	1aff      	subs	r7, r7, r3
 80055e2:	b2bf      	uxth	r7, r7
 80055e4:	e7f6      	b.n	80055d4 <ff_wtoupper+0x60>
 80055e6:	3f10      	subs	r7, #16
 80055e8:	b2bf      	uxth	r7, r7
 80055ea:	e7f3      	b.n	80055d4 <ff_wtoupper+0x60>
 80055ec:	3f20      	subs	r7, #32
 80055ee:	b2bf      	uxth	r7, r7
 80055f0:	e7f0      	b.n	80055d4 <ff_wtoupper+0x60>
 80055f2:	3f30      	subs	r7, #48	; 0x30
 80055f4:	b2bf      	uxth	r7, r7
 80055f6:	e7ed      	b.n	80055d4 <ff_wtoupper+0x60>
 80055f8:	3f1a      	subs	r7, #26
 80055fa:	b2bf      	uxth	r7, r7
 80055fc:	e7ea      	b.n	80055d4 <ff_wtoupper+0x60>
 80055fe:	3708      	adds	r7, #8
 8005600:	b2bf      	uxth	r7, r7
 8005602:	e7e7      	b.n	80055d4 <ff_wtoupper+0x60>
 8005604:	3f50      	subs	r7, #80	; 0x50
 8005606:	b2bf      	uxth	r7, r7
 8005608:	e7e4      	b.n	80055d4 <ff_wtoupper+0x60>
 800560a:	f5a7 57e3 	sub.w	r7, r7, #7264	; 0x1c60
 800560e:	b2bf      	uxth	r7, r7
 8005610:	e7e0      	b.n	80055d4 <ff_wtoupper+0x60>
 8005612:	4770      	bx	lr

08005614 <__errno>:
 8005614:	4b01      	ldr	r3, [pc, #4]	; (800561c <__errno+0x8>)
 8005616:	6818      	ldr	r0, [r3, #0]
 8005618:	4770      	bx	lr
 800561a:	bf00      	nop
 800561c:	20000014 	.word	0x20000014

08005620 <__libc_init_array>:
 8005620:	b570      	push	{r4, r5, r6, lr}
 8005622:	4e0d      	ldr	r6, [pc, #52]	; (8005658 <__libc_init_array+0x38>)
 8005624:	4c0d      	ldr	r4, [pc, #52]	; (800565c <__libc_init_array+0x3c>)
 8005626:	1ba4      	subs	r4, r4, r6
 8005628:	10a4      	asrs	r4, r4, #2
 800562a:	2500      	movs	r5, #0
 800562c:	42a5      	cmp	r5, r4
 800562e:	d109      	bne.n	8005644 <__libc_init_array+0x24>
 8005630:	4e0b      	ldr	r6, [pc, #44]	; (8005660 <__libc_init_array+0x40>)
 8005632:	4c0c      	ldr	r4, [pc, #48]	; (8005664 <__libc_init_array+0x44>)
 8005634:	f002 f860 	bl	80076f8 <_init>
 8005638:	1ba4      	subs	r4, r4, r6
 800563a:	10a4      	asrs	r4, r4, #2
 800563c:	2500      	movs	r5, #0
 800563e:	42a5      	cmp	r5, r4
 8005640:	d105      	bne.n	800564e <__libc_init_array+0x2e>
 8005642:	bd70      	pop	{r4, r5, r6, pc}
 8005644:	f856 3025 	ldr.w	r3, [r6, r5, lsl #2]
 8005648:	4798      	blx	r3
 800564a:	3501      	adds	r5, #1
 800564c:	e7ee      	b.n	800562c <__libc_init_array+0xc>
 800564e:	f856 3025 	ldr.w	r3, [r6, r5, lsl #2]
 8005652:	4798      	blx	r3
 8005654:	3501      	adds	r5, #1
 8005656:	e7f2      	b.n	800563e <__libc_init_array+0x1e>
 8005658:	08017990 	.word	0x08017990
 800565c:	08017990 	.word	0x08017990
 8005660:	08017990 	.word	0x08017990
 8005664:	08017994 	.word	0x08017994

08005668 <malloc>:
 8005668:	4b02      	ldr	r3, [pc, #8]	; (8005674 <malloc+0xc>)
 800566a:	4601      	mov	r1, r0
 800566c:	6818      	ldr	r0, [r3, #0]
 800566e:	f000 b877 	b.w	8005760 <_malloc_r>
 8005672:	bf00      	nop
 8005674:	20000014 	.word	0x20000014

08005678 <__ascii_mbtowc>:
 8005678:	b082      	sub	sp, #8
 800567a:	b901      	cbnz	r1, 800567e <__ascii_mbtowc+0x6>
 800567c:	a901      	add	r1, sp, #4
 800567e:	b142      	cbz	r2, 8005692 <__ascii_mbtowc+0x1a>
 8005680:	b14b      	cbz	r3, 8005696 <__ascii_mbtowc+0x1e>
 8005682:	7813      	ldrb	r3, [r2, #0]
 8005684:	600b      	str	r3, [r1, #0]
 8005686:	7812      	ldrb	r2, [r2, #0]
 8005688:	1c10      	adds	r0, r2, #0
 800568a:	bf18      	it	ne
 800568c:	2001      	movne	r0, #1
 800568e:	b002      	add	sp, #8
 8005690:	4770      	bx	lr
 8005692:	4610      	mov	r0, r2
 8005694:	e7fb      	b.n	800568e <__ascii_mbtowc+0x16>
 8005696:	f06f 0001 	mvn.w	r0, #1
 800569a:	e7f8      	b.n	800568e <__ascii_mbtowc+0x16>

0800569c <memcpy>:
 800569c:	b510      	push	{r4, lr}
 800569e:	1e43      	subs	r3, r0, #1
 80056a0:	440a      	add	r2, r1
 80056a2:	4291      	cmp	r1, r2
 80056a4:	d100      	bne.n	80056a8 <memcpy+0xc>
 80056a6:	bd10      	pop	{r4, pc}
 80056a8:	f811 4b01 	ldrb.w	r4, [r1], #1
 80056ac:	f803 4f01 	strb.w	r4, [r3, #1]!
 80056b0:	e7f7      	b.n	80056a2 <memcpy+0x6>

080056b2 <memset>:
 80056b2:	4402      	add	r2, r0
 80056b4:	4603      	mov	r3, r0
 80056b6:	4293      	cmp	r3, r2
 80056b8:	d100      	bne.n	80056bc <memset+0xa>
 80056ba:	4770      	bx	lr
 80056bc:	f803 1b01 	strb.w	r1, [r3], #1
 80056c0:	e7f9      	b.n	80056b6 <memset+0x4>
	...

080056c4 <_free_r>:
 80056c4:	b538      	push	{r3, r4, r5, lr}
 80056c6:	4605      	mov	r5, r0
 80056c8:	2900      	cmp	r1, #0
 80056ca:	d045      	beq.n	8005758 <_free_r+0x94>
 80056cc:	f851 3c04 	ldr.w	r3, [r1, #-4]
 80056d0:	1f0c      	subs	r4, r1, #4
 80056d2:	2b00      	cmp	r3, #0
 80056d4:	bfb8      	it	lt
 80056d6:	18e4      	addlt	r4, r4, r3
 80056d8:	f001 fb88 	bl	8006dec <__malloc_lock>
 80056dc:	4a1f      	ldr	r2, [pc, #124]	; (800575c <_free_r+0x98>)
 80056de:	6813      	ldr	r3, [r2, #0]
 80056e0:	4610      	mov	r0, r2
 80056e2:	b933      	cbnz	r3, 80056f2 <_free_r+0x2e>
 80056e4:	6063      	str	r3, [r4, #4]
 80056e6:	6014      	str	r4, [r2, #0]
 80056e8:	4628      	mov	r0, r5
 80056ea:	e8bd 4038 	ldmia.w	sp!, {r3, r4, r5, lr}
 80056ee:	f001 bb7e 	b.w	8006dee <__malloc_unlock>
 80056f2:	42a3      	cmp	r3, r4
 80056f4:	d90c      	bls.n	8005710 <_free_r+0x4c>
 80056f6:	6821      	ldr	r1, [r4, #0]
 80056f8:	1862      	adds	r2, r4, r1
 80056fa:	4293      	cmp	r3, r2
 80056fc:	bf04      	itt	eq
 80056fe:	681a      	ldreq	r2, [r3, #0]
 8005700:	685b      	ldreq	r3, [r3, #4]
 8005702:	6063      	str	r3, [r4, #4]
 8005704:	bf04      	itt	eq
 8005706:	1852      	addeq	r2, r2, r1
 8005708:	6022      	streq	r2, [r4, #0]
 800570a:	6004      	str	r4, [r0, #0]
 800570c:	e7ec      	b.n	80056e8 <_free_r+0x24>
 800570e:	4613      	mov	r3, r2
 8005710:	685a      	ldr	r2, [r3, #4]
 8005712:	b10a      	cbz	r2, 8005718 <_free_r+0x54>
 8005714:	42a2      	cmp	r2, r4
 8005716:	d9fa      	bls.n	800570e <_free_r+0x4a>
 8005718:	6819      	ldr	r1, [r3, #0]
 800571a:	1858      	adds	r0, r3, r1
 800571c:	42a0      	cmp	r0, r4
 800571e:	d10b      	bne.n	8005738 <_free_r+0x74>
 8005720:	6820      	ldr	r0, [r4, #0]
 8005722:	4401      	add	r1, r0
 8005724:	1858      	adds	r0, r3, r1
 8005726:	4282      	cmp	r2, r0
 8005728:	6019      	str	r1, [r3, #0]
 800572a:	d1dd      	bne.n	80056e8 <_free_r+0x24>
 800572c:	6810      	ldr	r0, [r2, #0]
 800572e:	6852      	ldr	r2, [r2, #4]
 8005730:	605a      	str	r2, [r3, #4]
 8005732:	4401      	add	r1, r0
 8005734:	6019      	str	r1, [r3, #0]
 8005736:	e7d7      	b.n	80056e8 <_free_r+0x24>
 8005738:	d902      	bls.n	8005740 <_free_r+0x7c>
 800573a:	230c      	movs	r3, #12
 800573c:	602b      	str	r3, [r5, #0]
 800573e:	e7d3      	b.n	80056e8 <_free_r+0x24>
 8005740:	6820      	ldr	r0, [r4, #0]
 8005742:	1821      	adds	r1, r4, r0
 8005744:	428a      	cmp	r2, r1
 8005746:	bf04      	itt	eq
 8005748:	6811      	ldreq	r1, [r2, #0]
 800574a:	6852      	ldreq	r2, [r2, #4]
 800574c:	6062      	str	r2, [r4, #4]
 800574e:	bf04      	itt	eq
 8005750:	1809      	addeq	r1, r1, r0
 8005752:	6021      	streq	r1, [r4, #0]
 8005754:	605c      	str	r4, [r3, #4]
 8005756:	e7c7      	b.n	80056e8 <_free_r+0x24>
 8005758:	bd38      	pop	{r3, r4, r5, pc}
 800575a:	bf00      	nop
 800575c:	20000468 	.word	0x20000468

08005760 <_malloc_r>:
 8005760:	b570      	push	{r4, r5, r6, lr}
 8005762:	1ccd      	adds	r5, r1, #3
 8005764:	f025 0503 	bic.w	r5, r5, #3
 8005768:	3508      	adds	r5, #8
 800576a:	2d0c      	cmp	r5, #12
 800576c:	bf38      	it	cc
 800576e:	250c      	movcc	r5, #12
 8005770:	2d00      	cmp	r5, #0
 8005772:	4606      	mov	r6, r0
 8005774:	db01      	blt.n	800577a <_malloc_r+0x1a>
 8005776:	42a9      	cmp	r1, r5
 8005778:	d903      	bls.n	8005782 <_malloc_r+0x22>
 800577a:	230c      	movs	r3, #12
 800577c:	6033      	str	r3, [r6, #0]
 800577e:	2000      	movs	r0, #0
 8005780:	bd70      	pop	{r4, r5, r6, pc}
 8005782:	f001 fb33 	bl	8006dec <__malloc_lock>
 8005786:	4a21      	ldr	r2, [pc, #132]	; (800580c <_malloc_r+0xac>)
 8005788:	6814      	ldr	r4, [r2, #0]
 800578a:	4621      	mov	r1, r4
 800578c:	b991      	cbnz	r1, 80057b4 <_malloc_r+0x54>
 800578e:	4c20      	ldr	r4, [pc, #128]	; (8005810 <_malloc_r+0xb0>)
 8005790:	6823      	ldr	r3, [r4, #0]
 8005792:	b91b      	cbnz	r3, 800579c <_malloc_r+0x3c>
 8005794:	4630      	mov	r0, r6
 8005796:	f000 fc99 	bl	80060cc <_sbrk_r>
 800579a:	6020      	str	r0, [r4, #0]
 800579c:	4629      	mov	r1, r5
 800579e:	4630      	mov	r0, r6
 80057a0:	f000 fc94 	bl	80060cc <_sbrk_r>
 80057a4:	1c43      	adds	r3, r0, #1
 80057a6:	d124      	bne.n	80057f2 <_malloc_r+0x92>
 80057a8:	230c      	movs	r3, #12
 80057aa:	6033      	str	r3, [r6, #0]
 80057ac:	4630      	mov	r0, r6
 80057ae:	f001 fb1e 	bl	8006dee <__malloc_unlock>
 80057b2:	e7e4      	b.n	800577e <_malloc_r+0x1e>
 80057b4:	680b      	ldr	r3, [r1, #0]
 80057b6:	1b5b      	subs	r3, r3, r5
 80057b8:	d418      	bmi.n	80057ec <_malloc_r+0x8c>
 80057ba:	2b0b      	cmp	r3, #11
 80057bc:	d90f      	bls.n	80057de <_malloc_r+0x7e>
 80057be:	600b      	str	r3, [r1, #0]
 80057c0:	50cd      	str	r5, [r1, r3]
 80057c2:	18cc      	adds	r4, r1, r3
 80057c4:	4630      	mov	r0, r6
 80057c6:	f001 fb12 	bl	8006dee <__malloc_unlock>
 80057ca:	f104 000b 	add.w	r0, r4, #11
 80057ce:	1d23      	adds	r3, r4, #4
 80057d0:	f020 0007 	bic.w	r0, r0, #7
 80057d4:	1ac3      	subs	r3, r0, r3
 80057d6:	d0d3      	beq.n	8005780 <_malloc_r+0x20>
 80057d8:	425a      	negs	r2, r3
 80057da:	50e2      	str	r2, [r4, r3]
 80057dc:	e7d0      	b.n	8005780 <_malloc_r+0x20>
 80057de:	428c      	cmp	r4, r1
 80057e0:	684b      	ldr	r3, [r1, #4]
 80057e2:	bf16      	itet	ne
 80057e4:	6063      	strne	r3, [r4, #4]
 80057e6:	6013      	streq	r3, [r2, #0]
 80057e8:	460c      	movne	r4, r1
 80057ea:	e7eb      	b.n	80057c4 <_malloc_r+0x64>
 80057ec:	460c      	mov	r4, r1
 80057ee:	6849      	ldr	r1, [r1, #4]
 80057f0:	e7cc      	b.n	800578c <_malloc_r+0x2c>
 80057f2:	1cc4      	adds	r4, r0, #3
 80057f4:	f024 0403 	bic.w	r4, r4, #3
 80057f8:	42a0      	cmp	r0, r4
 80057fa:	d005      	beq.n	8005808 <_malloc_r+0xa8>
 80057fc:	1a21      	subs	r1, r4, r0
 80057fe:	4630      	mov	r0, r6
 8005800:	f000 fc64 	bl	80060cc <_sbrk_r>
 8005804:	3001      	adds	r0, #1
 8005806:	d0cf      	beq.n	80057a8 <_malloc_r+0x48>
 8005808:	6025      	str	r5, [r4, #0]
 800580a:	e7db      	b.n	80057c4 <_malloc_r+0x64>
 800580c:	20000468 	.word	0x20000468
 8005810:	2000046c 	.word	0x2000046c

08005814 <__cvt>:
 8005814:	e92d 47ff 	stmdb	sp!, {r0, r1, r2, r3, r4, r5, r6, r7, r8, r9, sl, lr}
 8005818:	ec55 4b10 	vmov	r4, r5, d0
 800581c:	9f0d      	ldr	r7, [sp, #52]	; 0x34
 800581e:	f8dd a030 	ldr.w	sl, [sp, #48]	; 0x30
 8005822:	2d00      	cmp	r5, #0
 8005824:	460e      	mov	r6, r1
 8005826:	4691      	mov	r9, r2
 8005828:	4619      	mov	r1, r3
 800582a:	bfb8      	it	lt
 800582c:	4622      	movlt	r2, r4
 800582e:	462b      	mov	r3, r5
 8005830:	f027 0720 	bic.w	r7, r7, #32
 8005834:	bfbb      	ittet	lt
 8005836:	f105 4300 	addlt.w	r3, r5, #2147483648	; 0x80000000
 800583a:	461d      	movlt	r5, r3
 800583c:	2300      	movge	r3, #0
 800583e:	232d      	movlt	r3, #45	; 0x2d
 8005840:	bfb8      	it	lt
 8005842:	4614      	movlt	r4, r2
 8005844:	2f46      	cmp	r7, #70	; 0x46
 8005846:	700b      	strb	r3, [r1, #0]
 8005848:	d004      	beq.n	8005854 <__cvt+0x40>
 800584a:	2f45      	cmp	r7, #69	; 0x45
 800584c:	d100      	bne.n	8005850 <__cvt+0x3c>
 800584e:	3601      	adds	r6, #1
 8005850:	2102      	movs	r1, #2
 8005852:	e000      	b.n	8005856 <__cvt+0x42>
 8005854:	2103      	movs	r1, #3
 8005856:	ab03      	add	r3, sp, #12
 8005858:	9301      	str	r3, [sp, #4]
 800585a:	ab02      	add	r3, sp, #8
 800585c:	9300      	str	r3, [sp, #0]
 800585e:	4632      	mov	r2, r6
 8005860:	4653      	mov	r3, sl
 8005862:	ec45 4b10 	vmov	d0, r4, r5
 8005866:	f000 fcfb 	bl	8006260 <_dtoa_r>
 800586a:	2f47      	cmp	r7, #71	; 0x47
 800586c:	4680      	mov	r8, r0
 800586e:	d102      	bne.n	8005876 <__cvt+0x62>
 8005870:	f019 0f01 	tst.w	r9, #1
 8005874:	d026      	beq.n	80058c4 <__cvt+0xb0>
 8005876:	2f46      	cmp	r7, #70	; 0x46
 8005878:	eb08 0906 	add.w	r9, r8, r6
 800587c:	d111      	bne.n	80058a2 <__cvt+0x8e>
 800587e:	f898 3000 	ldrb.w	r3, [r8]
 8005882:	2b30      	cmp	r3, #48	; 0x30
 8005884:	d10a      	bne.n	800589c <__cvt+0x88>
 8005886:	2200      	movs	r2, #0
 8005888:	2300      	movs	r3, #0
 800588a:	4620      	mov	r0, r4
 800588c:	4629      	mov	r1, r5
 800588e:	f7fb f933 	bl	8000af8 <__aeabi_dcmpeq>
 8005892:	b918      	cbnz	r0, 800589c <__cvt+0x88>
 8005894:	f1c6 0601 	rsb	r6, r6, #1
 8005898:	f8ca 6000 	str.w	r6, [sl]
 800589c:	f8da 3000 	ldr.w	r3, [sl]
 80058a0:	4499      	add	r9, r3
 80058a2:	2200      	movs	r2, #0
 80058a4:	2300      	movs	r3, #0
 80058a6:	4620      	mov	r0, r4
 80058a8:	4629      	mov	r1, r5
 80058aa:	f7fb f925 	bl	8000af8 <__aeabi_dcmpeq>
 80058ae:	b938      	cbnz	r0, 80058c0 <__cvt+0xac>
 80058b0:	2230      	movs	r2, #48	; 0x30
 80058b2:	9b03      	ldr	r3, [sp, #12]
 80058b4:	454b      	cmp	r3, r9
 80058b6:	d205      	bcs.n	80058c4 <__cvt+0xb0>
 80058b8:	1c59      	adds	r1, r3, #1
 80058ba:	9103      	str	r1, [sp, #12]
 80058bc:	701a      	strb	r2, [r3, #0]
 80058be:	e7f8      	b.n	80058b2 <__cvt+0x9e>
 80058c0:	f8cd 900c 	str.w	r9, [sp, #12]
 80058c4:	9b03      	ldr	r3, [sp, #12]
 80058c6:	9a0e      	ldr	r2, [sp, #56]	; 0x38
 80058c8:	eba3 0308 	sub.w	r3, r3, r8
 80058cc:	4640      	mov	r0, r8
 80058ce:	6013      	str	r3, [r2, #0]
 80058d0:	b004      	add	sp, #16
 80058d2:	e8bd 87f0 	ldmia.w	sp!, {r4, r5, r6, r7, r8, r9, sl, pc}

080058d6 <__exponent>:
 80058d6:	b5f7      	push	{r0, r1, r2, r4, r5, r6, r7, lr}
 80058d8:	2900      	cmp	r1, #0
 80058da:	4604      	mov	r4, r0
 80058dc:	bfba      	itte	lt
 80058de:	4249      	neglt	r1, r1
 80058e0:	232d      	movlt	r3, #45	; 0x2d
 80058e2:	232b      	movge	r3, #43	; 0x2b
 80058e4:	2909      	cmp	r1, #9
 80058e6:	f804 2b02 	strb.w	r2, [r4], #2
 80058ea:	7043      	strb	r3, [r0, #1]
 80058ec:	dd20      	ble.n	8005930 <__exponent+0x5a>
 80058ee:	f10d 0307 	add.w	r3, sp, #7
 80058f2:	461f      	mov	r7, r3
 80058f4:	260a      	movs	r6, #10
 80058f6:	fb91 f5f6 	sdiv	r5, r1, r6
 80058fa:	fb06 1115 	mls	r1, r6, r5, r1
 80058fe:	3130      	adds	r1, #48	; 0x30
 8005900:	2d09      	cmp	r5, #9
 8005902:	f803 1c01 	strb.w	r1, [r3, #-1]
 8005906:	f103 32ff 	add.w	r2, r3, #4294967295
 800590a:	4629      	mov	r1, r5
 800590c:	dc09      	bgt.n	8005922 <__exponent+0x4c>
 800590e:	3130      	adds	r1, #48	; 0x30
 8005910:	3b02      	subs	r3, #2
 8005912:	f802 1c01 	strb.w	r1, [r2, #-1]
 8005916:	42bb      	cmp	r3, r7
 8005918:	4622      	mov	r2, r4
 800591a:	d304      	bcc.n	8005926 <__exponent+0x50>
 800591c:	1a10      	subs	r0, r2, r0
 800591e:	b003      	add	sp, #12
 8005920:	bdf0      	pop	{r4, r5, r6, r7, pc}
 8005922:	4613      	mov	r3, r2
 8005924:	e7e7      	b.n	80058f6 <__exponent+0x20>
 8005926:	f813 2b01 	ldrb.w	r2, [r3], #1
 800592a:	f804 2b01 	strb.w	r2, [r4], #1
 800592e:	e7f2      	b.n	8005916 <__exponent+0x40>
 8005930:	2330      	movs	r3, #48	; 0x30
 8005932:	4419      	add	r1, r3
 8005934:	7083      	strb	r3, [r0, #2]
 8005936:	1d02      	adds	r2, r0, #4
 8005938:	70c1      	strb	r1, [r0, #3]
 800593a:	e7ef      	b.n	800591c <__exponent+0x46>

0800593c <_printf_float>:
 800593c:	e92d 4ff0 	stmdb	sp!, {r4, r5, r6, r7, r8, r9, sl, fp, lr}
 8005940:	b08d      	sub	sp, #52	; 0x34
 8005942:	460c      	mov	r4, r1
 8005944:	f8dd 8058 	ldr.w	r8, [sp, #88]	; 0x58
 8005948:	4616      	mov	r6, r2
 800594a:	461f      	mov	r7, r3
 800594c:	4605      	mov	r5, r0
 800594e:	f001 fa3f 	bl	8006dd0 <_localeconv_r>
 8005952:	6803      	ldr	r3, [r0, #0]
 8005954:	9304      	str	r3, [sp, #16]
 8005956:	4618      	mov	r0, r3
 8005958:	f7fa fc52 	bl	8000200 <strlen>
 800595c:	2300      	movs	r3, #0
 800595e:	930a      	str	r3, [sp, #40]	; 0x28
 8005960:	f8d8 3000 	ldr.w	r3, [r8]
 8005964:	9005      	str	r0, [sp, #20]
 8005966:	3307      	adds	r3, #7
 8005968:	f023 0307 	bic.w	r3, r3, #7
 800596c:	f103 0208 	add.w	r2, r3, #8
 8005970:	f894 a018 	ldrb.w	sl, [r4, #24]
 8005974:	f8d4 b000 	ldr.w	fp, [r4]
 8005978:	f8c8 2000 	str.w	r2, [r8]
 800597c:	e9d3 2300 	ldrd	r2, r3, [r3]
 8005980:	e9c4 2312 	strd	r2, r3, [r4, #72]	; 0x48
 8005984:	e9d4 8912 	ldrd	r8, r9, [r4, #72]	; 0x48
 8005988:	f029 4300 	bic.w	r3, r9, #2147483648	; 0x80000000
 800598c:	9307      	str	r3, [sp, #28]
 800598e:	f8cd 8018 	str.w	r8, [sp, #24]
 8005992:	f04f 32ff 	mov.w	r2, #4294967295
 8005996:	4ba7      	ldr	r3, [pc, #668]	; (8005c34 <_printf_float+0x2f8>)
 8005998:	e9dd 0106 	ldrd	r0, r1, [sp, #24]
 800599c:	f7fb f8de 	bl	8000b5c <__aeabi_dcmpun>
 80059a0:	bb70      	cbnz	r0, 8005a00 <_printf_float+0xc4>
 80059a2:	f04f 32ff 	mov.w	r2, #4294967295
 80059a6:	4ba3      	ldr	r3, [pc, #652]	; (8005c34 <_printf_float+0x2f8>)
 80059a8:	e9dd 0106 	ldrd	r0, r1, [sp, #24]
 80059ac:	f7fb f8b8 	bl	8000b20 <__aeabi_dcmple>
 80059b0:	bb30      	cbnz	r0, 8005a00 <_printf_float+0xc4>
 80059b2:	2200      	movs	r2, #0
 80059b4:	2300      	movs	r3, #0
 80059b6:	4640      	mov	r0, r8
 80059b8:	4649      	mov	r1, r9
 80059ba:	f7fb f8a7 	bl	8000b0c <__aeabi_dcmplt>
 80059be:	b110      	cbz	r0, 80059c6 <_printf_float+0x8a>
 80059c0:	232d      	movs	r3, #45	; 0x2d
 80059c2:	f884 3043 	strb.w	r3, [r4, #67]	; 0x43
 80059c6:	4a9c      	ldr	r2, [pc, #624]	; (8005c38 <_printf_float+0x2fc>)
 80059c8:	4b9c      	ldr	r3, [pc, #624]	; (8005c3c <_printf_float+0x300>)
 80059ca:	f1ba 0f47 	cmp.w	sl, #71	; 0x47
 80059ce:	bf8c      	ite	hi
 80059d0:	4690      	movhi	r8, r2
 80059d2:	4698      	movls	r8, r3
 80059d4:	2303      	movs	r3, #3
 80059d6:	f02b 0204 	bic.w	r2, fp, #4
 80059da:	6123      	str	r3, [r4, #16]
 80059dc:	6022      	str	r2, [r4, #0]
 80059de:	f04f 0900 	mov.w	r9, #0
 80059e2:	9700      	str	r7, [sp, #0]
 80059e4:	4633      	mov	r3, r6
 80059e6:	aa0b      	add	r2, sp, #44	; 0x2c
 80059e8:	4621      	mov	r1, r4
 80059ea:	4628      	mov	r0, r5
 80059ec:	f000 f9e6 	bl	8005dbc <_printf_common>
 80059f0:	3001      	adds	r0, #1
 80059f2:	f040 808d 	bne.w	8005b10 <_printf_float+0x1d4>
 80059f6:	f04f 30ff 	mov.w	r0, #4294967295
 80059fa:	b00d      	add	sp, #52	; 0x34
 80059fc:	e8bd 8ff0 	ldmia.w	sp!, {r4, r5, r6, r7, r8, r9, sl, fp, pc}
 8005a00:	4642      	mov	r2, r8
 8005a02:	464b      	mov	r3, r9
 8005a04:	4640      	mov	r0, r8
 8005a06:	4649      	mov	r1, r9
 8005a08:	f7fb f8a8 	bl	8000b5c <__aeabi_dcmpun>
 8005a0c:	b110      	cbz	r0, 8005a14 <_printf_float+0xd8>
 8005a0e:	4a8c      	ldr	r2, [pc, #560]	; (8005c40 <_printf_float+0x304>)
 8005a10:	4b8c      	ldr	r3, [pc, #560]	; (8005c44 <_printf_float+0x308>)
 8005a12:	e7da      	b.n	80059ca <_printf_float+0x8e>
 8005a14:	6861      	ldr	r1, [r4, #4]
 8005a16:	1c4b      	adds	r3, r1, #1
 8005a18:	f44b 6280 	orr.w	r2, fp, #1024	; 0x400
 8005a1c:	a80a      	add	r0, sp, #40	; 0x28
 8005a1e:	d13e      	bne.n	8005a9e <_printf_float+0x162>
 8005a20:	2306      	movs	r3, #6
 8005a22:	6063      	str	r3, [r4, #4]
 8005a24:	2300      	movs	r3, #0
 8005a26:	e9cd 0302 	strd	r0, r3, [sp, #8]
 8005a2a:	ab09      	add	r3, sp, #36	; 0x24
 8005a2c:	9300      	str	r3, [sp, #0]
 8005a2e:	ec49 8b10 	vmov	d0, r8, r9
 8005a32:	f10d 0323 	add.w	r3, sp, #35	; 0x23
 8005a36:	6022      	str	r2, [r4, #0]
 8005a38:	f8cd a004 	str.w	sl, [sp, #4]
 8005a3c:	6861      	ldr	r1, [r4, #4]
 8005a3e:	4628      	mov	r0, r5
 8005a40:	f7ff fee8 	bl	8005814 <__cvt>
 8005a44:	f00a 03df 	and.w	r3, sl, #223	; 0xdf
 8005a48:	2b47      	cmp	r3, #71	; 0x47
 8005a4a:	4680      	mov	r8, r0
 8005a4c:	d109      	bne.n	8005a62 <_printf_float+0x126>
 8005a4e:	9b09      	ldr	r3, [sp, #36]	; 0x24
 8005a50:	1cd8      	adds	r0, r3, #3
 8005a52:	db02      	blt.n	8005a5a <_printf_float+0x11e>
 8005a54:	6862      	ldr	r2, [r4, #4]
 8005a56:	4293      	cmp	r3, r2
 8005a58:	dd47      	ble.n	8005aea <_printf_float+0x1ae>
 8005a5a:	f1aa 0a02 	sub.w	sl, sl, #2
 8005a5e:	fa5f fa8a 	uxtb.w	sl, sl
 8005a62:	f1ba 0f65 	cmp.w	sl, #101	; 0x65
 8005a66:	9909      	ldr	r1, [sp, #36]	; 0x24
 8005a68:	d824      	bhi.n	8005ab4 <_printf_float+0x178>
 8005a6a:	3901      	subs	r1, #1
 8005a6c:	4652      	mov	r2, sl
 8005a6e:	f104 0050 	add.w	r0, r4, #80	; 0x50
 8005a72:	9109      	str	r1, [sp, #36]	; 0x24
 8005a74:	f7ff ff2f 	bl	80058d6 <__exponent>
 8005a78:	9a0a      	ldr	r2, [sp, #40]	; 0x28
 8005a7a:	1813      	adds	r3, r2, r0
 8005a7c:	2a01      	cmp	r2, #1
 8005a7e:	4681      	mov	r9, r0
 8005a80:	6123      	str	r3, [r4, #16]
 8005a82:	dc02      	bgt.n	8005a8a <_printf_float+0x14e>
 8005a84:	6822      	ldr	r2, [r4, #0]
 8005a86:	07d1      	lsls	r1, r2, #31
 8005a88:	d501      	bpl.n	8005a8e <_printf_float+0x152>
 8005a8a:	3301      	adds	r3, #1
 8005a8c:	6123      	str	r3, [r4, #16]
 8005a8e:	f89d 3023 	ldrb.w	r3, [sp, #35]	; 0x23
 8005a92:	2b00      	cmp	r3, #0
 8005a94:	d0a5      	beq.n	80059e2 <_printf_float+0xa6>
 8005a96:	232d      	movs	r3, #45	; 0x2d
 8005a98:	f884 3043 	strb.w	r3, [r4, #67]	; 0x43
 8005a9c:	e7a1      	b.n	80059e2 <_printf_float+0xa6>
 8005a9e:	f1ba 0f67 	cmp.w	sl, #103	; 0x67
 8005aa2:	f000 8177 	beq.w	8005d94 <_printf_float+0x458>
 8005aa6:	f1ba 0f47 	cmp.w	sl, #71	; 0x47
 8005aaa:	d1bb      	bne.n	8005a24 <_printf_float+0xe8>
 8005aac:	2900      	cmp	r1, #0
 8005aae:	d1b9      	bne.n	8005a24 <_printf_float+0xe8>
 8005ab0:	2301      	movs	r3, #1
 8005ab2:	e7b6      	b.n	8005a22 <_printf_float+0xe6>
 8005ab4:	f1ba 0f66 	cmp.w	sl, #102	; 0x66
 8005ab8:	d119      	bne.n	8005aee <_printf_float+0x1b2>
 8005aba:	2900      	cmp	r1, #0
 8005abc:	6863      	ldr	r3, [r4, #4]
 8005abe:	dd0c      	ble.n	8005ada <_printf_float+0x19e>
 8005ac0:	6121      	str	r1, [r4, #16]
 8005ac2:	b913      	cbnz	r3, 8005aca <_printf_float+0x18e>
 8005ac4:	6822      	ldr	r2, [r4, #0]
 8005ac6:	07d2      	lsls	r2, r2, #31
 8005ac8:	d502      	bpl.n	8005ad0 <_printf_float+0x194>
 8005aca:	3301      	adds	r3, #1
 8005acc:	440b      	add	r3, r1
 8005ace:	6123      	str	r3, [r4, #16]
 8005ad0:	9b09      	ldr	r3, [sp, #36]	; 0x24
 8005ad2:	65a3      	str	r3, [r4, #88]	; 0x58
 8005ad4:	f04f 0900 	mov.w	r9, #0
 8005ad8:	e7d9      	b.n	8005a8e <_printf_float+0x152>
 8005ada:	b913      	cbnz	r3, 8005ae2 <_printf_float+0x1a6>
 8005adc:	6822      	ldr	r2, [r4, #0]
 8005ade:	07d0      	lsls	r0, r2, #31
 8005ae0:	d501      	bpl.n	8005ae6 <_printf_float+0x1aa>
 8005ae2:	3302      	adds	r3, #2
 8005ae4:	e7f3      	b.n	8005ace <_printf_float+0x192>
 8005ae6:	2301      	movs	r3, #1
 8005ae8:	e7f1      	b.n	8005ace <_printf_float+0x192>
 8005aea:	f04f 0a67 	mov.w	sl, #103	; 0x67
 8005aee:	e9dd 3209 	ldrd	r3, r2, [sp, #36]	; 0x24
 8005af2:	4293      	cmp	r3, r2
 8005af4:	db05      	blt.n	8005b02 <_printf_float+0x1c6>
 8005af6:	6822      	ldr	r2, [r4, #0]
 8005af8:	6123      	str	r3, [r4, #16]
 8005afa:	07d1      	lsls	r1, r2, #31
 8005afc:	d5e8      	bpl.n	8005ad0 <_printf_float+0x194>
 8005afe:	3301      	adds	r3, #1
 8005b00:	e7e5      	b.n	8005ace <_printf_float+0x192>
 8005b02:	2b00      	cmp	r3, #0
 8005b04:	bfd4      	ite	le
 8005b06:	f1c3 0302 	rsble	r3, r3, #2
 8005b0a:	2301      	movgt	r3, #1
 8005b0c:	4413      	add	r3, r2
 8005b0e:	e7de      	b.n	8005ace <_printf_float+0x192>
 8005b10:	6823      	ldr	r3, [r4, #0]
 8005b12:	055a      	lsls	r2, r3, #21
 8005b14:	d407      	bmi.n	8005b26 <_printf_float+0x1ea>
 8005b16:	6923      	ldr	r3, [r4, #16]
 8005b18:	4642      	mov	r2, r8
 8005b1a:	4631      	mov	r1, r6
 8005b1c:	4628      	mov	r0, r5
 8005b1e:	47b8      	blx	r7
 8005b20:	3001      	adds	r0, #1
 8005b22:	d12b      	bne.n	8005b7c <_printf_float+0x240>
 8005b24:	e767      	b.n	80059f6 <_printf_float+0xba>
 8005b26:	f1ba 0f65 	cmp.w	sl, #101	; 0x65
 8005b2a:	f240 80dc 	bls.w	8005ce6 <_printf_float+0x3aa>
 8005b2e:	2200      	movs	r2, #0
 8005b30:	2300      	movs	r3, #0
 8005b32:	e9d4 0112 	ldrd	r0, r1, [r4, #72]	; 0x48
 8005b36:	f7fa ffdf 	bl	8000af8 <__aeabi_dcmpeq>
 8005b3a:	2800      	cmp	r0, #0
 8005b3c:	d033      	beq.n	8005ba6 <_printf_float+0x26a>
 8005b3e:	2301      	movs	r3, #1
 8005b40:	4a41      	ldr	r2, [pc, #260]	; (8005c48 <_printf_float+0x30c>)
 8005b42:	4631      	mov	r1, r6
 8005b44:	4628      	mov	r0, r5
 8005b46:	47b8      	blx	r7
 8005b48:	3001      	adds	r0, #1
 8005b4a:	f43f af54 	beq.w	80059f6 <_printf_float+0xba>
 8005b4e:	e9dd 2309 	ldrd	r2, r3, [sp, #36]	; 0x24
 8005b52:	429a      	cmp	r2, r3
 8005b54:	db02      	blt.n	8005b5c <_printf_float+0x220>
 8005b56:	6823      	ldr	r3, [r4, #0]
 8005b58:	07d8      	lsls	r0, r3, #31
 8005b5a:	d50f      	bpl.n	8005b7c <_printf_float+0x240>
 8005b5c:	e9dd 2304 	ldrd	r2, r3, [sp, #16]
 8005b60:	4631      	mov	r1, r6
 8005b62:	4628      	mov	r0, r5
 8005b64:	47b8      	blx	r7
 8005b66:	3001      	adds	r0, #1
 8005b68:	f43f af45 	beq.w	80059f6 <_printf_float+0xba>
 8005b6c:	f04f 0800 	mov.w	r8, #0
 8005b70:	f104 091a 	add.w	r9, r4, #26
 8005b74:	9b0a      	ldr	r3, [sp, #40]	; 0x28
 8005b76:	3b01      	subs	r3, #1
 8005b78:	4543      	cmp	r3, r8
 8005b7a:	dc09      	bgt.n	8005b90 <_printf_float+0x254>
 8005b7c:	6823      	ldr	r3, [r4, #0]
 8005b7e:	079b      	lsls	r3, r3, #30
 8005b80:	f100 8103 	bmi.w	8005d8a <_printf_float+0x44e>
 8005b84:	68e0      	ldr	r0, [r4, #12]
 8005b86:	9b0b      	ldr	r3, [sp, #44]	; 0x2c
 8005b88:	4298      	cmp	r0, r3
 8005b8a:	bfb8      	it	lt
 8005b8c:	4618      	movlt	r0, r3
 8005b8e:	e734      	b.n	80059fa <_printf_float+0xbe>
 8005b90:	2301      	movs	r3, #1
 8005b92:	464a      	mov	r2, r9
 8005b94:	4631      	mov	r1, r6
 8005b96:	4628      	mov	r0, r5
 8005b98:	47b8      	blx	r7
 8005b9a:	3001      	adds	r0, #1
 8005b9c:	f43f af2b 	beq.w	80059f6 <_printf_float+0xba>
 8005ba0:	f108 0801 	add.w	r8, r8, #1
 8005ba4:	e7e6      	b.n	8005b74 <_printf_float+0x238>
 8005ba6:	9b09      	ldr	r3, [sp, #36]	; 0x24
 8005ba8:	2b00      	cmp	r3, #0
 8005baa:	dc2b      	bgt.n	8005c04 <_printf_float+0x2c8>
 8005bac:	2301      	movs	r3, #1
 8005bae:	4a26      	ldr	r2, [pc, #152]	; (8005c48 <_printf_float+0x30c>)
 8005bb0:	4631      	mov	r1, r6
 8005bb2:	4628      	mov	r0, r5
 8005bb4:	47b8      	blx	r7
 8005bb6:	3001      	adds	r0, #1
 8005bb8:	f43f af1d 	beq.w	80059f6 <_printf_float+0xba>
 8005bbc:	9b09      	ldr	r3, [sp, #36]	; 0x24
 8005bbe:	b923      	cbnz	r3, 8005bca <_printf_float+0x28e>
 8005bc0:	9b0a      	ldr	r3, [sp, #40]	; 0x28
 8005bc2:	b913      	cbnz	r3, 8005bca <_printf_float+0x28e>
 8005bc4:	6823      	ldr	r3, [r4, #0]
 8005bc6:	07d9      	lsls	r1, r3, #31
 8005bc8:	d5d8      	bpl.n	8005b7c <_printf_float+0x240>
 8005bca:	e9dd 2304 	ldrd	r2, r3, [sp, #16]
 8005bce:	4631      	mov	r1, r6
 8005bd0:	4628      	mov	r0, r5
 8005bd2:	47b8      	blx	r7
 8005bd4:	3001      	adds	r0, #1
 8005bd6:	f43f af0e 	beq.w	80059f6 <_printf_float+0xba>
 8005bda:	f04f 0900 	mov.w	r9, #0
 8005bde:	f104 0a1a 	add.w	sl, r4, #26
 8005be2:	9b09      	ldr	r3, [sp, #36]	; 0x24
 8005be4:	425b      	negs	r3, r3
 8005be6:	454b      	cmp	r3, r9
 8005be8:	dc01      	bgt.n	8005bee <_printf_float+0x2b2>
 8005bea:	9b0a      	ldr	r3, [sp, #40]	; 0x28
 8005bec:	e794      	b.n	8005b18 <_printf_float+0x1dc>
 8005bee:	2301      	movs	r3, #1
 8005bf0:	4652      	mov	r2, sl
 8005bf2:	4631      	mov	r1, r6
 8005bf4:	4628      	mov	r0, r5
 8005bf6:	47b8      	blx	r7
 8005bf8:	3001      	adds	r0, #1
 8005bfa:	f43f aefc 	beq.w	80059f6 <_printf_float+0xba>
 8005bfe:	f109 0901 	add.w	r9, r9, #1
 8005c02:	e7ee      	b.n	8005be2 <_printf_float+0x2a6>
 8005c04:	9a0a      	ldr	r2, [sp, #40]	; 0x28
 8005c06:	6da3      	ldr	r3, [r4, #88]	; 0x58
 8005c08:	429a      	cmp	r2, r3
 8005c0a:	bfa8      	it	ge
 8005c0c:	461a      	movge	r2, r3
 8005c0e:	2a00      	cmp	r2, #0
 8005c10:	4691      	mov	r9, r2
 8005c12:	dd07      	ble.n	8005c24 <_printf_float+0x2e8>
 8005c14:	4613      	mov	r3, r2
 8005c16:	4631      	mov	r1, r6
 8005c18:	4642      	mov	r2, r8
 8005c1a:	4628      	mov	r0, r5
 8005c1c:	47b8      	blx	r7
 8005c1e:	3001      	adds	r0, #1
 8005c20:	f43f aee9 	beq.w	80059f6 <_printf_float+0xba>
 8005c24:	f104 031a 	add.w	r3, r4, #26
 8005c28:	f04f 0b00 	mov.w	fp, #0
 8005c2c:	ea29 79e9 	bic.w	r9, r9, r9, asr #31
 8005c30:	9306      	str	r3, [sp, #24]
 8005c32:	e015      	b.n	8005c60 <_printf_float+0x324>
 8005c34:	7fefffff 	.word	0x7fefffff
 8005c38:	08017742 	.word	0x08017742
 8005c3c:	0801773e 	.word	0x0801773e
 8005c40:	0801774a 	.word	0x0801774a
 8005c44:	08017746 	.word	0x08017746
 8005c48:	0801774e 	.word	0x0801774e
 8005c4c:	2301      	movs	r3, #1
 8005c4e:	9a06      	ldr	r2, [sp, #24]
 8005c50:	4631      	mov	r1, r6
 8005c52:	4628      	mov	r0, r5
 8005c54:	47b8      	blx	r7
 8005c56:	3001      	adds	r0, #1
 8005c58:	f43f aecd 	beq.w	80059f6 <_printf_float+0xba>
 8005c5c:	f10b 0b01 	add.w	fp, fp, #1
 8005c60:	f8d4 a058 	ldr.w	sl, [r4, #88]	; 0x58
 8005c64:	ebaa 0309 	sub.w	r3, sl, r9
 8005c68:	455b      	cmp	r3, fp
 8005c6a:	dcef      	bgt.n	8005c4c <_printf_float+0x310>
 8005c6c:	e9dd 2309 	ldrd	r2, r3, [sp, #36]	; 0x24
 8005c70:	429a      	cmp	r2, r3
 8005c72:	44d0      	add	r8, sl
 8005c74:	db15      	blt.n	8005ca2 <_printf_float+0x366>
 8005c76:	6823      	ldr	r3, [r4, #0]
 8005c78:	07da      	lsls	r2, r3, #31
 8005c7a:	d412      	bmi.n	8005ca2 <_printf_float+0x366>
 8005c7c:	9b0a      	ldr	r3, [sp, #40]	; 0x28
 8005c7e:	9909      	ldr	r1, [sp, #36]	; 0x24
 8005c80:	eba3 020a 	sub.w	r2, r3, sl
 8005c84:	eba3 0a01 	sub.w	sl, r3, r1
 8005c88:	4592      	cmp	sl, r2
 8005c8a:	bfa8      	it	ge
 8005c8c:	4692      	movge	sl, r2
 8005c8e:	f1ba 0f00 	cmp.w	sl, #0
 8005c92:	dc0e      	bgt.n	8005cb2 <_printf_float+0x376>
 8005c94:	f04f 0800 	mov.w	r8, #0
 8005c98:	ea2a 7aea 	bic.w	sl, sl, sl, asr #31
 8005c9c:	f104 091a 	add.w	r9, r4, #26
 8005ca0:	e019      	b.n	8005cd6 <_printf_float+0x39a>
 8005ca2:	e9dd 2304 	ldrd	r2, r3, [sp, #16]
 8005ca6:	4631      	mov	r1, r6
 8005ca8:	4628      	mov	r0, r5
 8005caa:	47b8      	blx	r7
 8005cac:	3001      	adds	r0, #1
 8005cae:	d1e5      	bne.n	8005c7c <_printf_float+0x340>
 8005cb0:	e6a1      	b.n	80059f6 <_printf_float+0xba>
 8005cb2:	4653      	mov	r3, sl
 8005cb4:	4642      	mov	r2, r8
 8005cb6:	4631      	mov	r1, r6
 8005cb8:	4628      	mov	r0, r5
 8005cba:	47b8      	blx	r7
 8005cbc:	3001      	adds	r0, #1
 8005cbe:	d1e9      	bne.n	8005c94 <_printf_float+0x358>
 8005cc0:	e699      	b.n	80059f6 <_printf_float+0xba>
 8005cc2:	2301      	movs	r3, #1
 8005cc4:	464a      	mov	r2, r9
 8005cc6:	4631      	mov	r1, r6
 8005cc8:	4628      	mov	r0, r5
 8005cca:	47b8      	blx	r7
 8005ccc:	3001      	adds	r0, #1
 8005cce:	f43f ae92 	beq.w	80059f6 <_printf_float+0xba>
 8005cd2:	f108 0801 	add.w	r8, r8, #1
 8005cd6:	e9dd 2309 	ldrd	r2, r3, [sp, #36]	; 0x24
 8005cda:	1a9b      	subs	r3, r3, r2
 8005cdc:	eba3 030a 	sub.w	r3, r3, sl
 8005ce0:	4543      	cmp	r3, r8
 8005ce2:	dcee      	bgt.n	8005cc2 <_printf_float+0x386>
 8005ce4:	e74a      	b.n	8005b7c <_printf_float+0x240>
 8005ce6:	9a0a      	ldr	r2, [sp, #40]	; 0x28
 8005ce8:	2a01      	cmp	r2, #1
 8005cea:	dc01      	bgt.n	8005cf0 <_printf_float+0x3b4>
 8005cec:	07db      	lsls	r3, r3, #31
 8005cee:	d53a      	bpl.n	8005d66 <_printf_float+0x42a>
 8005cf0:	2301      	movs	r3, #1
 8005cf2:	4642      	mov	r2, r8
 8005cf4:	4631      	mov	r1, r6
 8005cf6:	4628      	mov	r0, r5
 8005cf8:	47b8      	blx	r7
 8005cfa:	3001      	adds	r0, #1
 8005cfc:	f43f ae7b 	beq.w	80059f6 <_printf_float+0xba>
 8005d00:	e9dd 2304 	ldrd	r2, r3, [sp, #16]
 8005d04:	4631      	mov	r1, r6
 8005d06:	4628      	mov	r0, r5
 8005d08:	47b8      	blx	r7
 8005d0a:	3001      	adds	r0, #1
 8005d0c:	f108 0801 	add.w	r8, r8, #1
 8005d10:	f43f ae71 	beq.w	80059f6 <_printf_float+0xba>
 8005d14:	9b0a      	ldr	r3, [sp, #40]	; 0x28
 8005d16:	2200      	movs	r2, #0
 8005d18:	f103 3aff 	add.w	sl, r3, #4294967295
 8005d1c:	e9d4 0112 	ldrd	r0, r1, [r4, #72]	; 0x48
 8005d20:	2300      	movs	r3, #0
 8005d22:	f7fa fee9 	bl	8000af8 <__aeabi_dcmpeq>
 8005d26:	b9c8      	cbnz	r0, 8005d5c <_printf_float+0x420>
 8005d28:	4653      	mov	r3, sl
 8005d2a:	4642      	mov	r2, r8
 8005d2c:	4631      	mov	r1, r6
 8005d2e:	4628      	mov	r0, r5
 8005d30:	47b8      	blx	r7
 8005d32:	3001      	adds	r0, #1
 8005d34:	d10e      	bne.n	8005d54 <_printf_float+0x418>
 8005d36:	e65e      	b.n	80059f6 <_printf_float+0xba>
 8005d38:	2301      	movs	r3, #1
 8005d3a:	4652      	mov	r2, sl
 8005d3c:	4631      	mov	r1, r6
 8005d3e:	4628      	mov	r0, r5
 8005d40:	47b8      	blx	r7
 8005d42:	3001      	adds	r0, #1
 8005d44:	f43f ae57 	beq.w	80059f6 <_printf_float+0xba>
 8005d48:	f108 0801 	add.w	r8, r8, #1
 8005d4c:	9b0a      	ldr	r3, [sp, #40]	; 0x28
 8005d4e:	3b01      	subs	r3, #1
 8005d50:	4543      	cmp	r3, r8
 8005d52:	dcf1      	bgt.n	8005d38 <_printf_float+0x3fc>
 8005d54:	464b      	mov	r3, r9
 8005d56:	f104 0250 	add.w	r2, r4, #80	; 0x50
 8005d5a:	e6de      	b.n	8005b1a <_printf_float+0x1de>
 8005d5c:	f04f 0800 	mov.w	r8, #0
 8005d60:	f104 0a1a 	add.w	sl, r4, #26
 8005d64:	e7f2      	b.n	8005d4c <_printf_float+0x410>
 8005d66:	2301      	movs	r3, #1
 8005d68:	e7df      	b.n	8005d2a <_printf_float+0x3ee>
 8005d6a:	2301      	movs	r3, #1
 8005d6c:	464a      	mov	r2, r9
 8005d6e:	4631      	mov	r1, r6
 8005d70:	4628      	mov	r0, r5
 8005d72:	47b8      	blx	r7
 8005d74:	3001      	adds	r0, #1
 8005d76:	f43f ae3e 	beq.w	80059f6 <_printf_float+0xba>
 8005d7a:	f108 0801 	add.w	r8, r8, #1
 8005d7e:	68e3      	ldr	r3, [r4, #12]
 8005d80:	9a0b      	ldr	r2, [sp, #44]	; 0x2c
 8005d82:	1a9b      	subs	r3, r3, r2
 8005d84:	4543      	cmp	r3, r8
 8005d86:	dcf0      	bgt.n	8005d6a <_printf_float+0x42e>
 8005d88:	e6fc      	b.n	8005b84 <_printf_float+0x248>
 8005d8a:	f04f 0800 	mov.w	r8, #0
 8005d8e:	f104 0919 	add.w	r9, r4, #25
 8005d92:	e7f4      	b.n	8005d7e <_printf_float+0x442>
 8005d94:	2900      	cmp	r1, #0
 8005d96:	f43f ae8b 	beq.w	8005ab0 <_printf_float+0x174>
 8005d9a:	2300      	movs	r3, #0
 8005d9c:	e9cd 0302 	strd	r0, r3, [sp, #8]
 8005da0:	ab09      	add	r3, sp, #36	; 0x24
 8005da2:	9300      	str	r3, [sp, #0]
 8005da4:	ec49 8b10 	vmov	d0, r8, r9
 8005da8:	6022      	str	r2, [r4, #0]
 8005daa:	f8cd a004 	str.w	sl, [sp, #4]
 8005dae:	f10d 0323 	add.w	r3, sp, #35	; 0x23
 8005db2:	4628      	mov	r0, r5
 8005db4:	f7ff fd2e 	bl	8005814 <__cvt>
 8005db8:	4680      	mov	r8, r0
 8005dba:	e648      	b.n	8005a4e <_printf_float+0x112>

08005dbc <_printf_common>:
 8005dbc:	e92d 47f0 	stmdb	sp!, {r4, r5, r6, r7, r8, r9, sl, lr}
 8005dc0:	4691      	mov	r9, r2
 8005dc2:	461f      	mov	r7, r3
 8005dc4:	688a      	ldr	r2, [r1, #8]
 8005dc6:	690b      	ldr	r3, [r1, #16]
 8005dc8:	f8dd 8020 	ldr.w	r8, [sp, #32]
 8005dcc:	4293      	cmp	r3, r2
 8005dce:	bfb8      	it	lt
 8005dd0:	4613      	movlt	r3, r2
 8005dd2:	f8c9 3000 	str.w	r3, [r9]
 8005dd6:	f891 2043 	ldrb.w	r2, [r1, #67]	; 0x43
 8005dda:	4606      	mov	r6, r0
 8005ddc:	460c      	mov	r4, r1
 8005dde:	b112      	cbz	r2, 8005de6 <_printf_common+0x2a>
 8005de0:	3301      	adds	r3, #1
 8005de2:	f8c9 3000 	str.w	r3, [r9]
 8005de6:	6823      	ldr	r3, [r4, #0]
 8005de8:	0699      	lsls	r1, r3, #26
 8005dea:	bf42      	ittt	mi
 8005dec:	f8d9 3000 	ldrmi.w	r3, [r9]
 8005df0:	3302      	addmi	r3, #2
 8005df2:	f8c9 3000 	strmi.w	r3, [r9]
 8005df6:	6825      	ldr	r5, [r4, #0]
 8005df8:	f015 0506 	ands.w	r5, r5, #6
 8005dfc:	d107      	bne.n	8005e0e <_printf_common+0x52>
 8005dfe:	f104 0a19 	add.w	sl, r4, #25
 8005e02:	68e3      	ldr	r3, [r4, #12]
 8005e04:	f8d9 2000 	ldr.w	r2, [r9]
 8005e08:	1a9b      	subs	r3, r3, r2
 8005e0a:	42ab      	cmp	r3, r5
 8005e0c:	dc28      	bgt.n	8005e60 <_printf_common+0xa4>
 8005e0e:	f894 3043 	ldrb.w	r3, [r4, #67]	; 0x43
 8005e12:	6822      	ldr	r2, [r4, #0]
 8005e14:	3300      	adds	r3, #0
 8005e16:	bf18      	it	ne
 8005e18:	2301      	movne	r3, #1
 8005e1a:	0692      	lsls	r2, r2, #26
 8005e1c:	d42d      	bmi.n	8005e7a <_printf_common+0xbe>
 8005e1e:	f104 0243 	add.w	r2, r4, #67	; 0x43
 8005e22:	4639      	mov	r1, r7
 8005e24:	4630      	mov	r0, r6
 8005e26:	47c0      	blx	r8
 8005e28:	3001      	adds	r0, #1
 8005e2a:	d020      	beq.n	8005e6e <_printf_common+0xb2>
 8005e2c:	6823      	ldr	r3, [r4, #0]
 8005e2e:	68e5      	ldr	r5, [r4, #12]
 8005e30:	f8d9 2000 	ldr.w	r2, [r9]
 8005e34:	f003 0306 	and.w	r3, r3, #6
 8005e38:	2b04      	cmp	r3, #4
 8005e3a:	bf08      	it	eq
 8005e3c:	1aad      	subeq	r5, r5, r2
 8005e3e:	68a3      	ldr	r3, [r4, #8]
 8005e40:	6922      	ldr	r2, [r4, #16]
 8005e42:	bf0c      	ite	eq
 8005e44:	ea25 75e5 	biceq.w	r5, r5, r5, asr #31
 8005e48:	2500      	movne	r5, #0
 8005e4a:	4293      	cmp	r3, r2
 8005e4c:	bfc4      	itt	gt
 8005e4e:	1a9b      	subgt	r3, r3, r2
 8005e50:	18ed      	addgt	r5, r5, r3
 8005e52:	f04f 0900 	mov.w	r9, #0
 8005e56:	341a      	adds	r4, #26
 8005e58:	454d      	cmp	r5, r9
 8005e5a:	d11a      	bne.n	8005e92 <_printf_common+0xd6>
 8005e5c:	2000      	movs	r0, #0
 8005e5e:	e008      	b.n	8005e72 <_printf_common+0xb6>
 8005e60:	2301      	movs	r3, #1
 8005e62:	4652      	mov	r2, sl
 8005e64:	4639      	mov	r1, r7
 8005e66:	4630      	mov	r0, r6
 8005e68:	47c0      	blx	r8
 8005e6a:	3001      	adds	r0, #1
 8005e6c:	d103      	bne.n	8005e76 <_printf_common+0xba>
 8005e6e:	f04f 30ff 	mov.w	r0, #4294967295
 8005e72:	e8bd 87f0 	ldmia.w	sp!, {r4, r5, r6, r7, r8, r9, sl, pc}
 8005e76:	3501      	adds	r5, #1
 8005e78:	e7c3      	b.n	8005e02 <_printf_common+0x46>
 8005e7a:	18e1      	adds	r1, r4, r3
 8005e7c:	1c5a      	adds	r2, r3, #1
 8005e7e:	2030      	movs	r0, #48	; 0x30
 8005e80:	f881 0043 	strb.w	r0, [r1, #67]	; 0x43
 8005e84:	4422      	add	r2, r4
 8005e86:	f894 1045 	ldrb.w	r1, [r4, #69]	; 0x45
 8005e8a:	f882 1043 	strb.w	r1, [r2, #67]	; 0x43
 8005e8e:	3302      	adds	r3, #2
 8005e90:	e7c5      	b.n	8005e1e <_printf_common+0x62>
 8005e92:	2301      	movs	r3, #1
 8005e94:	4622      	mov	r2, r4
 8005e96:	4639      	mov	r1, r7
 8005e98:	4630      	mov	r0, r6
 8005e9a:	47c0      	blx	r8
 8005e9c:	3001      	adds	r0, #1
 8005e9e:	d0e6      	beq.n	8005e6e <_printf_common+0xb2>
 8005ea0:	f109 0901 	add.w	r9, r9, #1
 8005ea4:	e7d8      	b.n	8005e58 <_printf_common+0x9c>
	...

08005ea8 <_printf_i>:
 8005ea8:	e92d 43f0 	stmdb	sp!, {r4, r5, r6, r7, r8, r9, lr}
 8005eac:	f101 0c43 	add.w	ip, r1, #67	; 0x43
 8005eb0:	460c      	mov	r4, r1
 8005eb2:	7e09      	ldrb	r1, [r1, #24]
 8005eb4:	b085      	sub	sp, #20
 8005eb6:	296e      	cmp	r1, #110	; 0x6e
 8005eb8:	4617      	mov	r7, r2
 8005eba:	4606      	mov	r6, r0
 8005ebc:	4698      	mov	r8, r3
 8005ebe:	9a0c      	ldr	r2, [sp, #48]	; 0x30
 8005ec0:	f000 80b3 	beq.w	800602a <_printf_i+0x182>
 8005ec4:	d822      	bhi.n	8005f0c <_printf_i+0x64>
 8005ec6:	2963      	cmp	r1, #99	; 0x63
 8005ec8:	d036      	beq.n	8005f38 <_printf_i+0x90>
 8005eca:	d80a      	bhi.n	8005ee2 <_printf_i+0x3a>
 8005ecc:	2900      	cmp	r1, #0
 8005ece:	f000 80b9 	beq.w	8006044 <_printf_i+0x19c>
 8005ed2:	2958      	cmp	r1, #88	; 0x58
 8005ed4:	f000 8083 	beq.w	8005fde <_printf_i+0x136>
 8005ed8:	f104 0542 	add.w	r5, r4, #66	; 0x42
 8005edc:	f884 1042 	strb.w	r1, [r4, #66]	; 0x42
 8005ee0:	e032      	b.n	8005f48 <_printf_i+0xa0>
 8005ee2:	2964      	cmp	r1, #100	; 0x64
 8005ee4:	d001      	beq.n	8005eea <_printf_i+0x42>
 8005ee6:	2969      	cmp	r1, #105	; 0x69
 8005ee8:	d1f6      	bne.n	8005ed8 <_printf_i+0x30>
 8005eea:	6820      	ldr	r0, [r4, #0]
 8005eec:	6813      	ldr	r3, [r2, #0]
 8005eee:	0605      	lsls	r5, r0, #24
 8005ef0:	f103 0104 	add.w	r1, r3, #4
 8005ef4:	d52a      	bpl.n	8005f4c <_printf_i+0xa4>
 8005ef6:	681b      	ldr	r3, [r3, #0]
 8005ef8:	6011      	str	r1, [r2, #0]
 8005efa:	2b00      	cmp	r3, #0
 8005efc:	da03      	bge.n	8005f06 <_printf_i+0x5e>
 8005efe:	222d      	movs	r2, #45	; 0x2d
 8005f00:	425b      	negs	r3, r3
 8005f02:	f884 2043 	strb.w	r2, [r4, #67]	; 0x43
 8005f06:	486f      	ldr	r0, [pc, #444]	; (80060c4 <_printf_i+0x21c>)
 8005f08:	220a      	movs	r2, #10
 8005f0a:	e039      	b.n	8005f80 <_printf_i+0xd8>
 8005f0c:	2973      	cmp	r1, #115	; 0x73
 8005f0e:	f000 809d 	beq.w	800604c <_printf_i+0x1a4>
 8005f12:	d808      	bhi.n	8005f26 <_printf_i+0x7e>
 8005f14:	296f      	cmp	r1, #111	; 0x6f
 8005f16:	d020      	beq.n	8005f5a <_printf_i+0xb2>
 8005f18:	2970      	cmp	r1, #112	; 0x70
 8005f1a:	d1dd      	bne.n	8005ed8 <_printf_i+0x30>
 8005f1c:	6823      	ldr	r3, [r4, #0]
 8005f1e:	f043 0320 	orr.w	r3, r3, #32
 8005f22:	6023      	str	r3, [r4, #0]
 8005f24:	e003      	b.n	8005f2e <_printf_i+0x86>
 8005f26:	2975      	cmp	r1, #117	; 0x75
 8005f28:	d017      	beq.n	8005f5a <_printf_i+0xb2>
 8005f2a:	2978      	cmp	r1, #120	; 0x78
 8005f2c:	d1d4      	bne.n	8005ed8 <_printf_i+0x30>
 8005f2e:	2378      	movs	r3, #120	; 0x78
 8005f30:	f884 3045 	strb.w	r3, [r4, #69]	; 0x45
 8005f34:	4864      	ldr	r0, [pc, #400]	; (80060c8 <_printf_i+0x220>)
 8005f36:	e055      	b.n	8005fe4 <_printf_i+0x13c>
 8005f38:	6813      	ldr	r3, [r2, #0]
 8005f3a:	1d19      	adds	r1, r3, #4
 8005f3c:	681b      	ldr	r3, [r3, #0]
 8005f3e:	6011      	str	r1, [r2, #0]
 8005f40:	f104 0542 	add.w	r5, r4, #66	; 0x42
 8005f44:	f884 3042 	strb.w	r3, [r4, #66]	; 0x42
 8005f48:	2301      	movs	r3, #1
 8005f4a:	e08c      	b.n	8006066 <_printf_i+0x1be>
 8005f4c:	681b      	ldr	r3, [r3, #0]
 8005f4e:	6011      	str	r1, [r2, #0]
 8005f50:	f010 0f40 	tst.w	r0, #64	; 0x40
 8005f54:	bf18      	it	ne
 8005f56:	b21b      	sxthne	r3, r3
 8005f58:	e7cf      	b.n	8005efa <_printf_i+0x52>
 8005f5a:	6813      	ldr	r3, [r2, #0]
 8005f5c:	6825      	ldr	r5, [r4, #0]
 8005f5e:	1d18      	adds	r0, r3, #4
 8005f60:	6010      	str	r0, [r2, #0]
 8005f62:	0628      	lsls	r0, r5, #24
 8005f64:	d501      	bpl.n	8005f6a <_printf_i+0xc2>
 8005f66:	681b      	ldr	r3, [r3, #0]
 8005f68:	e002      	b.n	8005f70 <_printf_i+0xc8>
 8005f6a:	0668      	lsls	r0, r5, #25
 8005f6c:	d5fb      	bpl.n	8005f66 <_printf_i+0xbe>
 8005f6e:	881b      	ldrh	r3, [r3, #0]
 8005f70:	4854      	ldr	r0, [pc, #336]	; (80060c4 <_printf_i+0x21c>)
 8005f72:	296f      	cmp	r1, #111	; 0x6f
 8005f74:	bf14      	ite	ne
 8005f76:	220a      	movne	r2, #10
 8005f78:	2208      	moveq	r2, #8
 8005f7a:	2100      	movs	r1, #0
 8005f7c:	f884 1043 	strb.w	r1, [r4, #67]	; 0x43
 8005f80:	6865      	ldr	r5, [r4, #4]
 8005f82:	60a5      	str	r5, [r4, #8]
 8005f84:	2d00      	cmp	r5, #0
 8005f86:	f2c0 8095 	blt.w	80060b4 <_printf_i+0x20c>
 8005f8a:	6821      	ldr	r1, [r4, #0]
 8005f8c:	f021 0104 	bic.w	r1, r1, #4
 8005f90:	6021      	str	r1, [r4, #0]
 8005f92:	2b00      	cmp	r3, #0
 8005f94:	d13d      	bne.n	8006012 <_printf_i+0x16a>
 8005f96:	2d00      	cmp	r5, #0
 8005f98:	f040 808e 	bne.w	80060b8 <_printf_i+0x210>
 8005f9c:	4665      	mov	r5, ip
 8005f9e:	2a08      	cmp	r2, #8
 8005fa0:	d10b      	bne.n	8005fba <_printf_i+0x112>
 8005fa2:	6823      	ldr	r3, [r4, #0]
 8005fa4:	07db      	lsls	r3, r3, #31
 8005fa6:	d508      	bpl.n	8005fba <_printf_i+0x112>
 8005fa8:	6923      	ldr	r3, [r4, #16]
 8005faa:	6862      	ldr	r2, [r4, #4]
 8005fac:	429a      	cmp	r2, r3
 8005fae:	bfde      	ittt	le
 8005fb0:	2330      	movle	r3, #48	; 0x30
 8005fb2:	f805 3c01 	strble.w	r3, [r5, #-1]
 8005fb6:	f105 35ff 	addle.w	r5, r5, #4294967295
 8005fba:	ebac 0305 	sub.w	r3, ip, r5
 8005fbe:	6123      	str	r3, [r4, #16]
 8005fc0:	f8cd 8000 	str.w	r8, [sp]
 8005fc4:	463b      	mov	r3, r7
 8005fc6:	aa03      	add	r2, sp, #12
 8005fc8:	4621      	mov	r1, r4
 8005fca:	4630      	mov	r0, r6
 8005fcc:	f7ff fef6 	bl	8005dbc <_printf_common>
 8005fd0:	3001      	adds	r0, #1
 8005fd2:	d14d      	bne.n	8006070 <_printf_i+0x1c8>
 8005fd4:	f04f 30ff 	mov.w	r0, #4294967295
 8005fd8:	b005      	add	sp, #20
 8005fda:	e8bd 83f0 	ldmia.w	sp!, {r4, r5, r6, r7, r8, r9, pc}
 8005fde:	4839      	ldr	r0, [pc, #228]	; (80060c4 <_printf_i+0x21c>)
 8005fe0:	f884 1045 	strb.w	r1, [r4, #69]	; 0x45
 8005fe4:	6813      	ldr	r3, [r2, #0]
 8005fe6:	6821      	ldr	r1, [r4, #0]
 8005fe8:	1d1d      	adds	r5, r3, #4
 8005fea:	681b      	ldr	r3, [r3, #0]
 8005fec:	6015      	str	r5, [r2, #0]
 8005fee:	060a      	lsls	r2, r1, #24
 8005ff0:	d50b      	bpl.n	800600a <_printf_i+0x162>
 8005ff2:	07ca      	lsls	r2, r1, #31
 8005ff4:	bf44      	itt	mi
 8005ff6:	f041 0120 	orrmi.w	r1, r1, #32
 8005ffa:	6021      	strmi	r1, [r4, #0]
 8005ffc:	b91b      	cbnz	r3, 8006006 <_printf_i+0x15e>
 8005ffe:	6822      	ldr	r2, [r4, #0]
 8006000:	f022 0220 	bic.w	r2, r2, #32
 8006004:	6022      	str	r2, [r4, #0]
 8006006:	2210      	movs	r2, #16
 8006008:	e7b7      	b.n	8005f7a <_printf_i+0xd2>
 800600a:	064d      	lsls	r5, r1, #25
 800600c:	bf48      	it	mi
 800600e:	b29b      	uxthmi	r3, r3
 8006010:	e7ef      	b.n	8005ff2 <_printf_i+0x14a>
 8006012:	4665      	mov	r5, ip
 8006014:	fbb3 f1f2 	udiv	r1, r3, r2
 8006018:	fb02 3311 	mls	r3, r2, r1, r3
 800601c:	5cc3      	ldrb	r3, [r0, r3]
 800601e:	f805 3d01 	strb.w	r3, [r5, #-1]!
 8006022:	460b      	mov	r3, r1
 8006024:	2900      	cmp	r1, #0
 8006026:	d1f5      	bne.n	8006014 <_printf_i+0x16c>
 8006028:	e7b9      	b.n	8005f9e <_printf_i+0xf6>
 800602a:	6813      	ldr	r3, [r2, #0]
 800602c:	6825      	ldr	r5, [r4, #0]
 800602e:	6961      	ldr	r1, [r4, #20]
 8006030:	1d18      	adds	r0, r3, #4
 8006032:	6010      	str	r0, [r2, #0]
 8006034:	0628      	lsls	r0, r5, #24
 8006036:	681b      	ldr	r3, [r3, #0]
 8006038:	d501      	bpl.n	800603e <_printf_i+0x196>
 800603a:	6019      	str	r1, [r3, #0]
 800603c:	e002      	b.n	8006044 <_printf_i+0x19c>
 800603e:	066a      	lsls	r2, r5, #25
 8006040:	d5fb      	bpl.n	800603a <_printf_i+0x192>
 8006042:	8019      	strh	r1, [r3, #0]
 8006044:	2300      	movs	r3, #0
 8006046:	6123      	str	r3, [r4, #16]
 8006048:	4665      	mov	r5, ip
 800604a:	e7b9      	b.n	8005fc0 <_printf_i+0x118>
 800604c:	6813      	ldr	r3, [r2, #0]
 800604e:	1d19      	adds	r1, r3, #4
 8006050:	6011      	str	r1, [r2, #0]
 8006052:	681d      	ldr	r5, [r3, #0]
 8006054:	6862      	ldr	r2, [r4, #4]
 8006056:	2100      	movs	r1, #0
 8006058:	4628      	mov	r0, r5
 800605a:	f7fa f8d9 	bl	8000210 <memchr>
 800605e:	b108      	cbz	r0, 8006064 <_printf_i+0x1bc>
 8006060:	1b40      	subs	r0, r0, r5
 8006062:	6060      	str	r0, [r4, #4]
 8006064:	6863      	ldr	r3, [r4, #4]
 8006066:	6123      	str	r3, [r4, #16]
 8006068:	2300      	movs	r3, #0
 800606a:	f884 3043 	strb.w	r3, [r4, #67]	; 0x43
 800606e:	e7a7      	b.n	8005fc0 <_printf_i+0x118>
 8006070:	6923      	ldr	r3, [r4, #16]
 8006072:	462a      	mov	r2, r5
 8006074:	4639      	mov	r1, r7
 8006076:	4630      	mov	r0, r6
 8006078:	47c0      	blx	r8
 800607a:	3001      	adds	r0, #1
 800607c:	d0aa      	beq.n	8005fd4 <_printf_i+0x12c>
 800607e:	6823      	ldr	r3, [r4, #0]
 8006080:	079b      	lsls	r3, r3, #30
 8006082:	d413      	bmi.n	80060ac <_printf_i+0x204>
 8006084:	68e0      	ldr	r0, [r4, #12]
 8006086:	9b03      	ldr	r3, [sp, #12]
 8006088:	4298      	cmp	r0, r3
 800608a:	bfb8      	it	lt
 800608c:	4618      	movlt	r0, r3
 800608e:	e7a3      	b.n	8005fd8 <_printf_i+0x130>
 8006090:	2301      	movs	r3, #1
 8006092:	464a      	mov	r2, r9
 8006094:	4639      	mov	r1, r7
 8006096:	4630      	mov	r0, r6
 8006098:	47c0      	blx	r8
 800609a:	3001      	adds	r0, #1
 800609c:	d09a      	beq.n	8005fd4 <_printf_i+0x12c>
 800609e:	3501      	adds	r5, #1
 80060a0:	68e3      	ldr	r3, [r4, #12]
 80060a2:	9a03      	ldr	r2, [sp, #12]
 80060a4:	1a9b      	subs	r3, r3, r2
 80060a6:	42ab      	cmp	r3, r5
 80060a8:	dcf2      	bgt.n	8006090 <_printf_i+0x1e8>
 80060aa:	e7eb      	b.n	8006084 <_printf_i+0x1dc>
 80060ac:	2500      	movs	r5, #0
 80060ae:	f104 0919 	add.w	r9, r4, #25
 80060b2:	e7f5      	b.n	80060a0 <_printf_i+0x1f8>
 80060b4:	2b00      	cmp	r3, #0
 80060b6:	d1ac      	bne.n	8006012 <_printf_i+0x16a>
 80060b8:	7803      	ldrb	r3, [r0, #0]
 80060ba:	f884 3042 	strb.w	r3, [r4, #66]	; 0x42
 80060be:	f104 0542 	add.w	r5, r4, #66	; 0x42
 80060c2:	e76c      	b.n	8005f9e <_printf_i+0xf6>
 80060c4:	08017750 	.word	0x08017750
 80060c8:	08017761 	.word	0x08017761

080060cc <_sbrk_r>:
 80060cc:	b538      	push	{r3, r4, r5, lr}
 80060ce:	4c06      	ldr	r4, [pc, #24]	; (80060e8 <_sbrk_r+0x1c>)
 80060d0:	2300      	movs	r3, #0
 80060d2:	4605      	mov	r5, r0
 80060d4:	4608      	mov	r0, r1
 80060d6:	6023      	str	r3, [r4, #0]
 80060d8:	f7fa fd8b 	bl	8000bf2 <_sbrk>
 80060dc:	1c43      	adds	r3, r0, #1
 80060de:	d102      	bne.n	80060e6 <_sbrk_r+0x1a>
 80060e0:	6823      	ldr	r3, [r4, #0]
 80060e2:	b103      	cbz	r3, 80060e6 <_sbrk_r+0x1a>
 80060e4:	602b      	str	r3, [r5, #0]
 80060e6:	bd38      	pop	{r3, r4, r5, pc}
 80060e8:	20000fec 	.word	0x20000fec

080060ec <siprintf>:
 80060ec:	b40e      	push	{r1, r2, r3}
 80060ee:	b500      	push	{lr}
 80060f0:	b09c      	sub	sp, #112	; 0x70
 80060f2:	ab1d      	add	r3, sp, #116	; 0x74
 80060f4:	9002      	str	r0, [sp, #8]
 80060f6:	9006      	str	r0, [sp, #24]
 80060f8:	f06f 4100 	mvn.w	r1, #2147483648	; 0x80000000
 80060fc:	4809      	ldr	r0, [pc, #36]	; (8006124 <siprintf+0x38>)
 80060fe:	9107      	str	r1, [sp, #28]
 8006100:	9104      	str	r1, [sp, #16]
 8006102:	4909      	ldr	r1, [pc, #36]	; (8006128 <siprintf+0x3c>)
 8006104:	f853 2b04 	ldr.w	r2, [r3], #4
 8006108:	9105      	str	r1, [sp, #20]
 800610a:	6800      	ldr	r0, [r0, #0]
 800610c:	9301      	str	r3, [sp, #4]
 800610e:	a902      	add	r1, sp, #8
 8006110:	f001 f9b2 	bl	8007478 <_svfiprintf_r>
 8006114:	9b02      	ldr	r3, [sp, #8]
 8006116:	2200      	movs	r2, #0
 8006118:	701a      	strb	r2, [r3, #0]
 800611a:	b01c      	add	sp, #112	; 0x70
 800611c:	f85d eb04 	ldr.w	lr, [sp], #4
 8006120:	b003      	add	sp, #12
 8006122:	4770      	bx	lr
 8006124:	20000014 	.word	0x20000014
 8006128:	ffff0208 	.word	0xffff0208

0800612c <__ascii_wctomb>:
 800612c:	b149      	cbz	r1, 8006142 <__ascii_wctomb+0x16>
 800612e:	2aff      	cmp	r2, #255	; 0xff
 8006130:	bf85      	ittet	hi
 8006132:	238a      	movhi	r3, #138	; 0x8a
 8006134:	6003      	strhi	r3, [r0, #0]
 8006136:	700a      	strbls	r2, [r1, #0]
 8006138:	f04f 30ff 	movhi.w	r0, #4294967295
 800613c:	bf98      	it	ls
 800613e:	2001      	movls	r0, #1
 8006140:	4770      	bx	lr
 8006142:	4608      	mov	r0, r1
 8006144:	4770      	bx	lr

08006146 <quorem>:
 8006146:	e92d 4ff7 	stmdb	sp!, {r0, r1, r2, r4, r5, r6, r7, r8, r9, sl, fp, lr}
 800614a:	6903      	ldr	r3, [r0, #16]
 800614c:	690c      	ldr	r4, [r1, #16]
 800614e:	42a3      	cmp	r3, r4
 8006150:	4680      	mov	r8, r0
 8006152:	f2c0 8082 	blt.w	800625a <quorem+0x114>
 8006156:	3c01      	subs	r4, #1
 8006158:	f101 0714 	add.w	r7, r1, #20
 800615c:	ea4f 0c84 	mov.w	ip, r4, lsl #2
 8006160:	f100 0614 	add.w	r6, r0, #20
 8006164:	f857 5024 	ldr.w	r5, [r7, r4, lsl #2]
 8006168:	f856 0024 	ldr.w	r0, [r6, r4, lsl #2]
 800616c:	eb06 030c 	add.w	r3, r6, ip
 8006170:	3501      	adds	r5, #1
 8006172:	eb07 090c 	add.w	r9, r7, ip
 8006176:	9301      	str	r3, [sp, #4]
 8006178:	fbb0 f5f5 	udiv	r5, r0, r5
 800617c:	b395      	cbz	r5, 80061e4 <quorem+0x9e>
 800617e:	f04f 0a00 	mov.w	sl, #0
 8006182:	4638      	mov	r0, r7
 8006184:	46b6      	mov	lr, r6
 8006186:	46d3      	mov	fp, sl
 8006188:	f850 2b04 	ldr.w	r2, [r0], #4
 800618c:	b293      	uxth	r3, r2
 800618e:	fb05 a303 	mla	r3, r5, r3, sl
 8006192:	ea4f 4a13 	mov.w	sl, r3, lsr #16
 8006196:	b29b      	uxth	r3, r3
 8006198:	ebab 0303 	sub.w	r3, fp, r3
 800619c:	0c12      	lsrs	r2, r2, #16
 800619e:	f8de b000 	ldr.w	fp, [lr]
 80061a2:	fb05 a202 	mla	r2, r5, r2, sl
 80061a6:	fa13 f38b 	uxtah	r3, r3, fp
 80061aa:	ea4f 4a12 	mov.w	sl, r2, lsr #16
 80061ae:	fa1f fb82 	uxth.w	fp, r2
 80061b2:	f8de 2000 	ldr.w	r2, [lr]
 80061b6:	ebcb 4212 	rsb	r2, fp, r2, lsr #16
 80061ba:	eb02 4223 	add.w	r2, r2, r3, asr #16
 80061be:	b29b      	uxth	r3, r3
 80061c0:	ea43 4302 	orr.w	r3, r3, r2, lsl #16
 80061c4:	4581      	cmp	r9, r0
 80061c6:	ea4f 4b22 	mov.w	fp, r2, asr #16
 80061ca:	f84e 3b04 	str.w	r3, [lr], #4
 80061ce:	d2db      	bcs.n	8006188 <quorem+0x42>
 80061d0:	f856 300c 	ldr.w	r3, [r6, ip]
 80061d4:	b933      	cbnz	r3, 80061e4 <quorem+0x9e>
 80061d6:	9b01      	ldr	r3, [sp, #4]
 80061d8:	3b04      	subs	r3, #4
 80061da:	429e      	cmp	r6, r3
 80061dc:	461a      	mov	r2, r3
 80061de:	d330      	bcc.n	8006242 <quorem+0xfc>
 80061e0:	f8c8 4010 	str.w	r4, [r8, #16]
 80061e4:	4640      	mov	r0, r8
 80061e6:	f001 f819 	bl	800721c <__mcmp>
 80061ea:	2800      	cmp	r0, #0
 80061ec:	db25      	blt.n	800623a <quorem+0xf4>
 80061ee:	3501      	adds	r5, #1
 80061f0:	4630      	mov	r0, r6
 80061f2:	f04f 0c00 	mov.w	ip, #0
 80061f6:	f857 2b04 	ldr.w	r2, [r7], #4
 80061fa:	f8d0 e000 	ldr.w	lr, [r0]
 80061fe:	b293      	uxth	r3, r2
 8006200:	ebac 0303 	sub.w	r3, ip, r3
 8006204:	0c12      	lsrs	r2, r2, #16
 8006206:	fa13 f38e 	uxtah	r3, r3, lr
 800620a:	ebc2 421e 	rsb	r2, r2, lr, lsr #16
 800620e:	eb02 4223 	add.w	r2, r2, r3, asr #16
 8006212:	b29b      	uxth	r3, r3
 8006214:	ea43 4302 	orr.w	r3, r3, r2, lsl #16
 8006218:	45b9      	cmp	r9, r7
 800621a:	ea4f 4c22 	mov.w	ip, r2, asr #16
 800621e:	f840 3b04 	str.w	r3, [r0], #4
 8006222:	d2e8      	bcs.n	80061f6 <quorem+0xb0>
 8006224:	f856 2024 	ldr.w	r2, [r6, r4, lsl #2]
 8006228:	eb06 0384 	add.w	r3, r6, r4, lsl #2
 800622c:	b92a      	cbnz	r2, 800623a <quorem+0xf4>
 800622e:	3b04      	subs	r3, #4
 8006230:	429e      	cmp	r6, r3
 8006232:	461a      	mov	r2, r3
 8006234:	d30b      	bcc.n	800624e <quorem+0x108>
 8006236:	f8c8 4010 	str.w	r4, [r8, #16]
 800623a:	4628      	mov	r0, r5
 800623c:	b003      	add	sp, #12
 800623e:	e8bd 8ff0 	ldmia.w	sp!, {r4, r5, r6, r7, r8, r9, sl, fp, pc}
 8006242:	6812      	ldr	r2, [r2, #0]
 8006244:	3b04      	subs	r3, #4
 8006246:	2a00      	cmp	r2, #0
 8006248:	d1ca      	bne.n	80061e0 <quorem+0x9a>
 800624a:	3c01      	subs	r4, #1
 800624c:	e7c5      	b.n	80061da <quorem+0x94>
 800624e:	6812      	ldr	r2, [r2, #0]
 8006250:	3b04      	subs	r3, #4
 8006252:	2a00      	cmp	r2, #0
 8006254:	d1ef      	bne.n	8006236 <quorem+0xf0>
 8006256:	3c01      	subs	r4, #1
 8006258:	e7ea      	b.n	8006230 <quorem+0xea>
 800625a:	2000      	movs	r0, #0
 800625c:	e7ee      	b.n	800623c <quorem+0xf6>
	...

08006260 <_dtoa_r>:
 8006260:	e92d 4ff0 	stmdb	sp!, {r4, r5, r6, r7, r8, r9, sl, fp, lr}
 8006264:	ec57 6b10 	vmov	r6, r7, d0
 8006268:	b097      	sub	sp, #92	; 0x5c
 800626a:	6a45      	ldr	r5, [r0, #36]	; 0x24
 800626c:	9106      	str	r1, [sp, #24]
 800626e:	4604      	mov	r4, r0
 8006270:	920b      	str	r2, [sp, #44]	; 0x2c
 8006272:	9312      	str	r3, [sp, #72]	; 0x48
 8006274:	f8dd 8080 	ldr.w	r8, [sp, #128]	; 0x80
 8006278:	e9cd 6700 	strd	r6, r7, [sp]
 800627c:	b93d      	cbnz	r5, 800628e <_dtoa_r+0x2e>
 800627e:	2010      	movs	r0, #16
 8006280:	f7ff f9f2 	bl	8005668 <malloc>
 8006284:	6260      	str	r0, [r4, #36]	; 0x24
 8006286:	e9c0 5501 	strd	r5, r5, [r0, #4]
 800628a:	6005      	str	r5, [r0, #0]
 800628c:	60c5      	str	r5, [r0, #12]
 800628e:	6a63      	ldr	r3, [r4, #36]	; 0x24
 8006290:	6819      	ldr	r1, [r3, #0]
 8006292:	b151      	cbz	r1, 80062aa <_dtoa_r+0x4a>
 8006294:	685a      	ldr	r2, [r3, #4]
 8006296:	604a      	str	r2, [r1, #4]
 8006298:	2301      	movs	r3, #1
 800629a:	4093      	lsls	r3, r2
 800629c:	608b      	str	r3, [r1, #8]
 800629e:	4620      	mov	r0, r4
 80062a0:	f000 fdda 	bl	8006e58 <_Bfree>
 80062a4:	6a63      	ldr	r3, [r4, #36]	; 0x24
 80062a6:	2200      	movs	r2, #0
 80062a8:	601a      	str	r2, [r3, #0]
 80062aa:	1e3b      	subs	r3, r7, #0
 80062ac:	bfbb      	ittet	lt
 80062ae:	f023 4300 	biclt.w	r3, r3, #2147483648	; 0x80000000
 80062b2:	9301      	strlt	r3, [sp, #4]
 80062b4:	2300      	movge	r3, #0
 80062b6:	2201      	movlt	r2, #1
 80062b8:	bfac      	ite	ge
 80062ba:	f8c8 3000 	strge.w	r3, [r8]
 80062be:	f8c8 2000 	strlt.w	r2, [r8]
 80062c2:	4baf      	ldr	r3, [pc, #700]	; (8006580 <_dtoa_r+0x320>)
 80062c4:	f8dd 8004 	ldr.w	r8, [sp, #4]
 80062c8:	ea33 0308 	bics.w	r3, r3, r8
 80062cc:	d114      	bne.n	80062f8 <_dtoa_r+0x98>
 80062ce:	9a12      	ldr	r2, [sp, #72]	; 0x48
 80062d0:	f242 730f 	movw	r3, #9999	; 0x270f
 80062d4:	6013      	str	r3, [r2, #0]
 80062d6:	9b00      	ldr	r3, [sp, #0]
 80062d8:	b923      	cbnz	r3, 80062e4 <_dtoa_r+0x84>
 80062da:	f3c8 0013 	ubfx	r0, r8, #0, #20
 80062de:	2800      	cmp	r0, #0
 80062e0:	f000 8542 	beq.w	8006d68 <_dtoa_r+0xb08>
 80062e4:	9b21      	ldr	r3, [sp, #132]	; 0x84
 80062e6:	f8df b2ac 	ldr.w	fp, [pc, #684]	; 8006594 <_dtoa_r+0x334>
 80062ea:	2b00      	cmp	r3, #0
 80062ec:	f000 8544 	beq.w	8006d78 <_dtoa_r+0xb18>
 80062f0:	f10b 0303 	add.w	r3, fp, #3
 80062f4:	f000 bd3e 	b.w	8006d74 <_dtoa_r+0xb14>
 80062f8:	e9dd 6700 	ldrd	r6, r7, [sp]
 80062fc:	2200      	movs	r2, #0
 80062fe:	2300      	movs	r3, #0
 8006300:	4630      	mov	r0, r6
 8006302:	4639      	mov	r1, r7
 8006304:	f7fa fbf8 	bl	8000af8 <__aeabi_dcmpeq>
 8006308:	4681      	mov	r9, r0
 800630a:	b168      	cbz	r0, 8006328 <_dtoa_r+0xc8>
 800630c:	9a12      	ldr	r2, [sp, #72]	; 0x48
 800630e:	2301      	movs	r3, #1
 8006310:	6013      	str	r3, [r2, #0]
 8006312:	9b21      	ldr	r3, [sp, #132]	; 0x84
 8006314:	2b00      	cmp	r3, #0
 8006316:	f000 8524 	beq.w	8006d62 <_dtoa_r+0xb02>
 800631a:	4b9a      	ldr	r3, [pc, #616]	; (8006584 <_dtoa_r+0x324>)
 800631c:	9a21      	ldr	r2, [sp, #132]	; 0x84
 800631e:	f103 3bff 	add.w	fp, r3, #4294967295
 8006322:	6013      	str	r3, [r2, #0]
 8006324:	f000 bd28 	b.w	8006d78 <_dtoa_r+0xb18>
 8006328:	aa14      	add	r2, sp, #80	; 0x50
 800632a:	a915      	add	r1, sp, #84	; 0x54
 800632c:	ec47 6b10 	vmov	d0, r6, r7
 8006330:	4620      	mov	r0, r4
 8006332:	f000 ffea 	bl	800730a <__d2b>
 8006336:	f3c8 550a 	ubfx	r5, r8, #20, #11
 800633a:	9004      	str	r0, [sp, #16]
 800633c:	2d00      	cmp	r5, #0
 800633e:	d07c      	beq.n	800643a <_dtoa_r+0x1da>
 8006340:	f3c7 0313 	ubfx	r3, r7, #0, #20
 8006344:	f043 5b7f 	orr.w	fp, r3, #1069547520	; 0x3fc00000
 8006348:	46b2      	mov	sl, r6
 800634a:	f44b 1b40 	orr.w	fp, fp, #3145728	; 0x300000
 800634e:	f2a5 35ff 	subw	r5, r5, #1023	; 0x3ff
 8006352:	f8cd 904c 	str.w	r9, [sp, #76]	; 0x4c
 8006356:	2200      	movs	r2, #0
 8006358:	4b8b      	ldr	r3, [pc, #556]	; (8006588 <_dtoa_r+0x328>)
 800635a:	4650      	mov	r0, sl
 800635c:	4659      	mov	r1, fp
 800635e:	f7f9 ffab 	bl	80002b8 <__aeabi_dsub>
 8006362:	a381      	add	r3, pc, #516	; (adr r3, 8006568 <_dtoa_r+0x308>)
 8006364:	e9d3 2300 	ldrd	r2, r3, [r3]
 8006368:	f7fa f95e 	bl	8000628 <__aeabi_dmul>
 800636c:	a380      	add	r3, pc, #512	; (adr r3, 8006570 <_dtoa_r+0x310>)
 800636e:	e9d3 2300 	ldrd	r2, r3, [r3]
 8006372:	f7f9 ffa3 	bl	80002bc <__adddf3>
 8006376:	4606      	mov	r6, r0
 8006378:	4628      	mov	r0, r5
 800637a:	460f      	mov	r7, r1
 800637c:	f7fa f8ea 	bl	8000554 <__aeabi_i2d>
 8006380:	a37d      	add	r3, pc, #500	; (adr r3, 8006578 <_dtoa_r+0x318>)
 8006382:	e9d3 2300 	ldrd	r2, r3, [r3]
 8006386:	f7fa f94f 	bl	8000628 <__aeabi_dmul>
 800638a:	4602      	mov	r2, r0
 800638c:	460b      	mov	r3, r1
 800638e:	4630      	mov	r0, r6
 8006390:	4639      	mov	r1, r7
 8006392:	f7f9 ff93 	bl	80002bc <__adddf3>
 8006396:	4606      	mov	r6, r0
 8006398:	460f      	mov	r7, r1
 800639a:	f7fa fbf5 	bl	8000b88 <__aeabi_d2iz>
 800639e:	2200      	movs	r2, #0
 80063a0:	4682      	mov	sl, r0
 80063a2:	2300      	movs	r3, #0
 80063a4:	4630      	mov	r0, r6
 80063a6:	4639      	mov	r1, r7
 80063a8:	f7fa fbb0 	bl	8000b0c <__aeabi_dcmplt>
 80063ac:	b148      	cbz	r0, 80063c2 <_dtoa_r+0x162>
 80063ae:	4650      	mov	r0, sl
 80063b0:	f7fa f8d0 	bl	8000554 <__aeabi_i2d>
 80063b4:	4632      	mov	r2, r6
 80063b6:	463b      	mov	r3, r7
 80063b8:	f7fa fb9e 	bl	8000af8 <__aeabi_dcmpeq>
 80063bc:	b908      	cbnz	r0, 80063c2 <_dtoa_r+0x162>
 80063be:	f10a 3aff 	add.w	sl, sl, #4294967295
 80063c2:	f1ba 0f16 	cmp.w	sl, #22
 80063c6:	d859      	bhi.n	800647c <_dtoa_r+0x21c>
 80063c8:	4970      	ldr	r1, [pc, #448]	; (800658c <_dtoa_r+0x32c>)
 80063ca:	eb01 01ca 	add.w	r1, r1, sl, lsl #3
 80063ce:	e9dd 2300 	ldrd	r2, r3, [sp]
 80063d2:	e9d1 0100 	ldrd	r0, r1, [r1]
 80063d6:	f7fa fbb7 	bl	8000b48 <__aeabi_dcmpgt>
 80063da:	2800      	cmp	r0, #0
 80063dc:	d050      	beq.n	8006480 <_dtoa_r+0x220>
 80063de:	f10a 3aff 	add.w	sl, sl, #4294967295
 80063e2:	2300      	movs	r3, #0
 80063e4:	930f      	str	r3, [sp, #60]	; 0x3c
 80063e6:	9b14      	ldr	r3, [sp, #80]	; 0x50
 80063e8:	1b5d      	subs	r5, r3, r5
 80063ea:	f1b5 0801 	subs.w	r8, r5, #1
 80063ee:	bf49      	itett	mi
 80063f0:	f1c5 0301 	rsbmi	r3, r5, #1
 80063f4:	2300      	movpl	r3, #0
 80063f6:	9305      	strmi	r3, [sp, #20]
 80063f8:	f04f 0800 	movmi.w	r8, #0
 80063fc:	bf58      	it	pl
 80063fe:	9305      	strpl	r3, [sp, #20]
 8006400:	f1ba 0f00 	cmp.w	sl, #0
 8006404:	db3e      	blt.n	8006484 <_dtoa_r+0x224>
 8006406:	2300      	movs	r3, #0
 8006408:	44d0      	add	r8, sl
 800640a:	f8cd a038 	str.w	sl, [sp, #56]	; 0x38
 800640e:	9307      	str	r3, [sp, #28]
 8006410:	9b06      	ldr	r3, [sp, #24]
 8006412:	2b09      	cmp	r3, #9
 8006414:	f200 8090 	bhi.w	8006538 <_dtoa_r+0x2d8>
 8006418:	2b05      	cmp	r3, #5
 800641a:	bfc4      	itt	gt
 800641c:	3b04      	subgt	r3, #4
 800641e:	9306      	strgt	r3, [sp, #24]
 8006420:	9b06      	ldr	r3, [sp, #24]
 8006422:	f1a3 0302 	sub.w	r3, r3, #2
 8006426:	bfcc      	ite	gt
 8006428:	2500      	movgt	r5, #0
 800642a:	2501      	movle	r5, #1
 800642c:	2b03      	cmp	r3, #3
 800642e:	f200 808f 	bhi.w	8006550 <_dtoa_r+0x2f0>
 8006432:	e8df f003 	tbb	[pc, r3]
 8006436:	7f7d      	.short	0x7f7d
 8006438:	7131      	.short	0x7131
 800643a:	e9dd 5314 	ldrd	r5, r3, [sp, #80]	; 0x50
 800643e:	441d      	add	r5, r3
 8006440:	f205 4032 	addw	r0, r5, #1074	; 0x432
 8006444:	2820      	cmp	r0, #32
 8006446:	dd13      	ble.n	8006470 <_dtoa_r+0x210>
 8006448:	f1c0 0040 	rsb	r0, r0, #64	; 0x40
 800644c:	9b00      	ldr	r3, [sp, #0]
 800644e:	fa08 f800 	lsl.w	r8, r8, r0
 8006452:	f205 4012 	addw	r0, r5, #1042	; 0x412
 8006456:	fa23 f000 	lsr.w	r0, r3, r0
 800645a:	ea48 0000 	orr.w	r0, r8, r0
 800645e:	f7fa f869 	bl	8000534 <__aeabi_ui2d>
 8006462:	2301      	movs	r3, #1
 8006464:	4682      	mov	sl, r0
 8006466:	f1a1 7bf8 	sub.w	fp, r1, #32505856	; 0x1f00000
 800646a:	3d01      	subs	r5, #1
 800646c:	9313      	str	r3, [sp, #76]	; 0x4c
 800646e:	e772      	b.n	8006356 <_dtoa_r+0xf6>
 8006470:	9b00      	ldr	r3, [sp, #0]
 8006472:	f1c0 0020 	rsb	r0, r0, #32
 8006476:	fa03 f000 	lsl.w	r0, r3, r0
 800647a:	e7f0      	b.n	800645e <_dtoa_r+0x1fe>
 800647c:	2301      	movs	r3, #1
 800647e:	e7b1      	b.n	80063e4 <_dtoa_r+0x184>
 8006480:	900f      	str	r0, [sp, #60]	; 0x3c
 8006482:	e7b0      	b.n	80063e6 <_dtoa_r+0x186>
 8006484:	9b05      	ldr	r3, [sp, #20]
 8006486:	eba3 030a 	sub.w	r3, r3, sl
 800648a:	9305      	str	r3, [sp, #20]
 800648c:	f1ca 0300 	rsb	r3, sl, #0
 8006490:	9307      	str	r3, [sp, #28]
 8006492:	2300      	movs	r3, #0
 8006494:	930e      	str	r3, [sp, #56]	; 0x38
 8006496:	e7bb      	b.n	8006410 <_dtoa_r+0x1b0>
 8006498:	2301      	movs	r3, #1
 800649a:	930a      	str	r3, [sp, #40]	; 0x28
 800649c:	9b0b      	ldr	r3, [sp, #44]	; 0x2c
 800649e:	2b00      	cmp	r3, #0
 80064a0:	dd59      	ble.n	8006556 <_dtoa_r+0x2f6>
 80064a2:	9302      	str	r3, [sp, #8]
 80064a4:	4699      	mov	r9, r3
 80064a6:	6a66      	ldr	r6, [r4, #36]	; 0x24
 80064a8:	2200      	movs	r2, #0
 80064aa:	6072      	str	r2, [r6, #4]
 80064ac:	2204      	movs	r2, #4
 80064ae:	f102 0014 	add.w	r0, r2, #20
 80064b2:	4298      	cmp	r0, r3
 80064b4:	6871      	ldr	r1, [r6, #4]
 80064b6:	d953      	bls.n	8006560 <_dtoa_r+0x300>
 80064b8:	4620      	mov	r0, r4
 80064ba:	f000 fc99 	bl	8006df0 <_Balloc>
 80064be:	6a63      	ldr	r3, [r4, #36]	; 0x24
 80064c0:	6030      	str	r0, [r6, #0]
 80064c2:	f1b9 0f0e 	cmp.w	r9, #14
 80064c6:	f8d3 b000 	ldr.w	fp, [r3]
 80064ca:	f200 80e6 	bhi.w	800669a <_dtoa_r+0x43a>
 80064ce:	2d00      	cmp	r5, #0
 80064d0:	f000 80e3 	beq.w	800669a <_dtoa_r+0x43a>
 80064d4:	ed9d 7b00 	vldr	d7, [sp]
 80064d8:	f1ba 0f00 	cmp.w	sl, #0
 80064dc:	ed8d 7b10 	vstr	d7, [sp, #64]	; 0x40
 80064e0:	dd74      	ble.n	80065cc <_dtoa_r+0x36c>
 80064e2:	4a2a      	ldr	r2, [pc, #168]	; (800658c <_dtoa_r+0x32c>)
 80064e4:	f00a 030f 	and.w	r3, sl, #15
 80064e8:	eb02 03c3 	add.w	r3, r2, r3, lsl #3
 80064ec:	ed93 7b00 	vldr	d7, [r3]
 80064f0:	ea4f 162a 	mov.w	r6, sl, asr #4
 80064f4:	06f0      	lsls	r0, r6, #27
 80064f6:	ed8d 7b08 	vstr	d7, [sp, #32]
 80064fa:	d565      	bpl.n	80065c8 <_dtoa_r+0x368>
 80064fc:	4b24      	ldr	r3, [pc, #144]	; (8006590 <_dtoa_r+0x330>)
 80064fe:	e9dd 0110 	ldrd	r0, r1, [sp, #64]	; 0x40
 8006502:	e9d3 2308 	ldrd	r2, r3, [r3, #32]
 8006506:	f7fa f9b9 	bl	800087c <__aeabi_ddiv>
 800650a:	e9cd 0100 	strd	r0, r1, [sp]
 800650e:	f006 060f 	and.w	r6, r6, #15
 8006512:	2503      	movs	r5, #3
 8006514:	4f1e      	ldr	r7, [pc, #120]	; (8006590 <_dtoa_r+0x330>)
 8006516:	e04c      	b.n	80065b2 <_dtoa_r+0x352>
 8006518:	2301      	movs	r3, #1
 800651a:	930a      	str	r3, [sp, #40]	; 0x28
 800651c:	9b0b      	ldr	r3, [sp, #44]	; 0x2c
 800651e:	4453      	add	r3, sl
 8006520:	f103 0901 	add.w	r9, r3, #1
 8006524:	9302      	str	r3, [sp, #8]
 8006526:	464b      	mov	r3, r9
 8006528:	2b01      	cmp	r3, #1
 800652a:	bfb8      	it	lt
 800652c:	2301      	movlt	r3, #1
 800652e:	e7ba      	b.n	80064a6 <_dtoa_r+0x246>
 8006530:	2300      	movs	r3, #0
 8006532:	e7b2      	b.n	800649a <_dtoa_r+0x23a>
 8006534:	2300      	movs	r3, #0
 8006536:	e7f0      	b.n	800651a <_dtoa_r+0x2ba>
 8006538:	2501      	movs	r5, #1
 800653a:	2300      	movs	r3, #0
 800653c:	9306      	str	r3, [sp, #24]
 800653e:	950a      	str	r5, [sp, #40]	; 0x28
 8006540:	f04f 33ff 	mov.w	r3, #4294967295
 8006544:	9302      	str	r3, [sp, #8]
 8006546:	4699      	mov	r9, r3
 8006548:	2200      	movs	r2, #0
 800654a:	2312      	movs	r3, #18
 800654c:	920b      	str	r2, [sp, #44]	; 0x2c
 800654e:	e7aa      	b.n	80064a6 <_dtoa_r+0x246>
 8006550:	2301      	movs	r3, #1
 8006552:	930a      	str	r3, [sp, #40]	; 0x28
 8006554:	e7f4      	b.n	8006540 <_dtoa_r+0x2e0>
 8006556:	2301      	movs	r3, #1
 8006558:	9302      	str	r3, [sp, #8]
 800655a:	4699      	mov	r9, r3
 800655c:	461a      	mov	r2, r3
 800655e:	e7f5      	b.n	800654c <_dtoa_r+0x2ec>
 8006560:	3101      	adds	r1, #1
 8006562:	6071      	str	r1, [r6, #4]
 8006564:	0052      	lsls	r2, r2, #1
 8006566:	e7a2      	b.n	80064ae <_dtoa_r+0x24e>
 8006568:	636f4361 	.word	0x636f4361
 800656c:	3fd287a7 	.word	0x3fd287a7
 8006570:	8b60c8b3 	.word	0x8b60c8b3
 8006574:	3fc68a28 	.word	0x3fc68a28
 8006578:	509f79fb 	.word	0x509f79fb
 800657c:	3fd34413 	.word	0x3fd34413
 8006580:	7ff00000 	.word	0x7ff00000
 8006584:	0801774f 	.word	0x0801774f
 8006588:	3ff80000 	.word	0x3ff80000
 800658c:	080178a8 	.word	0x080178a8
 8006590:	08017880 	.word	0x08017880
 8006594:	0801787c 	.word	0x0801787c
 8006598:	07f1      	lsls	r1, r6, #31
 800659a:	d508      	bpl.n	80065ae <_dtoa_r+0x34e>
 800659c:	e9dd 0108 	ldrd	r0, r1, [sp, #32]
 80065a0:	e9d7 2300 	ldrd	r2, r3, [r7]
 80065a4:	f7fa f840 	bl	8000628 <__aeabi_dmul>
 80065a8:	e9cd 0108 	strd	r0, r1, [sp, #32]
 80065ac:	3501      	adds	r5, #1
 80065ae:	1076      	asrs	r6, r6, #1
 80065b0:	3708      	adds	r7, #8
 80065b2:	2e00      	cmp	r6, #0
 80065b4:	d1f0      	bne.n	8006598 <_dtoa_r+0x338>
 80065b6:	e9dd 2308 	ldrd	r2, r3, [sp, #32]
 80065ba:	e9dd 0100 	ldrd	r0, r1, [sp]
 80065be:	f7fa f95d 	bl	800087c <__aeabi_ddiv>
 80065c2:	e9cd 0100 	strd	r0, r1, [sp]
 80065c6:	e01a      	b.n	80065fe <_dtoa_r+0x39e>
 80065c8:	2502      	movs	r5, #2
 80065ca:	e7a3      	b.n	8006514 <_dtoa_r+0x2b4>
 80065cc:	f000 80a0 	beq.w	8006710 <_dtoa_r+0x4b0>
 80065d0:	f1ca 0600 	rsb	r6, sl, #0
 80065d4:	4b9f      	ldr	r3, [pc, #636]	; (8006854 <_dtoa_r+0x5f4>)
 80065d6:	4fa0      	ldr	r7, [pc, #640]	; (8006858 <_dtoa_r+0x5f8>)
 80065d8:	f006 020f 	and.w	r2, r6, #15
 80065dc:	eb03 03c2 	add.w	r3, r3, r2, lsl #3
 80065e0:	e9d3 2300 	ldrd	r2, r3, [r3]
 80065e4:	e9dd 0110 	ldrd	r0, r1, [sp, #64]	; 0x40
 80065e8:	f7fa f81e 	bl	8000628 <__aeabi_dmul>
 80065ec:	e9cd 0100 	strd	r0, r1, [sp]
 80065f0:	1136      	asrs	r6, r6, #4
 80065f2:	2300      	movs	r3, #0
 80065f4:	2502      	movs	r5, #2
 80065f6:	2e00      	cmp	r6, #0
 80065f8:	d17f      	bne.n	80066fa <_dtoa_r+0x49a>
 80065fa:	2b00      	cmp	r3, #0
 80065fc:	d1e1      	bne.n	80065c2 <_dtoa_r+0x362>
 80065fe:	9b0f      	ldr	r3, [sp, #60]	; 0x3c
 8006600:	2b00      	cmp	r3, #0
 8006602:	f000 8087 	beq.w	8006714 <_dtoa_r+0x4b4>
 8006606:	e9dd 6700 	ldrd	r6, r7, [sp]
 800660a:	2200      	movs	r2, #0
 800660c:	4b93      	ldr	r3, [pc, #588]	; (800685c <_dtoa_r+0x5fc>)
 800660e:	4630      	mov	r0, r6
 8006610:	4639      	mov	r1, r7
 8006612:	f7fa fa7b 	bl	8000b0c <__aeabi_dcmplt>
 8006616:	2800      	cmp	r0, #0
 8006618:	d07c      	beq.n	8006714 <_dtoa_r+0x4b4>
 800661a:	f1b9 0f00 	cmp.w	r9, #0
 800661e:	d079      	beq.n	8006714 <_dtoa_r+0x4b4>
 8006620:	9b02      	ldr	r3, [sp, #8]
 8006622:	2b00      	cmp	r3, #0
 8006624:	dd35      	ble.n	8006692 <_dtoa_r+0x432>
 8006626:	f10a 33ff 	add.w	r3, sl, #4294967295
 800662a:	9308      	str	r3, [sp, #32]
 800662c:	4639      	mov	r1, r7
 800662e:	2200      	movs	r2, #0
 8006630:	4b8b      	ldr	r3, [pc, #556]	; (8006860 <_dtoa_r+0x600>)
 8006632:	4630      	mov	r0, r6
 8006634:	f7f9 fff8 	bl	8000628 <__aeabi_dmul>
 8006638:	e9cd 0100 	strd	r0, r1, [sp]
 800663c:	9f02      	ldr	r7, [sp, #8]
 800663e:	3501      	adds	r5, #1
 8006640:	4628      	mov	r0, r5
 8006642:	f7f9 ff87 	bl	8000554 <__aeabi_i2d>
 8006646:	e9dd 2300 	ldrd	r2, r3, [sp]
 800664a:	f7f9 ffed 	bl	8000628 <__aeabi_dmul>
 800664e:	2200      	movs	r2, #0
 8006650:	4b84      	ldr	r3, [pc, #528]	; (8006864 <_dtoa_r+0x604>)
 8006652:	f7f9 fe33 	bl	80002bc <__adddf3>
 8006656:	4605      	mov	r5, r0
 8006658:	f1a1 7650 	sub.w	r6, r1, #54525952	; 0x3400000
 800665c:	2f00      	cmp	r7, #0
 800665e:	d15d      	bne.n	800671c <_dtoa_r+0x4bc>
 8006660:	2200      	movs	r2, #0
 8006662:	4b81      	ldr	r3, [pc, #516]	; (8006868 <_dtoa_r+0x608>)
 8006664:	e9dd 0100 	ldrd	r0, r1, [sp]
 8006668:	f7f9 fe26 	bl	80002b8 <__aeabi_dsub>
 800666c:	462a      	mov	r2, r5
 800666e:	4633      	mov	r3, r6
 8006670:	e9cd 0100 	strd	r0, r1, [sp]
 8006674:	f7fa fa68 	bl	8000b48 <__aeabi_dcmpgt>
 8006678:	2800      	cmp	r0, #0
 800667a:	f040 8288 	bne.w	8006b8e <_dtoa_r+0x92e>
 800667e:	462a      	mov	r2, r5
 8006680:	f106 4300 	add.w	r3, r6, #2147483648	; 0x80000000
 8006684:	e9dd 0100 	ldrd	r0, r1, [sp]
 8006688:	f7fa fa40 	bl	8000b0c <__aeabi_dcmplt>
 800668c:	2800      	cmp	r0, #0
 800668e:	f040 827c 	bne.w	8006b8a <_dtoa_r+0x92a>
 8006692:	e9dd 2310 	ldrd	r2, r3, [sp, #64]	; 0x40
 8006696:	e9cd 2300 	strd	r2, r3, [sp]
 800669a:	9b15      	ldr	r3, [sp, #84]	; 0x54
 800669c:	2b00      	cmp	r3, #0
 800669e:	f2c0 8150 	blt.w	8006942 <_dtoa_r+0x6e2>
 80066a2:	f1ba 0f0e 	cmp.w	sl, #14
 80066a6:	f300 814c 	bgt.w	8006942 <_dtoa_r+0x6e2>
 80066aa:	4b6a      	ldr	r3, [pc, #424]	; (8006854 <_dtoa_r+0x5f4>)
 80066ac:	eb03 03ca 	add.w	r3, r3, sl, lsl #3
 80066b0:	ed93 7b00 	vldr	d7, [r3]
 80066b4:	9b0b      	ldr	r3, [sp, #44]	; 0x2c
 80066b6:	2b00      	cmp	r3, #0
 80066b8:	ed8d 7b02 	vstr	d7, [sp, #8]
 80066bc:	f280 80d8 	bge.w	8006870 <_dtoa_r+0x610>
 80066c0:	f1b9 0f00 	cmp.w	r9, #0
 80066c4:	f300 80d4 	bgt.w	8006870 <_dtoa_r+0x610>
 80066c8:	f040 825e 	bne.w	8006b88 <_dtoa_r+0x928>
 80066cc:	2200      	movs	r2, #0
 80066ce:	4b66      	ldr	r3, [pc, #408]	; (8006868 <_dtoa_r+0x608>)
 80066d0:	ec51 0b17 	vmov	r0, r1, d7
 80066d4:	f7f9 ffa8 	bl	8000628 <__aeabi_dmul>
 80066d8:	e9dd 2300 	ldrd	r2, r3, [sp]
 80066dc:	f7fa fa2a 	bl	8000b34 <__aeabi_dcmpge>
 80066e0:	464f      	mov	r7, r9
 80066e2:	464e      	mov	r6, r9
 80066e4:	2800      	cmp	r0, #0
 80066e6:	f040 8234 	bne.w	8006b52 <_dtoa_r+0x8f2>
 80066ea:	2331      	movs	r3, #49	; 0x31
 80066ec:	f10b 0501 	add.w	r5, fp, #1
 80066f0:	f88b 3000 	strb.w	r3, [fp]
 80066f4:	f10a 0a01 	add.w	sl, sl, #1
 80066f8:	e22f      	b.n	8006b5a <_dtoa_r+0x8fa>
 80066fa:	07f2      	lsls	r2, r6, #31
 80066fc:	d505      	bpl.n	800670a <_dtoa_r+0x4aa>
 80066fe:	e9d7 2300 	ldrd	r2, r3, [r7]
 8006702:	f7f9 ff91 	bl	8000628 <__aeabi_dmul>
 8006706:	3501      	adds	r5, #1
 8006708:	2301      	movs	r3, #1
 800670a:	1076      	asrs	r6, r6, #1
 800670c:	3708      	adds	r7, #8
 800670e:	e772      	b.n	80065f6 <_dtoa_r+0x396>
 8006710:	2502      	movs	r5, #2
 8006712:	e774      	b.n	80065fe <_dtoa_r+0x39e>
 8006714:	f8cd a020 	str.w	sl, [sp, #32]
 8006718:	464f      	mov	r7, r9
 800671a:	e791      	b.n	8006640 <_dtoa_r+0x3e0>
 800671c:	4b4d      	ldr	r3, [pc, #308]	; (8006854 <_dtoa_r+0x5f4>)
 800671e:	eb03 03c7 	add.w	r3, r3, r7, lsl #3
 8006722:	e953 0102 	ldrd	r0, r1, [r3, #-8]
 8006726:	9b0a      	ldr	r3, [sp, #40]	; 0x28
 8006728:	2b00      	cmp	r3, #0
 800672a:	d047      	beq.n	80067bc <_dtoa_r+0x55c>
 800672c:	4602      	mov	r2, r0
 800672e:	460b      	mov	r3, r1
 8006730:	2000      	movs	r0, #0
 8006732:	494e      	ldr	r1, [pc, #312]	; (800686c <_dtoa_r+0x60c>)
 8006734:	f7fa f8a2 	bl	800087c <__aeabi_ddiv>
 8006738:	462a      	mov	r2, r5
 800673a:	4633      	mov	r3, r6
 800673c:	f7f9 fdbc 	bl	80002b8 <__aeabi_dsub>
 8006740:	e9cd 010c 	strd	r0, r1, [sp, #48]	; 0x30
 8006744:	465d      	mov	r5, fp
 8006746:	e9dd 0100 	ldrd	r0, r1, [sp]
 800674a:	f7fa fa1d 	bl	8000b88 <__aeabi_d2iz>
 800674e:	4606      	mov	r6, r0
 8006750:	f7f9 ff00 	bl	8000554 <__aeabi_i2d>
 8006754:	4602      	mov	r2, r0
 8006756:	460b      	mov	r3, r1
 8006758:	e9dd 0100 	ldrd	r0, r1, [sp]
 800675c:	f7f9 fdac 	bl	80002b8 <__aeabi_dsub>
 8006760:	3630      	adds	r6, #48	; 0x30
 8006762:	f805 6b01 	strb.w	r6, [r5], #1
 8006766:	e9dd 230c 	ldrd	r2, r3, [sp, #48]	; 0x30
 800676a:	e9cd 0100 	strd	r0, r1, [sp]
 800676e:	f7fa f9cd 	bl	8000b0c <__aeabi_dcmplt>
 8006772:	2800      	cmp	r0, #0
 8006774:	d163      	bne.n	800683e <_dtoa_r+0x5de>
 8006776:	e9dd 2300 	ldrd	r2, r3, [sp]
 800677a:	2000      	movs	r0, #0
 800677c:	4937      	ldr	r1, [pc, #220]	; (800685c <_dtoa_r+0x5fc>)
 800677e:	f7f9 fd9b 	bl	80002b8 <__aeabi_dsub>
 8006782:	e9dd 230c 	ldrd	r2, r3, [sp, #48]	; 0x30
 8006786:	f7fa f9c1 	bl	8000b0c <__aeabi_dcmplt>
 800678a:	2800      	cmp	r0, #0
 800678c:	f040 80b7 	bne.w	80068fe <_dtoa_r+0x69e>
 8006790:	eba5 030b 	sub.w	r3, r5, fp
 8006794:	429f      	cmp	r7, r3
 8006796:	f77f af7c 	ble.w	8006692 <_dtoa_r+0x432>
 800679a:	2200      	movs	r2, #0
 800679c:	4b30      	ldr	r3, [pc, #192]	; (8006860 <_dtoa_r+0x600>)
 800679e:	e9dd 010c 	ldrd	r0, r1, [sp, #48]	; 0x30
 80067a2:	f7f9 ff41 	bl	8000628 <__aeabi_dmul>
 80067a6:	2200      	movs	r2, #0
 80067a8:	e9cd 010c 	strd	r0, r1, [sp, #48]	; 0x30
 80067ac:	4b2c      	ldr	r3, [pc, #176]	; (8006860 <_dtoa_r+0x600>)
 80067ae:	e9dd 0100 	ldrd	r0, r1, [sp]
 80067b2:	f7f9 ff39 	bl	8000628 <__aeabi_dmul>
 80067b6:	e9cd 0100 	strd	r0, r1, [sp]
 80067ba:	e7c4      	b.n	8006746 <_dtoa_r+0x4e6>
 80067bc:	462a      	mov	r2, r5
 80067be:	4633      	mov	r3, r6
 80067c0:	f7f9 ff32 	bl	8000628 <__aeabi_dmul>
 80067c4:	e9cd 010c 	strd	r0, r1, [sp, #48]	; 0x30
 80067c8:	eb0b 0507 	add.w	r5, fp, r7
 80067cc:	465e      	mov	r6, fp
 80067ce:	e9dd 0100 	ldrd	r0, r1, [sp]
 80067d2:	f7fa f9d9 	bl	8000b88 <__aeabi_d2iz>
 80067d6:	4607      	mov	r7, r0
 80067d8:	f7f9 febc 	bl	8000554 <__aeabi_i2d>
 80067dc:	3730      	adds	r7, #48	; 0x30
 80067de:	4602      	mov	r2, r0
 80067e0:	460b      	mov	r3, r1
 80067e2:	e9dd 0100 	ldrd	r0, r1, [sp]
 80067e6:	f7f9 fd67 	bl	80002b8 <__aeabi_dsub>
 80067ea:	f806 7b01 	strb.w	r7, [r6], #1
 80067ee:	42ae      	cmp	r6, r5
 80067f0:	e9cd 0100 	strd	r0, r1, [sp]
 80067f4:	f04f 0200 	mov.w	r2, #0
 80067f8:	d126      	bne.n	8006848 <_dtoa_r+0x5e8>
 80067fa:	4b1c      	ldr	r3, [pc, #112]	; (800686c <_dtoa_r+0x60c>)
 80067fc:	e9dd 010c 	ldrd	r0, r1, [sp, #48]	; 0x30
 8006800:	f7f9 fd5c 	bl	80002bc <__adddf3>
 8006804:	4602      	mov	r2, r0
 8006806:	460b      	mov	r3, r1
 8006808:	e9dd 0100 	ldrd	r0, r1, [sp]
 800680c:	f7fa f99c 	bl	8000b48 <__aeabi_dcmpgt>
 8006810:	2800      	cmp	r0, #0
 8006812:	d174      	bne.n	80068fe <_dtoa_r+0x69e>
 8006814:	e9dd 230c 	ldrd	r2, r3, [sp, #48]	; 0x30
 8006818:	2000      	movs	r0, #0
 800681a:	4914      	ldr	r1, [pc, #80]	; (800686c <_dtoa_r+0x60c>)
 800681c:	f7f9 fd4c 	bl	80002b8 <__aeabi_dsub>
 8006820:	4602      	mov	r2, r0
 8006822:	460b      	mov	r3, r1
 8006824:	e9dd 0100 	ldrd	r0, r1, [sp]
 8006828:	f7fa f970 	bl	8000b0c <__aeabi_dcmplt>
 800682c:	2800      	cmp	r0, #0
 800682e:	f43f af30 	beq.w	8006692 <_dtoa_r+0x432>
 8006832:	f815 3c01 	ldrb.w	r3, [r5, #-1]
 8006836:	2b30      	cmp	r3, #48	; 0x30
 8006838:	f105 32ff 	add.w	r2, r5, #4294967295
 800683c:	d002      	beq.n	8006844 <_dtoa_r+0x5e4>
 800683e:	f8dd a020 	ldr.w	sl, [sp, #32]
 8006842:	e04a      	b.n	80068da <_dtoa_r+0x67a>
 8006844:	4615      	mov	r5, r2
 8006846:	e7f4      	b.n	8006832 <_dtoa_r+0x5d2>
 8006848:	4b05      	ldr	r3, [pc, #20]	; (8006860 <_dtoa_r+0x600>)
 800684a:	f7f9 feed 	bl	8000628 <__aeabi_dmul>
 800684e:	e9cd 0100 	strd	r0, r1, [sp]
 8006852:	e7bc      	b.n	80067ce <_dtoa_r+0x56e>
 8006854:	080178a8 	.word	0x080178a8
 8006858:	08017880 	.word	0x08017880
 800685c:	3ff00000 	.word	0x3ff00000
 8006860:	40240000 	.word	0x40240000
 8006864:	401c0000 	.word	0x401c0000
 8006868:	40140000 	.word	0x40140000
 800686c:	3fe00000 	.word	0x3fe00000
 8006870:	e9dd 6700 	ldrd	r6, r7, [sp]
 8006874:	465d      	mov	r5, fp
 8006876:	e9dd 2302 	ldrd	r2, r3, [sp, #8]
 800687a:	4630      	mov	r0, r6
 800687c:	4639      	mov	r1, r7
 800687e:	f7f9 fffd 	bl	800087c <__aeabi_ddiv>
 8006882:	f7fa f981 	bl	8000b88 <__aeabi_d2iz>
 8006886:	4680      	mov	r8, r0
 8006888:	f7f9 fe64 	bl	8000554 <__aeabi_i2d>
 800688c:	e9dd 2302 	ldrd	r2, r3, [sp, #8]
 8006890:	f7f9 feca 	bl	8000628 <__aeabi_dmul>
 8006894:	4602      	mov	r2, r0
 8006896:	460b      	mov	r3, r1
 8006898:	4630      	mov	r0, r6
 800689a:	4639      	mov	r1, r7
 800689c:	f108 0630 	add.w	r6, r8, #48	; 0x30
 80068a0:	f7f9 fd0a 	bl	80002b8 <__aeabi_dsub>
 80068a4:	f805 6b01 	strb.w	r6, [r5], #1
 80068a8:	eba5 060b 	sub.w	r6, r5, fp
 80068ac:	45b1      	cmp	r9, r6
 80068ae:	4602      	mov	r2, r0
 80068b0:	460b      	mov	r3, r1
 80068b2:	d139      	bne.n	8006928 <_dtoa_r+0x6c8>
 80068b4:	f7f9 fd02 	bl	80002bc <__adddf3>
 80068b8:	e9dd 2302 	ldrd	r2, r3, [sp, #8]
 80068bc:	4606      	mov	r6, r0
 80068be:	460f      	mov	r7, r1
 80068c0:	f7fa f942 	bl	8000b48 <__aeabi_dcmpgt>
 80068c4:	b9c8      	cbnz	r0, 80068fa <_dtoa_r+0x69a>
 80068c6:	e9dd 2302 	ldrd	r2, r3, [sp, #8]
 80068ca:	4630      	mov	r0, r6
 80068cc:	4639      	mov	r1, r7
 80068ce:	f7fa f913 	bl	8000af8 <__aeabi_dcmpeq>
 80068d2:	b110      	cbz	r0, 80068da <_dtoa_r+0x67a>
 80068d4:	f018 0f01 	tst.w	r8, #1
 80068d8:	d10f      	bne.n	80068fa <_dtoa_r+0x69a>
 80068da:	9904      	ldr	r1, [sp, #16]
 80068dc:	4620      	mov	r0, r4
 80068de:	f000 fabb 	bl	8006e58 <_Bfree>
 80068e2:	2300      	movs	r3, #0
 80068e4:	9a12      	ldr	r2, [sp, #72]	; 0x48
 80068e6:	702b      	strb	r3, [r5, #0]
 80068e8:	f10a 0301 	add.w	r3, sl, #1
 80068ec:	6013      	str	r3, [r2, #0]
 80068ee:	9b21      	ldr	r3, [sp, #132]	; 0x84
 80068f0:	2b00      	cmp	r3, #0
 80068f2:	f000 8241 	beq.w	8006d78 <_dtoa_r+0xb18>
 80068f6:	601d      	str	r5, [r3, #0]
 80068f8:	e23e      	b.n	8006d78 <_dtoa_r+0xb18>
 80068fa:	f8cd a020 	str.w	sl, [sp, #32]
 80068fe:	f815 2c01 	ldrb.w	r2, [r5, #-1]
 8006902:	2a39      	cmp	r2, #57	; 0x39
 8006904:	f105 33ff 	add.w	r3, r5, #4294967295
 8006908:	d108      	bne.n	800691c <_dtoa_r+0x6bc>
 800690a:	459b      	cmp	fp, r3
 800690c:	d10a      	bne.n	8006924 <_dtoa_r+0x6c4>
 800690e:	9b08      	ldr	r3, [sp, #32]
 8006910:	3301      	adds	r3, #1
 8006912:	9308      	str	r3, [sp, #32]
 8006914:	2330      	movs	r3, #48	; 0x30
 8006916:	f88b 3000 	strb.w	r3, [fp]
 800691a:	465b      	mov	r3, fp
 800691c:	781a      	ldrb	r2, [r3, #0]
 800691e:	3201      	adds	r2, #1
 8006920:	701a      	strb	r2, [r3, #0]
 8006922:	e78c      	b.n	800683e <_dtoa_r+0x5de>
 8006924:	461d      	mov	r5, r3
 8006926:	e7ea      	b.n	80068fe <_dtoa_r+0x69e>
 8006928:	2200      	movs	r2, #0
 800692a:	4b9b      	ldr	r3, [pc, #620]	; (8006b98 <_dtoa_r+0x938>)
 800692c:	f7f9 fe7c 	bl	8000628 <__aeabi_dmul>
 8006930:	2200      	movs	r2, #0
 8006932:	2300      	movs	r3, #0
 8006934:	4606      	mov	r6, r0
 8006936:	460f      	mov	r7, r1
 8006938:	f7fa f8de 	bl	8000af8 <__aeabi_dcmpeq>
 800693c:	2800      	cmp	r0, #0
 800693e:	d09a      	beq.n	8006876 <_dtoa_r+0x616>
 8006940:	e7cb      	b.n	80068da <_dtoa_r+0x67a>
 8006942:	9a0a      	ldr	r2, [sp, #40]	; 0x28
 8006944:	2a00      	cmp	r2, #0
 8006946:	f000 808b 	beq.w	8006a60 <_dtoa_r+0x800>
 800694a:	9a06      	ldr	r2, [sp, #24]
 800694c:	2a01      	cmp	r2, #1
 800694e:	dc6e      	bgt.n	8006a2e <_dtoa_r+0x7ce>
 8006950:	9a13      	ldr	r2, [sp, #76]	; 0x4c
 8006952:	2a00      	cmp	r2, #0
 8006954:	d067      	beq.n	8006a26 <_dtoa_r+0x7c6>
 8006956:	f203 4333 	addw	r3, r3, #1075	; 0x433
 800695a:	9f07      	ldr	r7, [sp, #28]
 800695c:	9d05      	ldr	r5, [sp, #20]
 800695e:	9a05      	ldr	r2, [sp, #20]
 8006960:	2101      	movs	r1, #1
 8006962:	441a      	add	r2, r3
 8006964:	4620      	mov	r0, r4
 8006966:	9205      	str	r2, [sp, #20]
 8006968:	4498      	add	r8, r3
 800696a:	f000 fb15 	bl	8006f98 <__i2b>
 800696e:	4606      	mov	r6, r0
 8006970:	2d00      	cmp	r5, #0
 8006972:	dd0c      	ble.n	800698e <_dtoa_r+0x72e>
 8006974:	f1b8 0f00 	cmp.w	r8, #0
 8006978:	dd09      	ble.n	800698e <_dtoa_r+0x72e>
 800697a:	4545      	cmp	r5, r8
 800697c:	9a05      	ldr	r2, [sp, #20]
 800697e:	462b      	mov	r3, r5
 8006980:	bfa8      	it	ge
 8006982:	4643      	movge	r3, r8
 8006984:	1ad2      	subs	r2, r2, r3
 8006986:	9205      	str	r2, [sp, #20]
 8006988:	1aed      	subs	r5, r5, r3
 800698a:	eba8 0803 	sub.w	r8, r8, r3
 800698e:	9b07      	ldr	r3, [sp, #28]
 8006990:	b1eb      	cbz	r3, 80069ce <_dtoa_r+0x76e>
 8006992:	9b0a      	ldr	r3, [sp, #40]	; 0x28
 8006994:	2b00      	cmp	r3, #0
 8006996:	d067      	beq.n	8006a68 <_dtoa_r+0x808>
 8006998:	b18f      	cbz	r7, 80069be <_dtoa_r+0x75e>
 800699a:	4631      	mov	r1, r6
 800699c:	463a      	mov	r2, r7
 800699e:	4620      	mov	r0, r4
 80069a0:	f000 fb9a 	bl	80070d8 <__pow5mult>
 80069a4:	9a04      	ldr	r2, [sp, #16]
 80069a6:	4601      	mov	r1, r0
 80069a8:	4606      	mov	r6, r0
 80069aa:	4620      	mov	r0, r4
 80069ac:	f000 fafd 	bl	8006faa <__multiply>
 80069b0:	9904      	ldr	r1, [sp, #16]
 80069b2:	9008      	str	r0, [sp, #32]
 80069b4:	4620      	mov	r0, r4
 80069b6:	f000 fa4f 	bl	8006e58 <_Bfree>
 80069ba:	9b08      	ldr	r3, [sp, #32]
 80069bc:	9304      	str	r3, [sp, #16]
 80069be:	9b07      	ldr	r3, [sp, #28]
 80069c0:	1bda      	subs	r2, r3, r7
 80069c2:	d004      	beq.n	80069ce <_dtoa_r+0x76e>
 80069c4:	9904      	ldr	r1, [sp, #16]
 80069c6:	4620      	mov	r0, r4
 80069c8:	f000 fb86 	bl	80070d8 <__pow5mult>
 80069cc:	9004      	str	r0, [sp, #16]
 80069ce:	2101      	movs	r1, #1
 80069d0:	4620      	mov	r0, r4
 80069d2:	f000 fae1 	bl	8006f98 <__i2b>
 80069d6:	9b0e      	ldr	r3, [sp, #56]	; 0x38
 80069d8:	4607      	mov	r7, r0
 80069da:	2b00      	cmp	r3, #0
 80069dc:	f000 81d0 	beq.w	8006d80 <_dtoa_r+0xb20>
 80069e0:	461a      	mov	r2, r3
 80069e2:	4601      	mov	r1, r0
 80069e4:	4620      	mov	r0, r4
 80069e6:	f000 fb77 	bl	80070d8 <__pow5mult>
 80069ea:	9b06      	ldr	r3, [sp, #24]
 80069ec:	2b01      	cmp	r3, #1
 80069ee:	4607      	mov	r7, r0
 80069f0:	dc40      	bgt.n	8006a74 <_dtoa_r+0x814>
 80069f2:	9b00      	ldr	r3, [sp, #0]
 80069f4:	2b00      	cmp	r3, #0
 80069f6:	d139      	bne.n	8006a6c <_dtoa_r+0x80c>
 80069f8:	9b01      	ldr	r3, [sp, #4]
 80069fa:	f3c3 0313 	ubfx	r3, r3, #0, #20
 80069fe:	2b00      	cmp	r3, #0
 8006a00:	d136      	bne.n	8006a70 <_dtoa_r+0x810>
 8006a02:	9b01      	ldr	r3, [sp, #4]
 8006a04:	f023 4300 	bic.w	r3, r3, #2147483648	; 0x80000000
 8006a08:	0d1b      	lsrs	r3, r3, #20
 8006a0a:	051b      	lsls	r3, r3, #20
 8006a0c:	b12b      	cbz	r3, 8006a1a <_dtoa_r+0x7ba>
 8006a0e:	9b05      	ldr	r3, [sp, #20]
 8006a10:	3301      	adds	r3, #1
 8006a12:	9305      	str	r3, [sp, #20]
 8006a14:	f108 0801 	add.w	r8, r8, #1
 8006a18:	2301      	movs	r3, #1
 8006a1a:	9307      	str	r3, [sp, #28]
 8006a1c:	9b0e      	ldr	r3, [sp, #56]	; 0x38
 8006a1e:	2b00      	cmp	r3, #0
 8006a20:	d12a      	bne.n	8006a78 <_dtoa_r+0x818>
 8006a22:	2001      	movs	r0, #1
 8006a24:	e030      	b.n	8006a88 <_dtoa_r+0x828>
 8006a26:	9b14      	ldr	r3, [sp, #80]	; 0x50
 8006a28:	f1c3 0336 	rsb	r3, r3, #54	; 0x36
 8006a2c:	e795      	b.n	800695a <_dtoa_r+0x6fa>
 8006a2e:	9b07      	ldr	r3, [sp, #28]
 8006a30:	f109 37ff 	add.w	r7, r9, #4294967295
 8006a34:	42bb      	cmp	r3, r7
 8006a36:	bfbf      	itttt	lt
 8006a38:	9b07      	ldrlt	r3, [sp, #28]
 8006a3a:	9707      	strlt	r7, [sp, #28]
 8006a3c:	1afa      	sublt	r2, r7, r3
 8006a3e:	9b0e      	ldrlt	r3, [sp, #56]	; 0x38
 8006a40:	bfbb      	ittet	lt
 8006a42:	189b      	addlt	r3, r3, r2
 8006a44:	930e      	strlt	r3, [sp, #56]	; 0x38
 8006a46:	1bdf      	subge	r7, r3, r7
 8006a48:	2700      	movlt	r7, #0
 8006a4a:	f1b9 0f00 	cmp.w	r9, #0
 8006a4e:	bfb5      	itete	lt
 8006a50:	9b05      	ldrlt	r3, [sp, #20]
 8006a52:	9d05      	ldrge	r5, [sp, #20]
 8006a54:	eba3 0509 	sublt.w	r5, r3, r9
 8006a58:	464b      	movge	r3, r9
 8006a5a:	bfb8      	it	lt
 8006a5c:	2300      	movlt	r3, #0
 8006a5e:	e77e      	b.n	800695e <_dtoa_r+0x6fe>
 8006a60:	9f07      	ldr	r7, [sp, #28]
 8006a62:	9d05      	ldr	r5, [sp, #20]
 8006a64:	9e0a      	ldr	r6, [sp, #40]	; 0x28
 8006a66:	e783      	b.n	8006970 <_dtoa_r+0x710>
 8006a68:	9a07      	ldr	r2, [sp, #28]
 8006a6a:	e7ab      	b.n	80069c4 <_dtoa_r+0x764>
 8006a6c:	2300      	movs	r3, #0
 8006a6e:	e7d4      	b.n	8006a1a <_dtoa_r+0x7ba>
 8006a70:	9b00      	ldr	r3, [sp, #0]
 8006a72:	e7d2      	b.n	8006a1a <_dtoa_r+0x7ba>
 8006a74:	2300      	movs	r3, #0
 8006a76:	9307      	str	r3, [sp, #28]
 8006a78:	693b      	ldr	r3, [r7, #16]
 8006a7a:	eb07 0383 	add.w	r3, r7, r3, lsl #2
 8006a7e:	6918      	ldr	r0, [r3, #16]
 8006a80:	f000 fa3c 	bl	8006efc <__hi0bits>
 8006a84:	f1c0 0020 	rsb	r0, r0, #32
 8006a88:	4440      	add	r0, r8
 8006a8a:	f010 001f 	ands.w	r0, r0, #31
 8006a8e:	d047      	beq.n	8006b20 <_dtoa_r+0x8c0>
 8006a90:	f1c0 0320 	rsb	r3, r0, #32
 8006a94:	2b04      	cmp	r3, #4
 8006a96:	dd3b      	ble.n	8006b10 <_dtoa_r+0x8b0>
 8006a98:	9b05      	ldr	r3, [sp, #20]
 8006a9a:	f1c0 001c 	rsb	r0, r0, #28
 8006a9e:	4403      	add	r3, r0
 8006aa0:	9305      	str	r3, [sp, #20]
 8006aa2:	4405      	add	r5, r0
 8006aa4:	4480      	add	r8, r0
 8006aa6:	9b05      	ldr	r3, [sp, #20]
 8006aa8:	2b00      	cmp	r3, #0
 8006aaa:	dd05      	ble.n	8006ab8 <_dtoa_r+0x858>
 8006aac:	461a      	mov	r2, r3
 8006aae:	9904      	ldr	r1, [sp, #16]
 8006ab0:	4620      	mov	r0, r4
 8006ab2:	f000 fb5f 	bl	8007174 <__lshift>
 8006ab6:	9004      	str	r0, [sp, #16]
 8006ab8:	f1b8 0f00 	cmp.w	r8, #0
 8006abc:	dd05      	ble.n	8006aca <_dtoa_r+0x86a>
 8006abe:	4639      	mov	r1, r7
 8006ac0:	4642      	mov	r2, r8
 8006ac2:	4620      	mov	r0, r4
 8006ac4:	f000 fb56 	bl	8007174 <__lshift>
 8006ac8:	4607      	mov	r7, r0
 8006aca:	9b0f      	ldr	r3, [sp, #60]	; 0x3c
 8006acc:	b353      	cbz	r3, 8006b24 <_dtoa_r+0x8c4>
 8006ace:	4639      	mov	r1, r7
 8006ad0:	9804      	ldr	r0, [sp, #16]
 8006ad2:	f000 fba3 	bl	800721c <__mcmp>
 8006ad6:	2800      	cmp	r0, #0
 8006ad8:	da24      	bge.n	8006b24 <_dtoa_r+0x8c4>
 8006ada:	2300      	movs	r3, #0
 8006adc:	220a      	movs	r2, #10
 8006ade:	9904      	ldr	r1, [sp, #16]
 8006ae0:	4620      	mov	r0, r4
 8006ae2:	f000 f9d0 	bl	8006e86 <__multadd>
 8006ae6:	9b0a      	ldr	r3, [sp, #40]	; 0x28
 8006ae8:	9004      	str	r0, [sp, #16]
 8006aea:	f10a 3aff 	add.w	sl, sl, #4294967295
 8006aee:	2b00      	cmp	r3, #0
 8006af0:	f000 814d 	beq.w	8006d8e <_dtoa_r+0xb2e>
 8006af4:	2300      	movs	r3, #0
 8006af6:	4631      	mov	r1, r6
 8006af8:	220a      	movs	r2, #10
 8006afa:	4620      	mov	r0, r4
 8006afc:	f000 f9c3 	bl	8006e86 <__multadd>
 8006b00:	9b02      	ldr	r3, [sp, #8]
 8006b02:	2b00      	cmp	r3, #0
 8006b04:	4606      	mov	r6, r0
 8006b06:	dc4f      	bgt.n	8006ba8 <_dtoa_r+0x948>
 8006b08:	9b06      	ldr	r3, [sp, #24]
 8006b0a:	2b02      	cmp	r3, #2
 8006b0c:	dd4c      	ble.n	8006ba8 <_dtoa_r+0x948>
 8006b0e:	e011      	b.n	8006b34 <_dtoa_r+0x8d4>
 8006b10:	d0c9      	beq.n	8006aa6 <_dtoa_r+0x846>
 8006b12:	9a05      	ldr	r2, [sp, #20]
 8006b14:	331c      	adds	r3, #28
 8006b16:	441a      	add	r2, r3
 8006b18:	9205      	str	r2, [sp, #20]
 8006b1a:	441d      	add	r5, r3
 8006b1c:	4498      	add	r8, r3
 8006b1e:	e7c2      	b.n	8006aa6 <_dtoa_r+0x846>
 8006b20:	4603      	mov	r3, r0
 8006b22:	e7f6      	b.n	8006b12 <_dtoa_r+0x8b2>
 8006b24:	f1b9 0f00 	cmp.w	r9, #0
 8006b28:	dc38      	bgt.n	8006b9c <_dtoa_r+0x93c>
 8006b2a:	9b06      	ldr	r3, [sp, #24]
 8006b2c:	2b02      	cmp	r3, #2
 8006b2e:	dd35      	ble.n	8006b9c <_dtoa_r+0x93c>
 8006b30:	f8cd 9008 	str.w	r9, [sp, #8]
 8006b34:	9b02      	ldr	r3, [sp, #8]
 8006b36:	b963      	cbnz	r3, 8006b52 <_dtoa_r+0x8f2>
 8006b38:	4639      	mov	r1, r7
 8006b3a:	2205      	movs	r2, #5
 8006b3c:	4620      	mov	r0, r4
 8006b3e:	f000 f9a2 	bl	8006e86 <__multadd>
 8006b42:	4601      	mov	r1, r0
 8006b44:	4607      	mov	r7, r0
 8006b46:	9804      	ldr	r0, [sp, #16]
 8006b48:	f000 fb68 	bl	800721c <__mcmp>
 8006b4c:	2800      	cmp	r0, #0
 8006b4e:	f73f adcc 	bgt.w	80066ea <_dtoa_r+0x48a>
 8006b52:	9b0b      	ldr	r3, [sp, #44]	; 0x2c
 8006b54:	465d      	mov	r5, fp
 8006b56:	ea6f 0a03 	mvn.w	sl, r3
 8006b5a:	f04f 0900 	mov.w	r9, #0
 8006b5e:	4639      	mov	r1, r7
 8006b60:	4620      	mov	r0, r4
 8006b62:	f000 f979 	bl	8006e58 <_Bfree>
 8006b66:	2e00      	cmp	r6, #0
 8006b68:	f43f aeb7 	beq.w	80068da <_dtoa_r+0x67a>
 8006b6c:	f1b9 0f00 	cmp.w	r9, #0
 8006b70:	d005      	beq.n	8006b7e <_dtoa_r+0x91e>
 8006b72:	45b1      	cmp	r9, r6
 8006b74:	d003      	beq.n	8006b7e <_dtoa_r+0x91e>
 8006b76:	4649      	mov	r1, r9
 8006b78:	4620      	mov	r0, r4
 8006b7a:	f000 f96d 	bl	8006e58 <_Bfree>
 8006b7e:	4631      	mov	r1, r6
 8006b80:	4620      	mov	r0, r4
 8006b82:	f000 f969 	bl	8006e58 <_Bfree>
 8006b86:	e6a8      	b.n	80068da <_dtoa_r+0x67a>
 8006b88:	2700      	movs	r7, #0
 8006b8a:	463e      	mov	r6, r7
 8006b8c:	e7e1      	b.n	8006b52 <_dtoa_r+0x8f2>
 8006b8e:	f8dd a020 	ldr.w	sl, [sp, #32]
 8006b92:	463e      	mov	r6, r7
 8006b94:	e5a9      	b.n	80066ea <_dtoa_r+0x48a>
 8006b96:	bf00      	nop
 8006b98:	40240000 	.word	0x40240000
 8006b9c:	9b0a      	ldr	r3, [sp, #40]	; 0x28
 8006b9e:	f8cd 9008 	str.w	r9, [sp, #8]
 8006ba2:	2b00      	cmp	r3, #0
 8006ba4:	f000 80fa 	beq.w	8006d9c <_dtoa_r+0xb3c>
 8006ba8:	2d00      	cmp	r5, #0
 8006baa:	dd05      	ble.n	8006bb8 <_dtoa_r+0x958>
 8006bac:	4631      	mov	r1, r6
 8006bae:	462a      	mov	r2, r5
 8006bb0:	4620      	mov	r0, r4
 8006bb2:	f000 fadf 	bl	8007174 <__lshift>
 8006bb6:	4606      	mov	r6, r0
 8006bb8:	9b07      	ldr	r3, [sp, #28]
 8006bba:	2b00      	cmp	r3, #0
 8006bbc:	d04c      	beq.n	8006c58 <_dtoa_r+0x9f8>
 8006bbe:	6871      	ldr	r1, [r6, #4]
 8006bc0:	4620      	mov	r0, r4
 8006bc2:	f000 f915 	bl	8006df0 <_Balloc>
 8006bc6:	6932      	ldr	r2, [r6, #16]
 8006bc8:	3202      	adds	r2, #2
 8006bca:	4605      	mov	r5, r0
 8006bcc:	0092      	lsls	r2, r2, #2
 8006bce:	f106 010c 	add.w	r1, r6, #12
 8006bd2:	300c      	adds	r0, #12
 8006bd4:	f7fe fd62 	bl	800569c <memcpy>
 8006bd8:	2201      	movs	r2, #1
 8006bda:	4629      	mov	r1, r5
 8006bdc:	4620      	mov	r0, r4
 8006bde:	f000 fac9 	bl	8007174 <__lshift>
 8006be2:	9b00      	ldr	r3, [sp, #0]
 8006be4:	f8cd b014 	str.w	fp, [sp, #20]
 8006be8:	f003 0301 	and.w	r3, r3, #1
 8006bec:	46b1      	mov	r9, r6
 8006bee:	9307      	str	r3, [sp, #28]
 8006bf0:	4606      	mov	r6, r0
 8006bf2:	4639      	mov	r1, r7
 8006bf4:	9804      	ldr	r0, [sp, #16]
 8006bf6:	f7ff faa6 	bl	8006146 <quorem>
 8006bfa:	4649      	mov	r1, r9
 8006bfc:	4605      	mov	r5, r0
 8006bfe:	f100 0830 	add.w	r8, r0, #48	; 0x30
 8006c02:	9804      	ldr	r0, [sp, #16]
 8006c04:	f000 fb0a 	bl	800721c <__mcmp>
 8006c08:	4632      	mov	r2, r6
 8006c0a:	9000      	str	r0, [sp, #0]
 8006c0c:	4639      	mov	r1, r7
 8006c0e:	4620      	mov	r0, r4
 8006c10:	f000 fb1e 	bl	8007250 <__mdiff>
 8006c14:	68c3      	ldr	r3, [r0, #12]
 8006c16:	4602      	mov	r2, r0
 8006c18:	bb03      	cbnz	r3, 8006c5c <_dtoa_r+0x9fc>
 8006c1a:	4601      	mov	r1, r0
 8006c1c:	9008      	str	r0, [sp, #32]
 8006c1e:	9804      	ldr	r0, [sp, #16]
 8006c20:	f000 fafc 	bl	800721c <__mcmp>
 8006c24:	9a08      	ldr	r2, [sp, #32]
 8006c26:	4603      	mov	r3, r0
 8006c28:	4611      	mov	r1, r2
 8006c2a:	4620      	mov	r0, r4
 8006c2c:	9308      	str	r3, [sp, #32]
 8006c2e:	f000 f913 	bl	8006e58 <_Bfree>
 8006c32:	9b08      	ldr	r3, [sp, #32]
 8006c34:	b9a3      	cbnz	r3, 8006c60 <_dtoa_r+0xa00>
 8006c36:	9a06      	ldr	r2, [sp, #24]
 8006c38:	b992      	cbnz	r2, 8006c60 <_dtoa_r+0xa00>
 8006c3a:	9a07      	ldr	r2, [sp, #28]
 8006c3c:	b982      	cbnz	r2, 8006c60 <_dtoa_r+0xa00>
 8006c3e:	f1b8 0f39 	cmp.w	r8, #57	; 0x39
 8006c42:	d029      	beq.n	8006c98 <_dtoa_r+0xa38>
 8006c44:	9b00      	ldr	r3, [sp, #0]
 8006c46:	2b00      	cmp	r3, #0
 8006c48:	dd01      	ble.n	8006c4e <_dtoa_r+0x9ee>
 8006c4a:	f105 0831 	add.w	r8, r5, #49	; 0x31
 8006c4e:	9b05      	ldr	r3, [sp, #20]
 8006c50:	1c5d      	adds	r5, r3, #1
 8006c52:	f883 8000 	strb.w	r8, [r3]
 8006c56:	e782      	b.n	8006b5e <_dtoa_r+0x8fe>
 8006c58:	4630      	mov	r0, r6
 8006c5a:	e7c2      	b.n	8006be2 <_dtoa_r+0x982>
 8006c5c:	2301      	movs	r3, #1
 8006c5e:	e7e3      	b.n	8006c28 <_dtoa_r+0x9c8>
 8006c60:	9a00      	ldr	r2, [sp, #0]
 8006c62:	2a00      	cmp	r2, #0
 8006c64:	db04      	blt.n	8006c70 <_dtoa_r+0xa10>
 8006c66:	d125      	bne.n	8006cb4 <_dtoa_r+0xa54>
 8006c68:	9a06      	ldr	r2, [sp, #24]
 8006c6a:	bb1a      	cbnz	r2, 8006cb4 <_dtoa_r+0xa54>
 8006c6c:	9a07      	ldr	r2, [sp, #28]
 8006c6e:	bb0a      	cbnz	r2, 8006cb4 <_dtoa_r+0xa54>
 8006c70:	2b00      	cmp	r3, #0
 8006c72:	ddec      	ble.n	8006c4e <_dtoa_r+0x9ee>
 8006c74:	2201      	movs	r2, #1
 8006c76:	9904      	ldr	r1, [sp, #16]
 8006c78:	4620      	mov	r0, r4
 8006c7a:	f000 fa7b 	bl	8007174 <__lshift>
 8006c7e:	4639      	mov	r1, r7
 8006c80:	9004      	str	r0, [sp, #16]
 8006c82:	f000 facb 	bl	800721c <__mcmp>
 8006c86:	2800      	cmp	r0, #0
 8006c88:	dc03      	bgt.n	8006c92 <_dtoa_r+0xa32>
 8006c8a:	d1e0      	bne.n	8006c4e <_dtoa_r+0x9ee>
 8006c8c:	f018 0f01 	tst.w	r8, #1
 8006c90:	d0dd      	beq.n	8006c4e <_dtoa_r+0x9ee>
 8006c92:	f1b8 0f39 	cmp.w	r8, #57	; 0x39
 8006c96:	d1d8      	bne.n	8006c4a <_dtoa_r+0x9ea>
 8006c98:	9b05      	ldr	r3, [sp, #20]
 8006c9a:	9a05      	ldr	r2, [sp, #20]
 8006c9c:	1c5d      	adds	r5, r3, #1
 8006c9e:	2339      	movs	r3, #57	; 0x39
 8006ca0:	7013      	strb	r3, [r2, #0]
 8006ca2:	f815 3c01 	ldrb.w	r3, [r5, #-1]
 8006ca6:	2b39      	cmp	r3, #57	; 0x39
 8006ca8:	f105 32ff 	add.w	r2, r5, #4294967295
 8006cac:	d04f      	beq.n	8006d4e <_dtoa_r+0xaee>
 8006cae:	3301      	adds	r3, #1
 8006cb0:	7013      	strb	r3, [r2, #0]
 8006cb2:	e754      	b.n	8006b5e <_dtoa_r+0x8fe>
 8006cb4:	9a05      	ldr	r2, [sp, #20]
 8006cb6:	2b00      	cmp	r3, #0
 8006cb8:	f102 0501 	add.w	r5, r2, #1
 8006cbc:	dd06      	ble.n	8006ccc <_dtoa_r+0xa6c>
 8006cbe:	f1b8 0f39 	cmp.w	r8, #57	; 0x39
 8006cc2:	d0e9      	beq.n	8006c98 <_dtoa_r+0xa38>
 8006cc4:	f108 0801 	add.w	r8, r8, #1
 8006cc8:	9b05      	ldr	r3, [sp, #20]
 8006cca:	e7c2      	b.n	8006c52 <_dtoa_r+0x9f2>
 8006ccc:	9a02      	ldr	r2, [sp, #8]
 8006cce:	f805 8c01 	strb.w	r8, [r5, #-1]
 8006cd2:	eba5 030b 	sub.w	r3, r5, fp
 8006cd6:	4293      	cmp	r3, r2
 8006cd8:	d021      	beq.n	8006d1e <_dtoa_r+0xabe>
 8006cda:	2300      	movs	r3, #0
 8006cdc:	220a      	movs	r2, #10
 8006cde:	9904      	ldr	r1, [sp, #16]
 8006ce0:	4620      	mov	r0, r4
 8006ce2:	f000 f8d0 	bl	8006e86 <__multadd>
 8006ce6:	45b1      	cmp	r9, r6
 8006ce8:	9004      	str	r0, [sp, #16]
 8006cea:	f04f 0300 	mov.w	r3, #0
 8006cee:	f04f 020a 	mov.w	r2, #10
 8006cf2:	4649      	mov	r1, r9
 8006cf4:	4620      	mov	r0, r4
 8006cf6:	d105      	bne.n	8006d04 <_dtoa_r+0xaa4>
 8006cf8:	f000 f8c5 	bl	8006e86 <__multadd>
 8006cfc:	4681      	mov	r9, r0
 8006cfe:	4606      	mov	r6, r0
 8006d00:	9505      	str	r5, [sp, #20]
 8006d02:	e776      	b.n	8006bf2 <_dtoa_r+0x992>
 8006d04:	f000 f8bf 	bl	8006e86 <__multadd>
 8006d08:	4631      	mov	r1, r6
 8006d0a:	4681      	mov	r9, r0
 8006d0c:	2300      	movs	r3, #0
 8006d0e:	220a      	movs	r2, #10
 8006d10:	4620      	mov	r0, r4
 8006d12:	f000 f8b8 	bl	8006e86 <__multadd>
 8006d16:	4606      	mov	r6, r0
 8006d18:	e7f2      	b.n	8006d00 <_dtoa_r+0xaa0>
 8006d1a:	f04f 0900 	mov.w	r9, #0
 8006d1e:	2201      	movs	r2, #1
 8006d20:	9904      	ldr	r1, [sp, #16]
 8006d22:	4620      	mov	r0, r4
 8006d24:	f000 fa26 	bl	8007174 <__lshift>
 8006d28:	4639      	mov	r1, r7
 8006d2a:	9004      	str	r0, [sp, #16]
 8006d2c:	f000 fa76 	bl	800721c <__mcmp>
 8006d30:	2800      	cmp	r0, #0
 8006d32:	dcb6      	bgt.n	8006ca2 <_dtoa_r+0xa42>
 8006d34:	d102      	bne.n	8006d3c <_dtoa_r+0xadc>
 8006d36:	f018 0f01 	tst.w	r8, #1
 8006d3a:	d1b2      	bne.n	8006ca2 <_dtoa_r+0xa42>
 8006d3c:	f815 3c01 	ldrb.w	r3, [r5, #-1]
 8006d40:	2b30      	cmp	r3, #48	; 0x30
 8006d42:	f105 32ff 	add.w	r2, r5, #4294967295
 8006d46:	f47f af0a 	bne.w	8006b5e <_dtoa_r+0x8fe>
 8006d4a:	4615      	mov	r5, r2
 8006d4c:	e7f6      	b.n	8006d3c <_dtoa_r+0xadc>
 8006d4e:	4593      	cmp	fp, r2
 8006d50:	d105      	bne.n	8006d5e <_dtoa_r+0xafe>
 8006d52:	2331      	movs	r3, #49	; 0x31
 8006d54:	f10a 0a01 	add.w	sl, sl, #1
 8006d58:	f88b 3000 	strb.w	r3, [fp]
 8006d5c:	e6ff      	b.n	8006b5e <_dtoa_r+0x8fe>
 8006d5e:	4615      	mov	r5, r2
 8006d60:	e79f      	b.n	8006ca2 <_dtoa_r+0xa42>
 8006d62:	f8df b064 	ldr.w	fp, [pc, #100]	; 8006dc8 <_dtoa_r+0xb68>
 8006d66:	e007      	b.n	8006d78 <_dtoa_r+0xb18>
 8006d68:	9b21      	ldr	r3, [sp, #132]	; 0x84
 8006d6a:	f8df b060 	ldr.w	fp, [pc, #96]	; 8006dcc <_dtoa_r+0xb6c>
 8006d6e:	b11b      	cbz	r3, 8006d78 <_dtoa_r+0xb18>
 8006d70:	f10b 0308 	add.w	r3, fp, #8
 8006d74:	9a21      	ldr	r2, [sp, #132]	; 0x84
 8006d76:	6013      	str	r3, [r2, #0]
 8006d78:	4658      	mov	r0, fp
 8006d7a:	b017      	add	sp, #92	; 0x5c
 8006d7c:	e8bd 8ff0 	ldmia.w	sp!, {r4, r5, r6, r7, r8, r9, sl, fp, pc}
 8006d80:	9b06      	ldr	r3, [sp, #24]
 8006d82:	2b01      	cmp	r3, #1
 8006d84:	f77f ae35 	ble.w	80069f2 <_dtoa_r+0x792>
 8006d88:	9b0e      	ldr	r3, [sp, #56]	; 0x38
 8006d8a:	9307      	str	r3, [sp, #28]
 8006d8c:	e649      	b.n	8006a22 <_dtoa_r+0x7c2>
 8006d8e:	9b02      	ldr	r3, [sp, #8]
 8006d90:	2b00      	cmp	r3, #0
 8006d92:	dc03      	bgt.n	8006d9c <_dtoa_r+0xb3c>
 8006d94:	9b06      	ldr	r3, [sp, #24]
 8006d96:	2b02      	cmp	r3, #2
 8006d98:	f73f aecc 	bgt.w	8006b34 <_dtoa_r+0x8d4>
 8006d9c:	465d      	mov	r5, fp
 8006d9e:	4639      	mov	r1, r7
 8006da0:	9804      	ldr	r0, [sp, #16]
 8006da2:	f7ff f9d0 	bl	8006146 <quorem>
 8006da6:	f100 0830 	add.w	r8, r0, #48	; 0x30
 8006daa:	f805 8b01 	strb.w	r8, [r5], #1
 8006dae:	9a02      	ldr	r2, [sp, #8]
 8006db0:	eba5 030b 	sub.w	r3, r5, fp
 8006db4:	429a      	cmp	r2, r3
 8006db6:	ddb0      	ble.n	8006d1a <_dtoa_r+0xaba>
 8006db8:	2300      	movs	r3, #0
 8006dba:	220a      	movs	r2, #10
 8006dbc:	9904      	ldr	r1, [sp, #16]
 8006dbe:	4620      	mov	r0, r4
 8006dc0:	f000 f861 	bl	8006e86 <__multadd>
 8006dc4:	9004      	str	r0, [sp, #16]
 8006dc6:	e7ea      	b.n	8006d9e <_dtoa_r+0xb3e>
 8006dc8:	0801774e 	.word	0x0801774e
 8006dcc:	08017873 	.word	0x08017873

08006dd0 <_localeconv_r>:
 8006dd0:	4b04      	ldr	r3, [pc, #16]	; (8006de4 <_localeconv_r+0x14>)
 8006dd2:	681b      	ldr	r3, [r3, #0]
 8006dd4:	6a18      	ldr	r0, [r3, #32]
 8006dd6:	4b04      	ldr	r3, [pc, #16]	; (8006de8 <_localeconv_r+0x18>)
 8006dd8:	2800      	cmp	r0, #0
 8006dda:	bf08      	it	eq
 8006ddc:	4618      	moveq	r0, r3
 8006dde:	30f0      	adds	r0, #240	; 0xf0
 8006de0:	4770      	bx	lr
 8006de2:	bf00      	nop
 8006de4:	20000014 	.word	0x20000014
 8006de8:	20000078 	.word	0x20000078

08006dec <__malloc_lock>:
 8006dec:	4770      	bx	lr

08006dee <__malloc_unlock>:
 8006dee:	4770      	bx	lr

08006df0 <_Balloc>:
 8006df0:	b570      	push	{r4, r5, r6, lr}
 8006df2:	6a45      	ldr	r5, [r0, #36]	; 0x24
 8006df4:	4604      	mov	r4, r0
 8006df6:	460e      	mov	r6, r1
 8006df8:	b93d      	cbnz	r5, 8006e0a <_Balloc+0x1a>
 8006dfa:	2010      	movs	r0, #16
 8006dfc:	f7fe fc34 	bl	8005668 <malloc>
 8006e00:	6260      	str	r0, [r4, #36]	; 0x24
 8006e02:	e9c0 5501 	strd	r5, r5, [r0, #4]
 8006e06:	6005      	str	r5, [r0, #0]
 8006e08:	60c5      	str	r5, [r0, #12]
 8006e0a:	6a65      	ldr	r5, [r4, #36]	; 0x24
 8006e0c:	68eb      	ldr	r3, [r5, #12]
 8006e0e:	b183      	cbz	r3, 8006e32 <_Balloc+0x42>
 8006e10:	6a63      	ldr	r3, [r4, #36]	; 0x24
 8006e12:	68db      	ldr	r3, [r3, #12]
 8006e14:	f853 0026 	ldr.w	r0, [r3, r6, lsl #2]
 8006e18:	b9b8      	cbnz	r0, 8006e4a <_Balloc+0x5a>
 8006e1a:	2101      	movs	r1, #1
 8006e1c:	fa01 f506 	lsl.w	r5, r1, r6
 8006e20:	1d6a      	adds	r2, r5, #5
 8006e22:	0092      	lsls	r2, r2, #2
 8006e24:	4620      	mov	r0, r4
 8006e26:	f000 fabf 	bl	80073a8 <_calloc_r>
 8006e2a:	b160      	cbz	r0, 8006e46 <_Balloc+0x56>
 8006e2c:	e9c0 6501 	strd	r6, r5, [r0, #4]
 8006e30:	e00e      	b.n	8006e50 <_Balloc+0x60>
 8006e32:	2221      	movs	r2, #33	; 0x21
 8006e34:	2104      	movs	r1, #4
 8006e36:	4620      	mov	r0, r4
 8006e38:	f000 fab6 	bl	80073a8 <_calloc_r>
 8006e3c:	6a63      	ldr	r3, [r4, #36]	; 0x24
 8006e3e:	60e8      	str	r0, [r5, #12]
 8006e40:	68db      	ldr	r3, [r3, #12]
 8006e42:	2b00      	cmp	r3, #0
 8006e44:	d1e4      	bne.n	8006e10 <_Balloc+0x20>
 8006e46:	2000      	movs	r0, #0
 8006e48:	bd70      	pop	{r4, r5, r6, pc}
 8006e4a:	6802      	ldr	r2, [r0, #0]
 8006e4c:	f843 2026 	str.w	r2, [r3, r6, lsl #2]
 8006e50:	2300      	movs	r3, #0
 8006e52:	e9c0 3303 	strd	r3, r3, [r0, #12]
 8006e56:	e7f7      	b.n	8006e48 <_Balloc+0x58>

08006e58 <_Bfree>:
 8006e58:	b570      	push	{r4, r5, r6, lr}
 8006e5a:	6a44      	ldr	r4, [r0, #36]	; 0x24
 8006e5c:	4606      	mov	r6, r0
 8006e5e:	460d      	mov	r5, r1
 8006e60:	b93c      	cbnz	r4, 8006e72 <_Bfree+0x1a>
 8006e62:	2010      	movs	r0, #16
 8006e64:	f7fe fc00 	bl	8005668 <malloc>
 8006e68:	6270      	str	r0, [r6, #36]	; 0x24
 8006e6a:	e9c0 4401 	strd	r4, r4, [r0, #4]
 8006e6e:	6004      	str	r4, [r0, #0]
 8006e70:	60c4      	str	r4, [r0, #12]
 8006e72:	b13d      	cbz	r5, 8006e84 <_Bfree+0x2c>
 8006e74:	6a73      	ldr	r3, [r6, #36]	; 0x24
 8006e76:	686a      	ldr	r2, [r5, #4]
 8006e78:	68db      	ldr	r3, [r3, #12]
 8006e7a:	f853 1022 	ldr.w	r1, [r3, r2, lsl #2]
 8006e7e:	6029      	str	r1, [r5, #0]
 8006e80:	f843 5022 	str.w	r5, [r3, r2, lsl #2]
 8006e84:	bd70      	pop	{r4, r5, r6, pc}

08006e86 <__multadd>:
 8006e86:	e92d 41f0 	stmdb	sp!, {r4, r5, r6, r7, r8, lr}
 8006e8a:	690d      	ldr	r5, [r1, #16]
 8006e8c:	461f      	mov	r7, r3
 8006e8e:	4606      	mov	r6, r0
 8006e90:	460c      	mov	r4, r1
 8006e92:	f101 0c14 	add.w	ip, r1, #20
 8006e96:	2300      	movs	r3, #0
 8006e98:	f8dc 0000 	ldr.w	r0, [ip]
 8006e9c:	b281      	uxth	r1, r0
 8006e9e:	fb02 7101 	mla	r1, r2, r1, r7
 8006ea2:	0c0f      	lsrs	r7, r1, #16
 8006ea4:	0c00      	lsrs	r0, r0, #16
 8006ea6:	fb02 7000 	mla	r0, r2, r0, r7
 8006eaa:	b289      	uxth	r1, r1
 8006eac:	3301      	adds	r3, #1
 8006eae:	eb01 4100 	add.w	r1, r1, r0, lsl #16
 8006eb2:	429d      	cmp	r5, r3
 8006eb4:	ea4f 4710 	mov.w	r7, r0, lsr #16
 8006eb8:	f84c 1b04 	str.w	r1, [ip], #4
 8006ebc:	dcec      	bgt.n	8006e98 <__multadd+0x12>
 8006ebe:	b1d7      	cbz	r7, 8006ef6 <__multadd+0x70>
 8006ec0:	68a3      	ldr	r3, [r4, #8]
 8006ec2:	42ab      	cmp	r3, r5
 8006ec4:	dc12      	bgt.n	8006eec <__multadd+0x66>
 8006ec6:	6861      	ldr	r1, [r4, #4]
 8006ec8:	4630      	mov	r0, r6
 8006eca:	3101      	adds	r1, #1
 8006ecc:	f7ff ff90 	bl	8006df0 <_Balloc>
 8006ed0:	6922      	ldr	r2, [r4, #16]
 8006ed2:	3202      	adds	r2, #2
 8006ed4:	f104 010c 	add.w	r1, r4, #12
 8006ed8:	4680      	mov	r8, r0
 8006eda:	0092      	lsls	r2, r2, #2
 8006edc:	300c      	adds	r0, #12
 8006ede:	f7fe fbdd 	bl	800569c <memcpy>
 8006ee2:	4621      	mov	r1, r4
 8006ee4:	4630      	mov	r0, r6
 8006ee6:	f7ff ffb7 	bl	8006e58 <_Bfree>
 8006eea:	4644      	mov	r4, r8
 8006eec:	eb04 0385 	add.w	r3, r4, r5, lsl #2
 8006ef0:	3501      	adds	r5, #1
 8006ef2:	615f      	str	r7, [r3, #20]
 8006ef4:	6125      	str	r5, [r4, #16]
 8006ef6:	4620      	mov	r0, r4
 8006ef8:	e8bd 81f0 	ldmia.w	sp!, {r4, r5, r6, r7, r8, pc}

08006efc <__hi0bits>:
 8006efc:	0c02      	lsrs	r2, r0, #16
 8006efe:	0412      	lsls	r2, r2, #16
 8006f00:	4603      	mov	r3, r0
 8006f02:	b9b2      	cbnz	r2, 8006f32 <__hi0bits+0x36>
 8006f04:	0403      	lsls	r3, r0, #16
 8006f06:	2010      	movs	r0, #16
 8006f08:	f013 4f7f 	tst.w	r3, #4278190080	; 0xff000000
 8006f0c:	bf04      	itt	eq
 8006f0e:	021b      	lsleq	r3, r3, #8
 8006f10:	3008      	addeq	r0, #8
 8006f12:	f013 4f70 	tst.w	r3, #4026531840	; 0xf0000000
 8006f16:	bf04      	itt	eq
 8006f18:	011b      	lsleq	r3, r3, #4
 8006f1a:	3004      	addeq	r0, #4
 8006f1c:	f013 4f40 	tst.w	r3, #3221225472	; 0xc0000000
 8006f20:	bf04      	itt	eq
 8006f22:	009b      	lsleq	r3, r3, #2
 8006f24:	3002      	addeq	r0, #2
 8006f26:	2b00      	cmp	r3, #0
 8006f28:	db06      	blt.n	8006f38 <__hi0bits+0x3c>
 8006f2a:	005b      	lsls	r3, r3, #1
 8006f2c:	d503      	bpl.n	8006f36 <__hi0bits+0x3a>
 8006f2e:	3001      	adds	r0, #1
 8006f30:	4770      	bx	lr
 8006f32:	2000      	movs	r0, #0
 8006f34:	e7e8      	b.n	8006f08 <__hi0bits+0xc>
 8006f36:	2020      	movs	r0, #32
 8006f38:	4770      	bx	lr

08006f3a <__lo0bits>:
 8006f3a:	6803      	ldr	r3, [r0, #0]
 8006f3c:	f013 0207 	ands.w	r2, r3, #7
 8006f40:	4601      	mov	r1, r0
 8006f42:	d00b      	beq.n	8006f5c <__lo0bits+0x22>
 8006f44:	07da      	lsls	r2, r3, #31
 8006f46:	d423      	bmi.n	8006f90 <__lo0bits+0x56>
 8006f48:	0798      	lsls	r0, r3, #30
 8006f4a:	bf49      	itett	mi
 8006f4c:	085b      	lsrmi	r3, r3, #1
 8006f4e:	089b      	lsrpl	r3, r3, #2
 8006f50:	2001      	movmi	r0, #1
 8006f52:	600b      	strmi	r3, [r1, #0]
 8006f54:	bf5c      	itt	pl
 8006f56:	600b      	strpl	r3, [r1, #0]
 8006f58:	2002      	movpl	r0, #2
 8006f5a:	4770      	bx	lr
 8006f5c:	b298      	uxth	r0, r3
 8006f5e:	b9a8      	cbnz	r0, 8006f8c <__lo0bits+0x52>
 8006f60:	0c1b      	lsrs	r3, r3, #16
 8006f62:	2010      	movs	r0, #16
 8006f64:	f013 0fff 	tst.w	r3, #255	; 0xff
 8006f68:	bf04      	itt	eq
 8006f6a:	0a1b      	lsreq	r3, r3, #8
 8006f6c:	3008      	addeq	r0, #8
 8006f6e:	071a      	lsls	r2, r3, #28
 8006f70:	bf04      	itt	eq
 8006f72:	091b      	lsreq	r3, r3, #4
 8006f74:	3004      	addeq	r0, #4
 8006f76:	079a      	lsls	r2, r3, #30
 8006f78:	bf04      	itt	eq
 8006f7a:	089b      	lsreq	r3, r3, #2
 8006f7c:	3002      	addeq	r0, #2
 8006f7e:	07da      	lsls	r2, r3, #31
 8006f80:	d402      	bmi.n	8006f88 <__lo0bits+0x4e>
 8006f82:	085b      	lsrs	r3, r3, #1
 8006f84:	d006      	beq.n	8006f94 <__lo0bits+0x5a>
 8006f86:	3001      	adds	r0, #1
 8006f88:	600b      	str	r3, [r1, #0]
 8006f8a:	4770      	bx	lr
 8006f8c:	4610      	mov	r0, r2
 8006f8e:	e7e9      	b.n	8006f64 <__lo0bits+0x2a>
 8006f90:	2000      	movs	r0, #0
 8006f92:	4770      	bx	lr
 8006f94:	2020      	movs	r0, #32
 8006f96:	4770      	bx	lr

08006f98 <__i2b>:
 8006f98:	b510      	push	{r4, lr}
 8006f9a:	460c      	mov	r4, r1
 8006f9c:	2101      	movs	r1, #1
 8006f9e:	f7ff ff27 	bl	8006df0 <_Balloc>
 8006fa2:	2201      	movs	r2, #1
 8006fa4:	6144      	str	r4, [r0, #20]
 8006fa6:	6102      	str	r2, [r0, #16]
 8006fa8:	bd10      	pop	{r4, pc}

08006faa <__multiply>:
 8006faa:	e92d 4ff7 	stmdb	sp!, {r0, r1, r2, r4, r5, r6, r7, r8, r9, sl, fp, lr}
 8006fae:	4614      	mov	r4, r2
 8006fb0:	690a      	ldr	r2, [r1, #16]
 8006fb2:	6923      	ldr	r3, [r4, #16]
 8006fb4:	429a      	cmp	r2, r3
 8006fb6:	bfb8      	it	lt
 8006fb8:	460b      	movlt	r3, r1
 8006fba:	4688      	mov	r8, r1
 8006fbc:	bfbc      	itt	lt
 8006fbe:	46a0      	movlt	r8, r4
 8006fc0:	461c      	movlt	r4, r3
 8006fc2:	f8d8 7010 	ldr.w	r7, [r8, #16]
 8006fc6:	f8d4 9010 	ldr.w	r9, [r4, #16]
 8006fca:	f8d8 3008 	ldr.w	r3, [r8, #8]
 8006fce:	f8d8 1004 	ldr.w	r1, [r8, #4]
 8006fd2:	eb07 0609 	add.w	r6, r7, r9
 8006fd6:	42b3      	cmp	r3, r6
 8006fd8:	bfb8      	it	lt
 8006fda:	3101      	addlt	r1, #1
 8006fdc:	f7ff ff08 	bl	8006df0 <_Balloc>
 8006fe0:	f100 0514 	add.w	r5, r0, #20
 8006fe4:	eb05 0e86 	add.w	lr, r5, r6, lsl #2
 8006fe8:	462b      	mov	r3, r5
 8006fea:	2200      	movs	r2, #0
 8006fec:	4573      	cmp	r3, lr
 8006fee:	d316      	bcc.n	800701e <__multiply+0x74>
 8006ff0:	f104 0214 	add.w	r2, r4, #20
 8006ff4:	f108 0114 	add.w	r1, r8, #20
 8006ff8:	eb02 0389 	add.w	r3, r2, r9, lsl #2
 8006ffc:	eb01 0787 	add.w	r7, r1, r7, lsl #2
 8007000:	9300      	str	r3, [sp, #0]
 8007002:	9b00      	ldr	r3, [sp, #0]
 8007004:	9201      	str	r2, [sp, #4]
 8007006:	4293      	cmp	r3, r2
 8007008:	d80c      	bhi.n	8007024 <__multiply+0x7a>
 800700a:	2e00      	cmp	r6, #0
 800700c:	dd03      	ble.n	8007016 <__multiply+0x6c>
 800700e:	f85e 3d04 	ldr.w	r3, [lr, #-4]!
 8007012:	2b00      	cmp	r3, #0
 8007014:	d05d      	beq.n	80070d2 <__multiply+0x128>
 8007016:	6106      	str	r6, [r0, #16]
 8007018:	b003      	add	sp, #12
 800701a:	e8bd 8ff0 	ldmia.w	sp!, {r4, r5, r6, r7, r8, r9, sl, fp, pc}
 800701e:	f843 2b04 	str.w	r2, [r3], #4
 8007022:	e7e3      	b.n	8006fec <__multiply+0x42>
 8007024:	f8b2 b000 	ldrh.w	fp, [r2]
 8007028:	f1bb 0f00 	cmp.w	fp, #0
 800702c:	d023      	beq.n	8007076 <__multiply+0xcc>
 800702e:	4689      	mov	r9, r1
 8007030:	46ac      	mov	ip, r5
 8007032:	f04f 0800 	mov.w	r8, #0
 8007036:	f859 4b04 	ldr.w	r4, [r9], #4
 800703a:	f8dc a000 	ldr.w	sl, [ip]
 800703e:	b2a3      	uxth	r3, r4
 8007040:	fa1f fa8a 	uxth.w	sl, sl
 8007044:	fb0b a303 	mla	r3, fp, r3, sl
 8007048:	ea4f 4a14 	mov.w	sl, r4, lsr #16
 800704c:	f8dc 4000 	ldr.w	r4, [ip]
 8007050:	4443      	add	r3, r8
 8007052:	ea4f 4814 	mov.w	r8, r4, lsr #16
 8007056:	fb0b 840a 	mla	r4, fp, sl, r8
 800705a:	eb04 4413 	add.w	r4, r4, r3, lsr #16
 800705e:	46e2      	mov	sl, ip
 8007060:	b29b      	uxth	r3, r3
 8007062:	ea43 4304 	orr.w	r3, r3, r4, lsl #16
 8007066:	454f      	cmp	r7, r9
 8007068:	ea4f 4814 	mov.w	r8, r4, lsr #16
 800706c:	f84a 3b04 	str.w	r3, [sl], #4
 8007070:	d82b      	bhi.n	80070ca <__multiply+0x120>
 8007072:	f8cc 8004 	str.w	r8, [ip, #4]
 8007076:	9b01      	ldr	r3, [sp, #4]
 8007078:	f8b3 a002 	ldrh.w	sl, [r3, #2]
 800707c:	3204      	adds	r2, #4
 800707e:	f1ba 0f00 	cmp.w	sl, #0
 8007082:	d020      	beq.n	80070c6 <__multiply+0x11c>
 8007084:	682b      	ldr	r3, [r5, #0]
 8007086:	4689      	mov	r9, r1
 8007088:	46a8      	mov	r8, r5
 800708a:	f04f 0b00 	mov.w	fp, #0
 800708e:	f8b9 c000 	ldrh.w	ip, [r9]
 8007092:	f8b8 4002 	ldrh.w	r4, [r8, #2]
 8007096:	fb0a 440c 	mla	r4, sl, ip, r4
 800709a:	445c      	add	r4, fp
 800709c:	46c4      	mov	ip, r8
 800709e:	b29b      	uxth	r3, r3
 80070a0:	ea43 4304 	orr.w	r3, r3, r4, lsl #16
 80070a4:	f84c 3b04 	str.w	r3, [ip], #4
 80070a8:	f859 3b04 	ldr.w	r3, [r9], #4
 80070ac:	f8b8 b004 	ldrh.w	fp, [r8, #4]
 80070b0:	0c1b      	lsrs	r3, r3, #16
 80070b2:	fb0a b303 	mla	r3, sl, r3, fp
 80070b6:	eb03 4314 	add.w	r3, r3, r4, lsr #16
 80070ba:	454f      	cmp	r7, r9
 80070bc:	ea4f 4b13 	mov.w	fp, r3, lsr #16
 80070c0:	d805      	bhi.n	80070ce <__multiply+0x124>
 80070c2:	f8c8 3004 	str.w	r3, [r8, #4]
 80070c6:	3504      	adds	r5, #4
 80070c8:	e79b      	b.n	8007002 <__multiply+0x58>
 80070ca:	46d4      	mov	ip, sl
 80070cc:	e7b3      	b.n	8007036 <__multiply+0x8c>
 80070ce:	46e0      	mov	r8, ip
 80070d0:	e7dd      	b.n	800708e <__multiply+0xe4>
 80070d2:	3e01      	subs	r6, #1
 80070d4:	e799      	b.n	800700a <__multiply+0x60>
	...

080070d8 <__pow5mult>:
 80070d8:	e92d 43f8 	stmdb	sp!, {r3, r4, r5, r6, r7, r8, r9, lr}
 80070dc:	4615      	mov	r5, r2
 80070de:	f012 0203 	ands.w	r2, r2, #3
 80070e2:	4606      	mov	r6, r0
 80070e4:	460f      	mov	r7, r1
 80070e6:	d007      	beq.n	80070f8 <__pow5mult+0x20>
 80070e8:	3a01      	subs	r2, #1
 80070ea:	4c21      	ldr	r4, [pc, #132]	; (8007170 <__pow5mult+0x98>)
 80070ec:	2300      	movs	r3, #0
 80070ee:	f854 2022 	ldr.w	r2, [r4, r2, lsl #2]
 80070f2:	f7ff fec8 	bl	8006e86 <__multadd>
 80070f6:	4607      	mov	r7, r0
 80070f8:	10ad      	asrs	r5, r5, #2
 80070fa:	d035      	beq.n	8007168 <__pow5mult+0x90>
 80070fc:	6a74      	ldr	r4, [r6, #36]	; 0x24
 80070fe:	b93c      	cbnz	r4, 8007110 <__pow5mult+0x38>
 8007100:	2010      	movs	r0, #16
 8007102:	f7fe fab1 	bl	8005668 <malloc>
 8007106:	6270      	str	r0, [r6, #36]	; 0x24
 8007108:	e9c0 4401 	strd	r4, r4, [r0, #4]
 800710c:	6004      	str	r4, [r0, #0]
 800710e:	60c4      	str	r4, [r0, #12]
 8007110:	f8d6 8024 	ldr.w	r8, [r6, #36]	; 0x24
 8007114:	f8d8 4008 	ldr.w	r4, [r8, #8]
 8007118:	b94c      	cbnz	r4, 800712e <__pow5mult+0x56>
 800711a:	f240 2171 	movw	r1, #625	; 0x271
 800711e:	4630      	mov	r0, r6
 8007120:	f7ff ff3a 	bl	8006f98 <__i2b>
 8007124:	2300      	movs	r3, #0
 8007126:	f8c8 0008 	str.w	r0, [r8, #8]
 800712a:	4604      	mov	r4, r0
 800712c:	6003      	str	r3, [r0, #0]
 800712e:	f04f 0800 	mov.w	r8, #0
 8007132:	07eb      	lsls	r3, r5, #31
 8007134:	d50a      	bpl.n	800714c <__pow5mult+0x74>
 8007136:	4639      	mov	r1, r7
 8007138:	4622      	mov	r2, r4
 800713a:	4630      	mov	r0, r6
 800713c:	f7ff ff35 	bl	8006faa <__multiply>
 8007140:	4639      	mov	r1, r7
 8007142:	4681      	mov	r9, r0
 8007144:	4630      	mov	r0, r6
 8007146:	f7ff fe87 	bl	8006e58 <_Bfree>
 800714a:	464f      	mov	r7, r9
 800714c:	106d      	asrs	r5, r5, #1
 800714e:	d00b      	beq.n	8007168 <__pow5mult+0x90>
 8007150:	6820      	ldr	r0, [r4, #0]
 8007152:	b938      	cbnz	r0, 8007164 <__pow5mult+0x8c>
 8007154:	4622      	mov	r2, r4
 8007156:	4621      	mov	r1, r4
 8007158:	4630      	mov	r0, r6
 800715a:	f7ff ff26 	bl	8006faa <__multiply>
 800715e:	6020      	str	r0, [r4, #0]
 8007160:	f8c0 8000 	str.w	r8, [r0]
 8007164:	4604      	mov	r4, r0
 8007166:	e7e4      	b.n	8007132 <__pow5mult+0x5a>
 8007168:	4638      	mov	r0, r7
 800716a:	e8bd 83f8 	ldmia.w	sp!, {r3, r4, r5, r6, r7, r8, r9, pc}
 800716e:	bf00      	nop
 8007170:	08017970 	.word	0x08017970

08007174 <__lshift>:
 8007174:	e92d 47f0 	stmdb	sp!, {r4, r5, r6, r7, r8, r9, sl, lr}
 8007178:	460c      	mov	r4, r1
 800717a:	ea4f 1a62 	mov.w	sl, r2, asr #5
 800717e:	6923      	ldr	r3, [r4, #16]
 8007180:	6849      	ldr	r1, [r1, #4]
 8007182:	eb0a 0903 	add.w	r9, sl, r3
 8007186:	68a3      	ldr	r3, [r4, #8]
 8007188:	4607      	mov	r7, r0
 800718a:	4616      	mov	r6, r2
 800718c:	f109 0501 	add.w	r5, r9, #1
 8007190:	42ab      	cmp	r3, r5
 8007192:	db32      	blt.n	80071fa <__lshift+0x86>
 8007194:	4638      	mov	r0, r7
 8007196:	f7ff fe2b 	bl	8006df0 <_Balloc>
 800719a:	2300      	movs	r3, #0
 800719c:	4680      	mov	r8, r0
 800719e:	f100 0114 	add.w	r1, r0, #20
 80071a2:	461a      	mov	r2, r3
 80071a4:	4553      	cmp	r3, sl
 80071a6:	db2b      	blt.n	8007200 <__lshift+0x8c>
 80071a8:	6920      	ldr	r0, [r4, #16]
 80071aa:	ea2a 7aea 	bic.w	sl, sl, sl, asr #31
 80071ae:	f104 0314 	add.w	r3, r4, #20
 80071b2:	f016 021f 	ands.w	r2, r6, #31
 80071b6:	eb01 018a 	add.w	r1, r1, sl, lsl #2
 80071ba:	eb03 0c80 	add.w	ip, r3, r0, lsl #2
 80071be:	d025      	beq.n	800720c <__lshift+0x98>
 80071c0:	f1c2 0e20 	rsb	lr, r2, #32
 80071c4:	2000      	movs	r0, #0
 80071c6:	681e      	ldr	r6, [r3, #0]
 80071c8:	468a      	mov	sl, r1
 80071ca:	4096      	lsls	r6, r2
 80071cc:	4330      	orrs	r0, r6
 80071ce:	f84a 0b04 	str.w	r0, [sl], #4
 80071d2:	f853 0b04 	ldr.w	r0, [r3], #4
 80071d6:	459c      	cmp	ip, r3
 80071d8:	fa20 f00e 	lsr.w	r0, r0, lr
 80071dc:	d814      	bhi.n	8007208 <__lshift+0x94>
 80071de:	6048      	str	r0, [r1, #4]
 80071e0:	b108      	cbz	r0, 80071e6 <__lshift+0x72>
 80071e2:	f109 0502 	add.w	r5, r9, #2
 80071e6:	3d01      	subs	r5, #1
 80071e8:	4638      	mov	r0, r7
 80071ea:	f8c8 5010 	str.w	r5, [r8, #16]
 80071ee:	4621      	mov	r1, r4
 80071f0:	f7ff fe32 	bl	8006e58 <_Bfree>
 80071f4:	4640      	mov	r0, r8
 80071f6:	e8bd 87f0 	ldmia.w	sp!, {r4, r5, r6, r7, r8, r9, sl, pc}
 80071fa:	3101      	adds	r1, #1
 80071fc:	005b      	lsls	r3, r3, #1
 80071fe:	e7c7      	b.n	8007190 <__lshift+0x1c>
 8007200:	f841 2023 	str.w	r2, [r1, r3, lsl #2]
 8007204:	3301      	adds	r3, #1
 8007206:	e7cd      	b.n	80071a4 <__lshift+0x30>
 8007208:	4651      	mov	r1, sl
 800720a:	e7dc      	b.n	80071c6 <__lshift+0x52>
 800720c:	3904      	subs	r1, #4
 800720e:	f853 2b04 	ldr.w	r2, [r3], #4
 8007212:	f841 2f04 	str.w	r2, [r1, #4]!
 8007216:	459c      	cmp	ip, r3
 8007218:	d8f9      	bhi.n	800720e <__lshift+0x9a>
 800721a:	e7e4      	b.n	80071e6 <__lshift+0x72>

0800721c <__mcmp>:
 800721c:	6903      	ldr	r3, [r0, #16]
 800721e:	690a      	ldr	r2, [r1, #16]
 8007220:	1a9b      	subs	r3, r3, r2
 8007222:	b530      	push	{r4, r5, lr}
 8007224:	d10c      	bne.n	8007240 <__mcmp+0x24>
 8007226:	0092      	lsls	r2, r2, #2
 8007228:	3014      	adds	r0, #20
 800722a:	3114      	adds	r1, #20
 800722c:	1884      	adds	r4, r0, r2
 800722e:	4411      	add	r1, r2
 8007230:	f854 5d04 	ldr.w	r5, [r4, #-4]!
 8007234:	f851 2d04 	ldr.w	r2, [r1, #-4]!
 8007238:	4295      	cmp	r5, r2
 800723a:	d003      	beq.n	8007244 <__mcmp+0x28>
 800723c:	d305      	bcc.n	800724a <__mcmp+0x2e>
 800723e:	2301      	movs	r3, #1
 8007240:	4618      	mov	r0, r3
 8007242:	bd30      	pop	{r4, r5, pc}
 8007244:	42a0      	cmp	r0, r4
 8007246:	d3f3      	bcc.n	8007230 <__mcmp+0x14>
 8007248:	e7fa      	b.n	8007240 <__mcmp+0x24>
 800724a:	f04f 33ff 	mov.w	r3, #4294967295
 800724e:	e7f7      	b.n	8007240 <__mcmp+0x24>

08007250 <__mdiff>:
 8007250:	e92d 47f0 	stmdb	sp!, {r4, r5, r6, r7, r8, r9, sl, lr}
 8007254:	460d      	mov	r5, r1
 8007256:	4607      	mov	r7, r0
 8007258:	4611      	mov	r1, r2
 800725a:	4628      	mov	r0, r5
 800725c:	4614      	mov	r4, r2
 800725e:	f7ff ffdd 	bl	800721c <__mcmp>
 8007262:	1e06      	subs	r6, r0, #0
 8007264:	d108      	bne.n	8007278 <__mdiff+0x28>
 8007266:	4631      	mov	r1, r6
 8007268:	4638      	mov	r0, r7
 800726a:	f7ff fdc1 	bl	8006df0 <_Balloc>
 800726e:	2301      	movs	r3, #1
 8007270:	e9c0 3604 	strd	r3, r6, [r0, #16]
 8007274:	e8bd 87f0 	ldmia.w	sp!, {r4, r5, r6, r7, r8, r9, sl, pc}
 8007278:	bfa4      	itt	ge
 800727a:	4623      	movge	r3, r4
 800727c:	462c      	movge	r4, r5
 800727e:	4638      	mov	r0, r7
 8007280:	6861      	ldr	r1, [r4, #4]
 8007282:	bfa6      	itte	ge
 8007284:	461d      	movge	r5, r3
 8007286:	2600      	movge	r6, #0
 8007288:	2601      	movlt	r6, #1
 800728a:	f7ff fdb1 	bl	8006df0 <_Balloc>
 800728e:	692b      	ldr	r3, [r5, #16]
 8007290:	60c6      	str	r6, [r0, #12]
 8007292:	6926      	ldr	r6, [r4, #16]
 8007294:	f105 0914 	add.w	r9, r5, #20
 8007298:	f104 0214 	add.w	r2, r4, #20
 800729c:	eb02 0786 	add.w	r7, r2, r6, lsl #2
 80072a0:	eb09 0883 	add.w	r8, r9, r3, lsl #2
 80072a4:	f100 0514 	add.w	r5, r0, #20
 80072a8:	f04f 0e00 	mov.w	lr, #0
 80072ac:	f852 ab04 	ldr.w	sl, [r2], #4
 80072b0:	f859 4b04 	ldr.w	r4, [r9], #4
 80072b4:	fa1e f18a 	uxtah	r1, lr, sl
 80072b8:	b2a3      	uxth	r3, r4
 80072ba:	1ac9      	subs	r1, r1, r3
 80072bc:	0c23      	lsrs	r3, r4, #16
 80072be:	ebc3 431a 	rsb	r3, r3, sl, lsr #16
 80072c2:	eb03 4321 	add.w	r3, r3, r1, asr #16
 80072c6:	b289      	uxth	r1, r1
 80072c8:	ea4f 4e23 	mov.w	lr, r3, asr #16
 80072cc:	45c8      	cmp	r8, r9
 80072ce:	ea41 4303 	orr.w	r3, r1, r3, lsl #16
 80072d2:	4694      	mov	ip, r2
 80072d4:	f845 3b04 	str.w	r3, [r5], #4
 80072d8:	d8e8      	bhi.n	80072ac <__mdiff+0x5c>
 80072da:	45bc      	cmp	ip, r7
 80072dc:	d304      	bcc.n	80072e8 <__mdiff+0x98>
 80072de:	f855 3d04 	ldr.w	r3, [r5, #-4]!
 80072e2:	b183      	cbz	r3, 8007306 <__mdiff+0xb6>
 80072e4:	6106      	str	r6, [r0, #16]
 80072e6:	e7c5      	b.n	8007274 <__mdiff+0x24>
 80072e8:	f85c 1b04 	ldr.w	r1, [ip], #4
 80072ec:	fa1e f381 	uxtah	r3, lr, r1
 80072f0:	141a      	asrs	r2, r3, #16
 80072f2:	eb02 4211 	add.w	r2, r2, r1, lsr #16
 80072f6:	b29b      	uxth	r3, r3
 80072f8:	ea43 4302 	orr.w	r3, r3, r2, lsl #16
 80072fc:	ea4f 4e22 	mov.w	lr, r2, asr #16
 8007300:	f845 3b04 	str.w	r3, [r5], #4
 8007304:	e7e9      	b.n	80072da <__mdiff+0x8a>
 8007306:	3e01      	subs	r6, #1
 8007308:	e7e9      	b.n	80072de <__mdiff+0x8e>

0800730a <__d2b>:
 800730a:	e92d 43f7 	stmdb	sp!, {r0, r1, r2, r4, r5, r6, r7, r8, r9, lr}
 800730e:	460e      	mov	r6, r1
 8007310:	2101      	movs	r1, #1
 8007312:	ec59 8b10 	vmov	r8, r9, d0
 8007316:	4615      	mov	r5, r2
 8007318:	f7ff fd6a 	bl	8006df0 <_Balloc>
 800731c:	f3c9 540a 	ubfx	r4, r9, #20, #11
 8007320:	4607      	mov	r7, r0
 8007322:	f3c9 0313 	ubfx	r3, r9, #0, #20
 8007326:	bb34      	cbnz	r4, 8007376 <__d2b+0x6c>
 8007328:	9301      	str	r3, [sp, #4]
 800732a:	f1b8 0300 	subs.w	r3, r8, #0
 800732e:	d027      	beq.n	8007380 <__d2b+0x76>
 8007330:	a802      	add	r0, sp, #8
 8007332:	f840 3d08 	str.w	r3, [r0, #-8]!
 8007336:	f7ff fe00 	bl	8006f3a <__lo0bits>
 800733a:	9900      	ldr	r1, [sp, #0]
 800733c:	b1f0      	cbz	r0, 800737c <__d2b+0x72>
 800733e:	9a01      	ldr	r2, [sp, #4]
 8007340:	f1c0 0320 	rsb	r3, r0, #32
 8007344:	fa02 f303 	lsl.w	r3, r2, r3
 8007348:	430b      	orrs	r3, r1
 800734a:	40c2      	lsrs	r2, r0
 800734c:	617b      	str	r3, [r7, #20]
 800734e:	9201      	str	r2, [sp, #4]
 8007350:	9b01      	ldr	r3, [sp, #4]
 8007352:	61bb      	str	r3, [r7, #24]
 8007354:	2b00      	cmp	r3, #0
 8007356:	bf14      	ite	ne
 8007358:	2102      	movne	r1, #2
 800735a:	2101      	moveq	r1, #1
 800735c:	6139      	str	r1, [r7, #16]
 800735e:	b1c4      	cbz	r4, 8007392 <__d2b+0x88>
 8007360:	f2a4 4433 	subw	r4, r4, #1075	; 0x433
 8007364:	4404      	add	r4, r0
 8007366:	6034      	str	r4, [r6, #0]
 8007368:	f1c0 0035 	rsb	r0, r0, #53	; 0x35
 800736c:	6028      	str	r0, [r5, #0]
 800736e:	4638      	mov	r0, r7
 8007370:	b003      	add	sp, #12
 8007372:	e8bd 83f0 	ldmia.w	sp!, {r4, r5, r6, r7, r8, r9, pc}
 8007376:	f443 1380 	orr.w	r3, r3, #1048576	; 0x100000
 800737a:	e7d5      	b.n	8007328 <__d2b+0x1e>
 800737c:	6179      	str	r1, [r7, #20]
 800737e:	e7e7      	b.n	8007350 <__d2b+0x46>
 8007380:	a801      	add	r0, sp, #4
 8007382:	f7ff fdda 	bl	8006f3a <__lo0bits>
 8007386:	9b01      	ldr	r3, [sp, #4]
 8007388:	617b      	str	r3, [r7, #20]
 800738a:	2101      	movs	r1, #1
 800738c:	6139      	str	r1, [r7, #16]
 800738e:	3020      	adds	r0, #32
 8007390:	e7e5      	b.n	800735e <__d2b+0x54>
 8007392:	eb07 0381 	add.w	r3, r7, r1, lsl #2
 8007396:	f2a0 4032 	subw	r0, r0, #1074	; 0x432
 800739a:	6030      	str	r0, [r6, #0]
 800739c:	6918      	ldr	r0, [r3, #16]
 800739e:	f7ff fdad 	bl	8006efc <__hi0bits>
 80073a2:	ebc0 1041 	rsb	r0, r0, r1, lsl #5
 80073a6:	e7e1      	b.n	800736c <__d2b+0x62>

080073a8 <_calloc_r>:
 80073a8:	b538      	push	{r3, r4, r5, lr}
 80073aa:	fb02 f401 	mul.w	r4, r2, r1
 80073ae:	4621      	mov	r1, r4
 80073b0:	f7fe f9d6 	bl	8005760 <_malloc_r>
 80073b4:	4605      	mov	r5, r0
 80073b6:	b118      	cbz	r0, 80073c0 <_calloc_r+0x18>
 80073b8:	4622      	mov	r2, r4
 80073ba:	2100      	movs	r1, #0
 80073bc:	f7fe f979 	bl	80056b2 <memset>
 80073c0:	4628      	mov	r0, r5
 80073c2:	bd38      	pop	{r3, r4, r5, pc}

080073c4 <__ssputs_r>:
 80073c4:	e92d 47f0 	stmdb	sp!, {r4, r5, r6, r7, r8, r9, sl, lr}
 80073c8:	688e      	ldr	r6, [r1, #8]
 80073ca:	429e      	cmp	r6, r3
 80073cc:	4682      	mov	sl, r0
 80073ce:	460c      	mov	r4, r1
 80073d0:	4690      	mov	r8, r2
 80073d2:	4699      	mov	r9, r3
 80073d4:	d837      	bhi.n	8007446 <__ssputs_r+0x82>
 80073d6:	898a      	ldrh	r2, [r1, #12]
 80073d8:	f412 6f90 	tst.w	r2, #1152	; 0x480
 80073dc:	d031      	beq.n	8007442 <__ssputs_r+0x7e>
 80073de:	6825      	ldr	r5, [r4, #0]
 80073e0:	6909      	ldr	r1, [r1, #16]
 80073e2:	1a6f      	subs	r7, r5, r1
 80073e4:	6965      	ldr	r5, [r4, #20]
 80073e6:	2302      	movs	r3, #2
 80073e8:	eb05 0545 	add.w	r5, r5, r5, lsl #1
 80073ec:	fb95 f5f3 	sdiv	r5, r5, r3
 80073f0:	f109 0301 	add.w	r3, r9, #1
 80073f4:	443b      	add	r3, r7
 80073f6:	429d      	cmp	r5, r3
 80073f8:	bf38      	it	cc
 80073fa:	461d      	movcc	r5, r3
 80073fc:	0553      	lsls	r3, r2, #21
 80073fe:	d530      	bpl.n	8007462 <__ssputs_r+0x9e>
 8007400:	4629      	mov	r1, r5
 8007402:	f7fe f9ad 	bl	8005760 <_malloc_r>
 8007406:	4606      	mov	r6, r0
 8007408:	b950      	cbnz	r0, 8007420 <__ssputs_r+0x5c>
 800740a:	230c      	movs	r3, #12
 800740c:	f8ca 3000 	str.w	r3, [sl]
 8007410:	89a3      	ldrh	r3, [r4, #12]
 8007412:	f043 0340 	orr.w	r3, r3, #64	; 0x40
 8007416:	81a3      	strh	r3, [r4, #12]
 8007418:	f04f 30ff 	mov.w	r0, #4294967295
 800741c:	e8bd 87f0 	ldmia.w	sp!, {r4, r5, r6, r7, r8, r9, sl, pc}
 8007420:	463a      	mov	r2, r7
 8007422:	6921      	ldr	r1, [r4, #16]
 8007424:	f7fe f93a 	bl	800569c <memcpy>
 8007428:	89a3      	ldrh	r3, [r4, #12]
 800742a:	f423 6390 	bic.w	r3, r3, #1152	; 0x480
 800742e:	f043 0380 	orr.w	r3, r3, #128	; 0x80
 8007432:	81a3      	strh	r3, [r4, #12]
 8007434:	6126      	str	r6, [r4, #16]
 8007436:	6165      	str	r5, [r4, #20]
 8007438:	443e      	add	r6, r7
 800743a:	1bed      	subs	r5, r5, r7
 800743c:	6026      	str	r6, [r4, #0]
 800743e:	60a5      	str	r5, [r4, #8]
 8007440:	464e      	mov	r6, r9
 8007442:	454e      	cmp	r6, r9
 8007444:	d900      	bls.n	8007448 <__ssputs_r+0x84>
 8007446:	464e      	mov	r6, r9
 8007448:	4632      	mov	r2, r6
 800744a:	4641      	mov	r1, r8
 800744c:	6820      	ldr	r0, [r4, #0]
 800744e:	f000 f90b 	bl	8007668 <memmove>
 8007452:	68a3      	ldr	r3, [r4, #8]
 8007454:	1b9b      	subs	r3, r3, r6
 8007456:	60a3      	str	r3, [r4, #8]
 8007458:	6823      	ldr	r3, [r4, #0]
 800745a:	441e      	add	r6, r3
 800745c:	6026      	str	r6, [r4, #0]
 800745e:	2000      	movs	r0, #0
 8007460:	e7dc      	b.n	800741c <__ssputs_r+0x58>
 8007462:	462a      	mov	r2, r5
 8007464:	f000 f919 	bl	800769a <_realloc_r>
 8007468:	4606      	mov	r6, r0
 800746a:	2800      	cmp	r0, #0
 800746c:	d1e2      	bne.n	8007434 <__ssputs_r+0x70>
 800746e:	6921      	ldr	r1, [r4, #16]
 8007470:	4650      	mov	r0, sl
 8007472:	f7fe f927 	bl	80056c4 <_free_r>
 8007476:	e7c8      	b.n	800740a <__ssputs_r+0x46>

08007478 <_svfiprintf_r>:
 8007478:	e92d 4ff0 	stmdb	sp!, {r4, r5, r6, r7, r8, r9, sl, fp, lr}
 800747c:	461d      	mov	r5, r3
 800747e:	898b      	ldrh	r3, [r1, #12]
 8007480:	061f      	lsls	r7, r3, #24
 8007482:	b09d      	sub	sp, #116	; 0x74
 8007484:	4680      	mov	r8, r0
 8007486:	460c      	mov	r4, r1
 8007488:	4616      	mov	r6, r2
 800748a:	d50f      	bpl.n	80074ac <_svfiprintf_r+0x34>
 800748c:	690b      	ldr	r3, [r1, #16]
 800748e:	b96b      	cbnz	r3, 80074ac <_svfiprintf_r+0x34>
 8007490:	2140      	movs	r1, #64	; 0x40
 8007492:	f7fe f965 	bl	8005760 <_malloc_r>
 8007496:	6020      	str	r0, [r4, #0]
 8007498:	6120      	str	r0, [r4, #16]
 800749a:	b928      	cbnz	r0, 80074a8 <_svfiprintf_r+0x30>
 800749c:	230c      	movs	r3, #12
 800749e:	f8c8 3000 	str.w	r3, [r8]
 80074a2:	f04f 30ff 	mov.w	r0, #4294967295
 80074a6:	e0c8      	b.n	800763a <_svfiprintf_r+0x1c2>
 80074a8:	2340      	movs	r3, #64	; 0x40
 80074aa:	6163      	str	r3, [r4, #20]
 80074ac:	2300      	movs	r3, #0
 80074ae:	9309      	str	r3, [sp, #36]	; 0x24
 80074b0:	2320      	movs	r3, #32
 80074b2:	f88d 3029 	strb.w	r3, [sp, #41]	; 0x29
 80074b6:	2330      	movs	r3, #48	; 0x30
 80074b8:	f88d 302a 	strb.w	r3, [sp, #42]	; 0x2a
 80074bc:	9503      	str	r5, [sp, #12]
 80074be:	f04f 0b01 	mov.w	fp, #1
 80074c2:	4637      	mov	r7, r6
 80074c4:	463d      	mov	r5, r7
 80074c6:	f815 3b01 	ldrb.w	r3, [r5], #1
 80074ca:	b10b      	cbz	r3, 80074d0 <_svfiprintf_r+0x58>
 80074cc:	2b25      	cmp	r3, #37	; 0x25
 80074ce:	d13e      	bne.n	800754e <_svfiprintf_r+0xd6>
 80074d0:	ebb7 0a06 	subs.w	sl, r7, r6
 80074d4:	d00b      	beq.n	80074ee <_svfiprintf_r+0x76>
 80074d6:	4653      	mov	r3, sl
 80074d8:	4632      	mov	r2, r6
 80074da:	4621      	mov	r1, r4
 80074dc:	4640      	mov	r0, r8
 80074de:	f7ff ff71 	bl	80073c4 <__ssputs_r>
 80074e2:	3001      	adds	r0, #1
 80074e4:	f000 80a4 	beq.w	8007630 <_svfiprintf_r+0x1b8>
 80074e8:	9b09      	ldr	r3, [sp, #36]	; 0x24
 80074ea:	4453      	add	r3, sl
 80074ec:	9309      	str	r3, [sp, #36]	; 0x24
 80074ee:	783b      	ldrb	r3, [r7, #0]
 80074f0:	2b00      	cmp	r3, #0
 80074f2:	f000 809d 	beq.w	8007630 <_svfiprintf_r+0x1b8>
 80074f6:	2300      	movs	r3, #0
 80074f8:	f04f 32ff 	mov.w	r2, #4294967295
 80074fc:	e9cd 2305 	strd	r2, r3, [sp, #20]
 8007500:	9304      	str	r3, [sp, #16]
 8007502:	9307      	str	r3, [sp, #28]
 8007504:	f88d 3053 	strb.w	r3, [sp, #83]	; 0x53
 8007508:	931a      	str	r3, [sp, #104]	; 0x68
 800750a:	462f      	mov	r7, r5
 800750c:	2205      	movs	r2, #5
 800750e:	f817 1b01 	ldrb.w	r1, [r7], #1
 8007512:	4850      	ldr	r0, [pc, #320]	; (8007654 <_svfiprintf_r+0x1dc>)
 8007514:	f7f8 fe7c 	bl	8000210 <memchr>
 8007518:	9b04      	ldr	r3, [sp, #16]
 800751a:	b9d0      	cbnz	r0, 8007552 <_svfiprintf_r+0xda>
 800751c:	06d9      	lsls	r1, r3, #27
 800751e:	bf44      	itt	mi
 8007520:	2220      	movmi	r2, #32
 8007522:	f88d 2053 	strbmi.w	r2, [sp, #83]	; 0x53
 8007526:	071a      	lsls	r2, r3, #28
 8007528:	bf44      	itt	mi
 800752a:	222b      	movmi	r2, #43	; 0x2b
 800752c:	f88d 2053 	strbmi.w	r2, [sp, #83]	; 0x53
 8007530:	782a      	ldrb	r2, [r5, #0]
 8007532:	2a2a      	cmp	r2, #42	; 0x2a
 8007534:	d015      	beq.n	8007562 <_svfiprintf_r+0xea>
 8007536:	9a07      	ldr	r2, [sp, #28]
 8007538:	462f      	mov	r7, r5
 800753a:	2000      	movs	r0, #0
 800753c:	250a      	movs	r5, #10
 800753e:	4639      	mov	r1, r7
 8007540:	f811 3b01 	ldrb.w	r3, [r1], #1
 8007544:	3b30      	subs	r3, #48	; 0x30
 8007546:	2b09      	cmp	r3, #9
 8007548:	d94d      	bls.n	80075e6 <_svfiprintf_r+0x16e>
 800754a:	b1b8      	cbz	r0, 800757c <_svfiprintf_r+0x104>
 800754c:	e00f      	b.n	800756e <_svfiprintf_r+0xf6>
 800754e:	462f      	mov	r7, r5
 8007550:	e7b8      	b.n	80074c4 <_svfiprintf_r+0x4c>
 8007552:	4a40      	ldr	r2, [pc, #256]	; (8007654 <_svfiprintf_r+0x1dc>)
 8007554:	1a80      	subs	r0, r0, r2
 8007556:	fa0b f000 	lsl.w	r0, fp, r0
 800755a:	4318      	orrs	r0, r3
 800755c:	9004      	str	r0, [sp, #16]
 800755e:	463d      	mov	r5, r7
 8007560:	e7d3      	b.n	800750a <_svfiprintf_r+0x92>
 8007562:	9a03      	ldr	r2, [sp, #12]
 8007564:	1d11      	adds	r1, r2, #4
 8007566:	6812      	ldr	r2, [r2, #0]
 8007568:	9103      	str	r1, [sp, #12]
 800756a:	2a00      	cmp	r2, #0
 800756c:	db01      	blt.n	8007572 <_svfiprintf_r+0xfa>
 800756e:	9207      	str	r2, [sp, #28]
 8007570:	e004      	b.n	800757c <_svfiprintf_r+0x104>
 8007572:	4252      	negs	r2, r2
 8007574:	f043 0302 	orr.w	r3, r3, #2
 8007578:	9207      	str	r2, [sp, #28]
 800757a:	9304      	str	r3, [sp, #16]
 800757c:	783b      	ldrb	r3, [r7, #0]
 800757e:	2b2e      	cmp	r3, #46	; 0x2e
 8007580:	d10c      	bne.n	800759c <_svfiprintf_r+0x124>
 8007582:	787b      	ldrb	r3, [r7, #1]
 8007584:	2b2a      	cmp	r3, #42	; 0x2a
 8007586:	d133      	bne.n	80075f0 <_svfiprintf_r+0x178>
 8007588:	9b03      	ldr	r3, [sp, #12]
 800758a:	1d1a      	adds	r2, r3, #4
 800758c:	681b      	ldr	r3, [r3, #0]
 800758e:	9203      	str	r2, [sp, #12]
 8007590:	2b00      	cmp	r3, #0
 8007592:	bfb8      	it	lt
 8007594:	f04f 33ff 	movlt.w	r3, #4294967295
 8007598:	3702      	adds	r7, #2
 800759a:	9305      	str	r3, [sp, #20]
 800759c:	4d2e      	ldr	r5, [pc, #184]	; (8007658 <_svfiprintf_r+0x1e0>)
 800759e:	7839      	ldrb	r1, [r7, #0]
 80075a0:	2203      	movs	r2, #3
 80075a2:	4628      	mov	r0, r5
 80075a4:	f7f8 fe34 	bl	8000210 <memchr>
 80075a8:	b138      	cbz	r0, 80075ba <_svfiprintf_r+0x142>
 80075aa:	2340      	movs	r3, #64	; 0x40
 80075ac:	1b40      	subs	r0, r0, r5
 80075ae:	fa03 f000 	lsl.w	r0, r3, r0
 80075b2:	9b04      	ldr	r3, [sp, #16]
 80075b4:	4303      	orrs	r3, r0
 80075b6:	3701      	adds	r7, #1
 80075b8:	9304      	str	r3, [sp, #16]
 80075ba:	7839      	ldrb	r1, [r7, #0]
 80075bc:	4827      	ldr	r0, [pc, #156]	; (800765c <_svfiprintf_r+0x1e4>)
 80075be:	f88d 1028 	strb.w	r1, [sp, #40]	; 0x28
 80075c2:	2206      	movs	r2, #6
 80075c4:	1c7e      	adds	r6, r7, #1
 80075c6:	f7f8 fe23 	bl	8000210 <memchr>
 80075ca:	2800      	cmp	r0, #0
 80075cc:	d038      	beq.n	8007640 <_svfiprintf_r+0x1c8>
 80075ce:	4b24      	ldr	r3, [pc, #144]	; (8007660 <_svfiprintf_r+0x1e8>)
 80075d0:	bb13      	cbnz	r3, 8007618 <_svfiprintf_r+0x1a0>
 80075d2:	9b03      	ldr	r3, [sp, #12]
 80075d4:	3307      	adds	r3, #7
 80075d6:	f023 0307 	bic.w	r3, r3, #7
 80075da:	3308      	adds	r3, #8
 80075dc:	9303      	str	r3, [sp, #12]
 80075de:	9b09      	ldr	r3, [sp, #36]	; 0x24
 80075e0:	444b      	add	r3, r9
 80075e2:	9309      	str	r3, [sp, #36]	; 0x24
 80075e4:	e76d      	b.n	80074c2 <_svfiprintf_r+0x4a>
 80075e6:	fb05 3202 	mla	r2, r5, r2, r3
 80075ea:	2001      	movs	r0, #1
 80075ec:	460f      	mov	r7, r1
 80075ee:	e7a6      	b.n	800753e <_svfiprintf_r+0xc6>
 80075f0:	2300      	movs	r3, #0
 80075f2:	3701      	adds	r7, #1
 80075f4:	9305      	str	r3, [sp, #20]
 80075f6:	4619      	mov	r1, r3
 80075f8:	250a      	movs	r5, #10
 80075fa:	4638      	mov	r0, r7
 80075fc:	f810 2b01 	ldrb.w	r2, [r0], #1
 8007600:	3a30      	subs	r2, #48	; 0x30
 8007602:	2a09      	cmp	r2, #9
 8007604:	d903      	bls.n	800760e <_svfiprintf_r+0x196>
 8007606:	2b00      	cmp	r3, #0
 8007608:	d0c8      	beq.n	800759c <_svfiprintf_r+0x124>
 800760a:	9105      	str	r1, [sp, #20]
 800760c:	e7c6      	b.n	800759c <_svfiprintf_r+0x124>
 800760e:	fb05 2101 	mla	r1, r5, r1, r2
 8007612:	2301      	movs	r3, #1
 8007614:	4607      	mov	r7, r0
 8007616:	e7f0      	b.n	80075fa <_svfiprintf_r+0x182>
 8007618:	ab03      	add	r3, sp, #12
 800761a:	9300      	str	r3, [sp, #0]
 800761c:	4622      	mov	r2, r4
 800761e:	4b11      	ldr	r3, [pc, #68]	; (8007664 <_svfiprintf_r+0x1ec>)
 8007620:	a904      	add	r1, sp, #16
 8007622:	4640      	mov	r0, r8
 8007624:	f7fe f98a 	bl	800593c <_printf_float>
 8007628:	f1b0 3fff 	cmp.w	r0, #4294967295
 800762c:	4681      	mov	r9, r0
 800762e:	d1d6      	bne.n	80075de <_svfiprintf_r+0x166>
 8007630:	89a3      	ldrh	r3, [r4, #12]
 8007632:	065b      	lsls	r3, r3, #25
 8007634:	f53f af35 	bmi.w	80074a2 <_svfiprintf_r+0x2a>
 8007638:	9809      	ldr	r0, [sp, #36]	; 0x24
 800763a:	b01d      	add	sp, #116	; 0x74
 800763c:	e8bd 8ff0 	ldmia.w	sp!, {r4, r5, r6, r7, r8, r9, sl, fp, pc}
 8007640:	ab03      	add	r3, sp, #12
 8007642:	9300      	str	r3, [sp, #0]
 8007644:	4622      	mov	r2, r4
 8007646:	4b07      	ldr	r3, [pc, #28]	; (8007664 <_svfiprintf_r+0x1ec>)
 8007648:	a904      	add	r1, sp, #16
 800764a:	4640      	mov	r0, r8
 800764c:	f7fe fc2c 	bl	8005ea8 <_printf_i>
 8007650:	e7ea      	b.n	8007628 <_svfiprintf_r+0x1b0>
 8007652:	bf00      	nop
 8007654:	0801797c 	.word	0x0801797c
 8007658:	08017982 	.word	0x08017982
 800765c:	08017986 	.word	0x08017986
 8007660:	0800593d 	.word	0x0800593d
 8007664:	080073c5 	.word	0x080073c5

08007668 <memmove>:
 8007668:	4288      	cmp	r0, r1
 800766a:	b510      	push	{r4, lr}
 800766c:	eb01 0302 	add.w	r3, r1, r2
 8007670:	d807      	bhi.n	8007682 <memmove+0x1a>
 8007672:	1e42      	subs	r2, r0, #1
 8007674:	4299      	cmp	r1, r3
 8007676:	d00a      	beq.n	800768e <memmove+0x26>
 8007678:	f811 4b01 	ldrb.w	r4, [r1], #1
 800767c:	f802 4f01 	strb.w	r4, [r2, #1]!
 8007680:	e7f8      	b.n	8007674 <memmove+0xc>
 8007682:	4283      	cmp	r3, r0
 8007684:	d9f5      	bls.n	8007672 <memmove+0xa>
 8007686:	1881      	adds	r1, r0, r2
 8007688:	1ad2      	subs	r2, r2, r3
 800768a:	42d3      	cmn	r3, r2
 800768c:	d100      	bne.n	8007690 <memmove+0x28>
 800768e:	bd10      	pop	{r4, pc}
 8007690:	f813 4d01 	ldrb.w	r4, [r3, #-1]!
 8007694:	f801 4d01 	strb.w	r4, [r1, #-1]!
 8007698:	e7f7      	b.n	800768a <memmove+0x22>

0800769a <_realloc_r>:
 800769a:	b5f8      	push	{r3, r4, r5, r6, r7, lr}
 800769c:	4607      	mov	r7, r0
 800769e:	4614      	mov	r4, r2
 80076a0:	460e      	mov	r6, r1
 80076a2:	b921      	cbnz	r1, 80076ae <_realloc_r+0x14>
 80076a4:	4611      	mov	r1, r2
 80076a6:	e8bd 40f8 	ldmia.w	sp!, {r3, r4, r5, r6, r7, lr}
 80076aa:	f7fe b859 	b.w	8005760 <_malloc_r>
 80076ae:	b922      	cbnz	r2, 80076ba <_realloc_r+0x20>
 80076b0:	f7fe f808 	bl	80056c4 <_free_r>
 80076b4:	4625      	mov	r5, r4
 80076b6:	4628      	mov	r0, r5
 80076b8:	bdf8      	pop	{r3, r4, r5, r6, r7, pc}
 80076ba:	f000 f814 	bl	80076e6 <_malloc_usable_size_r>
 80076be:	42a0      	cmp	r0, r4
 80076c0:	d20f      	bcs.n	80076e2 <_realloc_r+0x48>
 80076c2:	4621      	mov	r1, r4
 80076c4:	4638      	mov	r0, r7
 80076c6:	f7fe f84b 	bl	8005760 <_malloc_r>
 80076ca:	4605      	mov	r5, r0
 80076cc:	2800      	cmp	r0, #0
 80076ce:	d0f2      	beq.n	80076b6 <_realloc_r+0x1c>
 80076d0:	4631      	mov	r1, r6
 80076d2:	4622      	mov	r2, r4
 80076d4:	f7fd ffe2 	bl	800569c <memcpy>
 80076d8:	4631      	mov	r1, r6
 80076da:	4638      	mov	r0, r7
 80076dc:	f7fd fff2 	bl	80056c4 <_free_r>
 80076e0:	e7e9      	b.n	80076b6 <_realloc_r+0x1c>
 80076e2:	4635      	mov	r5, r6
 80076e4:	e7e7      	b.n	80076b6 <_realloc_r+0x1c>

080076e6 <_malloc_usable_size_r>:
 80076e6:	f851 3c04 	ldr.w	r3, [r1, #-4]
 80076ea:	1f18      	subs	r0, r3, #4
 80076ec:	2b00      	cmp	r3, #0
 80076ee:	bfbc      	itt	lt
 80076f0:	580b      	ldrlt	r3, [r1, r0]
 80076f2:	18c0      	addlt	r0, r0, r3
 80076f4:	4770      	bx	lr
	...

080076f8 <_init>:
 80076f8:	b5f8      	push	{r3, r4, r5, r6, r7, lr}
 80076fa:	bf00      	nop
 80076fc:	bcf8      	pop	{r3, r4, r5, r6, r7}
 80076fe:	bc08      	pop	{r3}
 8007700:	469e      	mov	lr, r3
 8007702:	4770      	bx	lr

08007704 <_fini>:
 8007704:	b5f8      	push	{r3, r4, r5, r6, r7, lr}
 8007706:	bf00      	nop
 8007708:	bcf8      	pop	{r3, r4, r5, r6, r7}
 800770a:	bc08      	pop	{r3}
 800770c:	469e      	mov	lr, r3
 800770e:	4770      	bx	lr
