
ArcadeIT_Ver020_F469_CMSIS.elf:     file format elf32-littlearm

Sections:
Idx Name          Size      VMA       LMA       File off  Algn
  0 .isr_vector   000001b4  08000000  08000000  00010000  2**0
                  CONTENTS, ALLOC, LOAD, READONLY, DATA
  1 .text         00006624  080001c0  080001c0  000101c0  2**4
                  CONTENTS, ALLOC, LOAD, READONLY, CODE
  2 .rodata       0000f250  080067e8  080067e8  000167e8  2**3
                  CONTENTS, ALLOC, LOAD, READONLY, DATA
  3 .ARM.extab    00000000  08015a38  08015a38  000301d8  2**0
                  CONTENTS
  4 .ARM          00000000  08015a38  08015a38  000301d8  2**0
                  CONTENTS
  5 .preinit_array 00000000  08015a38  08015a38  000301d8  2**0
                  CONTENTS, ALLOC, LOAD, DATA
  6 .init_array   00000004  08015a38  08015a38  00025a38  2**2
                  CONTENTS, ALLOC, LOAD, DATA
  7 .fini_array   00000004  08015a3c  08015a3c  00025a3c  2**2
                  CONTENTS, ALLOC, LOAD, DATA
  8 .data         000001d8  20000000  08015a40  00030000  2**2
                  CONTENTS, ALLOC, LOAD, DATA
  9 .bss          0000056c  200001d8  08015c18  000301d8  2**2
                  ALLOC
 10 ._user_heap_stack 00000604  20000744  08015c18  00030744  2**0
                  ALLOC
 11 .ARM.attributes 00000030  00000000  00000000  000301d8  2**0
                  CONTENTS, READONLY
 12 .debug_info   00011ddb  00000000  00000000  00030208  2**0
                  CONTENTS, READONLY, DEBUGGING
 13 .debug_abbrev 00002307  00000000  00000000  00041fe3  2**0
                  CONTENTS, READONLY, DEBUGGING
 14 .debug_aranges 000006e8  00000000  00000000  000442f0  2**3
                  CONTENTS, READONLY, DEBUGGING
 15 .debug_ranges 00000640  00000000  00000000  000449d8  2**3
                  CONTENTS, READONLY, DEBUGGING
 16 .debug_macro  00023d63  00000000  00000000  00045018  2**0
                  CONTENTS, READONLY, DEBUGGING
 17 .debug_line   00009cff  00000000  00000000  00068d7b  2**0
                  CONTENTS, READONLY, DEBUGGING
 18 .debug_str    000bdf35  00000000  00000000  00072a7a  2**0
                  CONTENTS, READONLY, DEBUGGING
 19 .comment      0000007b  00000000  00000000  001309af  2**0
                  CONTENTS, READONLY
 20 .debug_frame  00001de4  00000000  00000000  00130a2c  2**2
                  CONTENTS, READONLY, DEBUGGING
 21 .debug_loc    00008454  00000000  00000000  00132810  2**0
                  CONTENTS, READONLY, DEBUGGING

Disassembly of section .text:

080001c0 <__do_global_dtors_aux>:
 80001c0:	b510      	push	{r4, lr}
 80001c2:	4c05      	ldr	r4, [pc, #20]	; (80001d8 <__do_global_dtors_aux+0x18>)
 80001c4:	7823      	ldrb	r3, [r4, #0]
 80001c6:	b933      	cbnz	r3, 80001d6 <__do_global_dtors_aux+0x16>
 80001c8:	4b04      	ldr	r3, [pc, #16]	; (80001dc <__do_global_dtors_aux+0x1c>)
 80001ca:	b113      	cbz	r3, 80001d2 <__do_global_dtors_aux+0x12>
 80001cc:	4804      	ldr	r0, [pc, #16]	; (80001e0 <__do_global_dtors_aux+0x20>)
 80001ce:	f3af 8000 	nop.w
 80001d2:	2301      	movs	r3, #1
 80001d4:	7023      	strb	r3, [r4, #0]
 80001d6:	bd10      	pop	{r4, pc}
 80001d8:	200001d8 	.word	0x200001d8
 80001dc:	00000000 	.word	0x00000000
 80001e0:	080067cc 	.word	0x080067cc

080001e4 <frame_dummy>:
 80001e4:	b508      	push	{r3, lr}
 80001e6:	4b03      	ldr	r3, [pc, #12]	; (80001f4 <frame_dummy+0x10>)
 80001e8:	b11b      	cbz	r3, 80001f2 <frame_dummy+0xe>
 80001ea:	4903      	ldr	r1, [pc, #12]	; (80001f8 <frame_dummy+0x14>)
 80001ec:	4803      	ldr	r0, [pc, #12]	; (80001fc <frame_dummy+0x18>)
 80001ee:	f3af 8000 	nop.w
 80001f2:	bd08      	pop	{r3, pc}
 80001f4:	00000000 	.word	0x00000000
 80001f8:	200001dc 	.word	0x200001dc
 80001fc:	080067cc 	.word	0x080067cc

08000200 <strlen>:
 8000200:	4603      	mov	r3, r0
 8000202:	f813 2b01 	ldrb.w	r2, [r3], #1
 8000206:	2a00      	cmp	r2, #0
 8000208:	d1fb      	bne.n	8000202 <strlen+0x2>
 800020a:	1a18      	subs	r0, r3, r0
 800020c:	3801      	subs	r0, #1
 800020e:	4770      	bx	lr

08000210 <memchr>:
 8000210:	f001 01ff 	and.w	r1, r1, #255	; 0xff
 8000214:	2a10      	cmp	r2, #16
 8000216:	db2b      	blt.n	8000270 <memchr+0x60>
 8000218:	f010 0f07 	tst.w	r0, #7
 800021c:	d008      	beq.n	8000230 <memchr+0x20>
 800021e:	f810 3b01 	ldrb.w	r3, [r0], #1
 8000222:	3a01      	subs	r2, #1
 8000224:	428b      	cmp	r3, r1
 8000226:	d02d      	beq.n	8000284 <memchr+0x74>
 8000228:	f010 0f07 	tst.w	r0, #7
 800022c:	b342      	cbz	r2, 8000280 <memchr+0x70>
 800022e:	d1f6      	bne.n	800021e <memchr+0xe>
 8000230:	b4f0      	push	{r4, r5, r6, r7}
 8000232:	ea41 2101 	orr.w	r1, r1, r1, lsl #8
 8000236:	ea41 4101 	orr.w	r1, r1, r1, lsl #16
 800023a:	f022 0407 	bic.w	r4, r2, #7
 800023e:	f07f 0700 	mvns.w	r7, #0
 8000242:	2300      	movs	r3, #0
 8000244:	e8f0 5602 	ldrd	r5, r6, [r0], #8
 8000248:	3c08      	subs	r4, #8
 800024a:	ea85 0501 	eor.w	r5, r5, r1
 800024e:	ea86 0601 	eor.w	r6, r6, r1
 8000252:	fa85 f547 	uadd8	r5, r5, r7
 8000256:	faa3 f587 	sel	r5, r3, r7
 800025a:	fa86 f647 	uadd8	r6, r6, r7
 800025e:	faa5 f687 	sel	r6, r5, r7
 8000262:	b98e      	cbnz	r6, 8000288 <memchr+0x78>
 8000264:	d1ee      	bne.n	8000244 <memchr+0x34>
 8000266:	bcf0      	pop	{r4, r5, r6, r7}
 8000268:	f001 01ff 	and.w	r1, r1, #255	; 0xff
 800026c:	f002 0207 	and.w	r2, r2, #7
 8000270:	b132      	cbz	r2, 8000280 <memchr+0x70>
 8000272:	f810 3b01 	ldrb.w	r3, [r0], #1
 8000276:	3a01      	subs	r2, #1
 8000278:	ea83 0301 	eor.w	r3, r3, r1
 800027c:	b113      	cbz	r3, 8000284 <memchr+0x74>
 800027e:	d1f8      	bne.n	8000272 <memchr+0x62>
 8000280:	2000      	movs	r0, #0
 8000282:	4770      	bx	lr
 8000284:	3801      	subs	r0, #1
 8000286:	4770      	bx	lr
 8000288:	2d00      	cmp	r5, #0
 800028a:	bf06      	itte	eq
 800028c:	4635      	moveq	r5, r6
 800028e:	3803      	subeq	r0, #3
 8000290:	3807      	subne	r0, #7
 8000292:	f015 0f01 	tst.w	r5, #1
 8000296:	d107      	bne.n	80002a8 <memchr+0x98>
 8000298:	3001      	adds	r0, #1
 800029a:	f415 7f80 	tst.w	r5, #256	; 0x100
 800029e:	bf02      	ittt	eq
 80002a0:	3001      	addeq	r0, #1
 80002a2:	f415 3fc0 	tsteq.w	r5, #98304	; 0x18000
 80002a6:	3001      	addeq	r0, #1
 80002a8:	bcf0      	pop	{r4, r5, r6, r7}
 80002aa:	3801      	subs	r0, #1
 80002ac:	4770      	bx	lr
 80002ae:	bf00      	nop

080002b0 <__aeabi_drsub>:
 80002b0:	f081 4100 	eor.w	r1, r1, #2147483648	; 0x80000000
 80002b4:	e002      	b.n	80002bc <__adddf3>
 80002b6:	bf00      	nop

080002b8 <__aeabi_dsub>:
 80002b8:	f083 4300 	eor.w	r3, r3, #2147483648	; 0x80000000

080002bc <__adddf3>:
 80002bc:	b530      	push	{r4, r5, lr}
 80002be:	ea4f 0441 	mov.w	r4, r1, lsl #1
 80002c2:	ea4f 0543 	mov.w	r5, r3, lsl #1
 80002c6:	ea94 0f05 	teq	r4, r5
 80002ca:	bf08      	it	eq
 80002cc:	ea90 0f02 	teqeq	r0, r2
 80002d0:	bf1f      	itttt	ne
 80002d2:	ea54 0c00 	orrsne.w	ip, r4, r0
 80002d6:	ea55 0c02 	orrsne.w	ip, r5, r2
 80002da:	ea7f 5c64 	mvnsne.w	ip, r4, asr #21
 80002de:	ea7f 5c65 	mvnsne.w	ip, r5, asr #21
 80002e2:	f000 80e2 	beq.w	80004aa <__adddf3+0x1ee>
 80002e6:	ea4f 5454 	mov.w	r4, r4, lsr #21
 80002ea:	ebd4 5555 	rsbs	r5, r4, r5, lsr #21
 80002ee:	bfb8      	it	lt
 80002f0:	426d      	neglt	r5, r5
 80002f2:	dd0c      	ble.n	800030e <__adddf3+0x52>
 80002f4:	442c      	add	r4, r5
 80002f6:	ea80 0202 	eor.w	r2, r0, r2
 80002fa:	ea81 0303 	eor.w	r3, r1, r3
 80002fe:	ea82 0000 	eor.w	r0, r2, r0
 8000302:	ea83 0101 	eor.w	r1, r3, r1
 8000306:	ea80 0202 	eor.w	r2, r0, r2
 800030a:	ea81 0303 	eor.w	r3, r1, r3
 800030e:	2d36      	cmp	r5, #54	; 0x36
 8000310:	bf88      	it	hi
 8000312:	bd30      	pophi	{r4, r5, pc}
 8000314:	f011 4f00 	tst.w	r1, #2147483648	; 0x80000000
 8000318:	ea4f 3101 	mov.w	r1, r1, lsl #12
 800031c:	f44f 1c80 	mov.w	ip, #1048576	; 0x100000
 8000320:	ea4c 3111 	orr.w	r1, ip, r1, lsr #12
 8000324:	d002      	beq.n	800032c <__adddf3+0x70>
 8000326:	4240      	negs	r0, r0
 8000328:	eb61 0141 	sbc.w	r1, r1, r1, lsl #1
 800032c:	f013 4f00 	tst.w	r3, #2147483648	; 0x80000000
 8000330:	ea4f 3303 	mov.w	r3, r3, lsl #12
 8000334:	ea4c 3313 	orr.w	r3, ip, r3, lsr #12
 8000338:	d002      	beq.n	8000340 <__adddf3+0x84>
 800033a:	4252      	negs	r2, r2
 800033c:	eb63 0343 	sbc.w	r3, r3, r3, lsl #1
 8000340:	ea94 0f05 	teq	r4, r5
 8000344:	f000 80a7 	beq.w	8000496 <__adddf3+0x1da>
 8000348:	f1a4 0401 	sub.w	r4, r4, #1
 800034c:	f1d5 0e20 	rsbs	lr, r5, #32
 8000350:	db0d      	blt.n	800036e <__adddf3+0xb2>
 8000352:	fa02 fc0e 	lsl.w	ip, r2, lr
 8000356:	fa22 f205 	lsr.w	r2, r2, r5
 800035a:	1880      	adds	r0, r0, r2
 800035c:	f141 0100 	adc.w	r1, r1, #0
 8000360:	fa03 f20e 	lsl.w	r2, r3, lr
 8000364:	1880      	adds	r0, r0, r2
 8000366:	fa43 f305 	asr.w	r3, r3, r5
 800036a:	4159      	adcs	r1, r3
 800036c:	e00e      	b.n	800038c <__adddf3+0xd0>
 800036e:	f1a5 0520 	sub.w	r5, r5, #32
 8000372:	f10e 0e20 	add.w	lr, lr, #32
 8000376:	2a01      	cmp	r2, #1
 8000378:	fa03 fc0e 	lsl.w	ip, r3, lr
 800037c:	bf28      	it	cs
 800037e:	f04c 0c02 	orrcs.w	ip, ip, #2
 8000382:	fa43 f305 	asr.w	r3, r3, r5
 8000386:	18c0      	adds	r0, r0, r3
 8000388:	eb51 71e3 	adcs.w	r1, r1, r3, asr #31
 800038c:	f001 4500 	and.w	r5, r1, #2147483648	; 0x80000000
 8000390:	d507      	bpl.n	80003a2 <__adddf3+0xe6>
 8000392:	f04f 0e00 	mov.w	lr, #0
 8000396:	f1dc 0c00 	rsbs	ip, ip, #0
 800039a:	eb7e 0000 	sbcs.w	r0, lr, r0
 800039e:	eb6e 0101 	sbc.w	r1, lr, r1
 80003a2:	f5b1 1f80 	cmp.w	r1, #1048576	; 0x100000
 80003a6:	d31b      	bcc.n	80003e0 <__adddf3+0x124>
 80003a8:	f5b1 1f00 	cmp.w	r1, #2097152	; 0x200000
 80003ac:	d30c      	bcc.n	80003c8 <__adddf3+0x10c>
 80003ae:	0849      	lsrs	r1, r1, #1
 80003b0:	ea5f 0030 	movs.w	r0, r0, rrx
 80003b4:	ea4f 0c3c 	mov.w	ip, ip, rrx
 80003b8:	f104 0401 	add.w	r4, r4, #1
 80003bc:	ea4f 5244 	mov.w	r2, r4, lsl #21
 80003c0:	f512 0f80 	cmn.w	r2, #4194304	; 0x400000
 80003c4:	f080 809a 	bcs.w	80004fc <__adddf3+0x240>
 80003c8:	f1bc 4f00 	cmp.w	ip, #2147483648	; 0x80000000
 80003cc:	bf08      	it	eq
 80003ce:	ea5f 0c50 	movseq.w	ip, r0, lsr #1
 80003d2:	f150 0000 	adcs.w	r0, r0, #0
 80003d6:	eb41 5104 	adc.w	r1, r1, r4, lsl #20
 80003da:	ea41 0105 	orr.w	r1, r1, r5
 80003de:	bd30      	pop	{r4, r5, pc}
 80003e0:	ea5f 0c4c 	movs.w	ip, ip, lsl #1
 80003e4:	4140      	adcs	r0, r0
 80003e6:	eb41 0101 	adc.w	r1, r1, r1
 80003ea:	f411 1f80 	tst.w	r1, #1048576	; 0x100000
 80003ee:	f1a4 0401 	sub.w	r4, r4, #1
 80003f2:	d1e9      	bne.n	80003c8 <__adddf3+0x10c>
 80003f4:	f091 0f00 	teq	r1, #0
 80003f8:	bf04      	itt	eq
 80003fa:	4601      	moveq	r1, r0
 80003fc:	2000      	moveq	r0, #0
 80003fe:	fab1 f381 	clz	r3, r1
 8000402:	bf08      	it	eq
 8000404:	3320      	addeq	r3, #32
 8000406:	f1a3 030b 	sub.w	r3, r3, #11
 800040a:	f1b3 0220 	subs.w	r2, r3, #32
 800040e:	da0c      	bge.n	800042a <__adddf3+0x16e>
 8000410:	320c      	adds	r2, #12
 8000412:	dd08      	ble.n	8000426 <__adddf3+0x16a>
 8000414:	f102 0c14 	add.w	ip, r2, #20
 8000418:	f1c2 020c 	rsb	r2, r2, #12
 800041c:	fa01 f00c 	lsl.w	r0, r1, ip
 8000420:	fa21 f102 	lsr.w	r1, r1, r2
 8000424:	e00c      	b.n	8000440 <__adddf3+0x184>
 8000426:	f102 0214 	add.w	r2, r2, #20
 800042a:	bfd8      	it	le
 800042c:	f1c2 0c20 	rsble	ip, r2, #32
 8000430:	fa01 f102 	lsl.w	r1, r1, r2
 8000434:	fa20 fc0c 	lsr.w	ip, r0, ip
 8000438:	bfdc      	itt	le
 800043a:	ea41 010c 	orrle.w	r1, r1, ip
 800043e:	4090      	lslle	r0, r2
 8000440:	1ae4      	subs	r4, r4, r3
 8000442:	bfa2      	ittt	ge
 8000444:	eb01 5104 	addge.w	r1, r1, r4, lsl #20
 8000448:	4329      	orrge	r1, r5
 800044a:	bd30      	popge	{r4, r5, pc}
 800044c:	ea6f 0404 	mvn.w	r4, r4
 8000450:	3c1f      	subs	r4, #31
 8000452:	da1c      	bge.n	800048e <__adddf3+0x1d2>
 8000454:	340c      	adds	r4, #12
 8000456:	dc0e      	bgt.n	8000476 <__adddf3+0x1ba>
 8000458:	f104 0414 	add.w	r4, r4, #20
 800045c:	f1c4 0220 	rsb	r2, r4, #32
 8000460:	fa20 f004 	lsr.w	r0, r0, r4
 8000464:	fa01 f302 	lsl.w	r3, r1, r2
 8000468:	ea40 0003 	orr.w	r0, r0, r3
 800046c:	fa21 f304 	lsr.w	r3, r1, r4
 8000470:	ea45 0103 	orr.w	r1, r5, r3
 8000474:	bd30      	pop	{r4, r5, pc}
 8000476:	f1c4 040c 	rsb	r4, r4, #12
 800047a:	f1c4 0220 	rsb	r2, r4, #32
 800047e:	fa20 f002 	lsr.w	r0, r0, r2
 8000482:	fa01 f304 	lsl.w	r3, r1, r4
 8000486:	ea40 0003 	orr.w	r0, r0, r3
 800048a:	4629      	mov	r1, r5
 800048c:	bd30      	pop	{r4, r5, pc}
 800048e:	fa21 f004 	lsr.w	r0, r1, r4
 8000492:	4629      	mov	r1, r5
 8000494:	bd30      	pop	{r4, r5, pc}
 8000496:	f094 0f00 	teq	r4, #0
 800049a:	f483 1380 	eor.w	r3, r3, #1048576	; 0x100000
 800049e:	bf06      	itte	eq
 80004a0:	f481 1180 	eoreq.w	r1, r1, #1048576	; 0x100000
 80004a4:	3401      	addeq	r4, #1
 80004a6:	3d01      	subne	r5, #1
 80004a8:	e74e      	b.n	8000348 <__adddf3+0x8c>
 80004aa:	ea7f 5c64 	mvns.w	ip, r4, asr #21
 80004ae:	bf18      	it	ne
 80004b0:	ea7f 5c65 	mvnsne.w	ip, r5, asr #21
 80004b4:	d029      	beq.n	800050a <__adddf3+0x24e>
 80004b6:	ea94 0f05 	teq	r4, r5
 80004ba:	bf08      	it	eq
 80004bc:	ea90 0f02 	teqeq	r0, r2
 80004c0:	d005      	beq.n	80004ce <__adddf3+0x212>
 80004c2:	ea54 0c00 	orrs.w	ip, r4, r0
 80004c6:	bf04      	itt	eq
 80004c8:	4619      	moveq	r1, r3
 80004ca:	4610      	moveq	r0, r2
 80004cc:	bd30      	pop	{r4, r5, pc}
 80004ce:	ea91 0f03 	teq	r1, r3
 80004d2:	bf1e      	ittt	ne
 80004d4:	2100      	movne	r1, #0
 80004d6:	2000      	movne	r0, #0
 80004d8:	bd30      	popne	{r4, r5, pc}
 80004da:	ea5f 5c54 	movs.w	ip, r4, lsr #21
 80004de:	d105      	bne.n	80004ec <__adddf3+0x230>
 80004e0:	0040      	lsls	r0, r0, #1
 80004e2:	4149      	adcs	r1, r1
 80004e4:	bf28      	it	cs
 80004e6:	f041 4100 	orrcs.w	r1, r1, #2147483648	; 0x80000000
 80004ea:	bd30      	pop	{r4, r5, pc}
 80004ec:	f514 0480 	adds.w	r4, r4, #4194304	; 0x400000
 80004f0:	bf3c      	itt	cc
 80004f2:	f501 1180 	addcc.w	r1, r1, #1048576	; 0x100000
 80004f6:	bd30      	popcc	{r4, r5, pc}
 80004f8:	f001 4500 	and.w	r5, r1, #2147483648	; 0x80000000
 80004fc:	f045 41fe 	orr.w	r1, r5, #2130706432	; 0x7f000000
 8000500:	f441 0170 	orr.w	r1, r1, #15728640	; 0xf00000
 8000504:	f04f 0000 	mov.w	r0, #0
 8000508:	bd30      	pop	{r4, r5, pc}
 800050a:	ea7f 5c64 	mvns.w	ip, r4, asr #21
 800050e:	bf1a      	itte	ne
 8000510:	4619      	movne	r1, r3
 8000512:	4610      	movne	r0, r2
 8000514:	ea7f 5c65 	mvnseq.w	ip, r5, asr #21
 8000518:	bf1c      	itt	ne
 800051a:	460b      	movne	r3, r1
 800051c:	4602      	movne	r2, r0
 800051e:	ea50 3401 	orrs.w	r4, r0, r1, lsl #12
 8000522:	bf06      	itte	eq
 8000524:	ea52 3503 	orrseq.w	r5, r2, r3, lsl #12
 8000528:	ea91 0f03 	teqeq	r1, r3
 800052c:	f441 2100 	orrne.w	r1, r1, #524288	; 0x80000
 8000530:	bd30      	pop	{r4, r5, pc}
 8000532:	bf00      	nop

08000534 <__aeabi_ui2d>:
 8000534:	f090 0f00 	teq	r0, #0
 8000538:	bf04      	itt	eq
 800053a:	2100      	moveq	r1, #0
 800053c:	4770      	bxeq	lr
 800053e:	b530      	push	{r4, r5, lr}
 8000540:	f44f 6480 	mov.w	r4, #1024	; 0x400
 8000544:	f104 0432 	add.w	r4, r4, #50	; 0x32
 8000548:	f04f 0500 	mov.w	r5, #0
 800054c:	f04f 0100 	mov.w	r1, #0
 8000550:	e750      	b.n	80003f4 <__adddf3+0x138>
 8000552:	bf00      	nop

08000554 <__aeabi_i2d>:
 8000554:	f090 0f00 	teq	r0, #0
 8000558:	bf04      	itt	eq
 800055a:	2100      	moveq	r1, #0
 800055c:	4770      	bxeq	lr
 800055e:	b530      	push	{r4, r5, lr}
 8000560:	f44f 6480 	mov.w	r4, #1024	; 0x400
 8000564:	f104 0432 	add.w	r4, r4, #50	; 0x32
 8000568:	f010 4500 	ands.w	r5, r0, #2147483648	; 0x80000000
 800056c:	bf48      	it	mi
 800056e:	4240      	negmi	r0, r0
 8000570:	f04f 0100 	mov.w	r1, #0
 8000574:	e73e      	b.n	80003f4 <__adddf3+0x138>
 8000576:	bf00      	nop

08000578 <__aeabi_f2d>:
 8000578:	0042      	lsls	r2, r0, #1
 800057a:	ea4f 01e2 	mov.w	r1, r2, asr #3
 800057e:	ea4f 0131 	mov.w	r1, r1, rrx
 8000582:	ea4f 7002 	mov.w	r0, r2, lsl #28
 8000586:	bf1f      	itttt	ne
 8000588:	f012 437f 	andsne.w	r3, r2, #4278190080	; 0xff000000
 800058c:	f093 4f7f 	teqne	r3, #4278190080	; 0xff000000
 8000590:	f081 5160 	eorne.w	r1, r1, #939524096	; 0x38000000
 8000594:	4770      	bxne	lr
 8000596:	f032 427f 	bics.w	r2, r2, #4278190080	; 0xff000000
 800059a:	bf08      	it	eq
 800059c:	4770      	bxeq	lr
 800059e:	f093 4f7f 	teq	r3, #4278190080	; 0xff000000
 80005a2:	bf04      	itt	eq
 80005a4:	f441 2100 	orreq.w	r1, r1, #524288	; 0x80000
 80005a8:	4770      	bxeq	lr
 80005aa:	b530      	push	{r4, r5, lr}
 80005ac:	f44f 7460 	mov.w	r4, #896	; 0x380
 80005b0:	f001 4500 	and.w	r5, r1, #2147483648	; 0x80000000
 80005b4:	f021 4100 	bic.w	r1, r1, #2147483648	; 0x80000000
 80005b8:	e71c      	b.n	80003f4 <__adddf3+0x138>
 80005ba:	bf00      	nop

080005bc <__aeabi_ul2d>:
 80005bc:	ea50 0201 	orrs.w	r2, r0, r1
 80005c0:	bf08      	it	eq
 80005c2:	4770      	bxeq	lr
 80005c4:	b530      	push	{r4, r5, lr}
 80005c6:	f04f 0500 	mov.w	r5, #0
 80005ca:	e00a      	b.n	80005e2 <__aeabi_l2d+0x16>

080005cc <__aeabi_l2d>:
 80005cc:	ea50 0201 	orrs.w	r2, r0, r1
 80005d0:	bf08      	it	eq
 80005d2:	4770      	bxeq	lr
 80005d4:	b530      	push	{r4, r5, lr}
 80005d6:	f011 4500 	ands.w	r5, r1, #2147483648	; 0x80000000
 80005da:	d502      	bpl.n	80005e2 <__aeabi_l2d+0x16>
 80005dc:	4240      	negs	r0, r0
 80005de:	eb61 0141 	sbc.w	r1, r1, r1, lsl #1
 80005e2:	f44f 6480 	mov.w	r4, #1024	; 0x400
 80005e6:	f104 0432 	add.w	r4, r4, #50	; 0x32
 80005ea:	ea5f 5c91 	movs.w	ip, r1, lsr #22
 80005ee:	f43f aed8 	beq.w	80003a2 <__adddf3+0xe6>
 80005f2:	f04f 0203 	mov.w	r2, #3
 80005f6:	ea5f 0cdc 	movs.w	ip, ip, lsr #3
 80005fa:	bf18      	it	ne
 80005fc:	3203      	addne	r2, #3
 80005fe:	ea5f 0cdc 	movs.w	ip, ip, lsr #3
 8000602:	bf18      	it	ne
 8000604:	3203      	addne	r2, #3
 8000606:	eb02 02dc 	add.w	r2, r2, ip, lsr #3
 800060a:	f1c2 0320 	rsb	r3, r2, #32
 800060e:	fa00 fc03 	lsl.w	ip, r0, r3
 8000612:	fa20 f002 	lsr.w	r0, r0, r2
 8000616:	fa01 fe03 	lsl.w	lr, r1, r3
 800061a:	ea40 000e 	orr.w	r0, r0, lr
 800061e:	fa21 f102 	lsr.w	r1, r1, r2
 8000622:	4414      	add	r4, r2
 8000624:	e6bd      	b.n	80003a2 <__adddf3+0xe6>
 8000626:	bf00      	nop

08000628 <__aeabi_dmul>:
 8000628:	b570      	push	{r4, r5, r6, lr}
 800062a:	f04f 0cff 	mov.w	ip, #255	; 0xff
 800062e:	f44c 6ce0 	orr.w	ip, ip, #1792	; 0x700
 8000632:	ea1c 5411 	ands.w	r4, ip, r1, lsr #20
 8000636:	bf1d      	ittte	ne
 8000638:	ea1c 5513 	andsne.w	r5, ip, r3, lsr #20
 800063c:	ea94 0f0c 	teqne	r4, ip
 8000640:	ea95 0f0c 	teqne	r5, ip
 8000644:	f000 f8de 	bleq	8000804 <__aeabi_dmul+0x1dc>
 8000648:	442c      	add	r4, r5
 800064a:	ea81 0603 	eor.w	r6, r1, r3
 800064e:	ea21 514c 	bic.w	r1, r1, ip, lsl #21
 8000652:	ea23 534c 	bic.w	r3, r3, ip, lsl #21
 8000656:	ea50 3501 	orrs.w	r5, r0, r1, lsl #12
 800065a:	bf18      	it	ne
 800065c:	ea52 3503 	orrsne.w	r5, r2, r3, lsl #12
 8000660:	f441 1180 	orr.w	r1, r1, #1048576	; 0x100000
 8000664:	f443 1380 	orr.w	r3, r3, #1048576	; 0x100000
 8000668:	d038      	beq.n	80006dc <__aeabi_dmul+0xb4>
 800066a:	fba0 ce02 	umull	ip, lr, r0, r2
 800066e:	f04f 0500 	mov.w	r5, #0
 8000672:	fbe1 e502 	umlal	lr, r5, r1, r2
 8000676:	f006 4200 	and.w	r2, r6, #2147483648	; 0x80000000
 800067a:	fbe0 e503 	umlal	lr, r5, r0, r3
 800067e:	f04f 0600 	mov.w	r6, #0
 8000682:	fbe1 5603 	umlal	r5, r6, r1, r3
 8000686:	f09c 0f00 	teq	ip, #0
 800068a:	bf18      	it	ne
 800068c:	f04e 0e01 	orrne.w	lr, lr, #1
 8000690:	f1a4 04ff 	sub.w	r4, r4, #255	; 0xff
 8000694:	f5b6 7f00 	cmp.w	r6, #512	; 0x200
 8000698:	f564 7440 	sbc.w	r4, r4, #768	; 0x300
 800069c:	d204      	bcs.n	80006a8 <__aeabi_dmul+0x80>
 800069e:	ea5f 0e4e 	movs.w	lr, lr, lsl #1
 80006a2:	416d      	adcs	r5, r5
 80006a4:	eb46 0606 	adc.w	r6, r6, r6
 80006a8:	ea42 21c6 	orr.w	r1, r2, r6, lsl #11
 80006ac:	ea41 5155 	orr.w	r1, r1, r5, lsr #21
 80006b0:	ea4f 20c5 	mov.w	r0, r5, lsl #11
 80006b4:	ea40 505e 	orr.w	r0, r0, lr, lsr #21
 80006b8:	ea4f 2ece 	mov.w	lr, lr, lsl #11
 80006bc:	f1b4 0cfd 	subs.w	ip, r4, #253	; 0xfd
 80006c0:	bf88      	it	hi
 80006c2:	f5bc 6fe0 	cmphi.w	ip, #1792	; 0x700
 80006c6:	d81e      	bhi.n	8000706 <__aeabi_dmul+0xde>
 80006c8:	f1be 4f00 	cmp.w	lr, #2147483648	; 0x80000000
 80006cc:	bf08      	it	eq
 80006ce:	ea5f 0e50 	movseq.w	lr, r0, lsr #1
 80006d2:	f150 0000 	adcs.w	r0, r0, #0
 80006d6:	eb41 5104 	adc.w	r1, r1, r4, lsl #20
 80006da:	bd70      	pop	{r4, r5, r6, pc}
 80006dc:	f006 4600 	and.w	r6, r6, #2147483648	; 0x80000000
 80006e0:	ea46 0101 	orr.w	r1, r6, r1
 80006e4:	ea40 0002 	orr.w	r0, r0, r2
 80006e8:	ea81 0103 	eor.w	r1, r1, r3
 80006ec:	ebb4 045c 	subs.w	r4, r4, ip, lsr #1
 80006f0:	bfc2      	ittt	gt
 80006f2:	ebd4 050c 	rsbsgt	r5, r4, ip
 80006f6:	ea41 5104 	orrgt.w	r1, r1, r4, lsl #20
 80006fa:	bd70      	popgt	{r4, r5, r6, pc}
 80006fc:	f441 1180 	orr.w	r1, r1, #1048576	; 0x100000
 8000700:	f04f 0e00 	mov.w	lr, #0
 8000704:	3c01      	subs	r4, #1
 8000706:	f300 80ab 	bgt.w	8000860 <__aeabi_dmul+0x238>
 800070a:	f114 0f36 	cmn.w	r4, #54	; 0x36
 800070e:	bfde      	ittt	le
 8000710:	2000      	movle	r0, #0
 8000712:	f001 4100 	andle.w	r1, r1, #2147483648	; 0x80000000
 8000716:	bd70      	pople	{r4, r5, r6, pc}
 8000718:	f1c4 0400 	rsb	r4, r4, #0
 800071c:	3c20      	subs	r4, #32
 800071e:	da35      	bge.n	800078c <__aeabi_dmul+0x164>
 8000720:	340c      	adds	r4, #12
 8000722:	dc1b      	bgt.n	800075c <__aeabi_dmul+0x134>
 8000724:	f104 0414 	add.w	r4, r4, #20
 8000728:	f1c4 0520 	rsb	r5, r4, #32
 800072c:	fa00 f305 	lsl.w	r3, r0, r5
 8000730:	fa20 f004 	lsr.w	r0, r0, r4
 8000734:	fa01 f205 	lsl.w	r2, r1, r5
 8000738:	ea40 0002 	orr.w	r0, r0, r2
 800073c:	f001 4200 	and.w	r2, r1, #2147483648	; 0x80000000
 8000740:	f021 4100 	bic.w	r1, r1, #2147483648	; 0x80000000
 8000744:	eb10 70d3 	adds.w	r0, r0, r3, lsr #31
 8000748:	fa21 f604 	lsr.w	r6, r1, r4
 800074c:	eb42 0106 	adc.w	r1, r2, r6
 8000750:	ea5e 0e43 	orrs.w	lr, lr, r3, lsl #1
 8000754:	bf08      	it	eq
 8000756:	ea20 70d3 	biceq.w	r0, r0, r3, lsr #31
 800075a:	bd70      	pop	{r4, r5, r6, pc}
 800075c:	f1c4 040c 	rsb	r4, r4, #12
 8000760:	f1c4 0520 	rsb	r5, r4, #32
 8000764:	fa00 f304 	lsl.w	r3, r0, r4
 8000768:	fa20 f005 	lsr.w	r0, r0, r5
 800076c:	fa01 f204 	lsl.w	r2, r1, r4
 8000770:	ea40 0002 	orr.w	r0, r0, r2
 8000774:	f001 4100 	and.w	r1, r1, #2147483648	; 0x80000000
 8000778:	eb10 70d3 	adds.w	r0, r0, r3, lsr #31
 800077c:	f141 0100 	adc.w	r1, r1, #0
 8000780:	ea5e 0e43 	orrs.w	lr, lr, r3, lsl #1
 8000784:	bf08      	it	eq
 8000786:	ea20 70d3 	biceq.w	r0, r0, r3, lsr #31
 800078a:	bd70      	pop	{r4, r5, r6, pc}
 800078c:	f1c4 0520 	rsb	r5, r4, #32
 8000790:	fa00 f205 	lsl.w	r2, r0, r5
 8000794:	ea4e 0e02 	orr.w	lr, lr, r2
 8000798:	fa20 f304 	lsr.w	r3, r0, r4
 800079c:	fa01 f205 	lsl.w	r2, r1, r5
 80007a0:	ea43 0302 	orr.w	r3, r3, r2
 80007a4:	fa21 f004 	lsr.w	r0, r1, r4
 80007a8:	f001 4100 	and.w	r1, r1, #2147483648	; 0x80000000
 80007ac:	fa21 f204 	lsr.w	r2, r1, r4
 80007b0:	ea20 0002 	bic.w	r0, r0, r2
 80007b4:	eb00 70d3 	add.w	r0, r0, r3, lsr #31
 80007b8:	ea5e 0e43 	orrs.w	lr, lr, r3, lsl #1
 80007bc:	bf08      	it	eq
 80007be:	ea20 70d3 	biceq.w	r0, r0, r3, lsr #31
 80007c2:	bd70      	pop	{r4, r5, r6, pc}
 80007c4:	f094 0f00 	teq	r4, #0
 80007c8:	d10f      	bne.n	80007ea <__aeabi_dmul+0x1c2>
 80007ca:	f001 4600 	and.w	r6, r1, #2147483648	; 0x80000000
 80007ce:	0040      	lsls	r0, r0, #1
 80007d0:	eb41 0101 	adc.w	r1, r1, r1
 80007d4:	f411 1f80 	tst.w	r1, #1048576	; 0x100000
 80007d8:	bf08      	it	eq
 80007da:	3c01      	subeq	r4, #1
 80007dc:	d0f7      	beq.n	80007ce <__aeabi_dmul+0x1a6>
 80007de:	ea41 0106 	orr.w	r1, r1, r6
 80007e2:	f095 0f00 	teq	r5, #0
 80007e6:	bf18      	it	ne
 80007e8:	4770      	bxne	lr
 80007ea:	f003 4600 	and.w	r6, r3, #2147483648	; 0x80000000
 80007ee:	0052      	lsls	r2, r2, #1
 80007f0:	eb43 0303 	adc.w	r3, r3, r3
 80007f4:	f413 1f80 	tst.w	r3, #1048576	; 0x100000
 80007f8:	bf08      	it	eq
 80007fa:	3d01      	subeq	r5, #1
 80007fc:	d0f7      	beq.n	80007ee <__aeabi_dmul+0x1c6>
 80007fe:	ea43 0306 	orr.w	r3, r3, r6
 8000802:	4770      	bx	lr
 8000804:	ea94 0f0c 	teq	r4, ip
 8000808:	ea0c 5513 	and.w	r5, ip, r3, lsr #20
 800080c:	bf18      	it	ne
 800080e:	ea95 0f0c 	teqne	r5, ip
 8000812:	d00c      	beq.n	800082e <__aeabi_dmul+0x206>
 8000814:	ea50 0641 	orrs.w	r6, r0, r1, lsl #1
 8000818:	bf18      	it	ne
 800081a:	ea52 0643 	orrsne.w	r6, r2, r3, lsl #1
 800081e:	d1d1      	bne.n	80007c4 <__aeabi_dmul+0x19c>
 8000820:	ea81 0103 	eor.w	r1, r1, r3
 8000824:	f001 4100 	and.w	r1, r1, #2147483648	; 0x80000000
 8000828:	f04f 0000 	mov.w	r0, #0
 800082c:	bd70      	pop	{r4, r5, r6, pc}
 800082e:	ea50 0641 	orrs.w	r6, r0, r1, lsl #1
 8000832:	bf06      	itte	eq
 8000834:	4610      	moveq	r0, r2
 8000836:	4619      	moveq	r1, r3
 8000838:	ea52 0643 	orrsne.w	r6, r2, r3, lsl #1
 800083c:	d019      	beq.n	8000872 <__aeabi_dmul+0x24a>
 800083e:	ea94 0f0c 	teq	r4, ip
 8000842:	d102      	bne.n	800084a <__aeabi_dmul+0x222>
 8000844:	ea50 3601 	orrs.w	r6, r0, r1, lsl #12
 8000848:	d113      	bne.n	8000872 <__aeabi_dmul+0x24a>
 800084a:	ea95 0f0c 	teq	r5, ip
 800084e:	d105      	bne.n	800085c <__aeabi_dmul+0x234>
 8000850:	ea52 3603 	orrs.w	r6, r2, r3, lsl #12
 8000854:	bf1c      	itt	ne
 8000856:	4610      	movne	r0, r2
 8000858:	4619      	movne	r1, r3
 800085a:	d10a      	bne.n	8000872 <__aeabi_dmul+0x24a>
 800085c:	ea81 0103 	eor.w	r1, r1, r3
 8000860:	f001 4100 	and.w	r1, r1, #2147483648	; 0x80000000
 8000864:	f041 41fe 	orr.w	r1, r1, #2130706432	; 0x7f000000
 8000868:	f441 0170 	orr.w	r1, r1, #15728640	; 0xf00000
 800086c:	f04f 0000 	mov.w	r0, #0
 8000870:	bd70      	pop	{r4, r5, r6, pc}
 8000872:	f041 41fe 	orr.w	r1, r1, #2130706432	; 0x7f000000
 8000876:	f441 0178 	orr.w	r1, r1, #16252928	; 0xf80000
 800087a:	bd70      	pop	{r4, r5, r6, pc}

0800087c <__aeabi_ddiv>:
 800087c:	b570      	push	{r4, r5, r6, lr}
 800087e:	f04f 0cff 	mov.w	ip, #255	; 0xff
 8000882:	f44c 6ce0 	orr.w	ip, ip, #1792	; 0x700
 8000886:	ea1c 5411 	ands.w	r4, ip, r1, lsr #20
 800088a:	bf1d      	ittte	ne
 800088c:	ea1c 5513 	andsne.w	r5, ip, r3, lsr #20
 8000890:	ea94 0f0c 	teqne	r4, ip
 8000894:	ea95 0f0c 	teqne	r5, ip
 8000898:	f000 f8a7 	bleq	80009ea <__aeabi_ddiv+0x16e>
 800089c:	eba4 0405 	sub.w	r4, r4, r5
 80008a0:	ea81 0e03 	eor.w	lr, r1, r3
 80008a4:	ea52 3503 	orrs.w	r5, r2, r3, lsl #12
 80008a8:	ea4f 3101 	mov.w	r1, r1, lsl #12
 80008ac:	f000 8088 	beq.w	80009c0 <__aeabi_ddiv+0x144>
 80008b0:	ea4f 3303 	mov.w	r3, r3, lsl #12
 80008b4:	f04f 5580 	mov.w	r5, #268435456	; 0x10000000
 80008b8:	ea45 1313 	orr.w	r3, r5, r3, lsr #4
 80008bc:	ea43 6312 	orr.w	r3, r3, r2, lsr #24
 80008c0:	ea4f 2202 	mov.w	r2, r2, lsl #8
 80008c4:	ea45 1511 	orr.w	r5, r5, r1, lsr #4
 80008c8:	ea45 6510 	orr.w	r5, r5, r0, lsr #24
 80008cc:	ea4f 2600 	mov.w	r6, r0, lsl #8
 80008d0:	f00e 4100 	and.w	r1, lr, #2147483648	; 0x80000000
 80008d4:	429d      	cmp	r5, r3
 80008d6:	bf08      	it	eq
 80008d8:	4296      	cmpeq	r6, r2
 80008da:	f144 04fd 	adc.w	r4, r4, #253	; 0xfd
 80008de:	f504 7440 	add.w	r4, r4, #768	; 0x300
 80008e2:	d202      	bcs.n	80008ea <__aeabi_ddiv+0x6e>
 80008e4:	085b      	lsrs	r3, r3, #1
 80008e6:	ea4f 0232 	mov.w	r2, r2, rrx
 80008ea:	1ab6      	subs	r6, r6, r2
 80008ec:	eb65 0503 	sbc.w	r5, r5, r3
 80008f0:	085b      	lsrs	r3, r3, #1
 80008f2:	ea4f 0232 	mov.w	r2, r2, rrx
 80008f6:	f44f 1080 	mov.w	r0, #1048576	; 0x100000
 80008fa:	f44f 2c00 	mov.w	ip, #524288	; 0x80000
 80008fe:	ebb6 0e02 	subs.w	lr, r6, r2
 8000902:	eb75 0e03 	sbcs.w	lr, r5, r3
 8000906:	bf22      	ittt	cs
 8000908:	1ab6      	subcs	r6, r6, r2
 800090a:	4675      	movcs	r5, lr
 800090c:	ea40 000c 	orrcs.w	r0, r0, ip
 8000910:	085b      	lsrs	r3, r3, #1
 8000912:	ea4f 0232 	mov.w	r2, r2, rrx
 8000916:	ebb6 0e02 	subs.w	lr, r6, r2
 800091a:	eb75 0e03 	sbcs.w	lr, r5, r3
 800091e:	bf22      	ittt	cs
 8000920:	1ab6      	subcs	r6, r6, r2
 8000922:	4675      	movcs	r5, lr
 8000924:	ea40 005c 	orrcs.w	r0, r0, ip, lsr #1
 8000928:	085b      	lsrs	r3, r3, #1
 800092a:	ea4f 0232 	mov.w	r2, r2, rrx
 800092e:	ebb6 0e02 	subs.w	lr, r6, r2
 8000932:	eb75 0e03 	sbcs.w	lr, r5, r3
 8000936:	bf22      	ittt	cs
 8000938:	1ab6      	subcs	r6, r6, r2
 800093a:	4675      	movcs	r5, lr
 800093c:	ea40 009c 	orrcs.w	r0, r0, ip, lsr #2
 8000940:	085b      	lsrs	r3, r3, #1
 8000942:	ea4f 0232 	mov.w	r2, r2, rrx
 8000946:	ebb6 0e02 	subs.w	lr, r6, r2
 800094a:	eb75 0e03 	sbcs.w	lr, r5, r3
 800094e:	bf22      	ittt	cs
 8000950:	1ab6      	subcs	r6, r6, r2
 8000952:	4675      	movcs	r5, lr
 8000954:	ea40 00dc 	orrcs.w	r0, r0, ip, lsr #3
 8000958:	ea55 0e06 	orrs.w	lr, r5, r6
 800095c:	d018      	beq.n	8000990 <__aeabi_ddiv+0x114>
 800095e:	ea4f 1505 	mov.w	r5, r5, lsl #4
 8000962:	ea45 7516 	orr.w	r5, r5, r6, lsr #28
 8000966:	ea4f 1606 	mov.w	r6, r6, lsl #4
 800096a:	ea4f 03c3 	mov.w	r3, r3, lsl #3
 800096e:	ea43 7352 	orr.w	r3, r3, r2, lsr #29
 8000972:	ea4f 02c2 	mov.w	r2, r2, lsl #3
 8000976:	ea5f 1c1c 	movs.w	ip, ip, lsr #4
 800097a:	d1c0      	bne.n	80008fe <__aeabi_ddiv+0x82>
 800097c:	f411 1f80 	tst.w	r1, #1048576	; 0x100000
 8000980:	d10b      	bne.n	800099a <__aeabi_ddiv+0x11e>
 8000982:	ea41 0100 	orr.w	r1, r1, r0
 8000986:	f04f 0000 	mov.w	r0, #0
 800098a:	f04f 4c00 	mov.w	ip, #2147483648	; 0x80000000
 800098e:	e7b6      	b.n	80008fe <__aeabi_ddiv+0x82>
 8000990:	f411 1f80 	tst.w	r1, #1048576	; 0x100000
 8000994:	bf04      	itt	eq
 8000996:	4301      	orreq	r1, r0
 8000998:	2000      	moveq	r0, #0
 800099a:	f1b4 0cfd 	subs.w	ip, r4, #253	; 0xfd
 800099e:	bf88      	it	hi
 80009a0:	f5bc 6fe0 	cmphi.w	ip, #1792	; 0x700
 80009a4:	f63f aeaf 	bhi.w	8000706 <__aeabi_dmul+0xde>
 80009a8:	ebb5 0c03 	subs.w	ip, r5, r3
 80009ac:	bf04      	itt	eq
 80009ae:	ebb6 0c02 	subseq.w	ip, r6, r2
 80009b2:	ea5f 0c50 	movseq.w	ip, r0, lsr #1
 80009b6:	f150 0000 	adcs.w	r0, r0, #0
 80009ba:	eb41 5104 	adc.w	r1, r1, r4, lsl #20
 80009be:	bd70      	pop	{r4, r5, r6, pc}
 80009c0:	f00e 4e00 	and.w	lr, lr, #2147483648	; 0x80000000
 80009c4:	ea4e 3111 	orr.w	r1, lr, r1, lsr #12
 80009c8:	eb14 045c 	adds.w	r4, r4, ip, lsr #1
 80009cc:	bfc2      	ittt	gt
 80009ce:	ebd4 050c 	rsbsgt	r5, r4, ip
 80009d2:	ea41 5104 	orrgt.w	r1, r1, r4, lsl #20
 80009d6:	bd70      	popgt	{r4, r5, r6, pc}
 80009d8:	f441 1180 	orr.w	r1, r1, #1048576	; 0x100000
 80009dc:	f04f 0e00 	mov.w	lr, #0
 80009e0:	3c01      	subs	r4, #1
 80009e2:	e690      	b.n	8000706 <__aeabi_dmul+0xde>
 80009e4:	ea45 0e06 	orr.w	lr, r5, r6
 80009e8:	e68d      	b.n	8000706 <__aeabi_dmul+0xde>
 80009ea:	ea0c 5513 	and.w	r5, ip, r3, lsr #20
 80009ee:	ea94 0f0c 	teq	r4, ip
 80009f2:	bf08      	it	eq
 80009f4:	ea95 0f0c 	teqeq	r5, ip
 80009f8:	f43f af3b 	beq.w	8000872 <__aeabi_dmul+0x24a>
 80009fc:	ea94 0f0c 	teq	r4, ip
 8000a00:	d10a      	bne.n	8000a18 <__aeabi_ddiv+0x19c>
 8000a02:	ea50 3401 	orrs.w	r4, r0, r1, lsl #12
 8000a06:	f47f af34 	bne.w	8000872 <__aeabi_dmul+0x24a>
 8000a0a:	ea95 0f0c 	teq	r5, ip
 8000a0e:	f47f af25 	bne.w	800085c <__aeabi_dmul+0x234>
 8000a12:	4610      	mov	r0, r2
 8000a14:	4619      	mov	r1, r3
 8000a16:	e72c      	b.n	8000872 <__aeabi_dmul+0x24a>
 8000a18:	ea95 0f0c 	teq	r5, ip
 8000a1c:	d106      	bne.n	8000a2c <__aeabi_ddiv+0x1b0>
 8000a1e:	ea52 3503 	orrs.w	r5, r2, r3, lsl #12
 8000a22:	f43f aefd 	beq.w	8000820 <__aeabi_dmul+0x1f8>
 8000a26:	4610      	mov	r0, r2
 8000a28:	4619      	mov	r1, r3
 8000a2a:	e722      	b.n	8000872 <__aeabi_dmul+0x24a>
 8000a2c:	ea50 0641 	orrs.w	r6, r0, r1, lsl #1
 8000a30:	bf18      	it	ne
 8000a32:	ea52 0643 	orrsne.w	r6, r2, r3, lsl #1
 8000a36:	f47f aec5 	bne.w	80007c4 <__aeabi_dmul+0x19c>
 8000a3a:	ea50 0441 	orrs.w	r4, r0, r1, lsl #1
 8000a3e:	f47f af0d 	bne.w	800085c <__aeabi_dmul+0x234>
 8000a42:	ea52 0543 	orrs.w	r5, r2, r3, lsl #1
 8000a46:	f47f aeeb 	bne.w	8000820 <__aeabi_dmul+0x1f8>
 8000a4a:	e712      	b.n	8000872 <__aeabi_dmul+0x24a>

08000a4c <__gedf2>:
 8000a4c:	f04f 3cff 	mov.w	ip, #4294967295
 8000a50:	e006      	b.n	8000a60 <__cmpdf2+0x4>
 8000a52:	bf00      	nop

08000a54 <__ledf2>:
 8000a54:	f04f 0c01 	mov.w	ip, #1
 8000a58:	e002      	b.n	8000a60 <__cmpdf2+0x4>
 8000a5a:	bf00      	nop

08000a5c <__cmpdf2>:
 8000a5c:	f04f 0c01 	mov.w	ip, #1
 8000a60:	f84d cd04 	str.w	ip, [sp, #-4]!
 8000a64:	ea4f 0c41 	mov.w	ip, r1, lsl #1
 8000a68:	ea7f 5c6c 	mvns.w	ip, ip, asr #21
 8000a6c:	ea4f 0c43 	mov.w	ip, r3, lsl #1
 8000a70:	bf18      	it	ne
 8000a72:	ea7f 5c6c 	mvnsne.w	ip, ip, asr #21
 8000a76:	d01b      	beq.n	8000ab0 <__cmpdf2+0x54>
 8000a78:	b001      	add	sp, #4
 8000a7a:	ea50 0c41 	orrs.w	ip, r0, r1, lsl #1
 8000a7e:	bf0c      	ite	eq
 8000a80:	ea52 0c43 	orrseq.w	ip, r2, r3, lsl #1
 8000a84:	ea91 0f03 	teqne	r1, r3
 8000a88:	bf02      	ittt	eq
 8000a8a:	ea90 0f02 	teqeq	r0, r2
 8000a8e:	2000      	moveq	r0, #0
 8000a90:	4770      	bxeq	lr
 8000a92:	f110 0f00 	cmn.w	r0, #0
 8000a96:	ea91 0f03 	teq	r1, r3
 8000a9a:	bf58      	it	pl
 8000a9c:	4299      	cmppl	r1, r3
 8000a9e:	bf08      	it	eq
 8000aa0:	4290      	cmpeq	r0, r2
 8000aa2:	bf2c      	ite	cs
 8000aa4:	17d8      	asrcs	r0, r3, #31
 8000aa6:	ea6f 70e3 	mvncc.w	r0, r3, asr #31
 8000aaa:	f040 0001 	orr.w	r0, r0, #1
 8000aae:	4770      	bx	lr
 8000ab0:	ea4f 0c41 	mov.w	ip, r1, lsl #1
 8000ab4:	ea7f 5c6c 	mvns.w	ip, ip, asr #21
 8000ab8:	d102      	bne.n	8000ac0 <__cmpdf2+0x64>
 8000aba:	ea50 3c01 	orrs.w	ip, r0, r1, lsl #12
 8000abe:	d107      	bne.n	8000ad0 <__cmpdf2+0x74>
 8000ac0:	ea4f 0c43 	mov.w	ip, r3, lsl #1
 8000ac4:	ea7f 5c6c 	mvns.w	ip, ip, asr #21
 8000ac8:	d1d6      	bne.n	8000a78 <__cmpdf2+0x1c>
 8000aca:	ea52 3c03 	orrs.w	ip, r2, r3, lsl #12
 8000ace:	d0d3      	beq.n	8000a78 <__cmpdf2+0x1c>
 8000ad0:	f85d 0b04 	ldr.w	r0, [sp], #4
 8000ad4:	4770      	bx	lr
 8000ad6:	bf00      	nop

08000ad8 <__aeabi_cdrcmple>:
 8000ad8:	4684      	mov	ip, r0
 8000ada:	4610      	mov	r0, r2
 8000adc:	4662      	mov	r2, ip
 8000ade:	468c      	mov	ip, r1
 8000ae0:	4619      	mov	r1, r3
 8000ae2:	4663      	mov	r3, ip
 8000ae4:	e000      	b.n	8000ae8 <__aeabi_cdcmpeq>
 8000ae6:	bf00      	nop

08000ae8 <__aeabi_cdcmpeq>:
 8000ae8:	b501      	push	{r0, lr}
 8000aea:	f7ff ffb7 	bl	8000a5c <__cmpdf2>
 8000aee:	2800      	cmp	r0, #0
 8000af0:	bf48      	it	mi
 8000af2:	f110 0f00 	cmnmi.w	r0, #0
 8000af6:	bd01      	pop	{r0, pc}

08000af8 <__aeabi_dcmpeq>:
 8000af8:	f84d ed08 	str.w	lr, [sp, #-8]!
 8000afc:	f7ff fff4 	bl	8000ae8 <__aeabi_cdcmpeq>
 8000b00:	bf0c      	ite	eq
 8000b02:	2001      	moveq	r0, #1
 8000b04:	2000      	movne	r0, #0
 8000b06:	f85d fb08 	ldr.w	pc, [sp], #8
 8000b0a:	bf00      	nop

08000b0c <__aeabi_dcmplt>:
 8000b0c:	f84d ed08 	str.w	lr, [sp, #-8]!
 8000b10:	f7ff ffea 	bl	8000ae8 <__aeabi_cdcmpeq>
 8000b14:	bf34      	ite	cc
 8000b16:	2001      	movcc	r0, #1
 8000b18:	2000      	movcs	r0, #0
 8000b1a:	f85d fb08 	ldr.w	pc, [sp], #8
 8000b1e:	bf00      	nop

08000b20 <__aeabi_dcmple>:
 8000b20:	f84d ed08 	str.w	lr, [sp, #-8]!
 8000b24:	f7ff ffe0 	bl	8000ae8 <__aeabi_cdcmpeq>
 8000b28:	bf94      	ite	ls
 8000b2a:	2001      	movls	r0, #1
 8000b2c:	2000      	movhi	r0, #0
 8000b2e:	f85d fb08 	ldr.w	pc, [sp], #8
 8000b32:	bf00      	nop

08000b34 <__aeabi_dcmpge>:
 8000b34:	f84d ed08 	str.w	lr, [sp, #-8]!
 8000b38:	f7ff ffce 	bl	8000ad8 <__aeabi_cdrcmple>
 8000b3c:	bf94      	ite	ls
 8000b3e:	2001      	movls	r0, #1
 8000b40:	2000      	movhi	r0, #0
 8000b42:	f85d fb08 	ldr.w	pc, [sp], #8
 8000b46:	bf00      	nop

08000b48 <__aeabi_dcmpgt>:
 8000b48:	f84d ed08 	str.w	lr, [sp, #-8]!
 8000b4c:	f7ff ffc4 	bl	8000ad8 <__aeabi_cdrcmple>
 8000b50:	bf34      	ite	cc
 8000b52:	2001      	movcc	r0, #1
 8000b54:	2000      	movcs	r0, #0
 8000b56:	f85d fb08 	ldr.w	pc, [sp], #8
 8000b5a:	bf00      	nop

08000b5c <__aeabi_dcmpun>:
 8000b5c:	ea4f 0c41 	mov.w	ip, r1, lsl #1
 8000b60:	ea7f 5c6c 	mvns.w	ip, ip, asr #21
 8000b64:	d102      	bne.n	8000b6c <__aeabi_dcmpun+0x10>
 8000b66:	ea50 3c01 	orrs.w	ip, r0, r1, lsl #12
 8000b6a:	d10a      	bne.n	8000b82 <__aeabi_dcmpun+0x26>
 8000b6c:	ea4f 0c43 	mov.w	ip, r3, lsl #1
 8000b70:	ea7f 5c6c 	mvns.w	ip, ip, asr #21
 8000b74:	d102      	bne.n	8000b7c <__aeabi_dcmpun+0x20>
 8000b76:	ea52 3c03 	orrs.w	ip, r2, r3, lsl #12
 8000b7a:	d102      	bne.n	8000b82 <__aeabi_dcmpun+0x26>
 8000b7c:	f04f 0000 	mov.w	r0, #0
 8000b80:	4770      	bx	lr
 8000b82:	f04f 0001 	mov.w	r0, #1
 8000b86:	4770      	bx	lr

08000b88 <__aeabi_d2iz>:
 8000b88:	ea4f 0241 	mov.w	r2, r1, lsl #1
 8000b8c:	f512 1200 	adds.w	r2, r2, #2097152	; 0x200000
 8000b90:	d215      	bcs.n	8000bbe <__aeabi_d2iz+0x36>
 8000b92:	d511      	bpl.n	8000bb8 <__aeabi_d2iz+0x30>
 8000b94:	f46f 7378 	mvn.w	r3, #992	; 0x3e0
 8000b98:	ebb3 5262 	subs.w	r2, r3, r2, asr #21
 8000b9c:	d912      	bls.n	8000bc4 <__aeabi_d2iz+0x3c>
 8000b9e:	ea4f 23c1 	mov.w	r3, r1, lsl #11
 8000ba2:	f043 4300 	orr.w	r3, r3, #2147483648	; 0x80000000
 8000ba6:	ea43 5350 	orr.w	r3, r3, r0, lsr #21
 8000baa:	f011 4f00 	tst.w	r1, #2147483648	; 0x80000000
 8000bae:	fa23 f002 	lsr.w	r0, r3, r2
 8000bb2:	bf18      	it	ne
 8000bb4:	4240      	negne	r0, r0
 8000bb6:	4770      	bx	lr
 8000bb8:	f04f 0000 	mov.w	r0, #0
 8000bbc:	4770      	bx	lr
 8000bbe:	ea50 3001 	orrs.w	r0, r0, r1, lsl #12
 8000bc2:	d105      	bne.n	8000bd0 <__aeabi_d2iz+0x48>
 8000bc4:	f011 4000 	ands.w	r0, r1, #2147483648	; 0x80000000
 8000bc8:	bf08      	it	eq
 8000bca:	f06f 4000 	mvneq.w	r0, #2147483648	; 0x80000000
 8000bce:	4770      	bx	lr
 8000bd0:	f04f 0000 	mov.w	r0, #0
 8000bd4:	4770      	bx	lr
 8000bd6:	bf00      	nop

08000bd8 <main>:
// /////////////////////////////////////////////////////////////////////////////
// "M A I N"   E N T R Y   P O I N T
// /////////////////////////////////////////////////////////////////////////////

int main(void)
{
 8000bd8:	b508      	push	{r3, lr}
  ArcadeIT_Test_Bench();
 8000bda:	f000 f9d5 	bl	8000f88 <ArcadeIT_Test_Bench>

  return 0;

} // End main.
 8000bde:	2000      	movs	r0, #0
 8000be0:	bd08      	pop	{r3, pc}

08000be2 <NMI_Handler>:

  /* USER CODE END NonMaskableInt_IRQn 0 */
  /* USER CODE BEGIN NonMaskableInt_IRQn 1 */

  /* USER CODE END NonMaskableInt_IRQn 1 */
}
 8000be2:	4770      	bx	lr

08000be4 <HardFault_Handler>:

/**
  * @brief This function handles Hard fault interrupt.
  */
void HardFault_Handler(void)
{
 8000be4:	e7fe      	b.n	8000be4 <HardFault_Handler>

08000be6 <MemManage_Handler>:

/**
  * @brief This function handles Memory management fault.
  */
void MemManage_Handler(void)
{
 8000be6:	e7fe      	b.n	8000be6 <MemManage_Handler>

08000be8 <BusFault_Handler>:

/**
  * @brief This function handles Pre-fetch fault, memory access fault.
  */
void BusFault_Handler(void)
{
 8000be8:	e7fe      	b.n	8000be8 <BusFault_Handler>

08000bea <UsageFault_Handler>:

/**
  * @brief This function handles Undefined instruction or illegal state.
  */
void UsageFault_Handler(void)
{
 8000bea:	e7fe      	b.n	8000bea <UsageFault_Handler>

08000bec <SVC_Handler>:

  /* USER CODE END SVCall_IRQn 0 */
  /* USER CODE BEGIN SVCall_IRQn 1 */

  /* USER CODE END SVCall_IRQn 1 */
}
 8000bec:	4770      	bx	lr

08000bee <DebugMon_Handler>:

  /* USER CODE END DebugMonitor_IRQn 0 */
  /* USER CODE BEGIN DebugMonitor_IRQn 1 */

  /* USER CODE END DebugMonitor_IRQn 1 */
}
 8000bee:	4770      	bx	lr

08000bf0 <PendSV_Handler>:

  /* USER CODE END PendSV_IRQn 0 */
  /* USER CODE BEGIN PendSV_IRQn 1 */

  /* USER CODE END PendSV_IRQn 1 */
}
 8000bf0:	4770      	bx	lr
	...

08000bf4 <_sbrk>:
/**
 _sbrk
 Increase program data space. Malloc and related functions depend on this
**/
caddr_t _sbrk(int incr)
{
 8000bf4:	b508      	push	{r3, lr}
 8000bf6:	4603      	mov	r3, r0
	extern char end asm("end");
	static char *heap_end;
	char *prev_heap_end;

	if (heap_end == 0)
 8000bf8:	4a0b      	ldr	r2, [pc, #44]	; (8000c28 <_sbrk+0x34>)
 8000bfa:	6812      	ldr	r2, [r2, #0]
 8000bfc:	b142      	cbz	r2, 8000c10 <_sbrk+0x1c>
		heap_end = &end;

	prev_heap_end = heap_end;
 8000bfe:	4a0a      	ldr	r2, [pc, #40]	; (8000c28 <_sbrk+0x34>)
 8000c00:	6810      	ldr	r0, [r2, #0]
	if (heap_end + incr > stack_ptr)
 8000c02:	4403      	add	r3, r0
 8000c04:	466a      	mov	r2, sp
 8000c06:	4293      	cmp	r3, r2
 8000c08:	d806      	bhi.n	8000c18 <_sbrk+0x24>
	{
		errno = ENOMEM;
		return (caddr_t) -1;
	}

	heap_end += incr;
 8000c0a:	4a07      	ldr	r2, [pc, #28]	; (8000c28 <_sbrk+0x34>)
 8000c0c:	6013      	str	r3, [r2, #0]

	return (caddr_t) prev_heap_end;
}
 8000c0e:	bd08      	pop	{r3, pc}
		heap_end = &end;
 8000c10:	4a05      	ldr	r2, [pc, #20]	; (8000c28 <_sbrk+0x34>)
 8000c12:	4906      	ldr	r1, [pc, #24]	; (8000c2c <_sbrk+0x38>)
 8000c14:	6011      	str	r1, [r2, #0]
 8000c16:	e7f2      	b.n	8000bfe <_sbrk+0xa>
		errno = ENOMEM;
 8000c18:	f003 fd5e 	bl	80046d8 <__errno>
 8000c1c:	230c      	movs	r3, #12
 8000c1e:	6003      	str	r3, [r0, #0]
		return (caddr_t) -1;
 8000c20:	f04f 30ff 	mov.w	r0, #4294967295
 8000c24:	e7f3      	b.n	8000c0e <_sbrk+0x1a>
 8000c26:	bf00      	nop
 8000c28:	200001f4 	.word	0x200001f4
 8000c2c:	20000748 	.word	0x20000748

08000c30 <Reset_Handler>:
*/

    .section  .text.Reset_Handler
  .weak  Reset_Handler
  .type  Reset_Handler, %function
Reset_Handler:   ldr   sp, =_estack     /* set stack pointer */
 8000c30:	f8df d034 	ldr.w	sp, [pc, #52]	; 8000c68 <LoopFillZerobss+0x14>

/* Copy the data segment initializers from flash to SRAM */  
  movs  r1, #0
 8000c34:	2100      	movs	r1, #0
  b  LoopCopyDataInit
 8000c36:	e003      	b.n	8000c40 <LoopCopyDataInit>

08000c38 <CopyDataInit>:

CopyDataInit:
  ldr  r3, =_sidata
 8000c38:	4b0c      	ldr	r3, [pc, #48]	; (8000c6c <LoopFillZerobss+0x18>)
  ldr  r3, [r3, r1]
 8000c3a:	585b      	ldr	r3, [r3, r1]
  str  r3, [r0, r1]
 8000c3c:	5043      	str	r3, [r0, r1]
  adds  r1, r1, #4
 8000c3e:	3104      	adds	r1, #4

08000c40 <LoopCopyDataInit>:
    
LoopCopyDataInit:
  ldr  r0, =_sdata
 8000c40:	480b      	ldr	r0, [pc, #44]	; (8000c70 <LoopFillZerobss+0x1c>)
  ldr  r3, =_edata
 8000c42:	4b0c      	ldr	r3, [pc, #48]	; (8000c74 <LoopFillZerobss+0x20>)
  adds  r2, r0, r1
 8000c44:	1842      	adds	r2, r0, r1
  cmp  r2, r3
 8000c46:	429a      	cmp	r2, r3
  bcc  CopyDataInit
 8000c48:	d3f6      	bcc.n	8000c38 <CopyDataInit>
  ldr  r2, =_sbss
 8000c4a:	4a0b      	ldr	r2, [pc, #44]	; (8000c78 <LoopFillZerobss+0x24>)
  b  LoopFillZerobss
 8000c4c:	e002      	b.n	8000c54 <LoopFillZerobss>

08000c4e <FillZerobss>:
/* Zero fill the bss segment. */  
FillZerobss:
  movs  r3, #0
 8000c4e:	2300      	movs	r3, #0
  str  r3, [r2], #4
 8000c50:	f842 3b04 	str.w	r3, [r2], #4

08000c54 <LoopFillZerobss>:
    
LoopFillZerobss:
  ldr  r3, = _ebss
 8000c54:	4b09      	ldr	r3, [pc, #36]	; (8000c7c <LoopFillZerobss+0x28>)
  cmp  r2, r3
 8000c56:	429a      	cmp	r2, r3
  bcc  FillZerobss
 8000c58:	d3f9      	bcc.n	8000c4e <FillZerobss>

/* Call the clock system intitialization function.*/
  bl  ArcadeIT_System_Init //SystemInit
 8000c5a:	f000 f841 	bl	8000ce0 <ArcadeIT_System_Init>
/* Call static constructors */
    bl __libc_init_array
 8000c5e:	f003 fd41 	bl	80046e4 <__libc_init_array>
/* Call the application's entry point.*/
  bl  main
 8000c62:	f7ff ffb9 	bl	8000bd8 <main>
  bx  lr    
 8000c66:	4770      	bx	lr
Reset_Handler:   ldr   sp, =_estack     /* set stack pointer */
 8000c68:	20050000 	.word	0x20050000
  ldr  r3, =_sidata
 8000c6c:	08015a40 	.word	0x08015a40
  ldr  r0, =_sdata
 8000c70:	20000000 	.word	0x20000000
  ldr  r3, =_edata
 8000c74:	200001d8 	.word	0x200001d8
  ldr  r2, =_sbss
 8000c78:	200001d8 	.word	0x200001d8
  ldr  r3, = _ebss
 8000c7c:	20000744 	.word	0x20000744

08000c80 <ADC_IRQHandler>:
 * @retval None       
*/
    .section  .text.Default_Handler,"ax",%progbits
Default_Handler:
Infinite_Loop:
  b  Infinite_Loop
 8000c80:	e7fe      	b.n	8000c80 <ADC_IRQHandler>
	...

08000c84 <ArcadeIT_SysTick_Init>:

} // end ArcadeIT_SysTick_Deinit

// -----------------------------------------------------------------------------
int ArcadeIT_SysTick_Init (void)
{
 8000c84:	b508      	push	{r3, lr}
 */
__STATIC_INLINE uint32_t SysTick_Config(uint32_t ticks)
{
  if ((ticks - 1) > SysTick_LOAD_RELOAD_Msk)  return (1);      /* Reload value impossible */

  SysTick->LOAD  = ticks - 1;                                  /* set reload register */
 8000c86:	4b0c      	ldr	r3, [pc, #48]	; (8000cb8 <ArcadeIT_SysTick_Init+0x34>)
 8000c88:	4a0c      	ldr	r2, [pc, #48]	; (8000cbc <ArcadeIT_SysTick_Init+0x38>)
 8000c8a:	605a      	str	r2, [r3, #4]
    SCB->SHP[((uint32_t)(IRQn) & 0xF)-4] = ((priority << (8 - __NVIC_PRIO_BITS)) & 0xff); } /* set Priority for Cortex-M  System Interrupts */
 8000c8c:	4a0c      	ldr	r2, [pc, #48]	; (8000cc0 <ArcadeIT_SysTick_Init+0x3c>)
 8000c8e:	21f0      	movs	r1, #240	; 0xf0
 8000c90:	f882 1023 	strb.w	r1, [r2, #35]	; 0x23
  NVIC_SetPriority (SysTick_IRQn, (1<<__NVIC_PRIO_BITS) - 1);  /* set Priority for Systick Interrupt */
  SysTick->VAL   = 0;                                          /* Load the SysTick Counter Value */
 8000c94:	2100      	movs	r1, #0
 8000c96:	6099      	str	r1, [r3, #8]
  SysTick->CTRL  = SysTick_CTRL_CLKSOURCE_Msk |
 8000c98:	2107      	movs	r1, #7
 8000c9a:	6019      	str	r1, [r3, #0]
    SCB->SHP[((uint32_t)(IRQn) & 0xF)-4] = ((priority << (8 - __NVIC_PRIO_BITS)) & 0xff); } /* set Priority for Cortex-M  System Interrupts */
 8000c9c:	23c0      	movs	r3, #192	; 0xc0
 8000c9e:	f882 3023 	strb.w	r3, [r2, #35]	; 0x23
  lRetStatus = SysTick_Config(ARCADEIT_HCLKS_PER_MS);

  // Sets the priority of the interrupt
  NVIC_SetPriority (SysTick_IRQn, NVIC_SYSTICK_PRIORITY << 2);

  if (gDevices & ARCADEIT_DEVICE_SERIAL)
 8000ca2:	4b08      	ldr	r3, [pc, #32]	; (8000cc4 <ArcadeIT_SysTick_Init+0x40>)
 8000ca4:	681b      	ldr	r3, [r3, #0]
 8000ca6:	f413 4f80 	tst.w	r3, #16384	; 0x4000
 8000caa:	d101      	bne.n	8000cb0 <ArcadeIT_SysTick_Init+0x2c>
  } // End if.

  // And return the status.
  return lRetStatus;

} // end ArcadeIT_SysTick_Init.
 8000cac:	2000      	movs	r0, #0
 8000cae:	bd08      	pop	{r3, pc}
    ArcadeIT_Serial_Port_String_Send (TEXT_SYSTICK_INITED);
 8000cb0:	4805      	ldr	r0, [pc, #20]	; (8000cc8 <ArcadeIT_SysTick_Init+0x44>)
 8000cb2:	f000 ffe1 	bl	8001c78 <ArcadeIT_Serial_Port_String_Send>
 8000cb6:	e7f9      	b.n	8000cac <ArcadeIT_SysTick_Init+0x28>
 8000cb8:	e000e010 	.word	0xe000e010
 8000cbc:	0002bf1f 	.word	0x0002bf1f
 8000cc0:	e000ed00 	.word	0xe000ed00
 8000cc4:	200001f8 	.word	0x200001f8
 8000cc8:	08006808 	.word	0x08006808

08000ccc <ArcadeIT_System_Delay>:
   * PARAMETERS:  See above.
   * RETURNS:     Nothing
   */

  // Get the parameter from the parameters pointer.
  gSystemTimer = pDelay;
 8000ccc:	4b03      	ldr	r3, [pc, #12]	; (8000cdc <ArcadeIT_System_Delay+0x10>)
 8000cce:	6018      	str	r0, [r3, #0]
  while (gSystemTimer);
 8000cd0:	4b02      	ldr	r3, [pc, #8]	; (8000cdc <ArcadeIT_System_Delay+0x10>)
 8000cd2:	681b      	ldr	r3, [r3, #0]
 8000cd4:	2b00      	cmp	r3, #0
 8000cd6:	d1fb      	bne.n	8000cd0 <ArcadeIT_System_Delay+0x4>

} // end ArcadeIT_System_Delay.
 8000cd8:	4770      	bx	lr
 8000cda:	bf00      	nop
 8000cdc:	20000208 	.word	0x20000208

08000ce0 <ArcadeIT_System_Init>:

// -----------------------------------------------------------------------------
void ArcadeIT_System_Init (void)
{
 8000ce0:	b082      	sub	sp, #8
   * DESCRIPTION: This function initializes the core of the system
   * PARAMETERS:  None.
   * RETURNS:     Nothing.
   */

  __IO uint32_t lStartUpCounter = 0;
 8000ce2:	2300      	movs	r3, #0
 8000ce4:	9301      	str	r3, [sp, #4]

  SCB->AIRCR = ((uint32_t)0x05FA0000) | NVIC_PriorityGroup_2; // Set the PRIGROUP[10:8] bits according to NVIC_PriorityGroup 2 value
 8000ce6:	4b38      	ldr	r3, [pc, #224]	; (8000dc8 <ArcadeIT_System_Init+0xe8>)
 8000ce8:	4a38      	ldr	r2, [pc, #224]	; (8000dcc <ArcadeIT_System_Init+0xec>)
 8000cea:	60da      	str	r2, [r3, #12]
  SCB->CPACR |= ((3UL << 10*2)|(3UL << 11*2));  // FPU settings: set CP10 and CP11 Full Access
 8000cec:	f8d3 2088 	ldr.w	r2, [r3, #136]	; 0x88
 8000cf0:	f442 0270 	orr.w	r2, r2, #15728640	; 0xf00000
 8000cf4:	f8c3 2088 	str.w	r2, [r3, #136]	; 0x88
  SCB->VTOR = FLASH_BASE | VECT_TAB_OFFSET;     // Vector Table Relocation in Internal FLASH
 8000cf8:	f04f 6200 	mov.w	r2, #134217728	; 0x8000000
 8000cfc:	609a      	str	r2, [r3, #8]

  // In ArcadeIT PLL (clocked by HSE) is used as System clock source
  RCC->CR |= ((uint32_t)RCC_CR_HSEON);
 8000cfe:	4a34      	ldr	r2, [pc, #208]	; (8000dd0 <ArcadeIT_System_Init+0xf0>)
 8000d00:	6813      	ldr	r3, [r2, #0]
 8000d02:	f443 3380 	orr.w	r3, r3, #65536	; 0x10000
 8000d06:	6013      	str	r3, [r2, #0]

  // Wait till HSE is ready and if Time out is reached exit
  while(((RCC->CR & RCC_CR_HSERDY) == 0) && (++lStartUpCounter != HSE_STARTUP_TIMEOUT));
 8000d08:	4b31      	ldr	r3, [pc, #196]	; (8000dd0 <ArcadeIT_System_Init+0xf0>)
 8000d0a:	681b      	ldr	r3, [r3, #0]
 8000d0c:	f413 3f00 	tst.w	r3, #131072	; 0x20000
 8000d10:	d105      	bne.n	8000d1e <ArcadeIT_System_Init+0x3e>
 8000d12:	9b01      	ldr	r3, [sp, #4]
 8000d14:	3301      	adds	r3, #1
 8000d16:	9301      	str	r3, [sp, #4]
 8000d18:	4a2e      	ldr	r2, [pc, #184]	; (8000dd4 <ArcadeIT_System_Init+0xf4>)
 8000d1a:	4293      	cmp	r3, r2
 8000d1c:	d1f4      	bne.n	8000d08 <ArcadeIT_System_Init+0x28>

  if (RCC->CR & RCC_CR_HSERDY)
 8000d1e:	4b2c      	ldr	r3, [pc, #176]	; (8000dd0 <ArcadeIT_System_Init+0xf0>)
 8000d20:	681b      	ldr	r3, [r3, #0]
 8000d22:	f413 3f00 	tst.w	r3, #131072	; 0x20000
 8000d26:	d046      	beq.n	8000db6 <ArcadeIT_System_Init+0xd6>
  {
    // Select regulator voltage output Scale 1 mode
    RCC->APB1ENR |= RCC_APB1ENR_PWREN;
 8000d28:	4b29      	ldr	r3, [pc, #164]	; (8000dd0 <ArcadeIT_System_Init+0xf0>)
 8000d2a:	6c1a      	ldr	r2, [r3, #64]	; 0x40
 8000d2c:	f042 5280 	orr.w	r2, r2, #268435456	; 0x10000000
 8000d30:	641a      	str	r2, [r3, #64]	; 0x40
    PWR->CR |= PWR_CR_VOS;
 8000d32:	4929      	ldr	r1, [pc, #164]	; (8000dd8 <ArcadeIT_System_Init+0xf8>)
 8000d34:	680a      	ldr	r2, [r1, #0]
 8000d36:	f442 4240 	orr.w	r2, r2, #49152	; 0xc000
 8000d3a:	600a      	str	r2, [r1, #0]
    // HCLK = SYSCLK / 1
    RCC->CFGR |= RCC_CFGR_HPRE_DIV1;
 8000d3c:	689a      	ldr	r2, [r3, #8]
 8000d3e:	609a      	str	r2, [r3, #8]
    // PCLK2 = HCLK / 2
    RCC->CFGR |= RCC_CFGR_PPRE2_DIV2;
 8000d40:	689a      	ldr	r2, [r3, #8]
 8000d42:	f442 4200 	orr.w	r2, r2, #32768	; 0x8000
 8000d46:	609a      	str	r2, [r3, #8]
    // PCLK1 = HCLK / 4
    RCC->CFGR |= RCC_CFGR_PPRE1_DIV4; // 0x00001400U
 8000d48:	689a      	ldr	r2, [r3, #8]
 8000d4a:	f442 52a0 	orr.w	r2, r2, #5120	; 0x1400
 8000d4e:	609a      	str	r2, [r3, #8]
    // Configure the main PLL
    RCC->PLLCFGR = PLL_M | (PLL_N << 6) | (((PLL_P >> 1) - 1) << 16) | (RCC_PLLCFGR_PLLSRC_HSE) | (PLL_Q << 24);
 8000d50:	4a22      	ldr	r2, [pc, #136]	; (8000ddc <ArcadeIT_System_Init+0xfc>)
 8000d52:	605a      	str	r2, [r3, #4]
    // Enable the main PLL
    RCC->CR |= RCC_CR_PLLON;
 8000d54:	681a      	ldr	r2, [r3, #0]
 8000d56:	f042 7280 	orr.w	r2, r2, #16777216	; 0x1000000
 8000d5a:	601a      	str	r2, [r3, #0]
    // Wait till the main PLL is ready
    while((RCC->CR & RCC_CR_PLLRDY) == 0) {}
 8000d5c:	4b1c      	ldr	r3, [pc, #112]	; (8000dd0 <ArcadeIT_System_Init+0xf0>)
 8000d5e:	681b      	ldr	r3, [r3, #0]
 8000d60:	f013 7f00 	tst.w	r3, #33554432	; 0x2000000
 8000d64:	d0fa      	beq.n	8000d5c <ArcadeIT_System_Init+0x7c>
    // Enable the Over-drive to extend the clock frequency to 180 Mhz
    PWR->CR |= PWR_CR_ODEN;
 8000d66:	4a1c      	ldr	r2, [pc, #112]	; (8000dd8 <ArcadeIT_System_Init+0xf8>)
 8000d68:	6813      	ldr	r3, [r2, #0]
 8000d6a:	f443 3380 	orr.w	r3, r3, #65536	; 0x10000
 8000d6e:	6013      	str	r3, [r2, #0]
    while((PWR->CSR & PWR_CSR_ODRDY) == 0) {}
 8000d70:	4b19      	ldr	r3, [pc, #100]	; (8000dd8 <ArcadeIT_System_Init+0xf8>)
 8000d72:	685b      	ldr	r3, [r3, #4]
 8000d74:	f413 3f80 	tst.w	r3, #65536	; 0x10000
 8000d78:	d0fa      	beq.n	8000d70 <ArcadeIT_System_Init+0x90>
    PWR->CR |= PWR_CR_ODSWEN;
 8000d7a:	4a17      	ldr	r2, [pc, #92]	; (8000dd8 <ArcadeIT_System_Init+0xf8>)
 8000d7c:	6813      	ldr	r3, [r2, #0]
 8000d7e:	f443 3300 	orr.w	r3, r3, #131072	; 0x20000
 8000d82:	6013      	str	r3, [r2, #0]
    while((PWR->CSR & PWR_CSR_ODSWRDY) == 0) {}
 8000d84:	4b14      	ldr	r3, [pc, #80]	; (8000dd8 <ArcadeIT_System_Init+0xf8>)
 8000d86:	685b      	ldr	r3, [r3, #4]
 8000d88:	f413 3f00 	tst.w	r3, #131072	; 0x20000
 8000d8c:	d0fa      	beq.n	8000d84 <ArcadeIT_System_Init+0xa4>
    // Configure Flash prefetch, Instruction cache, Data cache and wait state
    FLASH->ACR = FLASH_ACR_PRFTEN | FLASH_ACR_ICEN |FLASH_ACR_DCEN |FLASH_ACR_LATENCY_5WS;
 8000d8e:	4b14      	ldr	r3, [pc, #80]	; (8000de0 <ArcadeIT_System_Init+0x100>)
 8000d90:	f240 7205 	movw	r2, #1797	; 0x705
 8000d94:	601a      	str	r2, [r3, #0]
    // Select the main PLL as system clock source
    RCC->CFGR &= (uint32_t)((uint32_t)~(RCC_CFGR_SW));
 8000d96:	f5a3 6380 	sub.w	r3, r3, #1024	; 0x400
 8000d9a:	689a      	ldr	r2, [r3, #8]
 8000d9c:	f022 0203 	bic.w	r2, r2, #3
 8000da0:	609a      	str	r2, [r3, #8]
    RCC->CFGR |= RCC_CFGR_SW_PLL;
 8000da2:	689a      	ldr	r2, [r3, #8]
 8000da4:	f042 0202 	orr.w	r2, r2, #2
 8000da8:	609a      	str	r2, [r3, #8]
    // Wait till the main PLL is used as system clock source
    while ((RCC->CFGR & (uint32_t)RCC_CFGR_SWS ) != RCC_CFGR_SWS_PLL) {}
 8000daa:	4b09      	ldr	r3, [pc, #36]	; (8000dd0 <ArcadeIT_System_Init+0xf0>)
 8000dac:	689b      	ldr	r3, [r3, #8]
 8000dae:	f003 030c 	and.w	r3, r3, #12
 8000db2:	2b08      	cmp	r3, #8
 8000db4:	d1f9      	bne.n	8000daa <ArcadeIT_System_Init+0xca>
    // configuration. User can add here some code to deal with this error

  } // end if

  // HCLK counter, DWT struct is defined inside the core_cm4.h file
  DWT->CTRL |= 1;  // enable the counter
 8000db6:	4b0b      	ldr	r3, [pc, #44]	; (8000de4 <ArcadeIT_System_Init+0x104>)
 8000db8:	681a      	ldr	r2, [r3, #0]
 8000dba:	f042 0201 	orr.w	r2, r2, #1
 8000dbe:	601a      	str	r2, [r3, #0]
  DWT->CYCCNT = 0; // reset the counter
 8000dc0:	2200      	movs	r2, #0
 8000dc2:	605a      	str	r2, [r3, #4]

} // end ArcadeIT_System_Init.
 8000dc4:	b002      	add	sp, #8
 8000dc6:	4770      	bx	lr
 8000dc8:	e000ed00 	.word	0xe000ed00
 8000dcc:	05fa0500 	.word	0x05fa0500
 8000dd0:	40023800 	.word	0x40023800
 8000dd4:	15752a00 	.word	0x15752a00
 8000dd8:	40007000 	.word	0x40007000
 8000ddc:	07402d04 	.word	0x07402d04
 8000de0:	40023c00 	.word	0x40023c00
 8000de4:	e0001000 	.word	0xe0001000

08000de8 <ArcadeIT_SysTick_Handler>:

} // end ArcadeIT_If_VBlank.

// -----------------------------------------------------------------------------
void ArcadeIT_SysTick_Handler (void)
{
 8000de8:	b508      	push	{r3, lr}
   * PARAMETERS:  TimeDivider: this is the number to divide the system clock by (i.e. 1000: MSec, 1000000: MicroSec... ).
   * RETURNS:     Nothing
   */

  // Decrement timers synchronized to the MCU in ms.
  gSystemTick++;
 8000dea:	4a0d      	ldr	r2, [pc, #52]	; (8000e20 <ArcadeIT_SysTick_Handler+0x38>)
 8000dec:	6813      	ldr	r3, [r2, #0]
 8000dee:	3301      	adds	r3, #1
 8000df0:	6013      	str	r3, [r2, #0]

  if (gSecondaryTimer > 0)
 8000df2:	4b0c      	ldr	r3, [pc, #48]	; (8000e24 <ArcadeIT_SysTick_Handler+0x3c>)
 8000df4:	681b      	ldr	r3, [r3, #0]
 8000df6:	b11b      	cbz	r3, 8000e00 <ArcadeIT_SysTick_Handler+0x18>
    gSecondaryTimer--;
 8000df8:	4a0a      	ldr	r2, [pc, #40]	; (8000e24 <ArcadeIT_SysTick_Handler+0x3c>)
 8000dfa:	6813      	ldr	r3, [r2, #0]
 8000dfc:	3b01      	subs	r3, #1
 8000dfe:	6013      	str	r3, [r2, #0]

  if (gSystemTimer > 0)
 8000e00:	4b09      	ldr	r3, [pc, #36]	; (8000e28 <ArcadeIT_SysTick_Handler+0x40>)
 8000e02:	681b      	ldr	r3, [r3, #0]
 8000e04:	b11b      	cbz	r3, 8000e0e <ArcadeIT_SysTick_Handler+0x26>
    gSystemTimer--;
 8000e06:	4a08      	ldr	r2, [pc, #32]	; (8000e28 <ArcadeIT_SysTick_Handler+0x40>)
 8000e08:	6813      	ldr	r3, [r2, #0]
 8000e0a:	3b01      	subs	r3, #1
 8000e0c:	6013      	str	r3, [r2, #0]

  // Run the tasks scheduler.
  if (gUnits & ARCADEIT_UNIT_SCHEDULER)
 8000e0e:	4b07      	ldr	r3, [pc, #28]	; (8000e2c <ArcadeIT_SysTick_Handler+0x44>)
 8000e10:	681b      	ldr	r3, [r3, #0]
 8000e12:	f413 7f80 	tst.w	r3, #256	; 0x100
 8000e16:	d100      	bne.n	8000e1a <ArcadeIT_SysTick_Handler+0x32>
  {
      ArcadeIT_Scheduler_Update();

  } // End if.

} // end ArcadeIT_SysTick_Handler.
 8000e18:	bd08      	pop	{r3, pc}
      ArcadeIT_Scheduler_Update();
 8000e1a:	f001 f931 	bl	8002080 <ArcadeIT_Scheduler_Update>
} // end ArcadeIT_SysTick_Handler.
 8000e1e:	e7fb      	b.n	8000e18 <ArcadeIT_SysTick_Handler+0x30>
 8000e20:	20000204 	.word	0x20000204
 8000e24:	200001fc 	.word	0x200001fc
 8000e28:	20000208 	.word	0x20000208
 8000e2c:	2000020c 	.word	0x2000020c

08000e30 <SysTick_Handler>:

void SysTick_Handler(void)
{
 8000e30:	b508      	push	{r3, lr}
  ArcadeIT_SysTick_Handler();
 8000e32:	f7ff ffd9 	bl	8000de8 <ArcadeIT_SysTick_Handler>

} // End SysTick_Handler.
 8000e36:	bd08      	pop	{r3, pc}

08000e38 <ArcadeIT_ArcadeIT_Start>:

} // end ArcadeIT_PowerUP_Systems

// /////////////////////////////////////////////////////////////////////////////
void ArcadeIT_ArcadeIT_Start (void)
{
 8000e38:	b500      	push	{lr}
 8000e3a:	b0c1      	sub	sp, #260	; 0x104
   */

  char lString[256];

  // ---------------------------------------------------------------------------
  if (gDevices & ARCADEIT_DEVICE_SERIAL)
 8000e3c:	4b47      	ldr	r3, [pc, #284]	; (8000f5c <ArcadeIT_ArcadeIT_Start+0x124>)
 8000e3e:	681b      	ldr	r3, [r3, #0]
 8000e40:	f413 4f80 	tst.w	r3, #16384	; 0x4000
 8000e44:	d130      	bne.n	8000ea8 <ArcadeIT_ArcadeIT_Start+0x70>

  } // End if.
  // ---------------------------------------------------------------------------
  // Clock and timer system. Thjis must be called before the SD card initialization.
  // 1ms System Tick timer.
  ArcadeIT_SysTick_Init();
 8000e46:	f7ff ff1d 	bl	8000c84 <ArcadeIT_SysTick_Init>

  // ---------------------------------------------------------------------------
  if (gDevices & ARCADEIT_DEVICE_TESTPADS)
 8000e4a:	4b44      	ldr	r3, [pc, #272]	; (8000f5c <ArcadeIT_ArcadeIT_Start+0x124>)
 8000e4c:	681b      	ldr	r3, [r3, #0]
 8000e4e:	f413 3f00 	tst.w	r3, #131072	; 0x20000
 8000e52:	d12e      	bne.n	8000eb2 <ArcadeIT_ArcadeIT_Start+0x7a>
    //ArcadeIT_TestPad_Init (RCC_MCO2Source_PLLCLK, RCC_MCO2Div_4); // 45 MHz
    //ArcadeIT_TestPad_Init (RCC_MCO2Source_HSE, RCC_MCO2Div_1);    //  8 MHz

  } // End if.
  // ---------------------------------------------------------------------------
  if (gDevices & ARCADEIT_DEVICE_STATUSLED)
 8000e54:	4b41      	ldr	r3, [pc, #260]	; (8000f5c <ArcadeIT_ArcadeIT_Start+0x124>)
 8000e56:	681b      	ldr	r3, [r3, #0]
 8000e58:	f413 3f80 	tst.w	r3, #65536	; 0x10000
 8000e5c:	d12f      	bne.n	8000ebe <ArcadeIT_ArcadeIT_Start+0x86>

  } // End if.
  // ---------------------------------------------------------------------------
  // Systems scheduler task. This must be set AFTER the Systick has been initialized
  // because uses the ISR function that is handled by the Systick.
  if (gUnits & ARCADEIT_UNIT_SCHEDULER)
 8000e5e:	4b40      	ldr	r3, [pc, #256]	; (8000f60 <ArcadeIT_ArcadeIT_Start+0x128>)
 8000e60:	681b      	ldr	r3, [r3, #0]
 8000e62:	f413 7f80 	tst.w	r3, #256	; 0x100
 8000e66:	d12d      	bne.n	8000ec4 <ArcadeIT_ArcadeIT_Start+0x8c>
    ArcadeIT_Scheduler_Task_Init();

  } // End if.
  // ---------------------------------------------------------------------------
  // Start the SPI Port
  if (gDevices & ARCADEIT_DEVICE_SPI1)
 8000e68:	4b3c      	ldr	r3, [pc, #240]	; (8000f5c <ArcadeIT_ArcadeIT_Start+0x124>)
 8000e6a:	681b      	ldr	r3, [r3, #0]
 8000e6c:	f013 0f10 	tst.w	r3, #16
 8000e70:	d007      	beq.n	8000e82 <ArcadeIT_ArcadeIT_Start+0x4a>
  {
    if (gStorage & ARCADEIT_STORAGE_SD_CARD_SPI1)
 8000e72:	4b3c      	ldr	r3, [pc, #240]	; (8000f64 <ArcadeIT_ArcadeIT_Start+0x12c>)
 8000e74:	681b      	ldr	r3, [r3, #0]
 8000e76:	f013 0f02 	tst.w	r3, #2
 8000e7a:	d026      	beq.n	8000eca <ArcadeIT_ArcadeIT_Start+0x92>
    {
      ArcadeIT_SPI_Port_Init (SPI_FREQ_22_50_MHz);
 8000e7c:	2008      	movs	r0, #8
 8000e7e:	f000 fe09 	bl	8001a94 <ArcadeIT_SPI_Port_Init>

    } // End if.

  } // End if.
  // ---------------------------------------------------------------------------
  if (gDevices & ARCADEIT_DEVICE_I2C)
 8000e82:	4b36      	ldr	r3, [pc, #216]	; (8000f5c <ArcadeIT_ArcadeIT_Start+0x124>)
 8000e84:	681b      	ldr	r3, [r3, #0]
 8000e86:	f013 0f20 	tst.w	r3, #32
 8000e8a:	d122      	bne.n	8000ed2 <ArcadeIT_ArcadeIT_Start+0x9a>
    ArcadeIT_I2C_Port_Init(I2C_100kHz);

  } // End if.
  // ---------------------------------------------------------------------------
  // Storage systems
  if (gStorage & (ARCADEIT_STORAGE_RAM_DISK | ARCADEIT_STORAGE_SD_CARD_SPI1))
 8000e8c:	4b35      	ldr	r3, [pc, #212]	; (8000f64 <ArcadeIT_ArcadeIT_Start+0x12c>)
 8000e8e:	681b      	ldr	r3, [r3, #0]
 8000e90:	f013 0f03 	tst.w	r3, #3
 8000e94:	d002      	beq.n	8000e9c <ArcadeIT_ArcadeIT_Start+0x64>
  {
    FRESULT lValue;

    if (gStorage & ARCADEIT_STORAGE_SD_CARD_SPI1)
 8000e96:	f013 0f02 	tst.w	r3, #2
 8000e9a:	d11e      	bne.n	8000eda <ArcadeIT_ArcadeIT_Start+0xa2>
    } // End if.

  } // End if.

  // ---------------------------------------------------------------------------
  ArcadeIT_Serial_Port_String_Send(CURSOR_NEWLINE);
 8000e9c:	4832      	ldr	r0, [pc, #200]	; (8000f68 <ArcadeIT_ArcadeIT_Start+0x130>)
 8000e9e:	f000 feeb 	bl	8001c78 <ArcadeIT_Serial_Port_String_Send>

} // End ArcadeIT_Start
 8000ea2:	b041      	add	sp, #260	; 0x104
 8000ea4:	f85d fb04 	ldr.w	pc, [sp], #4
    ArcadeIT_Serial_Port_Init (SYS_SERIAL_SPEED);
 8000ea8:	f44f 30e1 	mov.w	r0, #115200	; 0x1c200
 8000eac:	f000 feee 	bl	8001c8c <ArcadeIT_Serial_Port_Init>
 8000eb0:	e7c9      	b.n	8000e46 <ArcadeIT_ArcadeIT_Start+0xe>
    ArcadeIT_TestPad_Init (RCC_MCO2Source_SYSCLK, RCC_MCO2Div_4);  //  45 MHz
 8000eb2:	f04f 5140 	mov.w	r1, #805306368	; 0x30000000
 8000eb6:	2000      	movs	r0, #0
 8000eb8:	f001 f83e 	bl	8001f38 <ArcadeIT_TestPad_Init>
 8000ebc:	e7ca      	b.n	8000e54 <ArcadeIT_ArcadeIT_Start+0x1c>
    ArcadeIT_Status_LEDS_Init();
 8000ebe:	f000 ffa7 	bl	8001e10 <ArcadeIT_Status_LEDS_Init>
 8000ec2:	e7cc      	b.n	8000e5e <ArcadeIT_ArcadeIT_Start+0x26>
    ArcadeIT_Scheduler_Task_Init();
 8000ec4:	f001 f87e 	bl	8001fc4 <ArcadeIT_Scheduler_Task_Init>
 8000ec8:	e7ce      	b.n	8000e68 <ArcadeIT_ArcadeIT_Start+0x30>
      ArcadeIT_SPI_Port_Init (SPI_FREQ_45_00_MHz);
 8000eca:	2000      	movs	r0, #0
 8000ecc:	f000 fde2 	bl	8001a94 <ArcadeIT_SPI_Port_Init>
 8000ed0:	e7d7      	b.n	8000e82 <ArcadeIT_ArcadeIT_Start+0x4a>
    ArcadeIT_I2C_Port_Init(I2C_100kHz);
 8000ed2:	4826      	ldr	r0, [pc, #152]	; (8000f6c <ArcadeIT_ArcadeIT_Start+0x134>)
 8000ed4:	f000 f930 	bl	8001138 <ArcadeIT_I2C_Port_Init>
 8000ed8:	e7d8      	b.n	8000e8c <ArcadeIT_ArcadeIT_Start+0x54>
      lValue = ArcadeIT_SDCard_Disk_Start();
 8000eda:	f000 fcfb 	bl	80018d4 <ArcadeIT_SDCard_Disk_Start>
      if (lValue == FR_OK)
 8000ede:	b180      	cbz	r0, 8000f02 <ArcadeIT_ArcadeIT_Start+0xca>
        if (gDevices & ARCADEIT_DEVICE_SERIAL)
 8000ee0:	4b1e      	ldr	r3, [pc, #120]	; (8000f5c <ArcadeIT_ArcadeIT_Start+0x124>)
 8000ee2:	681b      	ldr	r3, [r3, #0]
 8000ee4:	f413 4f80 	tst.w	r3, #16384	; 0x4000
 8000ee8:	d0d8      	beq.n	8000e9c <ArcadeIT_ArcadeIT_Start+0x64>
          sprintf(lString, "%s\n\r", ArcadeIT_Utility_Get_String_ID(lValue, (char*)gErrorMessages));
 8000eea:	4921      	ldr	r1, [pc, #132]	; (8000f70 <ArcadeIT_ArcadeIT_Start+0x138>)
 8000eec:	f000 f916 	bl	800111c <ArcadeIT_Utility_Get_String_ID>
 8000ef0:	4602      	mov	r2, r0
 8000ef2:	4920      	ldr	r1, [pc, #128]	; (8000f74 <ArcadeIT_ArcadeIT_Start+0x13c>)
 8000ef4:	4668      	mov	r0, sp
 8000ef6:	f004 f88f 	bl	8005018 <siprintf>
          ArcadeIT_Serial_Port_String_Send(lString);
 8000efa:	4668      	mov	r0, sp
 8000efc:	f000 febc 	bl	8001c78 <ArcadeIT_Serial_Port_String_Send>
 8000f00:	e7cc      	b.n	8000e9c <ArcadeIT_ArcadeIT_Start+0x64>
        lValue = f_chdrive(ArcadeIT_Utility_Get_String_ID(DEV_SD, (char*)gDriveName));
 8000f02:	491d      	ldr	r1, [pc, #116]	; (8000f78 <ArcadeIT_ArcadeIT_Start+0x140>)
 8000f04:	2001      	movs	r0, #1
 8000f06:	f000 f909 	bl	800111c <ArcadeIT_Utility_Get_String_ID>
 8000f0a:	f002 ff01 	bl	8003d10 <f_chdrive>
        if (lValue == FR_OK)
 8000f0e:	b9a0      	cbnz	r0, 8000f3a <ArcadeIT_ArcadeIT_Start+0x102>
          gCurrentDrive = DEV_SD;
 8000f10:	4b1a      	ldr	r3, [pc, #104]	; (8000f7c <ArcadeIT_ArcadeIT_Start+0x144>)
 8000f12:	2201      	movs	r2, #1
 8000f14:	701a      	strb	r2, [r3, #0]
          if (gDevices & ARCADEIT_DEVICE_SERIAL)
 8000f16:	4b11      	ldr	r3, [pc, #68]	; (8000f5c <ArcadeIT_ArcadeIT_Start+0x124>)
 8000f18:	681b      	ldr	r3, [r3, #0]
 8000f1a:	f413 4f80 	tst.w	r3, #16384	; 0x4000
 8000f1e:	d0bd      	beq.n	8000e9c <ArcadeIT_ArcadeIT_Start+0x64>
            sprintf(lString, "Current drive: [%s]\n\r", ArcadeIT_Utility_Get_String_ID(gCurrentDrive, (char*)gDriveName));
 8000f20:	4915      	ldr	r1, [pc, #84]	; (8000f78 <ArcadeIT_ArcadeIT_Start+0x140>)
 8000f22:	4610      	mov	r0, r2
 8000f24:	f000 f8fa 	bl	800111c <ArcadeIT_Utility_Get_String_ID>
 8000f28:	4602      	mov	r2, r0
 8000f2a:	4915      	ldr	r1, [pc, #84]	; (8000f80 <ArcadeIT_ArcadeIT_Start+0x148>)
 8000f2c:	4668      	mov	r0, sp
 8000f2e:	f004 f873 	bl	8005018 <siprintf>
            ArcadeIT_Serial_Port_String_Send(lString);
 8000f32:	4668      	mov	r0, sp
 8000f34:	f000 fea0 	bl	8001c78 <ArcadeIT_Serial_Port_String_Send>
 8000f38:	e7b0      	b.n	8000e9c <ArcadeIT_ArcadeIT_Start+0x64>
          if (gDevices & ARCADEIT_DEVICE_SERIAL)
 8000f3a:	4a08      	ldr	r2, [pc, #32]	; (8000f5c <ArcadeIT_ArcadeIT_Start+0x124>)
 8000f3c:	6812      	ldr	r2, [r2, #0]
 8000f3e:	f412 4f80 	tst.w	r2, #16384	; 0x4000
 8000f42:	d0ab      	beq.n	8000e9c <ArcadeIT_ArcadeIT_Start+0x64>
            sprintf(lString, "%s\n\r", ArcadeIT_Utility_Get_String_ID(lValue, (char*)gErrorMessages));
 8000f44:	490a      	ldr	r1, [pc, #40]	; (8000f70 <ArcadeIT_ArcadeIT_Start+0x138>)
 8000f46:	f000 f8e9 	bl	800111c <ArcadeIT_Utility_Get_String_ID>
 8000f4a:	4602      	mov	r2, r0
 8000f4c:	4909      	ldr	r1, [pc, #36]	; (8000f74 <ArcadeIT_ArcadeIT_Start+0x13c>)
 8000f4e:	4668      	mov	r0, sp
 8000f50:	f004 f862 	bl	8005018 <siprintf>
            ArcadeIT_Serial_Port_String_Send(lString);
 8000f54:	4668      	mov	r0, sp
 8000f56:	f000 fe8f 	bl	8001c78 <ArcadeIT_Serial_Port_String_Send>
 8000f5a:	e79f      	b.n	8000e9c <ArcadeIT_ArcadeIT_Start+0x64>
 8000f5c:	200001f8 	.word	0x200001f8
 8000f60:	2000020c 	.word	0x2000020c
 8000f64:	20000200 	.word	0x20000200
 8000f68:	08006820 	.word	0x08006820
 8000f6c:	000186a0 	.word	0x000186a0
 8000f70:	08006a1c 	.word	0x08006a1c
 8000f74:	08006800 	.word	0x08006800
 8000f78:	08006a08 	.word	0x08006a08
 8000f7c:	20000000 	.word	0x20000000
 8000f80:	080067e8 	.word	0x080067e8
 8000f84:	00000000 	.word	0x00000000

08000f88 <ArcadeIT_Test_Bench>:

// ////////////////////////////////////////////////////////////////////////////
void ArcadeIT_Test_Bench (void)
{
 8000f88:	e92d 43f0 	stmdb	sp!, {r4, r5, r6, r7, r8, r9, lr}
 8000f8c:	b0cf      	sub	sp, #316	; 0x13c
  // The following variables hold the flags that start the features/peripherals
  // of the ArcadeIT System. It could be possible to configure the ArcadeIT System from a
  // *.ini text file on the SD Card, or other sources.

  // System features.
  gUnits = NONE
 8000f8e:	4c54      	ldr	r4, [pc, #336]	; (80010e0 <ArcadeIT_Test_Bench+0x158>)
 8000f90:	f44f 7380 	mov.w	r3, #256	; 0x100
 8000f94:	6023      	str	r3, [r4, #0]
      //| ARCADEIT_UNIT_RTC           // Real time clock
      //| ARCADEIT_UNIT_DMM           // The custom ArcadeIt Dynamic Memory Manager
        | ARCADEIT_UNIT_SCHEDULER     // The task scheduler system.
      ;

  gStorage = NONE
 8000f96:	4b53      	ldr	r3, [pc, #332]	; (80010e4 <ArcadeIT_Test_Bench+0x15c>)
 8000f98:	2202      	movs	r2, #2
 8000f9a:	601a      	str	r2, [r3, #0]
      //| ARCADEIT_STORAGE_RAM_DISK     // Ram disk with a FAT File system on the SRAM expansion
        | ARCADEIT_STORAGE_SD_CARD_SPI1 // File system FAT on SD Card over the SPI1 port
      ;

  gDevices = NONE
 8000f9c:	4b52      	ldr	r3, [pc, #328]	; (80010e8 <ArcadeIT_Test_Bench+0x160>)
 8000f9e:	4a53      	ldr	r2, [pc, #332]	; (80010ec <ArcadeIT_Test_Bench+0x164>)
 8000fa0:	601a      	str	r2, [r3, #0]
        | ARCADEIT_DEVICE_SERIAL        // Serial port USART 2
        | ARCADEIT_DEVICE_STATUSLED     // Two Status LEDs
        | ARCADEIT_DEVICE_TESTPADS      // System clock test pads
       ;

  ArcadeIT_ArcadeIT_Start();
 8000fa2:	f7ff ff49 	bl	8000e38 <ArcadeIT_ArcadeIT_Start>
  } // End if.
#endif
#if 1
  // --------------------------------------------------------------------------
  // We setup the scheduler to blink the Status LED 1 at 1Hz (every seconds).
  if (gUnits & ARCADEIT_UNIT_SCHEDULER)
 8000fa6:	6823      	ldr	r3, [r4, #0]
 8000fa8:	f413 7f80 	tst.w	r3, #256	; 0x100
 8000fac:	d00d      	beq.n	8000fca <ArcadeIT_Test_Bench+0x42>
  {
    if (gDevices & ARCADEIT_DEVICE_STATUSLED)
 8000fae:	4b4e      	ldr	r3, [pc, #312]	; (80010e8 <ArcadeIT_Test_Bench+0x160>)
 8000fb0:	681b      	ldr	r3, [r3, #0]
 8000fb2:	f413 3f80 	tst.w	r3, #65536	; 0x10000
 8000fb6:	d008      	beq.n	8000fca <ArcadeIT_Test_Bench+0x42>
    {
          ArcadeIT_Scheduler_Task_Set (
 8000fb8:	f44f 73fa 	mov.w	r3, #500	; 0x1f4
 8000fbc:	9300      	str	r3, [sp, #0]
 8000fbe:	2300      	movs	r3, #0
 8000fc0:	461a      	mov	r2, r3
 8000fc2:	494b      	ldr	r1, [pc, #300]	; (80010f0 <ArcadeIT_Test_Bench+0x168>)
 8000fc4:	4618      	mov	r0, r3
 8000fc6:	f001 f817 	bl	8001ff8 <ArcadeIT_Scheduler_Task_Set>
  } // end if
#endif
#if 01
  // ---------------------------------------------------------------------------
  // SD-Card access test
  if (gStorage & ARCADEIT_STORAGE_SD_CARD_SPI1)
 8000fca:	4b46      	ldr	r3, [pc, #280]	; (80010e4 <ArcadeIT_Test_Bench+0x15c>)
 8000fcc:	681b      	ldr	r3, [r3, #0]
 8000fce:	f013 0f02 	tst.w	r3, #2
 8000fd2:	d077      	beq.n	80010c4 <ArcadeIT_Test_Bench+0x13c>
  {
    if (gDevices & ARCADEIT_DEVICE_SERIAL)
 8000fd4:	4b44      	ldr	r3, [pc, #272]	; (80010e8 <ArcadeIT_Test_Bench+0x160>)
 8000fd6:	681b      	ldr	r3, [r3, #0]
 8000fd8:	f413 4f80 	tst.w	r3, #16384	; 0x4000
 8000fdc:	d00b      	beq.n	8000ff6 <ArcadeIT_Test_Bench+0x6e>
    {
      ArcadeIT_System_Delay(5000);
 8000fde:	f241 3088 	movw	r0, #5000	; 0x1388
 8000fe2:	f7ff fe73 	bl	8000ccc <ArcadeIT_System_Delay>
      ArcadeIT_Serial_Port_String_Send(RESET_DEVICE);
 8000fe6:	4843      	ldr	r0, [pc, #268]	; (80010f4 <ArcadeIT_Test_Bench+0x16c>)
 8000fe8:	f000 fe46 	bl	8001c78 <ArcadeIT_Serial_Port_String_Send>
      ArcadeIT_Status_LED2_Toggle();
 8000fec:	f000 ff86 	bl	8001efc <ArcadeIT_Status_LED2_Toggle>

      ArcadeIT_Serial_Port_String_Send("Speed test for SD-Card:\n\r");
 8000ff0:	4841      	ldr	r0, [pc, #260]	; (80010f8 <ArcadeIT_Test_Bench+0x170>)
 8000ff2:	f000 fe41 	bl	8001c78 <ArcadeIT_Serial_Port_String_Send>
    // Create a new file
    // the global file system that ArcadeIT! opens is held by the global variable
    // FATFS gFileSystemSD;
    FIL lFile;                /* File objects */
    FRESULT lFileStatus = 0;  /* FatFs function common result code */
    UINT lBytesToSave = 1024*1024*2, lBytesRead = 0;
 8000ff6:	2300      	movs	r3, #0
 8000ff8:	9302      	str	r3, [sp, #8]
    BYTE *lMemoryFrom = 0x8000000, lBuffer[512];
    uint32_t lCurrentTime = 0, lLastTime = 0, lTimeElapsed = 0;

    // create a file
    lFileStatus += f_open(&lFile, "SDCARD:ArcadeIT_firmware.bin", FA_WRITE | FA_CREATE_ALWAYS);
 8000ffa:	220a      	movs	r2, #10
 8000ffc:	493f      	ldr	r1, [pc, #252]	; (80010fc <ArcadeIT_Test_Bench+0x174>)
 8000ffe:	a803      	add	r0, sp, #12
 8001000:	f002 fc6e 	bl	80038e0 <f_open>
 8001004:	4604      	mov	r4, r0
    if (gDevices & ARCADEIT_DEVICE_SERIAL)
 8001006:	4b38      	ldr	r3, [pc, #224]	; (80010e8 <ArcadeIT_Test_Bench+0x160>)
 8001008:	681b      	ldr	r3, [r3, #0]
 800100a:	f413 4f80 	tst.w	r3, #16384	; 0x4000
 800100e:	d007      	beq.n	8001020 <ArcadeIT_Test_Bench+0x98>
    {
      sprintf(lString, "%s", lFileStatus == FR_OK ? "File created.\r\n" : "Problems in creating the file.\r\n");
 8001010:	b960      	cbnz	r0, 800102c <ArcadeIT_Test_Bench+0xa4>
 8001012:	493b      	ldr	r1, [pc, #236]	; (8001100 <ArcadeIT_Test_Bench+0x178>)
 8001014:	a80e      	add	r0, sp, #56	; 0x38
 8001016:	f004 f81f 	bl	8005058 <strcpy>
      ArcadeIT_Serial_Port_String_Send(lString);
 800101a:	a80e      	add	r0, sp, #56	; 0x38
 800101c:	f000 fe2c 	bl	8001c78 <ArcadeIT_Serial_Port_String_Send>
      sprintf(lString, "%s", lFileStatus == FR_OK ? "File created.\r\n" : "Problems in creating the file.\r\n");
 8001020:	2500      	movs	r5, #0
 8001022:	f04f 6700 	mov.w	r7, #134217728	; 0x8000000
 8001026:	f44f 1600 	mov.w	r6, #2097152	; 0x200000
 800102a:	e01b      	b.n	8001064 <ArcadeIT_Test_Bench+0xdc>
 800102c:	4935      	ldr	r1, [pc, #212]	; (8001104 <ArcadeIT_Test_Bench+0x17c>)
 800102e:	e7f1      	b.n	8001014 <ArcadeIT_Test_Bench+0x8c>


    // store the content of the FLASH int the file
    while (lBytesToSave)
    {
      lLastTime = SYS_MCU_CYCLES();
 8001030:	f8df 80e4 	ldr.w	r8, [pc, #228]	; 8001118 <ArcadeIT_Test_Bench+0x190>
 8001034:	f8d8 9004 	ldr.w	r9, [r8, #4]
      lFileStatus += f_write(&lFile, lMemoryFrom, 4096, &lBytesRead);
 8001038:	ab02      	add	r3, sp, #8
 800103a:	f44f 5280 	mov.w	r2, #4096	; 0x1000
 800103e:	4639      	mov	r1, r7
 8001040:	a803      	add	r0, sp, #12
 8001042:	f002 fd33 	bl	8003aac <f_write>
 8001046:	4404      	add	r4, r0
 8001048:	b2e4      	uxtb	r4, r4
      lCurrentTime = SYS_MCU_CYCLES();
 800104a:	f8d8 3004 	ldr.w	r3, [r8, #4]
      lTimeElapsed += (lCurrentTime - lLastTime);
 800104e:	eba3 0309 	sub.w	r3, r3, r9
 8001052:	441d      	add	r5, r3

      if (lBytesRead != 4096) break;
 8001054:	9b02      	ldr	r3, [sp, #8]
 8001056:	f5b3 5f80 	cmp.w	r3, #4096	; 0x1000
 800105a:	d105      	bne.n	8001068 <ArcadeIT_Test_Bench+0xe0>
      lMemoryFrom += 4096;
 800105c:	f507 5780 	add.w	r7, r7, #4096	; 0x1000
      lBytesToSave -= 4096;
 8001060:	f5a6 5680 	sub.w	r6, r6, #4096	; 0x1000
    while (lBytesToSave)
 8001064:	2e00      	cmp	r6, #0
 8001066:	d1e3      	bne.n	8001030 <ArcadeIT_Test_Bench+0xa8>

    } // end while

    if (gDevices & ARCADEIT_DEVICE_SERIAL)
 8001068:	4b1f      	ldr	r3, [pc, #124]	; (80010e8 <ArcadeIT_Test_Bench+0x160>)
 800106a:	681b      	ldr	r3, [r3, #0]
 800106c:	f413 4f80 	tst.w	r3, #16384	; 0x4000
 8001070:	d016      	beq.n	80010a0 <ArcadeIT_Test_Bench+0x118>
    {
      sprintf(lString, "Transfer rate: %0.2f kB/s\r\n", 2048/(lTimeElapsed*0.00000000555));
 8001072:	4628      	mov	r0, r5
 8001074:	f7ff fa5e 	bl	8000534 <__aeabi_ui2d>
 8001078:	a317      	add	r3, pc, #92	; (adr r3, 80010d8 <ArcadeIT_Test_Bench+0x150>)
 800107a:	e9d3 2300 	ldrd	r2, r3, [r3]
 800107e:	f7ff fad3 	bl	8000628 <__aeabi_dmul>
 8001082:	4602      	mov	r2, r0
 8001084:	460b      	mov	r3, r1
 8001086:	2000      	movs	r0, #0
 8001088:	491f      	ldr	r1, [pc, #124]	; (8001108 <ArcadeIT_Test_Bench+0x180>)
 800108a:	f7ff fbf7 	bl	800087c <__aeabi_ddiv>
 800108e:	4602      	mov	r2, r0
 8001090:	460b      	mov	r3, r1
 8001092:	491e      	ldr	r1, [pc, #120]	; (800110c <ArcadeIT_Test_Bench+0x184>)
 8001094:	a80e      	add	r0, sp, #56	; 0x38
 8001096:	f003 ffbf 	bl	8005018 <siprintf>
      ArcadeIT_Serial_Port_String_Send(lString);
 800109a:	a80e      	add	r0, sp, #56	; 0x38
 800109c:	f000 fdec 	bl	8001c78 <ArcadeIT_Serial_Port_String_Send>

    } // End if.

    if (gDevices & ARCADEIT_DEVICE_SERIAL)
 80010a0:	4b11      	ldr	r3, [pc, #68]	; (80010e8 <ArcadeIT_Test_Bench+0x160>)
 80010a2:	681b      	ldr	r3, [r3, #0]
 80010a4:	f413 4f80 	tst.w	r3, #16384	; 0x4000
 80010a8:	d007      	beq.n	80010ba <ArcadeIT_Test_Bench+0x132>
    {
      sprintf(lString, "%s", lFileStatus == FR_OK ? "Firmware saved.\r\n" : "Problems in saving the file.\r\n");
 80010aa:	b99c      	cbnz	r4, 80010d4 <ArcadeIT_Test_Bench+0x14c>
 80010ac:	4918      	ldr	r1, [pc, #96]	; (8001110 <ArcadeIT_Test_Bench+0x188>)
 80010ae:	a80e      	add	r0, sp, #56	; 0x38
 80010b0:	f003 ffd2 	bl	8005058 <strcpy>
      ArcadeIT_Serial_Port_String_Send(lString);
 80010b4:	a80e      	add	r0, sp, #56	; 0x38
 80010b6:	f000 fddf 	bl	8001c78 <ArcadeIT_Serial_Port_String_Send>

    } // end if

    // close file
    f_close(&lFile);
 80010ba:	a803      	add	r0, sp, #12
 80010bc:	f002 fe13 	bl	8003ce6 <f_close>

    ArcadeIT_Status_LED2_Toggle();
 80010c0:	f000 ff1c 	bl	8001efc <ArcadeIT_Status_LED2_Toggle>

  while (1)
  {

    // Periodic tasks
    if (gUnits & ARCADEIT_UNIT_SCHEDULER)
 80010c4:	4b06      	ldr	r3, [pc, #24]	; (80010e0 <ArcadeIT_Test_Bench+0x158>)
 80010c6:	681b      	ldr	r3, [r3, #0]
 80010c8:	f413 7f80 	tst.w	r3, #256	; 0x100
 80010cc:	d0fa      	beq.n	80010c4 <ArcadeIT_Test_Bench+0x13c>
    {
      ArcadeIT_Scheduler_Run();
 80010ce:	f001 f81b 	bl	8002108 <ArcadeIT_Scheduler_Run>
 80010d2:	e7f7      	b.n	80010c4 <ArcadeIT_Test_Bench+0x13c>
      sprintf(lString, "%s", lFileStatus == FR_OK ? "Firmware saved.\r\n" : "Problems in saving the file.\r\n");
 80010d4:	490f      	ldr	r1, [pc, #60]	; (8001114 <ArcadeIT_Test_Bench+0x18c>)
 80010d6:	e7ea      	b.n	80010ae <ArcadeIT_Test_Bench+0x126>
 80010d8:	1ee91688 	.word	0x1ee91688
 80010dc:	3e37d64a 	.word	0x3e37d64a
 80010e0:	2000020c 	.word	0x2000020c
 80010e4:	20000200 	.word	0x20000200
 80010e8:	200001f8 	.word	0x200001f8
 80010ec:	00034030 	.word	0x00034030
 80010f0:	08001ed5 	.word	0x08001ed5
 80010f4:	0800688c 	.word	0x0800688c
 80010f8:	08006890 	.word	0x08006890
 80010fc:	080068ac 	.word	0x080068ac
 8001100:	08006824 	.word	0x08006824
 8001104:	08006834 	.word	0x08006834
 8001108:	40a00000 	.word	0x40a00000
 800110c:	080068cc 	.word	0x080068cc
 8001110:	08006858 	.word	0x08006858
 8001114:	0800686c 	.word	0x0800686c
 8001118:	e0001000 	.word	0xe0001000

0800111c <ArcadeIT_Utility_Get_String_ID>:
  * PARAMETERS:  See above.
  * RETURNS:     Nothing.
  */

  // Temporary character.
  uint32_t lTempCharacter = 0;
 800111c:	2300      	movs	r3, #0

  char *msg = pBuffer;

  // Go through the characters of the string provided and transform them to upper case.
  while (lTempCharacter != pId)
 800111e:	e000      	b.n	8001122 <ArcadeIT_Utility_Get_String_ID+0x6>
{
 8001120:	4611      	mov	r1, r2
  while (lTempCharacter != pId)
 8001122:	4283      	cmp	r3, r0
 8001124:	d005      	beq.n	8001132 <ArcadeIT_Utility_Get_String_ID+0x16>
  {
    if (*msg++ == '\0') lTempCharacter++;
 8001126:	1c4a      	adds	r2, r1, #1
 8001128:	7809      	ldrb	r1, [r1, #0]
 800112a:	2900      	cmp	r1, #0
 800112c:	d1f8      	bne.n	8001120 <ArcadeIT_Utility_Get_String_ID+0x4>
 800112e:	3301      	adds	r3, #1
 8001130:	e7f6      	b.n	8001120 <ArcadeIT_Utility_Get_String_ID+0x4>

  } // End while.

  return msg;

} // End ArcadeIT_Utility_Get_String_ID.
 8001132:	4608      	mov	r0, r1
 8001134:	4770      	bx	lr
	...

08001138 <ArcadeIT_I2C_Port_Init>:

// -----------------------------------------------------------------------------
void ArcadeIT_I2C_Port_Init(
    uint32_t pClock     // The frequency clock of the I2C device
    )
{
 8001138:	b538      	push	{r3, r4, r5, lr}
 800113a:	4605      	mov	r5, r0
  uint32_t lPinPosition;

  // configure the pins of the I2C
  lPinPosition = (SYS_I2C_SCL_PIN_NO * 2);

  if ((RCC->AHB1ENR & RCC_AHB1Periph_GPIOH) == FALSE) RCC->AHB1ENR |= RCC_AHB1Periph_GPIOH;
 800113c:	4b55      	ldr	r3, [pc, #340]	; (8001294 <ArcadeIT_I2C_Port_Init+0x15c>)
 800113e:	6b1b      	ldr	r3, [r3, #48]	; 0x30
 8001140:	f013 0f80 	tst.w	r3, #128	; 0x80
 8001144:	d104      	bne.n	8001150 <ArcadeIT_I2C_Port_Init+0x18>
 8001146:	4a53      	ldr	r2, [pc, #332]	; (8001294 <ArcadeIT_I2C_Port_Init+0x15c>)
 8001148:	6b13      	ldr	r3, [r2, #48]	; 0x30
 800114a:	f043 0380 	orr.w	r3, r3, #128	; 0x80
 800114e:	6313      	str	r3, [r2, #48]	; 0x30
  if ((RCC->APB1ENR & RCC_APB1Periph_I2C2) == FALSE) RCC->APB1ENR |= RCC_APB1Periph_I2C2;
 8001150:	4b50      	ldr	r3, [pc, #320]	; (8001294 <ArcadeIT_I2C_Port_Init+0x15c>)
 8001152:	6c1b      	ldr	r3, [r3, #64]	; 0x40
 8001154:	f413 0f80 	tst.w	r3, #4194304	; 0x400000
 8001158:	d104      	bne.n	8001164 <ArcadeIT_I2C_Port_Init+0x2c>
 800115a:	4a4e      	ldr	r2, [pc, #312]	; (8001294 <ArcadeIT_I2C_Port_Init+0x15c>)
 800115c:	6c13      	ldr	r3, [r2, #64]	; 0x40
 800115e:	f443 0380 	orr.w	r3, r3, #4194304	; 0x400000
 8001162:	6413      	str	r3, [r2, #64]	; 0x40

  // Configure the pin PH4 as alternate function 4 (I2C SCL).
  SYS_I2C_SCL_PER->MODER   &= ~GPIO_MODER_MODER4;
 8001164:	4b4c      	ldr	r3, [pc, #304]	; (8001298 <ArcadeIT_I2C_Port_Init+0x160>)
 8001166:	681a      	ldr	r2, [r3, #0]
 8001168:	f422 7240 	bic.w	r2, r2, #768	; 0x300
 800116c:	601a      	str	r2, [r3, #0]
  SYS_I2C_SCL_PER->MODER   |= (((uint32_t)GPIO_Mode_AF) << lPinPosition);
 800116e:	681a      	ldr	r2, [r3, #0]
 8001170:	f442 7200 	orr.w	r2, r2, #512	; 0x200
 8001174:	601a      	str	r2, [r3, #0]
  SYS_I2C_SCL_PER->OSPEEDR &= ~GPIO_OSPEEDER_OSPEEDR4;
 8001176:	689a      	ldr	r2, [r3, #8]
 8001178:	f422 7240 	bic.w	r2, r2, #768	; 0x300
 800117c:	609a      	str	r2, [r3, #8]
  SYS_I2C_SCL_PER->OSPEEDR |= ((uint32_t)(GPIO_Speed_2MHz) << lPinPosition);
 800117e:	689a      	ldr	r2, [r3, #8]
 8001180:	609a      	str	r2, [r3, #8]
  SYS_I2C_SCL_PER->OTYPER  &= ~GPIO_OTYPER_OT_4;
 8001182:	685a      	ldr	r2, [r3, #4]
 8001184:	f022 0210 	bic.w	r2, r2, #16
 8001188:	605a      	str	r2, [r3, #4]
  SYS_I2C_SCL_PER->OTYPER  |= (uint16_t)(GPIO_OType_OD << SYS_I2C_SCL_PIN_NO);
 800118a:	685a      	ldr	r2, [r3, #4]
 800118c:	f042 0210 	orr.w	r2, r2, #16
 8001190:	605a      	str	r2, [r3, #4]
  SYS_I2C_SCL_PER->PUPDR   &= ~GPIO_PUPDR_PUPDR4;
 8001192:	68da      	ldr	r2, [r3, #12]
 8001194:	f422 7240 	bic.w	r2, r2, #768	; 0x300
 8001198:	60da      	str	r2, [r3, #12]
  SYS_I2C_SCL_PER->PUPDR   |= (((uint32_t)GPIO_PuPd_NOPULL) << lPinPosition);
 800119a:	68da      	ldr	r2, [r3, #12]
 800119c:	60da      	str	r2, [r3, #12]
  SYS_I2C_SCL_PER->AFR[0]  &= ~((uint32_t)0xF << ((uint32_t)((uint32_t)SYS_I2C_SCL_PIN_NO & (uint32_t)0x07) * 4));
 800119e:	6a1a      	ldr	r2, [r3, #32]
 80011a0:	f422 2270 	bic.w	r2, r2, #983040	; 0xf0000
 80011a4:	621a      	str	r2, [r3, #32]
  SYS_I2C_SCL_PER->AFR[0]  |= ((uint32_t)(SYS_I2C_AF) << ((uint32_t)((uint32_t)SYS_I2C_SCL_PIN_NO & (uint32_t)0x07) * 4));
 80011a6:	6a1a      	ldr	r2, [r3, #32]
 80011a8:	f442 2280 	orr.w	r2, r2, #262144	; 0x40000
 80011ac:	621a      	str	r2, [r3, #32]

  lPinPosition = (SYS_I2C_SDA_PIN_NO * 2);

  // Configure the pin PH5 as alternate function 4 (I2C SDA).
  SYS_I2C_SDA_PER->MODER   &= ~GPIO_MODER_MODER5;
 80011ae:	681a      	ldr	r2, [r3, #0]
 80011b0:	f422 6240 	bic.w	r2, r2, #3072	; 0xc00
 80011b4:	601a      	str	r2, [r3, #0]
  SYS_I2C_SDA_PER->MODER   |= (((uint32_t)GPIO_Mode_AF) << lPinPosition);
 80011b6:	681a      	ldr	r2, [r3, #0]
 80011b8:	f442 6200 	orr.w	r2, r2, #2048	; 0x800
 80011bc:	601a      	str	r2, [r3, #0]
  SYS_I2C_SDA_PER->OSPEEDR &= ~GPIO_OSPEEDER_OSPEEDR5;
 80011be:	689a      	ldr	r2, [r3, #8]
 80011c0:	f422 6240 	bic.w	r2, r2, #3072	; 0xc00
 80011c4:	609a      	str	r2, [r3, #8]
  SYS_I2C_SDA_PER->OSPEEDR |= ((uint32_t)(GPIO_Speed_2MHz) << lPinPosition);
 80011c6:	689a      	ldr	r2, [r3, #8]
 80011c8:	609a      	str	r2, [r3, #8]
  SYS_I2C_SDA_PER->OTYPER  &= ~GPIO_OTYPER_OT_5;
 80011ca:	685a      	ldr	r2, [r3, #4]
 80011cc:	f022 0220 	bic.w	r2, r2, #32
 80011d0:	605a      	str	r2, [r3, #4]
  SYS_I2C_SDA_PER->OTYPER  |= (uint16_t)(GPIO_OType_OD << SYS_I2C_SDA_PIN_NO);
 80011d2:	685a      	ldr	r2, [r3, #4]
 80011d4:	f042 0220 	orr.w	r2, r2, #32
 80011d8:	605a      	str	r2, [r3, #4]
  SYS_I2C_SDA_PER->PUPDR   &= ~GPIO_PUPDR_PUPDR5;
 80011da:	68da      	ldr	r2, [r3, #12]
 80011dc:	f422 6240 	bic.w	r2, r2, #3072	; 0xc00
 80011e0:	60da      	str	r2, [r3, #12]
  SYS_I2C_SDA_PER->PUPDR   |= (((uint32_t)GPIO_PuPd_NOPULL) << lPinPosition);
 80011e2:	68da      	ldr	r2, [r3, #12]
 80011e4:	60da      	str	r2, [r3, #12]
  SYS_I2C_SDA_PER->AFR[0] &= ~((uint32_t)0xF << ((uint32_t)((uint32_t)SYS_I2C_SDA_PIN_NO & (uint32_t)0x07) * 4)) ;
 80011e6:	6a1a      	ldr	r2, [r3, #32]
 80011e8:	f422 0270 	bic.w	r2, r2, #15728640	; 0xf00000
 80011ec:	621a      	str	r2, [r3, #32]
  SYS_I2C_SDA_PER->AFR[0] |= ((uint32_t)(SYS_I2C_AF) << ((uint32_t)((uint32_t)SYS_I2C_SDA_PIN_NO & (uint32_t)0x07) * 4));
 80011ee:	6a1a      	ldr	r2, [r3, #32]
 80011f0:	f442 0280 	orr.w	r2, r2, #4194304	; 0x400000
 80011f4:	621a      	str	r2, [r3, #32]

  // reset the I2C peripheral
  I2C2->CR1 |= I2C_CR1_SWRST;
 80011f6:	4c29      	ldr	r4, [pc, #164]	; (800129c <ArcadeIT_I2C_Port_Init+0x164>)
 80011f8:	6823      	ldr	r3, [r4, #0]
 80011fa:	f443 4300 	orr.w	r3, r3, #32768	; 0x8000
 80011fe:	6023      	str	r3, [r4, #0]
  ArcadeIT_System_Delay(1000);
 8001200:	f44f 707a 	mov.w	r0, #1000	; 0x3e8
 8001204:	f7ff fd62 	bl	8000ccc <ArcadeIT_System_Delay>
  I2C2->CR1 = 0x0;
 8001208:	2300      	movs	r3, #0
 800120a:	6023      	str	r3, [r4, #0]

  // configure the I2C port
  I2C2->CR1 &= ~I2C_CR1_PE;
 800120c:	6823      	ldr	r3, [r4, #0]
 800120e:	f023 0301 	bic.w	r3, r3, #1
 8001212:	6023      	str	r3, [r4, #0]
  uint16_t result = 0x04;
  uint8_t lDuty = I2C_DUTY_2;

  freqrange = (apbclock / 1000000);

  I2C2->CR2 &= ~I2C_CR2_FREQ;
 8001214:	6863      	ldr	r3, [r4, #4]
 8001216:	f023 033f 	bic.w	r3, r3, #63	; 0x3f
 800121a:	6063      	str	r3, [r4, #4]
  I2C2->CR2 |= freqrange;
 800121c:	6863      	ldr	r3, [r4, #4]
 800121e:	f043 032d 	orr.w	r3, r3, #45	; 0x2d
 8001222:	6063      	str	r3, [r4, #4]

  // Configure speed in standard mode
  if (pClock <= 100000)
 8001224:	4b1e      	ldr	r3, [pc, #120]	; (80012a0 <ArcadeIT_I2C_Port_Init+0x168>)
 8001226:	429d      	cmp	r5, r3
 8001228:	d81f      	bhi.n	800126a <ArcadeIT_I2C_Port_Init+0x132>
  {
    // Standard mode speed calculate
    result = (uint16_t)(apbclock / (pClock << 1));
 800122a:	006d      	lsls	r5, r5, #1
 800122c:	481d      	ldr	r0, [pc, #116]	; (80012a4 <ArcadeIT_I2C_Port_Init+0x16c>)
 800122e:	fbb0 f0f5 	udiv	r0, r0, r5
 8001232:	b280      	uxth	r0, r0

    // Test if CCR value is under 0x4
    if (result < 0x04)
 8001234:	2803      	cmp	r0, #3
 8001236:	d800      	bhi.n	800123a <ArcadeIT_I2C_Port_Init+0x102>
    {
      // Set minimum allowed value
      result = 0x04;
 8001238:	2004      	movs	r0, #4

    // Set speed value for standard mode
    tmpreg |= result;

    // Set Maximum Rise Time for standard mode
    I2C2->TRISE = freqrange + 1;
 800123a:	4b18      	ldr	r3, [pc, #96]	; (800129c <ArcadeIT_I2C_Port_Init+0x164>)
 800123c:	222e      	movs	r2, #46	; 0x2e
 800123e:	621a      	str	r2, [r3, #32]
    // Set Maximum Rise Time for fast mode
    I2C2->TRISE = (uint16_t)(((freqrange * (uint16_t)300) / (uint16_t)1000) + (uint16_t)1);

  } // End if.

  I2C2->CCR = tmpreg;
 8001240:	4b16      	ldr	r3, [pc, #88]	; (800129c <ArcadeIT_I2C_Port_Init+0x164>)
 8001242:	61d8      	str	r0, [r3, #28]
  I2C2->OAR1 = I2C_AcknowledgedAddress_7bit;
 8001244:	f44f 4280 	mov.w	r2, #16384	; 0x4000
 8001248:	609a      	str	r2, [r3, #8]
  I2C2->OAR2 = 0;
 800124a:	2200      	movs	r2, #0
 800124c:	60da      	str	r2, [r3, #12]
  I2C2->CR1 |= I2C_CR1_ACK;
 800124e:	681a      	ldr	r2, [r3, #0]
 8001250:	f442 6280 	orr.w	r2, r2, #1024	; 0x400
 8001254:	601a      	str	r2, [r3, #0]
  I2C2->CR1 |= I2C_CR1_PE;
 8001256:	681a      	ldr	r2, [r3, #0]
 8001258:	f042 0201 	orr.w	r2, r2, #1
 800125c:	601a      	str	r2, [r3, #0]

  // Shows a message to serial port as debug
  if (gDevices & ARCADEIT_DEVICE_SERIAL)
 800125e:	4b12      	ldr	r3, [pc, #72]	; (80012a8 <ArcadeIT_I2C_Port_Init+0x170>)
 8001260:	681b      	ldr	r3, [r3, #0]
 8001262:	f413 4f80 	tst.w	r3, #16384	; 0x4000
 8001266:	d111      	bne.n	800128c <ArcadeIT_I2C_Port_Init+0x154>
  {
    ArcadeIT_Serial_Port_String_Send(TEXT_I2C_INITED);

  } // End if.

} // end ArcadeIT_I2C_Port_Init
 8001268:	bd38      	pop	{r3, r4, r5, pc}
      result = (uint16_t)(apbclock / (pClock * 3));
 800126a:	eb05 0545 	add.w	r5, r5, r5, lsl #1
 800126e:	480d      	ldr	r0, [pc, #52]	; (80012a4 <ArcadeIT_I2C_Port_Init+0x16c>)
 8001270:	fbb0 f5f5 	udiv	r5, r0, r5
 8001274:	b2a8      	uxth	r0, r5
    if ((result & I2C_CCR_CCR) == 0)
 8001276:	f3c5 050b 	ubfx	r5, r5, #0, #12
 800127a:	b90d      	cbnz	r5, 8001280 <ArcadeIT_I2C_Port_Init+0x148>
      result |= (uint16_t)0x0001;
 800127c:	f040 0001 	orr.w	r0, r0, #1
    tmpreg |= (uint16_t)(result | I2C_CCR_FS);
 8001280:	f440 4000 	orr.w	r0, r0, #32768	; 0x8000
    I2C2->TRISE = (uint16_t)(((freqrange * (uint16_t)300) / (uint16_t)1000) + (uint16_t)1);
 8001284:	4b05      	ldr	r3, [pc, #20]	; (800129c <ArcadeIT_I2C_Port_Init+0x164>)
 8001286:	220e      	movs	r2, #14
 8001288:	621a      	str	r2, [r3, #32]
 800128a:	e7d9      	b.n	8001240 <ArcadeIT_I2C_Port_Init+0x108>
    ArcadeIT_Serial_Port_String_Send(TEXT_I2C_INITED);
 800128c:	4807      	ldr	r0, [pc, #28]	; (80012ac <ArcadeIT_I2C_Port_Init+0x174>)
 800128e:	f000 fcf3 	bl	8001c78 <ArcadeIT_Serial_Port_String_Send>
} // end ArcadeIT_I2C_Port_Init
 8001292:	e7e9      	b.n	8001268 <ArcadeIT_I2C_Port_Init+0x130>
 8001294:	40023800 	.word	0x40023800
 8001298:	40021c00 	.word	0x40021c00
 800129c:	40005800 	.word	0x40005800
 80012a0:	000186a0 	.word	0x000186a0
 80012a4:	02aea540 	.word	0x02aea540
 80012a8:	200001f8 	.word	0x200001f8
 80012ac:	080068e8 	.word	0x080068e8

080012b0 <wait_ready>:
// /////////////////////////////////////////////////////////////////////////////
static int32_t wait_ready
(
  uint32_t pTimeOut   // Timeout in milliseconds.
)
{
 80012b0:	b508      	push	{r3, lr}
  // pTimeOut:  Timeout [ms]
  // lReturnValue : 1:Ready, 0:Timeout

  uint8_t lData;

  gSecondaryTimer = pTimeOut;
 80012b2:	4b08      	ldr	r3, [pc, #32]	; (80012d4 <wait_ready+0x24>)
 80012b4:	6018      	str	r0, [r3, #0]

  do {
    lData = ArcadeIT_SPI_Port_RW_Byte(DUMMY_BYTE);
 80012b6:	20ff      	movs	r0, #255	; 0xff
 80012b8:	f000 fbb6 	bl	8001a28 <ArcadeIT_SPI_Port_RW_Byte>
    // This loop takes a time. Insert rot_rdq() here for multi task environment.

  } while (lData != DUMMY_BYTE && gSecondaryTimer); // Wait for card goes ready or timeout
 80012bc:	28ff      	cmp	r0, #255	; 0xff
 80012be:	d003      	beq.n	80012c8 <wait_ready+0x18>
 80012c0:	4b04      	ldr	r3, [pc, #16]	; (80012d4 <wait_ready+0x24>)
 80012c2:	681b      	ldr	r3, [r3, #0]
 80012c4:	2b00      	cmp	r3, #0
 80012c6:	d1f6      	bne.n	80012b6 <wait_ready+0x6>

  return (lData == DUMMY_BYTE) ? 1 : 0;

} // End wait_ready.
 80012c8:	28ff      	cmp	r0, #255	; 0xff
 80012ca:	bf14      	ite	ne
 80012cc:	2000      	movne	r0, #0
 80012ce:	2001      	moveq	r0, #1
 80012d0:	bd08      	pop	{r3, pc}
 80012d2:	bf00      	nop
 80012d4:	200001fc 	.word	0x200001fc

080012d8 <sd_deselect>:

// /////////////////////////////////////////////////////////////////////////////
static void sd_deselect(void)
{
 80012d8:	b508      	push	{r3, lr}
  // Deselect card and release SPI.
  SYS_SPI_CS_HIGH();
 80012da:	4a04      	ldr	r2, [pc, #16]	; (80012ec <sd_deselect+0x14>)
 80012dc:	6953      	ldr	r3, [r2, #20]
 80012de:	f043 0310 	orr.w	r3, r3, #16
 80012e2:	6153      	str	r3, [r2, #20]

  // Dummy clock (force DO hi-z for multiple slave SPI).
  ArcadeIT_SPI_Port_RW_Byte(DUMMY_BYTE);
 80012e4:	20ff      	movs	r0, #255	; 0xff
 80012e6:	f000 fb9f 	bl	8001a28 <ArcadeIT_SPI_Port_RW_Byte>

} // End sd_deselect.
 80012ea:	bd08      	pop	{r3, pc}
 80012ec:	40020800 	.word	0x40020800

080012f0 <sd_select>:

// /////////////////////////////////////////////////////////////////////////////
static int sd_select (void) /* 1:OK, 0:Timeout */
{
 80012f0:	b508      	push	{r3, lr}
  // Select card and wait for ready
  // lReturnValue :  1:OK, 0:Timeout
  SYS_SPI_CS_LOW();
 80012f2:	4a09      	ldr	r2, [pc, #36]	; (8001318 <sd_select+0x28>)
 80012f4:	6953      	ldr	r3, [r2, #20]
 80012f6:	f023 0310 	bic.w	r3, r3, #16
 80012fa:	6153      	str	r3, [r2, #20]

  // Dummy clock (force DO enabled).
  ArcadeIT_SPI_Port_RW_Byte(DUMMY_BYTE);
 80012fc:	20ff      	movs	r0, #255	; 0xff
 80012fe:	f000 fb93 	bl	8001a28 <ArcadeIT_SPI_Port_RW_Byte>

  if (wait_ready(ARCADEIT_MILLISECOND)) return TRUE; // OK
 8001302:	f44f 707a 	mov.w	r0, #1000	; 0x3e8
 8001306:	f7ff ffd3 	bl	80012b0 <wait_ready>
 800130a:	b108      	cbz	r0, 8001310 <sd_select+0x20>
 800130c:	2001      	movs	r0, #1

  sd_deselect();

  return FALSE; // Timeout.

} // End sd_select.
 800130e:	bd08      	pop	{r3, pc}
  sd_deselect();
 8001310:	f7ff ffe2 	bl	80012d8 <sd_deselect>
  return FALSE; // Timeout.
 8001314:	2000      	movs	r0, #0
 8001316:	e7fa      	b.n	800130e <sd_select+0x1e>
 8001318:	40020800 	.word	0x40020800

0800131c <send_cmd>:
(
  BYTE  pCommand,   // Command index
  DWORD pArgument   // Argument
                    // Return value: R1 resp (bit7==1:Failed to send)
)
{
 800131c:	b538      	push	{r3, r4, r5, lr}
 800131e:	4604      	mov	r4, r0
 8001320:	460d      	mov	r5, r1
  BYTE n, lResult;

  uint8_t lData;

  if (pCommand & 0x80)
 8001322:	f010 0f80 	tst.w	r0, #128	; 0x80
 8001326:	d12c      	bne.n	8001382 <send_cmd+0x66>
    if (lResult > 1) return lResult;

  } // End if.

  // Select the card and wait for ready except to stop multiple block read.
  if (pCommand != CMD12)
 8001328:	2c0c      	cmp	r4, #12
 800132a:	d004      	beq.n	8001336 <send_cmd+0x1a>
  {
    sd_deselect();
 800132c:	f7ff ffd4 	bl	80012d8 <sd_deselect>

    if (!sd_select()) return DUMMY_BYTE;
 8001330:	f7ff ffde 	bl	80012f0 <sd_select>
 8001334:	b3b0      	cbz	r0, 80013a4 <send_cmd+0x88>

  } // End if.

  // Send command packet.
  ArcadeIT_SPI_Port_RW_Byte(0x40 | pCommand);          // Start + command index
 8001336:	f044 0040 	orr.w	r0, r4, #64	; 0x40
 800133a:	f000 fb75 	bl	8001a28 <ArcadeIT_SPI_Port_RW_Byte>
  ArcadeIT_SPI_Port_RW_Byte((pArgument >> 24) & 0xFF); // Argument[31..24]
 800133e:	0e28      	lsrs	r0, r5, #24
 8001340:	f000 fb72 	bl	8001a28 <ArcadeIT_SPI_Port_RW_Byte>
  ArcadeIT_SPI_Port_RW_Byte((pArgument >> 16) & 0xFF); // Argument[23..16]
 8001344:	f3c5 4007 	ubfx	r0, r5, #16, #8
 8001348:	f000 fb6e 	bl	8001a28 <ArcadeIT_SPI_Port_RW_Byte>
  ArcadeIT_SPI_Port_RW_Byte((pArgument >> 8) & 0xFF);  // Argument[15..8]
 800134c:	f3c5 2007 	ubfx	r0, r5, #8, #8
 8001350:	f000 fb6a 	bl	8001a28 <ArcadeIT_SPI_Port_RW_Byte>
  ArcadeIT_SPI_Port_RW_Byte(pArgument & 0xFF);         // Argument[7..0]
 8001354:	b2e8      	uxtb	r0, r5
 8001356:	f000 fb67 	bl	8001a28 <ArcadeIT_SPI_Port_RW_Byte>

  lData = 0x01;                        // Dummy CRC + Stop.
  if (pCommand == CMD0) lData = 0x95;  // Valid CRC for CMD0(0).
 800135a:	b1dc      	cbz	r4, 8001394 <send_cmd+0x78>
  lData = 0x01;                        // Dummy CRC + Stop.
 800135c:	2001      	movs	r0, #1
  if (pCommand == CMD8) lData = 0x87;  // Valid CRC for CMD8(0x1AA).
 800135e:	2c08      	cmp	r4, #8
 8001360:	d01a      	beq.n	8001398 <send_cmd+0x7c>

  ArcadeIT_SPI_Port_RW_Byte(lData);
 8001362:	f000 fb61 	bl	8001a28 <ArcadeIT_SPI_Port_RW_Byte>

  // Receive command response.
  lData = DUMMY_BYTE;

  // Discard following one byte when CMD12.
  if (pCommand == CMD12) ArcadeIT_SPI_Port_RW_Byte(lData);
 8001366:	2c0c      	cmp	r4, #12
 8001368:	d018      	beq.n	800139c <send_cmd+0x80>
  if (pCommand == CMD8) lData = 0x87;  // Valid CRC for CMD8(0x1AA).
 800136a:	240a      	movs	r4, #10

  // Wait for response (10 bytes max).
  n = 10;
  do {
    lResult = ArcadeIT_SPI_Port_RW_Byte(lData);
 800136c:	20ff      	movs	r0, #255	; 0xff
 800136e:	f000 fb5b 	bl	8001a28 <ArcadeIT_SPI_Port_RW_Byte>

  } while ((lResult & 0x80) && --n);
 8001372:	f010 0f80 	tst.w	r0, #128	; 0x80
 8001376:	d003      	beq.n	8001380 <send_cmd+0x64>
 8001378:	1e63      	subs	r3, r4, #1
 800137a:	f013 04ff 	ands.w	r4, r3, #255	; 0xff
 800137e:	d1f5      	bne.n	800136c <send_cmd+0x50>

  // Return received response.
  return lResult;

} // End send_cmd.
 8001380:	bd38      	pop	{r3, r4, r5, pc}
    pCommand &= 0x7F;
 8001382:	f000 047f 	and.w	r4, r0, #127	; 0x7f
    lResult = send_cmd(CMD55, 0);
 8001386:	2100      	movs	r1, #0
 8001388:	2037      	movs	r0, #55	; 0x37
 800138a:	f7ff ffc7 	bl	800131c <send_cmd>
    if (lResult > 1) return lResult;
 800138e:	2801      	cmp	r0, #1
 8001390:	d8f6      	bhi.n	8001380 <send_cmd+0x64>
 8001392:	e7c9      	b.n	8001328 <send_cmd+0xc>
  if (pCommand == CMD0) lData = 0x95;  // Valid CRC for CMD0(0).
 8001394:	2095      	movs	r0, #149	; 0x95
 8001396:	e7e2      	b.n	800135e <send_cmd+0x42>
  if (pCommand == CMD8) lData = 0x87;  // Valid CRC for CMD8(0x1AA).
 8001398:	2087      	movs	r0, #135	; 0x87
 800139a:	e7e2      	b.n	8001362 <send_cmd+0x46>
  if (pCommand == CMD12) ArcadeIT_SPI_Port_RW_Byte(lData);
 800139c:	20ff      	movs	r0, #255	; 0xff
 800139e:	f000 fb43 	bl	8001a28 <ArcadeIT_SPI_Port_RW_Byte>
 80013a2:	e7e2      	b.n	800136a <send_cmd+0x4e>
    if (!sd_select()) return DUMMY_BYTE;
 80013a4:	20ff      	movs	r0, #255	; 0xff
 80013a6:	e7eb      	b.n	8001380 <send_cmd+0x64>

080013a8 <sd_read_block>:
{
 80013a8:	b538      	push	{r3, r4, r5, lr}
 80013aa:	4604      	mov	r4, r0
 80013ac:	460d      	mov	r5, r1
  gSecondaryTimer = 200;
 80013ae:	4b0e      	ldr	r3, [pc, #56]	; (80013e8 <sd_read_block+0x40>)
 80013b0:	22c8      	movs	r2, #200	; 0xc8
 80013b2:	601a      	str	r2, [r3, #0]
    lToken = ArcadeIT_SPI_Port_RW_Byte(DUMMY_BYTE);
 80013b4:	20ff      	movs	r0, #255	; 0xff
 80013b6:	f000 fb37 	bl	8001a28 <ArcadeIT_SPI_Port_RW_Byte>
  } while ((lToken == DUMMY_BYTE) && gSecondaryTimer);
 80013ba:	28ff      	cmp	r0, #255	; 0xff
 80013bc:	d103      	bne.n	80013c6 <sd_read_block+0x1e>
 80013be:	4b0a      	ldr	r3, [pc, #40]	; (80013e8 <sd_read_block+0x40>)
 80013c0:	681b      	ldr	r3, [r3, #0]
 80013c2:	2b00      	cmp	r3, #0
 80013c4:	d1f6      	bne.n	80013b4 <sd_read_block+0xc>
  if(lToken != 0xFE) return 0;
 80013c6:	28fe      	cmp	r0, #254	; 0xfe
 80013c8:	d001      	beq.n	80013ce <sd_read_block+0x26>
 80013ca:	2000      	movs	r0, #0
} // End sd_read_block.
 80013cc:	bd38      	pop	{r3, r4, r5, pc}
  ArcadeIT_SPI_Port_Read_Buffer(pBuffer, pNumberOfBytes);
 80013ce:	4629      	mov	r1, r5
 80013d0:	4620      	mov	r0, r4
 80013d2:	f000 fb45 	bl	8001a60 <ArcadeIT_SPI_Port_Read_Buffer>
  ArcadeIT_SPI_Port_RW_Byte(DUMMY_BYTE);
 80013d6:	20ff      	movs	r0, #255	; 0xff
 80013d8:	f000 fb26 	bl	8001a28 <ArcadeIT_SPI_Port_RW_Byte>
  ArcadeIT_SPI_Port_RW_Byte(DUMMY_BYTE);
 80013dc:	20ff      	movs	r0, #255	; 0xff
 80013de:	f000 fb23 	bl	8001a28 <ArcadeIT_SPI_Port_RW_Byte>
  return 1;
 80013e2:	2001      	movs	r0, #1
 80013e4:	e7f2      	b.n	80013cc <sd_read_block+0x24>
 80013e6:	bf00      	nop
 80013e8:	200001fc 	.word	0x200001fc

080013ec <sd_write_block>:
{
 80013ec:	b538      	push	{r3, r4, r5, lr}
 80013ee:	4605      	mov	r5, r0
 80013f0:	460c      	mov	r4, r1
  if (!wait_ready(500)) return 0;
 80013f2:	f44f 70fa 	mov.w	r0, #500	; 0x1f4
 80013f6:	f7ff ff5b 	bl	80012b0 <wait_ready>
 80013fa:	b908      	cbnz	r0, 8001400 <sd_write_block+0x14>
 80013fc:	2000      	movs	r0, #0
} // End sd_write_block.
 80013fe:	bd38      	pop	{r3, r4, r5, pc}
  ArcadeIT_SPI_Port_RW_Byte(pToken);
 8001400:	4620      	mov	r0, r4
 8001402:	f000 fb11 	bl	8001a28 <ArcadeIT_SPI_Port_RW_Byte>
  if (pToken != 0xFD)
 8001406:	2cfd      	cmp	r4, #253	; 0xfd
 8001408:	d013      	beq.n	8001432 <sd_write_block+0x46>
    ArcadeIT_SPI_Port_Write_Buffer(pBuffer, 512);
 800140a:	f44f 7100 	mov.w	r1, #512	; 0x200
 800140e:	4628      	mov	r0, r5
 8001410:	f000 fb33 	bl	8001a7a <ArcadeIT_SPI_Port_Write_Buffer>
    ArcadeIT_SPI_Port_RW_Byte(DUMMY_BYTE);
 8001414:	20ff      	movs	r0, #255	; 0xff
 8001416:	f000 fb07 	bl	8001a28 <ArcadeIT_SPI_Port_RW_Byte>
    ArcadeIT_SPI_Port_RW_Byte(DUMMY_BYTE);
 800141a:	20ff      	movs	r0, #255	; 0xff
 800141c:	f000 fb04 	bl	8001a28 <ArcadeIT_SPI_Port_RW_Byte>
    lResponse = ArcadeIT_SPI_Port_RW_Byte(DUMMY_BYTE);
 8001420:	20ff      	movs	r0, #255	; 0xff
 8001422:	f000 fb01 	bl	8001a28 <ArcadeIT_SPI_Port_RW_Byte>
    if ((lResponse & 0x1F) != 0x05) return 0;
 8001426:	f000 001f 	and.w	r0, r0, #31
 800142a:	2805      	cmp	r0, #5
 800142c:	d003      	beq.n	8001436 <sd_write_block+0x4a>
 800142e:	2000      	movs	r0, #0
 8001430:	e7e5      	b.n	80013fe <sd_write_block+0x12>
  return 1;
 8001432:	2001      	movs	r0, #1
 8001434:	e7e3      	b.n	80013fe <sd_write_block+0x12>
 8001436:	2001      	movs	r0, #1
 8001438:	e7e1      	b.n	80013fe <sd_write_block+0x12>
	...

0800143c <ArcadeIT_SDCard_Disk_Initialize>:

// /////////////////////////////////////////////////////////////////////////////
DSTATUS ArcadeIT_SDCard_Disk_Initialize(void)
{
 800143c:	b570      	push	{r4, r5, r6, lr}
 800143e:	b082      	sub	sp, #8
  //ArcadeIT_SPI_Port_Init();

  // Check if drive is ready.
  //if (gStatus[DEV_SD] & STA_NOINIT) return RES_NOTRDY;

  SYS_SPI_SLOW();
 8001440:	4a4d      	ldr	r2, [pc, #308]	; (8001578 <ArcadeIT_SDCard_Disk_Initialize+0x13c>)
 8001442:	6813      	ldr	r3, [r2, #0]
 8001444:	f043 0338 	orr.w	r3, r3, #56	; 0x38
 8001448:	6013      	str	r3, [r2, #0]

  // Send 80 dummy clocks.
  for (n = 10; n; n--) ArcadeIT_SPI_Port_RW_Byte(DUMMY_BYTE);
 800144a:	240a      	movs	r4, #10
 800144c:	e004      	b.n	8001458 <ArcadeIT_SDCard_Disk_Initialize+0x1c>
 800144e:	20ff      	movs	r0, #255	; 0xff
 8001450:	f000 faea 	bl	8001a28 <ArcadeIT_SPI_Port_RW_Byte>
 8001454:	3c01      	subs	r4, #1
 8001456:	b2e4      	uxtb	r4, r4
 8001458:	2c00      	cmp	r4, #0
 800145a:	d1f8      	bne.n	800144e <ArcadeIT_SDCard_Disk_Initialize+0x12>

  ty = 0;
  if (send_cmd(CMD0, 0) == 1)
 800145c:	2100      	movs	r1, #0
 800145e:	4608      	mov	r0, r1
 8001460:	f7ff ff5c 	bl	800131c <send_cmd>
 8001464:	4605      	mov	r5, r0
 8001466:	2801      	cmp	r0, #1
 8001468:	d00c      	beq.n	8001484 <ArcadeIT_SDCard_Disk_Initialize+0x48>

    } // End if.

  } // End if.

  gCardType = ty;  // Card type
 800146a:	4b44      	ldr	r3, [pc, #272]	; (800157c <ArcadeIT_SDCard_Disk_Initialize+0x140>)
 800146c:	701c      	strb	r4, [r3, #0]

  sd_deselect();
 800146e:	f7ff ff33 	bl	80012d8 <sd_deselect>

  if (ty)
 8001472:	2c00      	cmp	r4, #0
 8001474:	d173      	bne.n	800155e <ArcadeIT_SDCard_Disk_Initialize+0x122>
    gStatus[DEV_SD] &= ~STA_NOINIT;  // Clear STA_NOINIT flag
  }
  else
  {
    // Failed
    gStatus[DEV_SD] = STA_NOINIT;
 8001476:	4b42      	ldr	r3, [pc, #264]	; (8001580 <ArcadeIT_SDCard_Disk_Initialize+0x144>)
 8001478:	2201      	movs	r2, #1
 800147a:	705a      	strb	r2, [r3, #1]

  } // End if.

  return gStatus[DEV_SD];

} // End ArcadeIT_SDCard_Disk_Initialize.
 800147c:	4b40      	ldr	r3, [pc, #256]	; (8001580 <ArcadeIT_SDCard_Disk_Initialize+0x144>)
 800147e:	7858      	ldrb	r0, [r3, #1]
 8001480:	b002      	add	sp, #8
 8001482:	bd70      	pop	{r4, r5, r6, pc}
    if (send_cmd(CMD8, 0x1AA) == 1)
 8001484:	f44f 71d5 	mov.w	r1, #426	; 0x1aa
 8001488:	2008      	movs	r0, #8
 800148a:	f7ff ff47 	bl	800131c <send_cmd>
 800148e:	2801      	cmp	r0, #1
 8001490:	d13f      	bne.n	8001512 <ArcadeIT_SDCard_Disk_Initialize+0xd6>
      for (n = 0; n < 4; n++)
 8001492:	4625      	mov	r5, r4
 8001494:	e008      	b.n	80014a8 <ArcadeIT_SDCard_Disk_Initialize+0x6c>
        lData = ArcadeIT_SPI_Port_RW_Byte(DUMMY_BYTE);
 8001496:	20ff      	movs	r0, #255	; 0xff
 8001498:	f000 fac6 	bl	8001a28 <ArcadeIT_SPI_Port_RW_Byte>
        ocr[n] = lData;
 800149c:	ab02      	add	r3, sp, #8
 800149e:	442b      	add	r3, r5
 80014a0:	f803 0c04 	strb.w	r0, [r3, #-4]
      for (n = 0; n < 4; n++)
 80014a4:	3501      	adds	r5, #1
 80014a6:	b2ed      	uxtb	r5, r5
 80014a8:	2d03      	cmp	r5, #3
 80014aa:	d9f4      	bls.n	8001496 <ArcadeIT_SDCard_Disk_Initialize+0x5a>
      if (ocr[2] == 0x01 && ocr[3] == 0xAA)
 80014ac:	f89d 3006 	ldrb.w	r3, [sp, #6]
 80014b0:	2b01      	cmp	r3, #1
 80014b2:	d1da      	bne.n	800146a <ArcadeIT_SDCard_Disk_Initialize+0x2e>
 80014b4:	f89d 3007 	ldrb.w	r3, [sp, #7]
 80014b8:	2baa      	cmp	r3, #170	; 0xaa
 80014ba:	d1d6      	bne.n	800146a <ArcadeIT_SDCard_Disk_Initialize+0x2e>
        gSecondaryTimer = ARCADEIT_MILLISECOND;
 80014bc:	4b31      	ldr	r3, [pc, #196]	; (8001584 <ArcadeIT_SDCard_Disk_Initialize+0x148>)
 80014be:	f44f 727a 	mov.w	r2, #1000	; 0x3e8
 80014c2:	601a      	str	r2, [r3, #0]
        while (gSecondaryTimer && send_cmd(ACMD41, 1UL << 30)); // Wait for end of initialization with ACMD41(HCS)
 80014c4:	4b2f      	ldr	r3, [pc, #188]	; (8001584 <ArcadeIT_SDCard_Disk_Initialize+0x148>)
 80014c6:	681b      	ldr	r3, [r3, #0]
 80014c8:	b133      	cbz	r3, 80014d8 <ArcadeIT_SDCard_Disk_Initialize+0x9c>
 80014ca:	f04f 4180 	mov.w	r1, #1073741824	; 0x40000000
 80014ce:	20a9      	movs	r0, #169	; 0xa9
 80014d0:	f7ff ff24 	bl	800131c <send_cmd>
 80014d4:	2800      	cmp	r0, #0
 80014d6:	d1f5      	bne.n	80014c4 <ArcadeIT_SDCard_Disk_Initialize+0x88>
        if (gSecondaryTimer && send_cmd(CMD58, 0) == 0)
 80014d8:	4b2a      	ldr	r3, [pc, #168]	; (8001584 <ArcadeIT_SDCard_Disk_Initialize+0x148>)
 80014da:	681b      	ldr	r3, [r3, #0]
 80014dc:	2b00      	cmp	r3, #0
 80014de:	d0c4      	beq.n	800146a <ArcadeIT_SDCard_Disk_Initialize+0x2e>
 80014e0:	2100      	movs	r1, #0
 80014e2:	203a      	movs	r0, #58	; 0x3a
 80014e4:	f7ff ff1a 	bl	800131c <send_cmd>
 80014e8:	4605      	mov	r5, r0
 80014ea:	b148      	cbz	r0, 8001500 <ArcadeIT_SDCard_Disk_Initialize+0xc4>
 80014ec:	e7bd      	b.n	800146a <ArcadeIT_SDCard_Disk_Initialize+0x2e>
            lData = ArcadeIT_SPI_Port_RW_Byte(DUMMY_BYTE);
 80014ee:	20ff      	movs	r0, #255	; 0xff
 80014f0:	f000 fa9a 	bl	8001a28 <ArcadeIT_SPI_Port_RW_Byte>
            ocr[n] = lData;
 80014f4:	ab02      	add	r3, sp, #8
 80014f6:	442b      	add	r3, r5
 80014f8:	f803 0c04 	strb.w	r0, [r3, #-4]
          for (n = 0; n < 4; n++)
 80014fc:	3501      	adds	r5, #1
 80014fe:	b2ed      	uxtb	r5, r5
 8001500:	2d03      	cmp	r5, #3
 8001502:	d9f4      	bls.n	80014ee <ArcadeIT_SDCard_Disk_Initialize+0xb2>
          ty = (ocr[0] & 0x40) ? CT_SD2 | CT_BLOCK : CT_SD2;  // Card id SDv2
 8001504:	f89d 3004 	ldrb.w	r3, [sp, #4]
 8001508:	f013 0f40 	tst.w	r3, #64	; 0x40
 800150c:	d025      	beq.n	800155a <ArcadeIT_SDCard_Disk_Initialize+0x11e>
 800150e:	240c      	movs	r4, #12
 8001510:	e7ab      	b.n	800146a <ArcadeIT_SDCard_Disk_Initialize+0x2e>
      if (send_cmd(ACMD41, 0) <= 1)
 8001512:	2100      	movs	r1, #0
 8001514:	20a9      	movs	r0, #169	; 0xa9
 8001516:	f7ff ff01 	bl	800131c <send_cmd>
 800151a:	2801      	cmp	r0, #1
 800151c:	d91a      	bls.n	8001554 <ArcadeIT_SDCard_Disk_Initialize+0x118>
        ty = CT_MMC;
 800151e:	462e      	mov	r6, r5
      gSecondaryTimer = ARCADEIT_MILLISECOND;
 8001520:	4b18      	ldr	r3, [pc, #96]	; (8001584 <ArcadeIT_SDCard_Disk_Initialize+0x148>)
 8001522:	f44f 727a 	mov.w	r2, #1000	; 0x3e8
 8001526:	601a      	str	r2, [r3, #0]
      while (gSecondaryTimer && send_cmd(cmd, 0));    // Wait for end of initialization
 8001528:	4b16      	ldr	r3, [pc, #88]	; (8001584 <ArcadeIT_SDCard_Disk_Initialize+0x148>)
 800152a:	681b      	ldr	r3, [r3, #0]
 800152c:	b12b      	cbz	r3, 800153a <ArcadeIT_SDCard_Disk_Initialize+0xfe>
 800152e:	2100      	movs	r1, #0
 8001530:	4628      	mov	r0, r5
 8001532:	f7ff fef3 	bl	800131c <send_cmd>
 8001536:	2800      	cmp	r0, #0
 8001538:	d1f6      	bne.n	8001528 <ArcadeIT_SDCard_Disk_Initialize+0xec>
      if (!gSecondaryTimer || send_cmd(CMD16, 512) != 0) // Set block length: 512
 800153a:	4b12      	ldr	r3, [pc, #72]	; (8001584 <ArcadeIT_SDCard_Disk_Initialize+0x148>)
 800153c:	681b      	ldr	r3, [r3, #0]
 800153e:	2b00      	cmp	r3, #0
 8001540:	d093      	beq.n	800146a <ArcadeIT_SDCard_Disk_Initialize+0x2e>
 8001542:	f44f 7100 	mov.w	r1, #512	; 0x200
 8001546:	2010      	movs	r0, #16
 8001548:	f7ff fee8 	bl	800131c <send_cmd>
 800154c:	2800      	cmp	r0, #0
 800154e:	d18c      	bne.n	800146a <ArcadeIT_SDCard_Disk_Initialize+0x2e>
 8001550:	4634      	mov	r4, r6
 8001552:	e78a      	b.n	800146a <ArcadeIT_SDCard_Disk_Initialize+0x2e>
        ty = CT_SD1;
 8001554:	2602      	movs	r6, #2
        cmd = ACMD41;  // SDv1 (ACMD41(0))
 8001556:	25a9      	movs	r5, #169	; 0xa9
 8001558:	e7e2      	b.n	8001520 <ArcadeIT_SDCard_Disk_Initialize+0xe4>
          ty = (ocr[0] & 0x40) ? CT_SD2 | CT_BLOCK : CT_SD2;  // Card id SDv2
 800155a:	2404      	movs	r4, #4
 800155c:	e785      	b.n	800146a <ArcadeIT_SDCard_Disk_Initialize+0x2e>
    SYS_SPI_FAST();                      // Set fast clock
 800155e:	4a06      	ldr	r2, [pc, #24]	; (8001578 <ArcadeIT_SDCard_Disk_Initialize+0x13c>)
 8001560:	6813      	ldr	r3, [r2, #0]
 8001562:	f023 0338 	bic.w	r3, r3, #56	; 0x38
 8001566:	f043 0308 	orr.w	r3, r3, #8
 800156a:	6013      	str	r3, [r2, #0]
    gStatus[DEV_SD] &= ~STA_NOINIT;  // Clear STA_NOINIT flag
 800156c:	4a04      	ldr	r2, [pc, #16]	; (8001580 <ArcadeIT_SDCard_Disk_Initialize+0x144>)
 800156e:	7853      	ldrb	r3, [r2, #1]
 8001570:	f023 0301 	bic.w	r3, r3, #1
 8001574:	7053      	strb	r3, [r2, #1]
 8001576:	e781      	b.n	800147c <ArcadeIT_SDCard_Disk_Initialize+0x40>
 8001578:	40013000 	.word	0x40013000
 800157c:	20000660 	.word	0x20000660
 8001580:	20000004 	.word	0x20000004
 8001584:	200001fc 	.word	0x200001fc

08001588 <ArcadeIT_SDCard_Disk_Status>:
DSTATUS ArcadeIT_SDCard_Disk_Status (void)
{
  // Return disk status.
  return gStatus[DEV_SD];

} // End ArcadeIT_SDCard_Disk_Status.
 8001588:	4b01      	ldr	r3, [pc, #4]	; (8001590 <ArcadeIT_SDCard_Disk_Status+0x8>)
 800158a:	7858      	ldrb	r0, [r3, #1]
 800158c:	4770      	bx	lr
 800158e:	bf00      	nop
 8001590:	20000004 	.word	0x20000004

08001594 <ArcadeIT_SDCard_Disk_Read>:
  BYTE *pBuffer,   // Pointer to the data buffer to store read data
  DWORD pSector,   // Start pSector number (LBA)
  UINT  pCount     // Number of sectors to read (1..128)
)
{
  if (!pCount) return RES_PARERR;   // Check parameter
 8001594:	b3aa      	cbz	r2, 8001602 <ArcadeIT_SDCard_Disk_Read+0x6e>
{
 8001596:	b538      	push	{r3, r4, r5, lr}
 8001598:	4605      	mov	r5, r0
 800159a:	4614      	mov	r4, r2

  if (gStatus[DEV_SD] & STA_NOINIT) return RES_NOTRDY; // Check if drive is ready
 800159c:	4b1b      	ldr	r3, [pc, #108]	; (800160c <ArcadeIT_SDCard_Disk_Read+0x78>)
 800159e:	785b      	ldrb	r3, [r3, #1]
 80015a0:	f013 0f01 	tst.w	r3, #1
 80015a4:	d12f      	bne.n	8001606 <ArcadeIT_SDCard_Disk_Read+0x72>

  if (!(gCardType & CT_BLOCK)) pSector *= 512;  // LBA of BA conversion (byte addressing cards)
 80015a6:	4b1a      	ldr	r3, [pc, #104]	; (8001610 <ArcadeIT_SDCard_Disk_Read+0x7c>)
 80015a8:	781b      	ldrb	r3, [r3, #0]
 80015aa:	f013 0f08 	tst.w	r3, #8
 80015ae:	d100      	bne.n	80015b2 <ArcadeIT_SDCard_Disk_Read+0x1e>
 80015b0:	0249      	lsls	r1, r1, #9

  if (pCount == 1)
 80015b2:	2c01      	cmp	r4, #1
 80015b4:	d017      	beq.n	80015e6 <ArcadeIT_SDCard_Disk_Read+0x52>
    }
  }
  else
  {
    // Multiple pSector read
    if (send_cmd(CMD18, pSector) == 0)
 80015b6:	2012      	movs	r0, #18
 80015b8:	f7ff feb0 	bl	800131c <send_cmd>
 80015bc:	b968      	cbnz	r0, 80015da <ArcadeIT_SDCard_Disk_Read+0x46>
    {
      // READ_MULTIPLE_BLOCK
      do {
        if (!sd_read_block(pBuffer, 512)) break;
 80015be:	f44f 7100 	mov.w	r1, #512	; 0x200
 80015c2:	4628      	mov	r0, r5
 80015c4:	f7ff fef0 	bl	80013a8 <sd_read_block>
 80015c8:	b118      	cbz	r0, 80015d2 <ArcadeIT_SDCard_Disk_Read+0x3e>

        pBuffer += 512;
 80015ca:	f505 7500 	add.w	r5, r5, #512	; 0x200

      } while (--pCount);
 80015ce:	3c01      	subs	r4, #1
 80015d0:	d1f5      	bne.n	80015be <ArcadeIT_SDCard_Disk_Read+0x2a>

      // STOP_TRANSMISSION
      send_cmd(CMD12, 0);
 80015d2:	2100      	movs	r1, #0
 80015d4:	200c      	movs	r0, #12
 80015d6:	f7ff fea1 	bl	800131c <send_cmd>
    }
  }

  sd_deselect();
 80015da:	f7ff fe7d 	bl	80012d8 <sd_deselect>

  // Return result
  return pCount ? RES_ERROR : RES_OK;
 80015de:	1c20      	adds	r0, r4, #0
 80015e0:	bf18      	it	ne
 80015e2:	2001      	movne	r0, #1

} // End ArcadeIT_SDCard_Disk_Read.
 80015e4:	bd38      	pop	{r3, r4, r5, pc}
    if ((send_cmd(CMD17, pSector) == 0) && sd_read_block(pBuffer, 512))
 80015e6:	2011      	movs	r0, #17
 80015e8:	f7ff fe98 	bl	800131c <send_cmd>
 80015ec:	2800      	cmp	r0, #0
 80015ee:	d1f4      	bne.n	80015da <ArcadeIT_SDCard_Disk_Read+0x46>
 80015f0:	f44f 7100 	mov.w	r1, #512	; 0x200
 80015f4:	4628      	mov	r0, r5
 80015f6:	f7ff fed7 	bl	80013a8 <sd_read_block>
 80015fa:	2800      	cmp	r0, #0
 80015fc:	d0ed      	beq.n	80015da <ArcadeIT_SDCard_Disk_Read+0x46>
      pCount = 0;
 80015fe:	2400      	movs	r4, #0
 8001600:	e7eb      	b.n	80015da <ArcadeIT_SDCard_Disk_Read+0x46>
  if (!pCount) return RES_PARERR;   // Check parameter
 8001602:	2004      	movs	r0, #4
} // End ArcadeIT_SDCard_Disk_Read.
 8001604:	4770      	bx	lr
  if (gStatus[DEV_SD] & STA_NOINIT) return RES_NOTRDY; // Check if drive is ready
 8001606:	2003      	movs	r0, #3
 8001608:	e7ec      	b.n	80015e4 <ArcadeIT_SDCard_Disk_Read+0x50>
 800160a:	bf00      	nop
 800160c:	20000004 	.word	0x20000004
 8001610:	20000660 	.word	0x20000660

08001614 <ArcadeIT_SDCard_Disk_Write>:
  const BYTE *pBuffer,   // Pointer to the data to write
  DWORD pSector,   // Start pSector number (LBA)
  UINT  pCount     // Number of sectors to write (1..128)
)
{
  if (!pCount) return RES_PARERR;   // Check parameter
 8001614:	2a00      	cmp	r2, #0
 8001616:	d044      	beq.n	80016a2 <ArcadeIT_SDCard_Disk_Write+0x8e>
{
 8001618:	b570      	push	{r4, r5, r6, lr}
 800161a:	4605      	mov	r5, r0
 800161c:	460e      	mov	r6, r1
 800161e:	4614      	mov	r4, r2
  if (gStatus[DEV_SD] & STA_NOINIT) return RES_NOTRDY; // Check if drive is ready
 8001620:	4b23      	ldr	r3, [pc, #140]	; (80016b0 <ArcadeIT_SDCard_Disk_Write+0x9c>)
 8001622:	785b      	ldrb	r3, [r3, #1]
 8001624:	f013 0f01 	tst.w	r3, #1
 8001628:	d13d      	bne.n	80016a6 <ArcadeIT_SDCard_Disk_Write+0x92>
  if (gStatus[DEV_SD] & STA_PROTECT) return RES_WRPRT; // Check write protect
 800162a:	f013 0f04 	tst.w	r3, #4
 800162e:	d13c      	bne.n	80016aa <ArcadeIT_SDCard_Disk_Write+0x96>

  if (!(gCardType & CT_BLOCK)) pSector *= 512;  // LBA ==> BA conversion (byte addressing cards)
 8001630:	4b20      	ldr	r3, [pc, #128]	; (80016b4 <ArcadeIT_SDCard_Disk_Write+0xa0>)
 8001632:	781b      	ldrb	r3, [r3, #0]
 8001634:	f013 0f08 	tst.w	r3, #8
 8001638:	d100      	bne.n	800163c <ArcadeIT_SDCard_Disk_Write+0x28>
 800163a:	024e      	lsls	r6, r1, #9

  if (pCount == 1)
 800163c:	2c01      	cmp	r4, #1
 800163e:	d01b      	beq.n	8001678 <ArcadeIT_SDCard_Disk_Write+0x64>

    } // End if.
  }
  else
  {        // Multiple pSector write
    if (gCardType & CT_SDC) send_cmd(ACMD23, pCount); // Predefine number of sectors
 8001640:	f013 0f06 	tst.w	r3, #6
 8001644:	d126      	bne.n	8001694 <ArcadeIT_SDCard_Disk_Write+0x80>

    if (send_cmd(CMD25, pSector) == 0)
 8001646:	4631      	mov	r1, r6
 8001648:	2019      	movs	r0, #25
 800164a:	f7ff fe67 	bl	800131c <send_cmd>
 800164e:	b968      	cbnz	r0, 800166c <ArcadeIT_SDCard_Disk_Write+0x58>
    {
      // WRITE_MULTIPLE_BLOCK
      do {
        if (!sd_write_block((BYTE*)pBuffer, 0xFC)) break;
 8001650:	21fc      	movs	r1, #252	; 0xfc
 8001652:	4628      	mov	r0, r5
 8001654:	f7ff feca 	bl	80013ec <sd_write_block>
 8001658:	b118      	cbz	r0, 8001662 <ArcadeIT_SDCard_Disk_Write+0x4e>

        pBuffer += 512;
 800165a:	f505 7500 	add.w	r5, r5, #512	; 0x200

      } while (--pCount);
 800165e:	3c01      	subs	r4, #1
 8001660:	d1f6      	bne.n	8001650 <ArcadeIT_SDCard_Disk_Write+0x3c>

      if (!sd_write_block(0, 0xFD)) pCount = 1;  // STOP_TRAN token
 8001662:	21fd      	movs	r1, #253	; 0xfd
 8001664:	2000      	movs	r0, #0
 8001666:	f7ff fec1 	bl	80013ec <sd_write_block>
 800166a:	b1c0      	cbz	r0, 800169e <ArcadeIT_SDCard_Disk_Write+0x8a>

    } // End if.

  } // End if.

  sd_deselect();
 800166c:	f7ff fe34 	bl	80012d8 <sd_deselect>

  // Return result.
  return pCount ? RES_ERROR : RES_OK;
 8001670:	1c20      	adds	r0, r4, #0
 8001672:	bf18      	it	ne
 8001674:	2001      	movne	r0, #1

} // End ArcadeIT_SDCard_Disk_Write.
 8001676:	bd70      	pop	{r4, r5, r6, pc}
    if ((send_cmd(CMD24, pSector) == 0) && sd_write_block((BYTE*)pBuffer, 0xFE))
 8001678:	4631      	mov	r1, r6
 800167a:	2018      	movs	r0, #24
 800167c:	f7ff fe4e 	bl	800131c <send_cmd>
 8001680:	2800      	cmp	r0, #0
 8001682:	d1f3      	bne.n	800166c <ArcadeIT_SDCard_Disk_Write+0x58>
 8001684:	21fe      	movs	r1, #254	; 0xfe
 8001686:	4628      	mov	r0, r5
 8001688:	f7ff feb0 	bl	80013ec <sd_write_block>
 800168c:	2800      	cmp	r0, #0
 800168e:	d0ed      	beq.n	800166c <ArcadeIT_SDCard_Disk_Write+0x58>
      pCount = 0;
 8001690:	2400      	movs	r4, #0
 8001692:	e7eb      	b.n	800166c <ArcadeIT_SDCard_Disk_Write+0x58>
    if (gCardType & CT_SDC) send_cmd(ACMD23, pCount); // Predefine number of sectors
 8001694:	4621      	mov	r1, r4
 8001696:	2097      	movs	r0, #151	; 0x97
 8001698:	f7ff fe40 	bl	800131c <send_cmd>
 800169c:	e7d3      	b.n	8001646 <ArcadeIT_SDCard_Disk_Write+0x32>
      if (!sd_write_block(0, 0xFD)) pCount = 1;  // STOP_TRAN token
 800169e:	2401      	movs	r4, #1
 80016a0:	e7e4      	b.n	800166c <ArcadeIT_SDCard_Disk_Write+0x58>
  if (!pCount) return RES_PARERR;   // Check parameter
 80016a2:	2004      	movs	r0, #4
} // End ArcadeIT_SDCard_Disk_Write.
 80016a4:	4770      	bx	lr
  if (gStatus[DEV_SD] & STA_NOINIT) return RES_NOTRDY; // Check if drive is ready
 80016a6:	2003      	movs	r0, #3
 80016a8:	e7e5      	b.n	8001676 <ArcadeIT_SDCard_Disk_Write+0x62>
  if (gStatus[DEV_SD] & STA_PROTECT) return RES_WRPRT; // Check write protect
 80016aa:	2002      	movs	r0, #2
 80016ac:	e7e3      	b.n	8001676 <ArcadeIT_SDCard_Disk_Write+0x62>
 80016ae:	bf00      	nop
 80016b0:	20000004 	.word	0x20000004
 80016b4:	20000660 	.word	0x20000660

080016b8 <ArcadeIT_SDCard_Disk_Ioctl>:
DRESULT ArcadeIT_SDCard_Disk_Ioctl
(
  BYTE pCommand,   // Control command code
  void *pBuffer    // Pointer to the conrtol data
)
{
 80016b8:	b530      	push	{r4, r5, lr}
 80016ba:	b085      	sub	sp, #20
  DRESULT res;
  BYTE n, csd[16];
  DWORD *dp, st, ed, csize;

  if (gStatus[DEV_SD] & STA_NOINIT) return RES_NOTRDY; // Check if drive is ready
 80016bc:	4b83      	ldr	r3, [pc, #524]	; (80018cc <ArcadeIT_SDCard_Disk_Ioctl+0x214>)
 80016be:	785b      	ldrb	r3, [r3, #1]
 80016c0:	f013 0f01 	tst.w	r3, #1
 80016c4:	f040 80ff 	bne.w	80018c6 <ArcadeIT_SDCard_Disk_Ioctl+0x20e>
 80016c8:	460d      	mov	r5, r1

  res = RES_ERROR;

  switch (pCommand)
 80016ca:	2804      	cmp	r0, #4
 80016cc:	f200 80ef 	bhi.w	80018ae <ArcadeIT_SDCard_Disk_Ioctl+0x1f6>
 80016d0:	e8df f010 	tbh	[pc, r0, lsl #1]
 80016d4:	000c0005 	.word	0x000c0005
 80016d8:	005500ed 	.word	0x005500ed
 80016dc:	00b0      	.short	0x00b0
  {
    case CTRL_SYNC :    // Wait for end of internal write process of the drive
      if (sd_select()) res = RES_OK;
 80016de:	f7ff fe07 	bl	80012f0 <sd_select>
 80016e2:	2800      	cmp	r0, #0
 80016e4:	f040 80e5 	bne.w	80018b2 <ArcadeIT_SDCard_Disk_Ioctl+0x1fa>
  res = RES_ERROR;
 80016e8:	2401      	movs	r4, #1
 80016ea:	e005      	b.n	80016f8 <ArcadeIT_SDCard_Disk_Ioctl+0x40>
      break;

    case GET_SECTOR_COUNT : // Get drive capacity in unit of sector (DWORD)
      if ((send_cmd(CMD9, 0) == 0) && sd_read_block(csd, 16))
 80016ec:	2100      	movs	r1, #0
 80016ee:	2009      	movs	r0, #9
 80016f0:	f7ff fe14 	bl	800131c <send_cmd>
 80016f4:	b128      	cbz	r0, 8001702 <ArcadeIT_SDCard_Disk_Ioctl+0x4a>
  res = RES_ERROR;
 80016f6:	2401      	movs	r4, #1

    default: res = RES_PARERR; break;

  } // End switch.

  sd_deselect();
 80016f8:	f7ff fdee 	bl	80012d8 <sd_deselect>

  return res;

} // End ArcadeIT_SDCard_Disk_Ioctl.
 80016fc:	4620      	mov	r0, r4
 80016fe:	b005      	add	sp, #20
 8001700:	bd30      	pop	{r4, r5, pc}
      if ((send_cmd(CMD9, 0) == 0) && sd_read_block(csd, 16))
 8001702:	2110      	movs	r1, #16
 8001704:	4668      	mov	r0, sp
 8001706:	f7ff fe4f 	bl	80013a8 <sd_read_block>
 800170a:	2800      	cmp	r0, #0
 800170c:	f000 80d3 	beq.w	80018b6 <ArcadeIT_SDCard_Disk_Ioctl+0x1fe>
        if ((csd[0] >> 6) == 1)
 8001710:	f89d 3000 	ldrb.w	r3, [sp]
 8001714:	099b      	lsrs	r3, r3, #6
 8001716:	2b01      	cmp	r3, #1
 8001718:	d020      	beq.n	800175c <ArcadeIT_SDCard_Disk_Ioctl+0xa4>
          n = (csd[5] & 15) + ((csd[10] & 128) >> 7) + ((csd[9] & 3) << 1) + 2;
 800171a:	f89d 2005 	ldrb.w	r2, [sp, #5]
 800171e:	f002 020f 	and.w	r2, r2, #15
 8001722:	f89d 300a 	ldrb.w	r3, [sp, #10]
 8001726:	eb02 12d3 	add.w	r2, r2, r3, lsr #7
 800172a:	f89d 3009 	ldrb.w	r3, [sp, #9]
 800172e:	005b      	lsls	r3, r3, #1
 8001730:	f003 0306 	and.w	r3, r3, #6
 8001734:	441a      	add	r2, r3
          csize = (csd[8] >> 6) + ((WORD)csd[7] << 2) + ((WORD)(csd[6] & 3) << 10) + 1;
 8001736:	f89d 1008 	ldrb.w	r1, [sp, #8]
 800173a:	f89d 3007 	ldrb.w	r3, [sp, #7]
 800173e:	009b      	lsls	r3, r3, #2
 8001740:	eb03 1391 	add.w	r3, r3, r1, lsr #6
 8001744:	f89d 1006 	ldrb.w	r1, [sp, #6]
 8001748:	0289      	lsls	r1, r1, #10
 800174a:	f401 6140 	and.w	r1, r1, #3072	; 0xc00
 800174e:	440b      	add	r3, r1
 8001750:	3301      	adds	r3, #1
          *(DWORD*)pBuffer = csize << (n - 9);
 8001752:	3a07      	subs	r2, #7
 8001754:	4093      	lsls	r3, r2
 8001756:	602b      	str	r3, [r5, #0]
        res = RES_OK;
 8001758:	2400      	movs	r4, #0
 800175a:	e7cd      	b.n	80016f8 <ArcadeIT_SDCard_Disk_Ioctl+0x40>
          csize = csd[9] + ((WORD)csd[8] << 8) + ((DWORD)(csd[7] & 63) << 16) + 1;
 800175c:	f89d 3009 	ldrb.w	r3, [sp, #9]
 8001760:	f89d 2008 	ldrb.w	r2, [sp, #8]
 8001764:	eb03 2302 	add.w	r3, r3, r2, lsl #8
 8001768:	f89d 2007 	ldrb.w	r2, [sp, #7]
 800176c:	0412      	lsls	r2, r2, #16
 800176e:	f402 127c 	and.w	r2, r2, #4128768	; 0x3f0000
 8001772:	4413      	add	r3, r2
 8001774:	3301      	adds	r3, #1
          *(DWORD*)pBuffer = csize << 10;
 8001776:	029b      	lsls	r3, r3, #10
 8001778:	602b      	str	r3, [r5, #0]
        res = RES_OK;
 800177a:	2400      	movs	r4, #0
 800177c:	e7bc      	b.n	80016f8 <ArcadeIT_SDCard_Disk_Ioctl+0x40>
      if (gCardType & CT_SD2)
 800177e:	4b54      	ldr	r3, [pc, #336]	; (80018d0 <ArcadeIT_SDCard_Disk_Ioctl+0x218>)
 8001780:	781b      	ldrb	r3, [r3, #0]
 8001782:	f013 0f04 	tst.w	r3, #4
 8001786:	d020      	beq.n	80017ca <ArcadeIT_SDCard_Disk_Ioctl+0x112>
        if (send_cmd(ACMD13, 0) == 0)
 8001788:	2100      	movs	r1, #0
 800178a:	208d      	movs	r0, #141	; 0x8d
 800178c:	f7ff fdc6 	bl	800131c <send_cmd>
 8001790:	b108      	cbz	r0, 8001796 <ArcadeIT_SDCard_Disk_Ioctl+0xde>
  res = RES_ERROR;
 8001792:	2401      	movs	r4, #1
 8001794:	e7b0      	b.n	80016f8 <ArcadeIT_SDCard_Disk_Ioctl+0x40>
          ArcadeIT_SPI_Port_RW_Byte(DUMMY_BYTE);
 8001796:	20ff      	movs	r0, #255	; 0xff
 8001798:	f000 f946 	bl	8001a28 <ArcadeIT_SPI_Port_RW_Byte>
          if (sd_read_block(csd, 16))
 800179c:	2110      	movs	r1, #16
 800179e:	4668      	mov	r0, sp
 80017a0:	f7ff fe02 	bl	80013a8 <sd_read_block>
 80017a4:	b978      	cbnz	r0, 80017c6 <ArcadeIT_SDCard_Disk_Ioctl+0x10e>
  res = RES_ERROR;
 80017a6:	2401      	movs	r4, #1
 80017a8:	e7a6      	b.n	80016f8 <ArcadeIT_SDCard_Disk_Ioctl+0x40>
            for (n = 64 - 16; n; n--) ArcadeIT_SPI_Port_RW_Byte(DUMMY_BYTE); // Purge trailing data
 80017aa:	20ff      	movs	r0, #255	; 0xff
 80017ac:	f000 f93c 	bl	8001a28 <ArcadeIT_SPI_Port_RW_Byte>
 80017b0:	3c01      	subs	r4, #1
 80017b2:	b2e4      	uxtb	r4, r4
 80017b4:	2c00      	cmp	r4, #0
 80017b6:	d1f8      	bne.n	80017aa <ArcadeIT_SDCard_Disk_Ioctl+0xf2>
            *(DWORD*)pBuffer = 16UL << (csd[10] >> 4);
 80017b8:	f89d 300a 	ldrb.w	r3, [sp, #10]
 80017bc:	091a      	lsrs	r2, r3, #4
 80017be:	2310      	movs	r3, #16
 80017c0:	4093      	lsls	r3, r2
 80017c2:	602b      	str	r3, [r5, #0]
 80017c4:	e798      	b.n	80016f8 <ArcadeIT_SDCard_Disk_Ioctl+0x40>
            for (n = 64 - 16; n; n--) ArcadeIT_SPI_Port_RW_Byte(DUMMY_BYTE); // Purge trailing data
 80017c6:	2430      	movs	r4, #48	; 0x30
 80017c8:	e7f4      	b.n	80017b4 <ArcadeIT_SDCard_Disk_Ioctl+0xfc>
        if ((send_cmd(CMD9, 0) == 0) && sd_read_block(csd, 16))
 80017ca:	2100      	movs	r1, #0
 80017cc:	2009      	movs	r0, #9
 80017ce:	f7ff fda5 	bl	800131c <send_cmd>
 80017d2:	b108      	cbz	r0, 80017d8 <ArcadeIT_SDCard_Disk_Ioctl+0x120>
  res = RES_ERROR;
 80017d4:	2401      	movs	r4, #1
 80017d6:	e78f      	b.n	80016f8 <ArcadeIT_SDCard_Disk_Ioctl+0x40>
        if ((send_cmd(CMD9, 0) == 0) && sd_read_block(csd, 16))
 80017d8:	2110      	movs	r1, #16
 80017da:	4668      	mov	r0, sp
 80017dc:	f7ff fde4 	bl	80013a8 <sd_read_block>
 80017e0:	2800      	cmp	r0, #0
 80017e2:	d06a      	beq.n	80018ba <ArcadeIT_SDCard_Disk_Ioctl+0x202>
          if (gCardType & CT_SD1)
 80017e4:	4b3a      	ldr	r3, [pc, #232]	; (80018d0 <ArcadeIT_SDCard_Disk_Ioctl+0x218>)
 80017e6:	781b      	ldrb	r3, [r3, #0]
 80017e8:	f013 0f02 	tst.w	r3, #2
 80017ec:	d011      	beq.n	8001812 <ArcadeIT_SDCard_Disk_Ioctl+0x15a>
            *(DWORD*)pBuffer = (((csd[10] & 63) << 1) + ((WORD)(csd[11] & 128) >> 7) + 1) << ((csd[13] >> 6) - 1);
 80017ee:	f89d 300a 	ldrb.w	r3, [sp, #10]
 80017f2:	005b      	lsls	r3, r3, #1
 80017f4:	f003 037e 	and.w	r3, r3, #126	; 0x7e
 80017f8:	f89d 200b 	ldrb.w	r2, [sp, #11]
 80017fc:	eb03 13d2 	add.w	r3, r3, r2, lsr #7
 8001800:	3301      	adds	r3, #1
 8001802:	f89d 200d 	ldrb.w	r2, [sp, #13]
 8001806:	0992      	lsrs	r2, r2, #6
 8001808:	3a01      	subs	r2, #1
 800180a:	4093      	lsls	r3, r2
 800180c:	602b      	str	r3, [r5, #0]
          res = RES_OK;
 800180e:	2400      	movs	r4, #0
 8001810:	e772      	b.n	80016f8 <ArcadeIT_SDCard_Disk_Ioctl+0x40>
            *(DWORD*)pBuffer = ((WORD)((csd[10] & 124) >> 2) + 1) * (((csd[11] & 3) << 3) + ((csd[11] & 224) >> 5) + 1);
 8001812:	f89d 300a 	ldrb.w	r3, [sp, #10]
 8001816:	f3c3 0284 	ubfx	r2, r3, #2, #5
 800181a:	f89d 100b 	ldrb.w	r1, [sp, #11]
 800181e:	00cb      	lsls	r3, r1, #3
 8001820:	f003 0318 	and.w	r3, r3, #24
 8001824:	eb03 1351 	add.w	r3, r3, r1, lsr #5
 8001828:	3301      	adds	r3, #1
 800182a:	fb02 3303 	mla	r3, r2, r3, r3
 800182e:	602b      	str	r3, [r5, #0]
          res = RES_OK;
 8001830:	2400      	movs	r4, #0
 8001832:	e761      	b.n	80016f8 <ArcadeIT_SDCard_Disk_Ioctl+0x40>
      if (!(gCardType & CT_SDC)) break;        // Check if the card is SDC
 8001834:	4b26      	ldr	r3, [pc, #152]	; (80018d0 <ArcadeIT_SDCard_Disk_Ioctl+0x218>)
 8001836:	781b      	ldrb	r3, [r3, #0]
 8001838:	f013 0f06 	tst.w	r3, #6
 800183c:	d101      	bne.n	8001842 <ArcadeIT_SDCard_Disk_Ioctl+0x18a>
  res = RES_ERROR;
 800183e:	2401      	movs	r4, #1
 8001840:	e75a      	b.n	80016f8 <ArcadeIT_SDCard_Disk_Ioctl+0x40>
      if (disk_ioctl(DEV_SD, SD_GET_CSD, csd)) break; // Get CSD
 8001842:	466a      	mov	r2, sp
 8001844:	210b      	movs	r1, #11
 8001846:	2001      	movs	r0, #1
 8001848:	f000 fcce 	bl	80021e8 <disk_ioctl>
 800184c:	4604      	mov	r4, r0
 800184e:	bbb0      	cbnz	r0, 80018be <ArcadeIT_SDCard_Disk_Ioctl+0x206>
      if (!(csd[0] >> 6) && !(csd[10] & 0x40)) break; // Check if sector erase can be applied to the card
 8001850:	f89d 3000 	ldrb.w	r3, [sp]
 8001854:	099b      	lsrs	r3, r3, #6
 8001856:	d104      	bne.n	8001862 <ArcadeIT_SDCard_Disk_Ioctl+0x1aa>
 8001858:	f89d 300a 	ldrb.w	r3, [sp, #10]
 800185c:	f013 0f40 	tst.w	r3, #64	; 0x40
 8001860:	d02f      	beq.n	80018c2 <ArcadeIT_SDCard_Disk_Ioctl+0x20a>
      dp = pBuffer; st = dp[0]; ed = dp[1];        // Load sector block
 8001862:	6829      	ldr	r1, [r5, #0]
 8001864:	686d      	ldr	r5, [r5, #4]
      if (!(gCardType & CT_BLOCK))
 8001866:	4b1a      	ldr	r3, [pc, #104]	; (80018d0 <ArcadeIT_SDCard_Disk_Ioctl+0x218>)
 8001868:	781b      	ldrb	r3, [r3, #0]
 800186a:	f013 0f08 	tst.w	r3, #8
 800186e:	d101      	bne.n	8001874 <ArcadeIT_SDCard_Disk_Ioctl+0x1bc>
        st *= 512; ed *= 512;
 8001870:	0249      	lsls	r1, r1, #9
 8001872:	026d      	lsls	r5, r5, #9
      if (send_cmd(CMD32, st) == 0 && send_cmd(CMD33, ed) == 0 && send_cmd(CMD38, 0) == 0 && wait_ready(30000))
 8001874:	2020      	movs	r0, #32
 8001876:	f7ff fd51 	bl	800131c <send_cmd>
 800187a:	b108      	cbz	r0, 8001880 <ArcadeIT_SDCard_Disk_Ioctl+0x1c8>
  res = RES_ERROR;
 800187c:	2401      	movs	r4, #1
 800187e:	e73b      	b.n	80016f8 <ArcadeIT_SDCard_Disk_Ioctl+0x40>
      if (send_cmd(CMD32, st) == 0 && send_cmd(CMD33, ed) == 0 && send_cmd(CMD38, 0) == 0 && wait_ready(30000))
 8001880:	4629      	mov	r1, r5
 8001882:	2021      	movs	r0, #33	; 0x21
 8001884:	f7ff fd4a 	bl	800131c <send_cmd>
 8001888:	b108      	cbz	r0, 800188e <ArcadeIT_SDCard_Disk_Ioctl+0x1d6>
  res = RES_ERROR;
 800188a:	2401      	movs	r4, #1
 800188c:	e734      	b.n	80016f8 <ArcadeIT_SDCard_Disk_Ioctl+0x40>
      if (send_cmd(CMD32, st) == 0 && send_cmd(CMD33, ed) == 0 && send_cmd(CMD38, 0) == 0 && wait_ready(30000))
 800188e:	2100      	movs	r1, #0
 8001890:	2026      	movs	r0, #38	; 0x26
 8001892:	f7ff fd43 	bl	800131c <send_cmd>
 8001896:	b108      	cbz	r0, 800189c <ArcadeIT_SDCard_Disk_Ioctl+0x1e4>
  res = RES_ERROR;
 8001898:	2401      	movs	r4, #1
 800189a:	e72d      	b.n	80016f8 <ArcadeIT_SDCard_Disk_Ioctl+0x40>
      if (send_cmd(CMD32, st) == 0 && send_cmd(CMD33, ed) == 0 && send_cmd(CMD38, 0) == 0 && wait_ready(30000))
 800189c:	f247 5030 	movw	r0, #30000	; 0x7530
 80018a0:	f7ff fd06 	bl	80012b0 <wait_ready>
 80018a4:	2800      	cmp	r0, #0
 80018a6:	f47f af27 	bne.w	80016f8 <ArcadeIT_SDCard_Disk_Ioctl+0x40>
  res = RES_ERROR;
 80018aa:	2401      	movs	r4, #1
 80018ac:	e724      	b.n	80016f8 <ArcadeIT_SDCard_Disk_Ioctl+0x40>
    default: res = RES_PARERR; break;
 80018ae:	2404      	movs	r4, #4
 80018b0:	e722      	b.n	80016f8 <ArcadeIT_SDCard_Disk_Ioctl+0x40>
      if (sd_select()) res = RES_OK;
 80018b2:	2400      	movs	r4, #0
 80018b4:	e720      	b.n	80016f8 <ArcadeIT_SDCard_Disk_Ioctl+0x40>
  res = RES_ERROR;
 80018b6:	2401      	movs	r4, #1
 80018b8:	e71e      	b.n	80016f8 <ArcadeIT_SDCard_Disk_Ioctl+0x40>
 80018ba:	2401      	movs	r4, #1
 80018bc:	e71c      	b.n	80016f8 <ArcadeIT_SDCard_Disk_Ioctl+0x40>
 80018be:	2401      	movs	r4, #1
 80018c0:	e71a      	b.n	80016f8 <ArcadeIT_SDCard_Disk_Ioctl+0x40>
 80018c2:	2401      	movs	r4, #1
 80018c4:	e718      	b.n	80016f8 <ArcadeIT_SDCard_Disk_Ioctl+0x40>
  if (gStatus[DEV_SD] & STA_NOINIT) return RES_NOTRDY; // Check if drive is ready
 80018c6:	2403      	movs	r4, #3
 80018c8:	e718      	b.n	80016fc <ArcadeIT_SDCard_Disk_Ioctl+0x44>
 80018ca:	bf00      	nop
 80018cc:	20000004 	.word	0x20000004
 80018d0:	20000660 	.word	0x20000660

080018d4 <ArcadeIT_SDCard_Disk_Start>:

// /////////////////////////////////////////////////////////////////////////////
FRESULT ArcadeIT_SDCard_Disk_Start (void)
{
 80018d4:	b530      	push	{r4, r5, lr}
 80018d6:	f5ad 5d90 	sub.w	sp, sp, #4608	; 0x1200
 80018da:	b083      	sub	sp, #12
  char lString[ARCADEIT_STRING_LENGTH_MAX];
  FATFS *lFileSystemReferenceTemp;

  lActive = FR_NOT_READY;

  lResult = f_mount(&gFileSystemSD, ArcadeIT_Utility_Get_String_ID(DEV_SD, (char*)gDriveName), 1);
 80018dc:	4948      	ldr	r1, [pc, #288]	; (8001a00 <ArcadeIT_SDCard_Disk_Start+0x12c>)
 80018de:	2001      	movs	r0, #1
 80018e0:	f7ff fc1c 	bl	800111c <ArcadeIT_Utility_Get_String_ID>
 80018e4:	2201      	movs	r2, #1
 80018e6:	4601      	mov	r1, r0
 80018e8:	4846      	ldr	r0, [pc, #280]	; (8001a04 <ArcadeIT_SDCard_Disk_Start+0x130>)
 80018ea:	f001 ffd1 	bl	8003890 <f_mount>
  switch (lResult)
 80018ee:	4604      	mov	r4, r0
 80018f0:	2800      	cmp	r0, #0
 80018f2:	d03c      	beq.n	800196e <ArcadeIT_SDCard_Disk_Start+0x9a>
 80018f4:	280d      	cmp	r0, #13
 80018f6:	d16c      	bne.n	80019d2 <ArcadeIT_SDCard_Disk_Start+0xfe>
  {
    case FR_NO_FILESYSTEM:
      sprintf(lString, "No file system on SD-Card");
 80018f8:	ac01      	add	r4, sp, #4
 80018fa:	4d43      	ldr	r5, [pc, #268]	; (8001a08 <ArcadeIT_SDCard_Disk_Start+0x134>)
 80018fc:	cd0f      	ldmia	r5!, {r0, r1, r2, r3}
 80018fe:	c40f      	stmia	r4!, {r0, r1, r2, r3}
 8001900:	e895 0007 	ldmia.w	r5, {r0, r1, r2}
 8001904:	c403      	stmia	r4!, {r0, r1}
 8001906:	8022      	strh	r2, [r4, #0]
      // Shows a message to serial port as debug
      if (gDevices & ARCADEIT_DEVICE_SERIAL)
 8001908:	4b40      	ldr	r3, [pc, #256]	; (8001a0c <ArcadeIT_SDCard_Disk_Start+0x138>)
 800190a:	681b      	ldr	r3, [r3, #0]
 800190c:	f413 4f80 	tst.w	r3, #16384	; 0x4000
 8001910:	d125      	bne.n	800195e <ArcadeIT_SDCard_Disk_Start+0x8a>
        // Starts and configure the serial port.
        ArcadeIT_Serial_Port_String_Send(lString);

      } // End if.

      lResult = f_mkfs(ArcadeIT_Utility_Get_String_ID(DEV_SD, (char*)gDriveName), NULL, lBuffer, sizeof(lBuffer));
 8001912:	493b      	ldr	r1, [pc, #236]	; (8001a00 <ArcadeIT_SDCard_Disk_Start+0x12c>)
 8001914:	2001      	movs	r0, #1
 8001916:	f7ff fc01 	bl	800111c <ArcadeIT_Utility_Get_String_ID>
 800191a:	f44f 5380 	mov.w	r3, #4096	; 0x1000
 800191e:	aa82      	add	r2, sp, #520	; 0x208
 8001920:	2100      	movs	r1, #0
 8001922:	f002 fb15 	bl	8003f50 <f_mkfs>
      sprintf(lString, "Preparing SD-Card Disk Drive: %s", ArcadeIT_Utility_Get_String_ID(lResult, (char*)gErrorMessages));
 8001926:	493a      	ldr	r1, [pc, #232]	; (8001a10 <ArcadeIT_SDCard_Disk_Start+0x13c>)
 8001928:	f7ff fbf8 	bl	800111c <ArcadeIT_Utility_Get_String_ID>
 800192c:	4602      	mov	r2, r0
 800192e:	4939      	ldr	r1, [pc, #228]	; (8001a14 <ArcadeIT_SDCard_Disk_Start+0x140>)
 8001930:	a801      	add	r0, sp, #4
 8001932:	f003 fb71 	bl	8005018 <siprintf>
      // Shows a message to serial port as debug
      if (gDevices & ARCADEIT_DEVICE_SERIAL)
 8001936:	4b35      	ldr	r3, [pc, #212]	; (8001a0c <ArcadeIT_SDCard_Disk_Start+0x138>)
 8001938:	681b      	ldr	r3, [r3, #0]
 800193a:	f413 4f80 	tst.w	r3, #16384	; 0x4000
 800193e:	d112      	bne.n	8001966 <ArcadeIT_SDCard_Disk_Start+0x92>
        // Starts and configure the serial port.
        ArcadeIT_Serial_Port_String_Send(lString);

      } // End if.

      f_chdrive(ArcadeIT_Utility_Get_String_ID(DEV_SD, (char*)gDriveName));
 8001940:	492f      	ldr	r1, [pc, #188]	; (8001a00 <ArcadeIT_SDCard_Disk_Start+0x12c>)
 8001942:	2001      	movs	r0, #1
 8001944:	f7ff fbea 	bl	800111c <ArcadeIT_Utility_Get_String_ID>
 8001948:	f002 f9e2 	bl	8003d10 <f_chdrive>
      f_setlabel(ARCADEIT_TEXT_SDCARD_NAME);
 800194c:	4832      	ldr	r0, [pc, #200]	; (8001a18 <ArcadeIT_SDCard_Disk_Start+0x144>)
 800194e:	f002 fa5f 	bl	8003e10 <f_setlabel>
  lActive = FR_NOT_READY;
 8001952:	2403      	movs	r4, #3

  } // End switch.

  return lActive;

} // End ArcadeIT_SDCard_Disk_Start.
 8001954:	4620      	mov	r0, r4
 8001956:	f50d 5d90 	add.w	sp, sp, #4608	; 0x1200
 800195a:	b003      	add	sp, #12
 800195c:	bd30      	pop	{r4, r5, pc}
        ArcadeIT_Serial_Port_String_Send(lString);
 800195e:	a801      	add	r0, sp, #4
 8001960:	f000 f98a 	bl	8001c78 <ArcadeIT_Serial_Port_String_Send>
 8001964:	e7d5      	b.n	8001912 <ArcadeIT_SDCard_Disk_Start+0x3e>
        ArcadeIT_Serial_Port_String_Send(lString);
 8001966:	a801      	add	r0, sp, #4
 8001968:	f000 f986 	bl	8001c78 <ArcadeIT_Serial_Port_String_Send>
 800196c:	e7e8      	b.n	8001940 <ArcadeIT_SDCard_Disk_Start+0x6c>
      sprintf(lString, "SD-Card Disk device: [%s] ",ArcadeIT_Utility_Get_String_ID(DEV_SD, (char*)gDriveName));
 800196e:	4924      	ldr	r1, [pc, #144]	; (8001a00 <ArcadeIT_SDCard_Disk_Start+0x12c>)
 8001970:	2001      	movs	r0, #1
 8001972:	f7ff fbd3 	bl	800111c <ArcadeIT_Utility_Get_String_ID>
 8001976:	4602      	mov	r2, r0
 8001978:	4928      	ldr	r1, [pc, #160]	; (8001a1c <ArcadeIT_SDCard_Disk_Start+0x148>)
 800197a:	a801      	add	r0, sp, #4
 800197c:	f003 fb4c 	bl	8005018 <siprintf>
      if (gDevices & ARCADEIT_DEVICE_SERIAL)
 8001980:	4b22      	ldr	r3, [pc, #136]	; (8001a0c <ArcadeIT_SDCard_Disk_Start+0x138>)
 8001982:	681b      	ldr	r3, [r3, #0]
 8001984:	f413 4f80 	tst.w	r3, #16384	; 0x4000
 8001988:	d11f      	bne.n	80019ca <ArcadeIT_SDCard_Disk_Start+0xf6>
      lResult = f_getfree(ArcadeIT_Utility_Get_String_ID(DEV_SD, (char*)gDriveName), &lFreeCluster, &lFileSystemReferenceTemp);
 800198a:	491d      	ldr	r1, [pc, #116]	; (8001a00 <ArcadeIT_SDCard_Disk_Start+0x12c>)
 800198c:	2001      	movs	r0, #1
 800198e:	f7ff fbc5 	bl	800111c <ArcadeIT_Utility_Get_String_ID>
 8001992:	466a      	mov	r2, sp
 8001994:	a981      	add	r1, sp, #516	; 0x204
 8001996:	f002 f9cf 	bl	8003d38 <f_getfree>
             (lFreeCluster * ((lFileSystemReferenceTemp->csize * SECTOR_SIZE) / 1024)),
 800199a:	9b00      	ldr	r3, [sp, #0]
 800199c:	895a      	ldrh	r2, [r3, #10]
 800199e:	0252      	lsls	r2, r2, #9
 80019a0:	1292      	asrs	r2, r2, #10
             ((lFileSystemReferenceTemp->n_fatent - 2) * ((lFileSystemReferenceTemp->csize * SECTOR_SIZE) / 1024))
 80019a2:	69db      	ldr	r3, [r3, #28]
 80019a4:	3b02      	subs	r3, #2
      sprintf(lString,
 80019a6:	9981      	ldr	r1, [sp, #516]	; 0x204
 80019a8:	fb03 f302 	mul.w	r3, r3, r2
 80019ac:	fb01 f202 	mul.w	r2, r1, r2
 80019b0:	491b      	ldr	r1, [pc, #108]	; (8001a20 <ArcadeIT_SDCard_Disk_Start+0x14c>)
 80019b2:	a801      	add	r0, sp, #4
 80019b4:	f003 fb30 	bl	8005018 <siprintf>
      if (gDevices & ARCADEIT_DEVICE_SERIAL)
 80019b8:	4b14      	ldr	r3, [pc, #80]	; (8001a0c <ArcadeIT_SDCard_Disk_Start+0x138>)
 80019ba:	681b      	ldr	r3, [r3, #0]
 80019bc:	f413 4f80 	tst.w	r3, #16384	; 0x4000
 80019c0:	d0c8      	beq.n	8001954 <ArcadeIT_SDCard_Disk_Start+0x80>
        ArcadeIT_Serial_Port_String_Send(lString);
 80019c2:	a801      	add	r0, sp, #4
 80019c4:	f000 f958 	bl	8001c78 <ArcadeIT_Serial_Port_String_Send>
 80019c8:	e7c4      	b.n	8001954 <ArcadeIT_SDCard_Disk_Start+0x80>
        ArcadeIT_Serial_Port_String_Send(lString);
 80019ca:	a801      	add	r0, sp, #4
 80019cc:	f000 f954 	bl	8001c78 <ArcadeIT_Serial_Port_String_Send>
 80019d0:	e7db      	b.n	800198a <ArcadeIT_SDCard_Disk_Start+0xb6>
      sprintf(lString, "SD-Card not present or hardware error.\n\r");
 80019d2:	ac01      	add	r4, sp, #4
 80019d4:	4d13      	ldr	r5, [pc, #76]	; (8001a24 <ArcadeIT_SDCard_Disk_Start+0x150>)
 80019d6:	cd0f      	ldmia	r5!, {r0, r1, r2, r3}
 80019d8:	c40f      	stmia	r4!, {r0, r1, r2, r3}
 80019da:	cd0f      	ldmia	r5!, {r0, r1, r2, r3}
 80019dc:	c40f      	stmia	r4!, {r0, r1, r2, r3}
 80019de:	e895 0007 	ldmia.w	r5, {r0, r1, r2}
 80019e2:	c403      	stmia	r4!, {r0, r1}
 80019e4:	7022      	strb	r2, [r4, #0]
      if (gDevices & ARCADEIT_DEVICE_SERIAL)
 80019e6:	4b09      	ldr	r3, [pc, #36]	; (8001a0c <ArcadeIT_SDCard_Disk_Start+0x138>)
 80019e8:	681b      	ldr	r3, [r3, #0]
 80019ea:	f413 4f80 	tst.w	r3, #16384	; 0x4000
 80019ee:	d101      	bne.n	80019f4 <ArcadeIT_SDCard_Disk_Start+0x120>
  lActive = FR_NOT_READY;
 80019f0:	2403      	movs	r4, #3
 80019f2:	e7af      	b.n	8001954 <ArcadeIT_SDCard_Disk_Start+0x80>
        ArcadeIT_Serial_Port_String_Send(lString);
 80019f4:	a801      	add	r0, sp, #4
 80019f6:	f000 f93f 	bl	8001c78 <ArcadeIT_Serial_Port_String_Send>
  lActive = FR_NOT_READY;
 80019fa:	2403      	movs	r4, #3
 80019fc:	e7aa      	b.n	8001954 <ArcadeIT_SDCard_Disk_Start+0x80>
 80019fe:	bf00      	nop
 8001a00:	08006a08 	.word	0x08006a08
 8001a04:	20000428 	.word	0x20000428
 8001a08:	080068fc 	.word	0x080068fc
 8001a0c:	200001f8 	.word	0x200001f8
 8001a10:	08006a1c 	.word	0x08006a1c
 8001a14:	08006918 	.word	0x08006918
 8001a18:	0800693c 	.word	0x0800693c
 8001a1c:	0800694c 	.word	0x0800694c
 8001a20:	08006968 	.word	0x08006968
 8001a24:	0800697c 	.word	0x0800697c

08001a28 <ArcadeIT_SPI_Port_RW_Byte>:
  // The read byte.
  uint8_t lParameter;
  uint32_t lTimeout;

  //Wait until the transmit buffer is empty.
  lTimeout = SYS_SD_SPI_TIMEOUT;
 8001a28:	23fa      	movs	r3, #250	; 0xfa

  while ((SYS_SD_SPI_PORT->SR & SPI_I2S_FLAG_TXE) == RESET)
 8001a2a:	4a0c      	ldr	r2, [pc, #48]	; (8001a5c <ArcadeIT_SPI_Port_RW_Byte+0x34>)
 8001a2c:	6892      	ldr	r2, [r2, #8]
 8001a2e:	f012 0f02 	tst.w	r2, #2
 8001a32:	d103      	bne.n	8001a3c <ArcadeIT_SPI_Port_RW_Byte+0x14>
  {
    if (lTimeout-- == 0) break;
 8001a34:	1e5a      	subs	r2, r3, #1
 8001a36:	b10b      	cbz	r3, 8001a3c <ArcadeIT_SPI_Port_RW_Byte+0x14>
 8001a38:	4613      	mov	r3, r2
 8001a3a:	e7f6      	b.n	8001a2a <ArcadeIT_SPI_Port_RW_Byte+0x2>
  };

  // Send the byte.
  SYS_SD_SPI_PORT->DR = pData;
 8001a3c:	4b07      	ldr	r3, [pc, #28]	; (8001a5c <ArcadeIT_SPI_Port_RW_Byte+0x34>)
 8001a3e:	60d8      	str	r0, [r3, #12]

  // Wait to receive a byte.
  lTimeout = SYS_SD_SPI_TIMEOUT;
 8001a40:	23fa      	movs	r3, #250	; 0xfa
  while ((SYS_SD_SPI_PORT->SR & SPI_I2S_FLAG_RXNE) == RESET)
 8001a42:	4a06      	ldr	r2, [pc, #24]	; (8001a5c <ArcadeIT_SPI_Port_RW_Byte+0x34>)
 8001a44:	6892      	ldr	r2, [r2, #8]
 8001a46:	f012 0f01 	tst.w	r2, #1
 8001a4a:	d103      	bne.n	8001a54 <ArcadeIT_SPI_Port_RW_Byte+0x2c>
  {
    if (lTimeout-- == 0) break;
 8001a4c:	1e5a      	subs	r2, r3, #1
 8001a4e:	b10b      	cbz	r3, 8001a54 <ArcadeIT_SPI_Port_RW_Byte+0x2c>
 8001a50:	4613      	mov	r3, r2
 8001a52:	e7f6      	b.n	8001a42 <ArcadeIT_SPI_Port_RW_Byte+0x1a>
  };

  // Return the byte read from the SPI bus.
  lParameter = SYS_SD_SPI_PORT->DR;
 8001a54:	4b01      	ldr	r3, [pc, #4]	; (8001a5c <ArcadeIT_SPI_Port_RW_Byte+0x34>)
 8001a56:	68d8      	ldr	r0, [r3, #12]

  return lParameter;

} // End ArcadeIT_SPI_Port_RW_Byte.
 8001a58:	b2c0      	uxtb	r0, r0
 8001a5a:	4770      	bx	lr
 8001a5c:	40013000 	.word	0x40013000

08001a60 <ArcadeIT_SPI_Port_Read_Buffer>:
void ArcadeIT_SPI_Port_Read_Buffer
(
  uint8_t *pBuffer,       // Pointer to data buffer.
  uint32_t pNumberOfBytes // Number of bytes to receive.
)
{
 8001a60:	b570      	push	{r4, r5, r6, lr}
 8001a62:	4606      	mov	r6, r0
 8001a64:	460d      	mov	r5, r1
  * RETURNS:     Nothing.
  */

  uint8_t lData;

  for (uint32_t lBytes = 0; lBytes < pNumberOfBytes; lBytes++)
 8001a66:	2400      	movs	r4, #0
 8001a68:	e004      	b.n	8001a74 <ArcadeIT_SPI_Port_Read_Buffer+0x14>
  {
    // Receive the data block into buffer.
    lData = ArcadeIT_SPI_Port_RW_Byte(ARCADEIT_DUMMY_BYTE);
 8001a6a:	20ff      	movs	r0, #255	; 0xff
 8001a6c:	f7ff ffdc 	bl	8001a28 <ArcadeIT_SPI_Port_RW_Byte>
    pBuffer[lBytes] = lData;
 8001a70:	5530      	strb	r0, [r6, r4]
  for (uint32_t lBytes = 0; lBytes < pNumberOfBytes; lBytes++)
 8001a72:	3401      	adds	r4, #1
 8001a74:	42ac      	cmp	r4, r5
 8001a76:	d3f8      	bcc.n	8001a6a <ArcadeIT_SPI_Port_Read_Buffer+0xa>

  } // End for.

} // End ArcadeIT_SPI_Port_Read_Buffer.
 8001a78:	bd70      	pop	{r4, r5, r6, pc}

08001a7a <ArcadeIT_SPI_Port_Write_Buffer>:
void ArcadeIT_SPI_Port_Write_Buffer
(
  uint8_t *pBuffer,       // Pointer to data buffer.
  uint32_t pNumberOfBytes // Number of bytes to send.
)
{
 8001a7a:	b570      	push	{r4, r5, r6, lr}
 8001a7c:	4606      	mov	r6, r0
 8001a7e:	460d      	mov	r5, r1
  * DESCRIPTION: This function is used to write a block of memory to the SPI port.
  * PARAMETERS:  See above.
  * RETURNS:     Nothing.
  */

  for (uint32_t lBytes = 0; lBytes < pNumberOfBytes; lBytes++)
 8001a80:	2400      	movs	r4, #0
 8001a82:	e003      	b.n	8001a8c <ArcadeIT_SPI_Port_Write_Buffer+0x12>
  {
    // Sends the data block to the SPI.
    ArcadeIT_SPI_Port_RW_Byte(pBuffer[lBytes]);
 8001a84:	5d30      	ldrb	r0, [r6, r4]
 8001a86:	f7ff ffcf 	bl	8001a28 <ArcadeIT_SPI_Port_RW_Byte>
  for (uint32_t lBytes = 0; lBytes < pNumberOfBytes; lBytes++)
 8001a8a:	3401      	adds	r4, #1
 8001a8c:	42ac      	cmp	r4, r5
 8001a8e:	d3f9      	bcc.n	8001a84 <ArcadeIT_SPI_Port_Write_Buffer+0xa>

  } // End for.

} // End ArcadeIT_SPI_Port_Write_Buffer.
 8001a90:	bd70      	pop	{r4, r5, r6, pc}
	...

08001a94 <ArcadeIT_SPI_Port_Init>:

// /////////////////////////////////////////////////////////////////////////////
int ArcadeIT_SPI_Port_Init (
  uint16_t pClock // the clock frequency to set the SPI port
  )
{
 8001a94:	b508      	push	{r3, lr}
   * PARAMETERS:  None.
   * RETURNS:     Nothing.
   */

  // Enable GPIOs used by the SPI.
  if ((RCC->AHB1ENR & RCC_AHB1Periph_GPIOA) == FALSE) RCC->AHB1ENR |= RCC_AHB1Periph_GPIOA;
 8001a96:	4b6f      	ldr	r3, [pc, #444]	; (8001c54 <ArcadeIT_SPI_Port_Init+0x1c0>)
 8001a98:	6b1b      	ldr	r3, [r3, #48]	; 0x30
 8001a9a:	f013 0f01 	tst.w	r3, #1
 8001a9e:	d104      	bne.n	8001aaa <ArcadeIT_SPI_Port_Init+0x16>
 8001aa0:	4a6c      	ldr	r2, [pc, #432]	; (8001c54 <ArcadeIT_SPI_Port_Init+0x1c0>)
 8001aa2:	6b13      	ldr	r3, [r2, #48]	; 0x30
 8001aa4:	f043 0301 	orr.w	r3, r3, #1
 8001aa8:	6313      	str	r3, [r2, #48]	; 0x30
  if ((RCC->AHB1ENR & RCC_AHB1Periph_GPIOC) == FALSE) RCC->AHB1ENR |= RCC_AHB1Periph_GPIOC;
 8001aaa:	4b6a      	ldr	r3, [pc, #424]	; (8001c54 <ArcadeIT_SPI_Port_Init+0x1c0>)
 8001aac:	6b1b      	ldr	r3, [r3, #48]	; 0x30
 8001aae:	f013 0f04 	tst.w	r3, #4
 8001ab2:	d104      	bne.n	8001abe <ArcadeIT_SPI_Port_Init+0x2a>
 8001ab4:	4a67      	ldr	r2, [pc, #412]	; (8001c54 <ArcadeIT_SPI_Port_Init+0x1c0>)
 8001ab6:	6b13      	ldr	r3, [r2, #48]	; 0x30
 8001ab8:	f043 0304 	orr.w	r3, r3, #4
 8001abc:	6313      	str	r3, [r2, #48]	; 0x30
  if ((RCC->AHB1ENR & RCC_AHB1Periph_GPIOD) == FALSE) RCC->AHB1ENR |= RCC_AHB1Periph_GPIOD;
 8001abe:	4b65      	ldr	r3, [pc, #404]	; (8001c54 <ArcadeIT_SPI_Port_Init+0x1c0>)
 8001ac0:	6b1b      	ldr	r3, [r3, #48]	; 0x30
 8001ac2:	f013 0f08 	tst.w	r3, #8
 8001ac6:	d104      	bne.n	8001ad2 <ArcadeIT_SPI_Port_Init+0x3e>
 8001ac8:	4a62      	ldr	r2, [pc, #392]	; (8001c54 <ArcadeIT_SPI_Port_Init+0x1c0>)
 8001aca:	6b13      	ldr	r3, [r2, #48]	; 0x30
 8001acc:	f043 0308 	orr.w	r3, r3, #8
 8001ad0:	6313      	str	r3, [r2, #48]	; 0x30
  if ((RCC->APB2ENR & RCC_APB2Periph_SPI1) == FALSE) RCC->APB2ENR |= RCC_APB2Periph_SPI1;
 8001ad2:	4b60      	ldr	r3, [pc, #384]	; (8001c54 <ArcadeIT_SPI_Port_Init+0x1c0>)
 8001ad4:	6c5b      	ldr	r3, [r3, #68]	; 0x44
 8001ad6:	f413 5f80 	tst.w	r3, #4096	; 0x1000
 8001ada:	d104      	bne.n	8001ae6 <ArcadeIT_SPI_Port_Init+0x52>
 8001adc:	4a5d      	ldr	r2, [pc, #372]	; (8001c54 <ArcadeIT_SPI_Port_Init+0x1c0>)
 8001ade:	6c53      	ldr	r3, [r2, #68]	; 0x44
 8001ae0:	f443 5380 	orr.w	r3, r3, #4096	; 0x1000
 8001ae4:	6453      	str	r3, [r2, #68]	; 0x44
  uint32_t lPinPosition;

  // Configure the output line SCK as alternate function.
  lPinPosition = (SYS_SD_SPI_SCK_PIN_NO * 2);

  SYS_SD_SPI_SCK_PER->MODER   &= ~GPIO_MODER_MODER5;
 8001ae6:	4b5c      	ldr	r3, [pc, #368]	; (8001c58 <ArcadeIT_SPI_Port_Init+0x1c4>)
 8001ae8:	681a      	ldr	r2, [r3, #0]
 8001aea:	f422 6240 	bic.w	r2, r2, #3072	; 0xc00
 8001aee:	601a      	str	r2, [r3, #0]
  SYS_SD_SPI_SCK_PER->MODER   |= (((uint32_t)GPIO_Mode_AF) << lPinPosition);
 8001af0:	681a      	ldr	r2, [r3, #0]
 8001af2:	f442 6200 	orr.w	r2, r2, #2048	; 0x800
 8001af6:	601a      	str	r2, [r3, #0]
  SYS_SD_SPI_SCK_PER->OSPEEDR &= ~GPIO_OSPEEDER_OSPEEDR5;
 8001af8:	689a      	ldr	r2, [r3, #8]
 8001afa:	f422 6240 	bic.w	r2, r2, #3072	; 0xc00
 8001afe:	609a      	str	r2, [r3, #8]
  SYS_SD_SPI_SCK_PER->OSPEEDR |= ((uint32_t)(GPIO_Speed_100MHz) << lPinPosition);
 8001b00:	689a      	ldr	r2, [r3, #8]
 8001b02:	f442 6240 	orr.w	r2, r2, #3072	; 0xc00
 8001b06:	609a      	str	r2, [r3, #8]
  SYS_SD_SPI_SCK_PER->OTYPER  &= ~GPIO_OTYPER_OT_5;
 8001b08:	685a      	ldr	r2, [r3, #4]
 8001b0a:	f022 0220 	bic.w	r2, r2, #32
 8001b0e:	605a      	str	r2, [r3, #4]
  SYS_SD_SPI_SCK_PER->OTYPER  |= (uint16_t)(GPIO_OType_PP << SYS_SD_SPI_SCK_PIN_NO);
 8001b10:	685a      	ldr	r2, [r3, #4]
 8001b12:	605a      	str	r2, [r3, #4]
  SYS_SD_SPI_SCK_PER->PUPDR   &= ~GPIO_PUPDR_PUPDR5;
 8001b14:	68da      	ldr	r2, [r3, #12]
 8001b16:	f422 6240 	bic.w	r2, r2, #3072	; 0xc00
 8001b1a:	60da      	str	r2, [r3, #12]
  SYS_SD_SPI_SCK_PER->PUPDR   |= (((uint32_t)GPIO_PuPd_DOWN) << lPinPosition);
 8001b1c:	68da      	ldr	r2, [r3, #12]
 8001b1e:	f442 6200 	orr.w	r2, r2, #2048	; 0x800
 8001b22:	60da      	str	r2, [r3, #12]

  SYS_SD_SPI_SCK_PER->AFR[0]  &= ~((uint32_t)0xF << ((uint32_t)((uint32_t)SYS_SD_SPI_SCK_PIN_NO & (uint32_t)0x07) * 4));
 8001b24:	6a1a      	ldr	r2, [r3, #32]
 8001b26:	f422 0270 	bic.w	r2, r2, #15728640	; 0xf00000
 8001b2a:	621a      	str	r2, [r3, #32]
  SYS_SD_SPI_SCK_PER->AFR[0]  |= ((uint32_t)(SYS_SD_SPI_AF) << ((uint32_t)((uint32_t)SYS_SD_SPI_SCK_PIN_NO & (uint32_t)0x07) * 4));
 8001b2c:	6a1a      	ldr	r2, [r3, #32]
 8001b2e:	f442 02a0 	orr.w	r2, r2, #5242880	; 0x500000
 8001b32:	621a      	str	r2, [r3, #32]

  // Configure the output line MOSI as alternate function.
  lPinPosition = (SYS_SD_SPI_MOSI_PIN_NO * 2);

  SYS_SD_SPI_MOSI_PER->MODER   &= ~GPIO_MODER_MODER7;
 8001b34:	681a      	ldr	r2, [r3, #0]
 8001b36:	f422 4240 	bic.w	r2, r2, #49152	; 0xc000
 8001b3a:	601a      	str	r2, [r3, #0]
  SYS_SD_SPI_MOSI_PER->MODER   |= (((uint32_t)GPIO_Mode_AF) << lPinPosition);
 8001b3c:	681a      	ldr	r2, [r3, #0]
 8001b3e:	f442 4200 	orr.w	r2, r2, #32768	; 0x8000
 8001b42:	601a      	str	r2, [r3, #0]
  SYS_SD_SPI_MOSI_PER->OSPEEDR &= ~GPIO_OSPEEDER_OSPEEDR7;
 8001b44:	689a      	ldr	r2, [r3, #8]
 8001b46:	f422 4240 	bic.w	r2, r2, #49152	; 0xc000
 8001b4a:	609a      	str	r2, [r3, #8]
  SYS_SD_SPI_MOSI_PER->OSPEEDR |= ((uint32_t)(GPIO_Speed_100MHz) << lPinPosition);
 8001b4c:	689a      	ldr	r2, [r3, #8]
 8001b4e:	f442 4240 	orr.w	r2, r2, #49152	; 0xc000
 8001b52:	609a      	str	r2, [r3, #8]
  SYS_SD_SPI_MOSI_PER->OTYPER  &= ~GPIO_OTYPER_OT_7;
 8001b54:	685a      	ldr	r2, [r3, #4]
 8001b56:	f022 0280 	bic.w	r2, r2, #128	; 0x80
 8001b5a:	605a      	str	r2, [r3, #4]
  SYS_SD_SPI_MOSI_PER->OTYPER  |= (uint16_t)(GPIO_OType_PP << SYS_SD_SPI_MOSI_PIN_NO);
 8001b5c:	685a      	ldr	r2, [r3, #4]
 8001b5e:	605a      	str	r2, [r3, #4]
  SYS_SD_SPI_MOSI_PER->PUPDR   &= ~GPIO_PUPDR_PUPDR7;
 8001b60:	68da      	ldr	r2, [r3, #12]
 8001b62:	f422 4240 	bic.w	r2, r2, #49152	; 0xc000
 8001b66:	60da      	str	r2, [r3, #12]
  SYS_SD_SPI_MOSI_PER->PUPDR   |= (((uint32_t)GPIO_PuPd_DOWN) << lPinPosition);
 8001b68:	68da      	ldr	r2, [r3, #12]
 8001b6a:	f442 4200 	orr.w	r2, r2, #32768	; 0x8000
 8001b6e:	60da      	str	r2, [r3, #12]

  SYS_SD_SPI_MOSI_PER->AFR[0]  &= ~((uint32_t)0xF << ((uint32_t)((uint32_t)SYS_SD_SPI_MOSI_PIN_NO & (uint32_t)0x07) * 4));
 8001b70:	6a1a      	ldr	r2, [r3, #32]
 8001b72:	f022 4270 	bic.w	r2, r2, #4026531840	; 0xf0000000
 8001b76:	621a      	str	r2, [r3, #32]
  SYS_SD_SPI_MOSI_PER->AFR[0]  |= ((uint32_t)(SYS_SD_SPI_AF) << ((uint32_t)((uint32_t)SYS_SD_SPI_MOSI_PIN_NO & (uint32_t)0x07) * 4));
 8001b78:	6a1a      	ldr	r2, [r3, #32]
 8001b7a:	f042 42a0 	orr.w	r2, r2, #1342177280	; 0x50000000
 8001b7e:	621a      	str	r2, [r3, #32]

  // Configure the output line MISO as alternate function.
  lPinPosition = (SYS_SD_SPI_MISO_PIN_NO * 2);

  SYS_SD_SPI_MISO_PER->MODER   &= ~GPIO_MODER_MODER6;
 8001b80:	681a      	ldr	r2, [r3, #0]
 8001b82:	f422 5240 	bic.w	r2, r2, #12288	; 0x3000
 8001b86:	601a      	str	r2, [r3, #0]
  SYS_SD_SPI_MISO_PER->MODER   |= (((uint32_t)GPIO_Mode_AF) << lPinPosition);
 8001b88:	681a      	ldr	r2, [r3, #0]
 8001b8a:	f442 5200 	orr.w	r2, r2, #8192	; 0x2000
 8001b8e:	601a      	str	r2, [r3, #0]
  SYS_SD_SPI_MISO_PER->OSPEEDR &= ~GPIO_OSPEEDER_OSPEEDR6;
 8001b90:	689a      	ldr	r2, [r3, #8]
 8001b92:	f422 5240 	bic.w	r2, r2, #12288	; 0x3000
 8001b96:	609a      	str	r2, [r3, #8]
  SYS_SD_SPI_MISO_PER->OSPEEDR |= ((uint32_t)(GPIO_Speed_100MHz) << lPinPosition);
 8001b98:	689a      	ldr	r2, [r3, #8]
 8001b9a:	f442 5240 	orr.w	r2, r2, #12288	; 0x3000
 8001b9e:	609a      	str	r2, [r3, #8]
  SYS_SD_SPI_MISO_PER->OTYPER  &= ~GPIO_OTYPER_OT_6;
 8001ba0:	685a      	ldr	r2, [r3, #4]
 8001ba2:	f022 0240 	bic.w	r2, r2, #64	; 0x40
 8001ba6:	605a      	str	r2, [r3, #4]
  SYS_SD_SPI_MISO_PER->OTYPER  |= (uint16_t)(GPIO_OType_PP << SYS_SD_SPI_MISO_PIN_NO);
 8001ba8:	685a      	ldr	r2, [r3, #4]
 8001baa:	605a      	str	r2, [r3, #4]
  SYS_SD_SPI_MISO_PER->PUPDR   &= ~GPIO_PUPDR_PUPDR6;
 8001bac:	68da      	ldr	r2, [r3, #12]
 8001bae:	f422 5240 	bic.w	r2, r2, #12288	; 0x3000
 8001bb2:	60da      	str	r2, [r3, #12]
  SYS_SD_SPI_MISO_PER->PUPDR   |= (((uint32_t)GPIO_PuPd_UP) << lPinPosition);
 8001bb4:	68da      	ldr	r2, [r3, #12]
 8001bb6:	f442 5280 	orr.w	r2, r2, #4096	; 0x1000
 8001bba:	60da      	str	r2, [r3, #12]

  SYS_SD_SPI_MISO_PER->AFR[0]  &= ~((uint32_t)0xF << ((uint32_t)((uint32_t)SYS_SD_SPI_MISO_PIN_NO & (uint32_t)0x07) * 4));
 8001bbc:	6a1a      	ldr	r2, [r3, #32]
 8001bbe:	f022 6270 	bic.w	r2, r2, #251658240	; 0xf000000
 8001bc2:	621a      	str	r2, [r3, #32]
  SYS_SD_SPI_MISO_PER->AFR[0]  |= ((uint32_t)(SYS_SD_SPI_AF) << ((uint32_t)((uint32_t)SYS_SD_SPI_MISO_PIN_NO & (uint32_t)0x07) * 4));
 8001bc4:	6a1a      	ldr	r2, [r3, #32]
 8001bc6:	f042 62a0 	orr.w	r2, r2, #83886080	; 0x5000000
 8001bca:	621a      	str	r2, [r3, #32]

  // Configure the output line CS as a normal output GPIO.
  lPinPosition = (SYS_SD_SPI_CS_PIN_NO * 2);

  SYS_SD_SPI_CS_PER->MODER   &= ~GPIO_MODER_MODER4;
 8001bcc:	f503 6300 	add.w	r3, r3, #2048	; 0x800
 8001bd0:	681a      	ldr	r2, [r3, #0]
 8001bd2:	f422 7240 	bic.w	r2, r2, #768	; 0x300
 8001bd6:	601a      	str	r2, [r3, #0]
  SYS_SD_SPI_CS_PER->MODER   |= (((uint32_t)GPIO_Mode_OUT) << lPinPosition);
 8001bd8:	681a      	ldr	r2, [r3, #0]
 8001bda:	f442 7280 	orr.w	r2, r2, #256	; 0x100
 8001bde:	601a      	str	r2, [r3, #0]
  SYS_SD_SPI_CS_PER->OSPEEDR &= ~GPIO_OSPEEDER_OSPEEDR4;
 8001be0:	689a      	ldr	r2, [r3, #8]
 8001be2:	f422 7240 	bic.w	r2, r2, #768	; 0x300
 8001be6:	609a      	str	r2, [r3, #8]
  SYS_SD_SPI_CS_PER->OSPEEDR |= ((uint32_t)(GPIO_Speed_100MHz) << lPinPosition);
 8001be8:	689a      	ldr	r2, [r3, #8]
 8001bea:	f442 7240 	orr.w	r2, r2, #768	; 0x300
 8001bee:	609a      	str	r2, [r3, #8]
  SYS_SD_SPI_CS_PER->OTYPER  &= ~GPIO_OTYPER_OT_4;
 8001bf0:	685a      	ldr	r2, [r3, #4]
 8001bf2:	f022 0210 	bic.w	r2, r2, #16
 8001bf6:	605a      	str	r2, [r3, #4]
  SYS_SD_SPI_CS_PER->OTYPER  |= (uint16_t)(GPIO_OType_PP << SYS_SD_SPI_CS_PIN_NO);
 8001bf8:	685a      	ldr	r2, [r3, #4]
 8001bfa:	605a      	str	r2, [r3, #4]
  SYS_SD_SPI_CS_PER->PUPDR   &= ~GPIO_PUPDR_PUPDR4;
 8001bfc:	68da      	ldr	r2, [r3, #12]
 8001bfe:	f422 7240 	bic.w	r2, r2, #768	; 0x300
 8001c02:	60da      	str	r2, [r3, #12]
  SYS_SD_SPI_CS_PER->PUPDR   |= (((uint32_t)GPIO_PuPd_UP) << lPinPosition);
 8001c04:	68da      	ldr	r2, [r3, #12]
 8001c06:	f442 7280 	orr.w	r2, r2, #256	; 0x100
 8001c0a:	60da      	str	r2, [r3, #12]

  // Initially the SPI port has 4 multiplexed lines to use as CS.
  // CS1 0 1 0 1
  SYS_SPI_CS_HIGH();
 8001c0c:	695a      	ldr	r2, [r3, #20]
 8001c0e:	f042 0210 	orr.w	r2, r2, #16
 8001c12:	615a      	str	r2, [r3, #20]

  // SPI configuration.
  // Reset SPI
  RCC->APB2RSTR |= RCC_APB2Periph_SPI1;
 8001c14:	f503 5340 	add.w	r3, r3, #12288	; 0x3000
 8001c18:	6a5a      	ldr	r2, [r3, #36]	; 0x24
 8001c1a:	f442 5280 	orr.w	r2, r2, #4096	; 0x1000
 8001c1e:	625a      	str	r2, [r3, #36]	; 0x24
  RCC->APB2RSTR &= ~RCC_APB2Periph_SPI1;
 8001c20:	6a5a      	ldr	r2, [r3, #36]	; 0x24
 8001c22:	f422 5280 	bic.w	r2, r2, #4096	; 0x1000
 8001c26:	625a      	str	r2, [r3, #36]	; 0x24

  // configuration of SPI port for common use
  SYS_SD_SPI_PORT->CR1 |=
 8001c28:	f5a3 3384 	sub.w	r3, r3, #67584	; 0x10800
 8001c2c:	681a      	ldr	r2, [r3, #0]
      (uint16_t)((uint32_t)SPI_Direction_2Lines_FullDuplex
 8001c2e:	f440 7041 	orr.w	r0, r0, #772	; 0x304
  SYS_SD_SPI_PORT->CR1 |=
 8001c32:	4310      	orrs	r0, r2
 8001c34:	6018      	str	r0, [r3, #0]
                         | SPI_CPHA_1Edge
                         | SPI_NSS_Soft
                         | pClock
                         | SPI_FirstBit_MSB);

  SYS_SD_SPI_PORT->CR1 |= SPI_CR1_SPE;
 8001c36:	681a      	ldr	r2, [r3, #0]
 8001c38:	f042 0240 	orr.w	r2, r2, #64	; 0x40
 8001c3c:	601a      	str	r2, [r3, #0]

  if (gDevices & ARCADEIT_DEVICE_SERIAL)
 8001c3e:	4b07      	ldr	r3, [pc, #28]	; (8001c5c <ArcadeIT_SPI_Port_Init+0x1c8>)
 8001c40:	681b      	ldr	r3, [r3, #0]
 8001c42:	f413 4f80 	tst.w	r3, #16384	; 0x4000
 8001c46:	d101      	bne.n	8001c4c <ArcadeIT_SPI_Port_Init+0x1b8>

  } // End if.

  return TRUE;

} // End ArcadeIT_SPI_Port_Init.
 8001c48:	2001      	movs	r0, #1
 8001c4a:	bd08      	pop	{r3, pc}
    ArcadeIT_Serial_Port_String_Send(TEXT_SPI_PORT_INITED);
 8001c4c:	4804      	ldr	r0, [pc, #16]	; (8001c60 <ArcadeIT_SPI_Port_Init+0x1cc>)
 8001c4e:	f000 f813 	bl	8001c78 <ArcadeIT_Serial_Port_String_Send>
 8001c52:	e7f9      	b.n	8001c48 <ArcadeIT_SPI_Port_Init+0x1b4>
 8001c54:	40023800 	.word	0x40023800
 8001c58:	40020000 	.word	0x40020000
 8001c5c:	200001f8 	.word	0x200001f8
 8001c60:	080069a8 	.word	0x080069a8

08001c64 <ArcadeIT_Serial_Port_Char_Send>:
   * RETURNS:     Nothing.
   */

  // wait until data register is empty. The status register should have the flag
  // Transmit data register empty
  while ((SYS_SERIAL_PORT->SR & SYS_SERIAL_FLAG_TXE) == RESET);
 8001c64:	4b03      	ldr	r3, [pc, #12]	; (8001c74 <ArcadeIT_Serial_Port_Char_Send+0x10>)
 8001c66:	681b      	ldr	r3, [r3, #0]
 8001c68:	f013 0f80 	tst.w	r3, #128	; 0x80
 8001c6c:	d0fa      	beq.n	8001c64 <ArcadeIT_Serial_Port_Char_Send>

  // send the character. We put the data into the data register so that the USART
  // start transmit it.
  SYS_SERIAL_PORT->DR = (pCharacter & (uint16_t)0x01FF);
 8001c6e:	4b01      	ldr	r3, [pc, #4]	; (8001c74 <ArcadeIT_Serial_Port_Char_Send+0x10>)
 8001c70:	6058      	str	r0, [r3, #4]

} // End ArcadeIT_Serial_Port_Char_Send.
 8001c72:	4770      	bx	lr
 8001c74:	40004400 	.word	0x40004400

08001c78 <ArcadeIT_Serial_Port_String_Send>:
// -----------------------------------------------------------------------------
void ArcadeIT_Serial_Port_String_Send
(
    char *pString   // The string to send character by character to the serial port.
)
{
 8001c78:	b510      	push	{r4, lr}
   */

  // while not NULL transmit next character.
  char lCharacter;

  while ((lCharacter = *((char*)pString++)) != 0)
 8001c7a:	e002      	b.n	8001c82 <ArcadeIT_Serial_Port_String_Send+0xa>
  {
    ArcadeIT_Serial_Port_Char_Send (lCharacter);
 8001c7c:	f7ff fff2 	bl	8001c64 <ArcadeIT_Serial_Port_Char_Send>
  while ((lCharacter = *((char*)pString++)) != 0)
 8001c80:	4620      	mov	r0, r4
 8001c82:	1c44      	adds	r4, r0, #1
 8001c84:	7800      	ldrb	r0, [r0, #0]
 8001c86:	2800      	cmp	r0, #0
 8001c88:	d1f8      	bne.n	8001c7c <ArcadeIT_Serial_Port_String_Send+0x4>

  } // End while.

} // End ArcadeIT_Serial_Port_String_Send.
 8001c8a:	bd10      	pop	{r4, pc}

08001c8c <ArcadeIT_Serial_Port_Init>:
// -----------------------------------------------------------------------------
void ArcadeIT_Serial_Port_Init
(
    uint32_t pBaud   // Baud rate to set the serial port to.
)
{
 8001c8c:	b508      	push	{r3, lr}
   */

  uint32_t lPinPosition;

  // ArcadeIT_Serial_Port_Init
  if ((RCC->AHB1ENR & RCC_AHB1Periph_GPIOA) == FALSE) RCC->AHB1ENR |= RCC_AHB1Periph_GPIOA;
 8001c8e:	4b59      	ldr	r3, [pc, #356]	; (8001df4 <ArcadeIT_Serial_Port_Init+0x168>)
 8001c90:	6b1b      	ldr	r3, [r3, #48]	; 0x30
 8001c92:	f013 0f01 	tst.w	r3, #1
 8001c96:	d104      	bne.n	8001ca2 <ArcadeIT_Serial_Port_Init+0x16>
 8001c98:	4a56      	ldr	r2, [pc, #344]	; (8001df4 <ArcadeIT_Serial_Port_Init+0x168>)
 8001c9a:	6b13      	ldr	r3, [r2, #48]	; 0x30
 8001c9c:	f043 0301 	orr.w	r3, r3, #1
 8001ca0:	6313      	str	r3, [r2, #48]	; 0x30
  if ((RCC->APB1ENR & RCC_APB1Periph_USART2) == FALSE) RCC->APB1ENR |= RCC_APB1Periph_USART2;
 8001ca2:	4b54      	ldr	r3, [pc, #336]	; (8001df4 <ArcadeIT_Serial_Port_Init+0x168>)
 8001ca4:	6c1b      	ldr	r3, [r3, #64]	; 0x40
 8001ca6:	f413 3f00 	tst.w	r3, #131072	; 0x20000
 8001caa:	d104      	bne.n	8001cb6 <ArcadeIT_Serial_Port_Init+0x2a>
 8001cac:	4a51      	ldr	r2, [pc, #324]	; (8001df4 <ArcadeIT_Serial_Port_Init+0x168>)
 8001cae:	6c13      	ldr	r3, [r2, #64]	; 0x40
 8001cb0:	f443 3300 	orr.w	r3, r3, #131072	; 0x20000
 8001cb4:	6413      	str	r3, [r2, #64]	; 0x40
  if ((RCC->AHB1ENR & RCC_AHB1Periph_DMA1) == FALSE) RCC->AHB1ENR |= RCC_AHB1Periph_DMA1;
 8001cb6:	4b4f      	ldr	r3, [pc, #316]	; (8001df4 <ArcadeIT_Serial_Port_Init+0x168>)
 8001cb8:	6b1b      	ldr	r3, [r3, #48]	; 0x30
 8001cba:	f413 1f00 	tst.w	r3, #2097152	; 0x200000
 8001cbe:	d104      	bne.n	8001cca <ArcadeIT_Serial_Port_Init+0x3e>
 8001cc0:	4a4c      	ldr	r2, [pc, #304]	; (8001df4 <ArcadeIT_Serial_Port_Init+0x168>)
 8001cc2:	6b13      	ldr	r3, [r2, #48]	; 0x30
 8001cc4:	f443 1300 	orr.w	r3, r3, #2097152	; 0x200000
 8001cc8:	6313      	str	r3, [r2, #48]	; 0x30

  // Configure the pin PA2 as alternate function 7 (USART Tx).
  lPinPosition = (SYS_SERIAL_TX_PIN_NO * 2);
  SYS_SERIAL_TX_PER->MODER   &= ~GPIO_MODER_MODER2;
 8001cca:	4b4b      	ldr	r3, [pc, #300]	; (8001df8 <ArcadeIT_Serial_Port_Init+0x16c>)
 8001ccc:	681a      	ldr	r2, [r3, #0]
 8001cce:	f022 0230 	bic.w	r2, r2, #48	; 0x30
 8001cd2:	601a      	str	r2, [r3, #0]
  SYS_SERIAL_TX_PER->MODER   |= (((uint32_t)GPIO_Mode_AF) << lPinPosition);
 8001cd4:	681a      	ldr	r2, [r3, #0]
 8001cd6:	f042 0220 	orr.w	r2, r2, #32
 8001cda:	601a      	str	r2, [r3, #0]
  SYS_SERIAL_TX_PER->OSPEEDR &= ~GPIO_OSPEEDER_OSPEEDR2;
 8001cdc:	689a      	ldr	r2, [r3, #8]
 8001cde:	f022 0230 	bic.w	r2, r2, #48	; 0x30
 8001ce2:	609a      	str	r2, [r3, #8]
  SYS_SERIAL_TX_PER->OSPEEDR |= ((uint32_t)(GPIO_Speed_50MHz) << lPinPosition);
 8001ce4:	689a      	ldr	r2, [r3, #8]
 8001ce6:	f042 0220 	orr.w	r2, r2, #32
 8001cea:	609a      	str	r2, [r3, #8]
  SYS_SERIAL_TX_PER->OTYPER  &= ~GPIO_OTYPER_OT_2;
 8001cec:	685a      	ldr	r2, [r3, #4]
 8001cee:	f022 0204 	bic.w	r2, r2, #4
 8001cf2:	605a      	str	r2, [r3, #4]
  SYS_SERIAL_TX_PER->OTYPER  |= (uint16_t)(GPIO_OType_PP << SYS_SERIAL_TX_PIN_NO);
 8001cf4:	685a      	ldr	r2, [r3, #4]
 8001cf6:	605a      	str	r2, [r3, #4]
  SYS_SERIAL_TX_PER->PUPDR   &= ~GPIO_PUPDR_PUPDR2;
 8001cf8:	68da      	ldr	r2, [r3, #12]
 8001cfa:	f022 0230 	bic.w	r2, r2, #48	; 0x30
 8001cfe:	60da      	str	r2, [r3, #12]
  SYS_SERIAL_TX_PER->PUPDR   |= (((uint32_t)GPIO_PuPd_NOPULL) << lPinPosition);
 8001d00:	68da      	ldr	r2, [r3, #12]
 8001d02:	60da      	str	r2, [r3, #12]
  SYS_SERIAL_TX_PER->AFR[0] &= ~((uint32_t)0xF << ((uint32_t)((uint32_t)SYS_SERIAL_TX_PIN_NO & (uint32_t)0x07) * 4));
 8001d04:	6a1a      	ldr	r2, [r3, #32]
 8001d06:	f422 6270 	bic.w	r2, r2, #3840	; 0xf00
 8001d0a:	621a      	str	r2, [r3, #32]
  SYS_SERIAL_TX_PER->AFR[0] |=  ((uint32_t)(SYS_SERIAL_TX_AF) << ((uint32_t)((uint32_t)SYS_SERIAL_TX_PIN_NO & (uint32_t)0x07) * 4));
 8001d0c:	6a1a      	ldr	r2, [r3, #32]
 8001d0e:	f442 62e0 	orr.w	r2, r2, #1792	; 0x700
 8001d12:	621a      	str	r2, [r3, #32]

  // Configure the pin PA3 as alternate function 7 (USART Rx).
  lPinPosition = (SYS_SERIAL_RX_PIN_NO * 2);
  SYS_SERIAL_RX_PER->MODER   &= ~GPIO_MODER_MODER3;
 8001d14:	681a      	ldr	r2, [r3, #0]
 8001d16:	f022 02c0 	bic.w	r2, r2, #192	; 0xc0
 8001d1a:	601a      	str	r2, [r3, #0]
  SYS_SERIAL_RX_PER->MODER   |= (((uint32_t)GPIO_Mode_AF) << lPinPosition);
 8001d1c:	681a      	ldr	r2, [r3, #0]
 8001d1e:	f042 0280 	orr.w	r2, r2, #128	; 0x80
 8001d22:	601a      	str	r2, [r3, #0]
  SYS_SERIAL_RX_PER->OSPEEDR &= ~GPIO_OSPEEDER_OSPEEDR3;
 8001d24:	689a      	ldr	r2, [r3, #8]
 8001d26:	f022 02c0 	bic.w	r2, r2, #192	; 0xc0
 8001d2a:	609a      	str	r2, [r3, #8]
  SYS_SERIAL_RX_PER->OSPEEDR |= ((uint32_t)(GPIO_Speed_50MHz) << lPinPosition);
 8001d2c:	689a      	ldr	r2, [r3, #8]
 8001d2e:	f042 0280 	orr.w	r2, r2, #128	; 0x80
 8001d32:	609a      	str	r2, [r3, #8]
  SYS_SERIAL_RX_PER->OTYPER  &= ~GPIO_OTYPER_OT_3;
 8001d34:	685a      	ldr	r2, [r3, #4]
 8001d36:	f022 0208 	bic.w	r2, r2, #8
 8001d3a:	605a      	str	r2, [r3, #4]
  SYS_SERIAL_RX_PER->OTYPER  |= (uint16_t)(GPIO_OType_PP << SYS_SERIAL_RX_PIN_NO);
 8001d3c:	685a      	ldr	r2, [r3, #4]
 8001d3e:	605a      	str	r2, [r3, #4]
  SYS_SERIAL_RX_PER->PUPDR   &= ~GPIO_PUPDR_PUPDR3;
 8001d40:	68da      	ldr	r2, [r3, #12]
 8001d42:	f022 02c0 	bic.w	r2, r2, #192	; 0xc0
 8001d46:	60da      	str	r2, [r3, #12]
  SYS_SERIAL_RX_PER->PUPDR   |= (((uint32_t)GPIO_PuPd_NOPULL) << lPinPosition);
 8001d48:	68da      	ldr	r2, [r3, #12]
 8001d4a:	60da      	str	r2, [r3, #12]
  SYS_SERIAL_RX_PER->AFR[0] &= ~((uint32_t)0xF << ((uint32_t)((uint32_t)SYS_SERIAL_RX_PIN_NO & (uint32_t)0x07) * 4)) ;
 8001d4c:	6a1a      	ldr	r2, [r3, #32]
 8001d4e:	f422 4270 	bic.w	r2, r2, #61440	; 0xf000
 8001d52:	621a      	str	r2, [r3, #32]
  SYS_SERIAL_RX_PER->AFR[0] |= ((uint32_t)(SYS_SERIAL_RX_AF) << ((uint32_t)((uint32_t)SYS_SERIAL_RX_PIN_NO & (uint32_t)0x07) * 4));
 8001d54:	6a1a      	ldr	r2, [r3, #32]
 8001d56:	f442 42e0 	orr.w	r2, r2, #28672	; 0x7000
 8001d5a:	621a      	str	r2, [r3, #32]
  uint32_t tmpreg = 0x00, apbclock = 0x00;
  uint32_t integerdivider = 0x00;
  uint32_t fractionaldivider = 0x00;

  // USART CR2 Configuration
  tmpreg = SYS_SERIAL_PORT->CR2;
 8001d5c:	f5a3 33de 	sub.w	r3, r3, #113664	; 0x1bc00
 8001d60:	691a      	ldr	r2, [r3, #16]
 8001d62:	f422 5240 	bic.w	r2, r2, #12288	; 0x3000
 8001d66:	0412      	lsls	r2, r2, #16
 8001d68:	0c12      	lsrs	r2, r2, #16
  // Configure the USART Stop Bits, Clock, CPOL, CPHA and LastBit :
  // Set STOP[13:12] bits according to USART_StopBits value
  tmpreg |= (uint32_t)SYS_SERIAL_StopBits_1;

  // Write to USART CR2
  SYS_SERIAL_PORT->CR2 = (uint16_t)tmpreg;
 8001d6a:	611a      	str	r2, [r3, #16]

  // USART CR1 Configuration
  tmpreg = SYS_SERIAL_PORT->CR1;
 8001d6c:	68da      	ldr	r2, [r3, #12]
  tmpreg = (uint32_t)(SYS_SERIAL_WordLength_8b
                    | SYS_SERIAL_Parity_No
                    |(SYS_SERIAL_Mode_Rx | SYS_SERIAL_Mode_Tx));

  // Write to USART CR1
  SYS_SERIAL_PORT->CR1 = (uint16_t)tmpreg;
 8001d6e:	220c      	movs	r2, #12
 8001d70:	60da      	str	r2, [r3, #12]

  // USART CR3 Configuration
  tmpreg = SYS_SERIAL_PORT->CR3;
 8001d72:	695a      	ldr	r2, [r3, #20]
 8001d74:	f422 7240 	bic.w	r2, r2, #768	; 0x300
 8001d78:	0412      	lsls	r2, r2, #16
 8001d7a:	0c12      	lsrs	r2, r2, #16
  // Configure the USART HFC :
  //   Set CTSE and RTSE bits according to USART_HardwareFlowControl value
  tmpreg |= SYS_SERIAL_HardwareFlowControl_None;

  // Write to USART CR3
  SYS_SERIAL_PORT->CR3 = (uint16_t)tmpreg;
 8001d7c:	615a      	str	r2, [r3, #20]

  // Configure the USART Baud Rate
  apbclock = (((HSE_VALUE / PLL_M) * PLL_N) / PLL_P) >> 2; // for the ArcadeIT! should be 45MHz

  // Determine the integer part
  if ((SYS_SERIAL_PORT->CR1 & USART_CR1_OVER8) != 0)
 8001d7e:	68db      	ldr	r3, [r3, #12]
 8001d80:	f413 4f00 	tst.w	r3, #32768	; 0x8000
 8001d84:	d026      	beq.n	8001dd4 <ArcadeIT_Serial_Port_Init+0x148>
  {
    // Integer part computing in case Oversampling mode is 8 Samples
    integerdivider = ((25 * apbclock) / (2 * pBaud));
 8001d86:	0040      	lsls	r0, r0, #1
 8001d88:	4b1c      	ldr	r3, [pc, #112]	; (8001dfc <ArcadeIT_Serial_Port_Init+0x170>)
 8001d8a:	fbb3 f3f0 	udiv	r3, r3, r0
    integerdivider = ((25 * apbclock) / (4 * pBaud));
    // 25 * 45000000 / 4 * 115200
    // 1125000000 / 460800
    // 2441
  }
  tmpreg = (integerdivider / 100) << 4;
 8001d8e:	4a1c      	ldr	r2, [pc, #112]	; (8001e00 <ArcadeIT_Serial_Port_Init+0x174>)
 8001d90:	fba2 1203 	umull	r1, r2, r2, r3
 8001d94:	0952      	lsrs	r2, r2, #5
 8001d96:	0111      	lsls	r1, r2, #4
  // 2441 / 100 * 16
  // 24 * 16 (FOUND 24, we already shift this left of 4 bits to create room for fraction)
  // 384 (0x18 << 4 = 0x180)

  // Determine the fractional part
  fractionaldivider = integerdivider - (100 * (tmpreg >> 4));
 8001d98:	2064      	movs	r0, #100	; 0x64
 8001d9a:	fb02 3010 	mls	r0, r2, r0, r3
  // 2441 - 38400 / 16
  // 2441 - 2400
  // 41 (FOUND 41)

  // Implement the fractional part in the register
  if ((SYS_SERIAL_PORT->CR1 & USART_CR1_OVER8) != 0)
 8001d9e:	4b19      	ldr	r3, [pc, #100]	; (8001e04 <ArcadeIT_Serial_Port_Init+0x178>)
 8001da0:	68db      	ldr	r3, [r3, #12]
 8001da2:	f413 4f00 	tst.w	r3, #32768	; 0x8000
 8001da6:	d11a      	bne.n	8001dde <ArcadeIT_Serial_Port_Init+0x152>
  {
    tmpreg |= ((((fractionaldivider * 8) + 50) / 100)) & ((uint8_t)0x07);
  }
  else // if ((USARTx->CR1 & USART_CR1_OVER8) == 0)
  {
    tmpreg |= ((((fractionaldivider * 16) + 50) / 100)) & ((uint8_t)0x0F);
 8001da8:	0100      	lsls	r0, r0, #4
 8001daa:	3032      	adds	r0, #50	; 0x32
 8001dac:	4b14      	ldr	r3, [pc, #80]	; (8001e00 <ArcadeIT_Serial_Port_Init+0x174>)
 8001dae:	fba3 3000 	umull	r3, r0, r3, r0
 8001db2:	f3c0 1043 	ubfx	r0, r0, #5, #4
 8001db6:	4308      	orrs	r0, r1
 8001db8:	b280      	uxth	r0, r0
    // mmmmmmmmm   ffff
    // 0x180     |  0x7
  }

  // Write to USART BRR register
  SYS_SERIAL_PORT->BRR = (uint16_t)tmpreg;
 8001dba:	4b12      	ldr	r3, [pc, #72]	; (8001e04 <ArcadeIT_Serial_Port_Init+0x178>)
 8001dbc:	6098      	str	r0, [r3, #8]

  // Enable the USART2
  SYS_SERIAL_PORT->CR1 |= USART_CR1_UE;
 8001dbe:	68da      	ldr	r2, [r3, #12]
 8001dc0:	f442 5200 	orr.w	r2, r2, #8192	; 0x2000
 8001dc4:	60da      	str	r2, [r3, #12]

  ArcadeIT_Serial_Port_String_Send(RESET_DEVICE);
 8001dc6:	4810      	ldr	r0, [pc, #64]	; (8001e08 <ArcadeIT_Serial_Port_Init+0x17c>)
 8001dc8:	f7ff ff56 	bl	8001c78 <ArcadeIT_Serial_Port_String_Send>

  ArcadeIT_Serial_Port_String_Send(TEXT_SERIAL_PORT_INITED);
 8001dcc:	480f      	ldr	r0, [pc, #60]	; (8001e0c <ArcadeIT_Serial_Port_Init+0x180>)
 8001dce:	f7ff ff53 	bl	8001c78 <ArcadeIT_Serial_Port_String_Send>

} // End ArcadeIT_Serial_Port_Init.
 8001dd2:	bd08      	pop	{r3, pc}
    integerdivider = ((25 * apbclock) / (4 * pBaud));
 8001dd4:	0080      	lsls	r0, r0, #2
 8001dd6:	4b09      	ldr	r3, [pc, #36]	; (8001dfc <ArcadeIT_Serial_Port_Init+0x170>)
 8001dd8:	fbb3 f3f0 	udiv	r3, r3, r0
 8001ddc:	e7d7      	b.n	8001d8e <ArcadeIT_Serial_Port_Init+0x102>
    tmpreg |= ((((fractionaldivider * 8) + 50) / 100)) & ((uint8_t)0x07);
 8001dde:	00c3      	lsls	r3, r0, #3
 8001de0:	3332      	adds	r3, #50	; 0x32
 8001de2:	4807      	ldr	r0, [pc, #28]	; (8001e00 <ArcadeIT_Serial_Port_Init+0x174>)
 8001de4:	fba0 2303 	umull	r2, r3, r0, r3
 8001de8:	f3c3 1342 	ubfx	r3, r3, #5, #3
 8001dec:	ea43 0001 	orr.w	r0, r3, r1
 8001df0:	e7e2      	b.n	8001db8 <ArcadeIT_Serial_Port_Init+0x12c>
 8001df2:	bf00      	nop
 8001df4:	40023800 	.word	0x40023800
 8001df8:	40020000 	.word	0x40020000
 8001dfc:	430e2340 	.word	0x430e2340
 8001e00:	51eb851f 	.word	0x51eb851f
 8001e04:	40004400 	.word	0x40004400
 8001e08:	0800688c 	.word	0x0800688c
 8001e0c:	080069bc 	.word	0x080069bc

08001e10 <ArcadeIT_Status_LEDS_Init>:

// //////////////////////////////////////////////////////////////////////////////
// Functions.
// //////////////////////////////////////////////////////////////////////////////
void ArcadeIT_Status_LEDS_Init(void)
{
 8001e10:	b508      	push	{r3, lr}
 */

  uint32_t lPinPosition = 0;

  // Turn on the MCU peripheral by enabling its Clock.
  if ((RCC->AHB1ENR & RCC_AHB1Periph_GPIOH) == FALSE) RCC->AHB1ENR |= RCC_AHB1Periph_GPIOH;
 8001e12:	4b2c      	ldr	r3, [pc, #176]	; (8001ec4 <ArcadeIT_Status_LEDS_Init+0xb4>)
 8001e14:	6b1b      	ldr	r3, [r3, #48]	; 0x30
 8001e16:	f013 0f80 	tst.w	r3, #128	; 0x80
 8001e1a:	d104      	bne.n	8001e26 <ArcadeIT_Status_LEDS_Init+0x16>
 8001e1c:	4a29      	ldr	r2, [pc, #164]	; (8001ec4 <ArcadeIT_Status_LEDS_Init+0xb4>)
 8001e1e:	6b13      	ldr	r3, [r2, #48]	; 0x30
 8001e20:	f043 0380 	orr.w	r3, r3, #128	; 0x80
 8001e24:	6313      	str	r3, [r2, #48]	; 0x30
  // level as default.
  // -----------------------
  lPinPosition = (SYS_STATUS_LED1_PIN_NO * 2); // the position is a multiple of 2

  // GPIO pin(PH2) in output
  SYS_STATUS_LED1_PER->MODER   &= ~GPIO_MODER_MODER2;
 8001e26:	4b28      	ldr	r3, [pc, #160]	; (8001ec8 <ArcadeIT_Status_LEDS_Init+0xb8>)
 8001e28:	681a      	ldr	r2, [r3, #0]
 8001e2a:	f022 0230 	bic.w	r2, r2, #48	; 0x30
 8001e2e:	601a      	str	r2, [r3, #0]
  SYS_STATUS_LED1_PER->MODER   |= (((uint32_t)GPIO_Mode_OUT) << lPinPosition);
 8001e30:	681a      	ldr	r2, [r3, #0]
 8001e32:	f042 0210 	orr.w	r2, r2, #16
 8001e36:	601a      	str	r2, [r3, #0]
  SYS_STATUS_LED1_PER->OSPEEDR &= ~GPIO_OSPEEDER_OSPEEDR2;
 8001e38:	689a      	ldr	r2, [r3, #8]
 8001e3a:	f022 0230 	bic.w	r2, r2, #48	; 0x30
 8001e3e:	609a      	str	r2, [r3, #8]
  SYS_STATUS_LED1_PER->OSPEEDR |= ((uint32_t)(GPIO_Speed_100MHz) << lPinPosition);
 8001e40:	689a      	ldr	r2, [r3, #8]
 8001e42:	f042 0230 	orr.w	r2, r2, #48	; 0x30
 8001e46:	609a      	str	r2, [r3, #8]
  SYS_STATUS_LED1_PER->OTYPER  &= ~GPIO_OTYPER_OT_2;
 8001e48:	685a      	ldr	r2, [r3, #4]
 8001e4a:	f022 0204 	bic.w	r2, r2, #4
 8001e4e:	605a      	str	r2, [r3, #4]
  SYS_STATUS_LED1_PER->OTYPER  |= (uint16_t)(GPIO_OType_PP << SYS_STATUS_LED1_PIN_NO);
 8001e50:	685a      	ldr	r2, [r3, #4]
 8001e52:	605a      	str	r2, [r3, #4]
  SYS_STATUS_LED1_PER->PUPDR   &= ~GPIO_PUPDR_PUPDR2;
 8001e54:	68da      	ldr	r2, [r3, #12]
 8001e56:	f022 0230 	bic.w	r2, r2, #48	; 0x30
 8001e5a:	60da      	str	r2, [r3, #12]
  SYS_STATUS_LED1_PER->PUPDR   |= (((uint32_t)GPIO_PuPd_DOWN) << lPinPosition);
 8001e5c:	68da      	ldr	r2, [r3, #12]
 8001e5e:	f042 0220 	orr.w	r2, r2, #32
 8001e62:	60da      	str	r2, [r3, #12]

  // -----------------------
  lPinPosition = (SYS_STATUS_LED2_PIN_NO * 2); // the position is a multiple of 2

  // GPIO pin(PH3) in output
  SYS_STATUS_LED2_PER->MODER   &= ~GPIO_MODER_MODER3;
 8001e64:	681a      	ldr	r2, [r3, #0]
 8001e66:	f022 02c0 	bic.w	r2, r2, #192	; 0xc0
 8001e6a:	601a      	str	r2, [r3, #0]
  SYS_STATUS_LED2_PER->MODER   |= (((uint32_t)GPIO_Mode_OUT) << lPinPosition);
 8001e6c:	681a      	ldr	r2, [r3, #0]
 8001e6e:	f042 0240 	orr.w	r2, r2, #64	; 0x40
 8001e72:	601a      	str	r2, [r3, #0]
  SYS_STATUS_LED2_PER->OSPEEDR &= ~GPIO_OSPEEDER_OSPEEDR3;
 8001e74:	689a      	ldr	r2, [r3, #8]
 8001e76:	f022 02c0 	bic.w	r2, r2, #192	; 0xc0
 8001e7a:	609a      	str	r2, [r3, #8]
  SYS_STATUS_LED2_PER->OSPEEDR |= ((uint32_t)(GPIO_Speed_100MHz) << lPinPosition);
 8001e7c:	689a      	ldr	r2, [r3, #8]
 8001e7e:	f042 02c0 	orr.w	r2, r2, #192	; 0xc0
 8001e82:	609a      	str	r2, [r3, #8]
  SYS_STATUS_LED2_PER->OTYPER  &= ~GPIO_OTYPER_OT_3;
 8001e84:	685a      	ldr	r2, [r3, #4]
 8001e86:	f022 0208 	bic.w	r2, r2, #8
 8001e8a:	605a      	str	r2, [r3, #4]
  SYS_STATUS_LED2_PER->OTYPER  |= (uint16_t)(GPIO_OType_PP << SYS_STATUS_LED2_PIN_NO);
 8001e8c:	685a      	ldr	r2, [r3, #4]
 8001e8e:	605a      	str	r2, [r3, #4]
  SYS_STATUS_LED2_PER->PUPDR   &= ~GPIO_PUPDR_PUPDR3;
 8001e90:	68da      	ldr	r2, [r3, #12]
 8001e92:	f022 02c0 	bic.w	r2, r2, #192	; 0xc0
 8001e96:	60da      	str	r2, [r3, #12]
  SYS_STATUS_LED2_PER->PUPDR   |= (((uint32_t)GPIO_PuPd_DOWN) << lPinPosition);
 8001e98:	68da      	ldr	r2, [r3, #12]
 8001e9a:	f042 0280 	orr.w	r2, r2, #128	; 0x80
 8001e9e:	60da      	str	r2, [r3, #12]

  // -----------------------
  // Put LEDs line LOW.
  SYS_STATUS_LED1_PER->ODR &= ~(SYS_STATUS_LED1_PIN);
 8001ea0:	695a      	ldr	r2, [r3, #20]
 8001ea2:	f022 0204 	bic.w	r2, r2, #4
 8001ea6:	615a      	str	r2, [r3, #20]
  SYS_STATUS_LED2_PER->ODR &= ~(SYS_STATUS_LED2_PIN);
 8001ea8:	695a      	ldr	r2, [r3, #20]
 8001eaa:	f022 0208 	bic.w	r2, r2, #8
 8001eae:	615a      	str	r2, [r3, #20]

  // Shows a message to serial port as debug
  if (gDevices & ARCADEIT_DEVICE_SERIAL)
 8001eb0:	4b06      	ldr	r3, [pc, #24]	; (8001ecc <ArcadeIT_Status_LEDS_Init+0xbc>)
 8001eb2:	681b      	ldr	r3, [r3, #0]
 8001eb4:	f413 4f80 	tst.w	r3, #16384	; 0x4000
 8001eb8:	d100      	bne.n	8001ebc <ArcadeIT_Status_LEDS_Init+0xac>
  {
    ArcadeIT_Serial_Port_String_Send(TEXT_STATUS_LEDS_INITED);

  } // End if.

} // End ArcadeIT_Status_LEDS_Init.
 8001eba:	bd08      	pop	{r3, pc}
    ArcadeIT_Serial_Port_String_Send(TEXT_STATUS_LEDS_INITED);
 8001ebc:	4804      	ldr	r0, [pc, #16]	; (8001ed0 <ArcadeIT_Status_LEDS_Init+0xc0>)
 8001ebe:	f7ff fedb 	bl	8001c78 <ArcadeIT_Serial_Port_String_Send>
} // End ArcadeIT_Status_LEDS_Init.
 8001ec2:	e7fa      	b.n	8001eba <ArcadeIT_Status_LEDS_Init+0xaa>
 8001ec4:	40023800 	.word	0x40023800
 8001ec8:	40021c00 	.word	0x40021c00
 8001ecc:	200001f8 	.word	0x200001f8
 8001ed0:	080069d4 	.word	0x080069d4

08001ed4 <ArcadeIT_Status_LED1_Toggle>:
  * PARAMETERS:  None.
  * RETURNS:     Nothing.
  */

  // Set LEDs line LOW or HIGH depending the current status of the LED.
  if (GPIOH->ODR & SYS_STATUS_LED1_PIN)
 8001ed4:	4b08      	ldr	r3, [pc, #32]	; (8001ef8 <ArcadeIT_Status_LED1_Toggle+0x24>)
 8001ed6:	695b      	ldr	r3, [r3, #20]
 8001ed8:	f013 0f04 	tst.w	r3, #4
 8001edc:	d105      	bne.n	8001eea <ArcadeIT_Status_LED1_Toggle+0x16>
  {
    GPIOH->ODR &= ~(SYS_STATUS_LED1_PIN);
  }
  else
  {
    GPIOH->ODR |= SYS_STATUS_LED1_PIN;
 8001ede:	4a06      	ldr	r2, [pc, #24]	; (8001ef8 <ArcadeIT_Status_LED1_Toggle+0x24>)
 8001ee0:	6953      	ldr	r3, [r2, #20]
 8001ee2:	f043 0304 	orr.w	r3, r3, #4
 8001ee6:	6153      	str	r3, [r2, #20]

  } // End if.

} // End ArcadeIT_Status_LED1_Toggle.
 8001ee8:	4770      	bx	lr
    GPIOH->ODR &= ~(SYS_STATUS_LED1_PIN);
 8001eea:	4a03      	ldr	r2, [pc, #12]	; (8001ef8 <ArcadeIT_Status_LED1_Toggle+0x24>)
 8001eec:	6953      	ldr	r3, [r2, #20]
 8001eee:	f023 0304 	bic.w	r3, r3, #4
 8001ef2:	6153      	str	r3, [r2, #20]
 8001ef4:	4770      	bx	lr
 8001ef6:	bf00      	nop
 8001ef8:	40021c00 	.word	0x40021c00

08001efc <ArcadeIT_Status_LED2_Toggle>:
  * PARAMETERS:  None.
  * RETURNS:     Nothing.
  */

  // Set LEDs line LOW or HIGH depending the current status of the LED.
  if (SYS_STATUS_LED2_PER->ODR & SYS_STATUS_LED2_PIN)
 8001efc:	4b08      	ldr	r3, [pc, #32]	; (8001f20 <ArcadeIT_Status_LED2_Toggle+0x24>)
 8001efe:	695b      	ldr	r3, [r3, #20]
 8001f00:	f013 0f08 	tst.w	r3, #8
 8001f04:	d105      	bne.n	8001f12 <ArcadeIT_Status_LED2_Toggle+0x16>
  {
    SYS_STATUS_LED2_PER->ODR &= ~(SYS_STATUS_LED2_PIN);
  }
  else
  {
    SYS_STATUS_LED2_PER->ODR |= SYS_STATUS_LED2_PIN;
 8001f06:	4a06      	ldr	r2, [pc, #24]	; (8001f20 <ArcadeIT_Status_LED2_Toggle+0x24>)
 8001f08:	6953      	ldr	r3, [r2, #20]
 8001f0a:	f043 0308 	orr.w	r3, r3, #8
 8001f0e:	6153      	str	r3, [r2, #20]

  } // End if.

} // End ArcadeIT_Status_LED2_Toggle.
 8001f10:	4770      	bx	lr
    SYS_STATUS_LED2_PER->ODR &= ~(SYS_STATUS_LED2_PIN);
 8001f12:	4a03      	ldr	r2, [pc, #12]	; (8001f20 <ArcadeIT_Status_LED2_Toggle+0x24>)
 8001f14:	6953      	ldr	r3, [r2, #20]
 8001f16:	f023 0308 	bic.w	r3, r3, #8
 8001f1a:	6153      	str	r3, [r2, #20]
 8001f1c:	4770      	bx	lr
 8001f1e:	bf00      	nop
 8001f20:	40021c00 	.word	0x40021c00

08001f24 <ArcadeIT_TestPad_Set>:
  *  RCC_MCO2Div_4
  *  RCC_MCO2Div_5
  *
  */

  uint32_t lTmpReg = RCC->CFGR;
 8001f24:	4a03      	ldr	r2, [pc, #12]	; (8001f34 <ArcadeIT_TestPad_Set+0x10>)
 8001f26:	6893      	ldr	r3, [r2, #8]
  lTmpReg  &= CFGR_MCO2_RESET_MASK;                 // Clear MCO2 and MCO2PRE[2:0] bits
 8001f28:	f023 4378 	bic.w	r3, r3, #4160749568	; 0xf8000000
  lTmpReg  |= pFrequencySystem | pFrequencyDivider; // Select MCO2 clock source and prescaler
 8001f2c:	4301      	orrs	r1, r0
 8001f2e:	4319      	orrs	r1, r3
  RCC->CFGR = lTmpReg;
 8001f30:	6091      	str	r1, [r2, #8]

} // End ArcadeIT_TestPad_Set.
 8001f32:	4770      	bx	lr
 8001f34:	40023800 	.word	0x40023800

08001f38 <ArcadeIT_TestPad_Init>:
void ArcadeIT_TestPad_Init
(
    uint32_t pFrequencySystem,  // What frequency source to test.
    uint32_t pFrequencyDivider  // What divider to test.
)
{
 8001f38:	b508      	push	{r3, lr}
  * RETURNS:     Nothing.
  */

  uint32_t lPinPosition;

  if ((RCC->AHB1ENR & RCC_AHB1Periph_GPIOC) == FALSE) RCC->AHB1ENR |= RCC_AHB1Periph_GPIOC;
 8001f3a:	4b1d      	ldr	r3, [pc, #116]	; (8001fb0 <ArcadeIT_TestPad_Init+0x78>)
 8001f3c:	6b1b      	ldr	r3, [r3, #48]	; 0x30
 8001f3e:	f013 0f04 	tst.w	r3, #4
 8001f42:	d104      	bne.n	8001f4e <ArcadeIT_TestPad_Init+0x16>
 8001f44:	4a1a      	ldr	r2, [pc, #104]	; (8001fb0 <ArcadeIT_TestPad_Init+0x78>)
 8001f46:	6b13      	ldr	r3, [r2, #48]	; 0x30
 8001f48:	f043 0304 	orr.w	r3, r3, #4
 8001f4c:	6313      	str	r3, [r2, #48]	; 0x30

  // Configure pin PC9 in alternate function 0 (MCO2)
  lPinPosition = (SYS_TESTPADS_PIN_NO * 2);

  SYS_TESTPADS_PER->MODER   &= ~GPIO_MODER_MODER9;
 8001f4e:	4b19      	ldr	r3, [pc, #100]	; (8001fb4 <ArcadeIT_TestPad_Init+0x7c>)
 8001f50:	681a      	ldr	r2, [r3, #0]
 8001f52:	f422 2240 	bic.w	r2, r2, #786432	; 0xc0000
 8001f56:	601a      	str	r2, [r3, #0]
  SYS_TESTPADS_PER->MODER   |= (((uint32_t)GPIO_Mode_AF) << lPinPosition);
 8001f58:	681a      	ldr	r2, [r3, #0]
 8001f5a:	f442 2200 	orr.w	r2, r2, #524288	; 0x80000
 8001f5e:	601a      	str	r2, [r3, #0]

  // Maximum frequency allowed is 100MHz, so keep it in mind when you want
  // to test 180MHz, you have to set the divider at least 2
  SYS_TESTPADS_PER->OSPEEDR &= ~GPIO_OSPEEDER_OSPEEDR9;
 8001f60:	689a      	ldr	r2, [r3, #8]
 8001f62:	f422 2240 	bic.w	r2, r2, #786432	; 0xc0000
 8001f66:	609a      	str	r2, [r3, #8]
  SYS_TESTPADS_PER->OSPEEDR |= ((uint32_t)(GPIO_Speed_100MHz) << lPinPosition);
 8001f68:	689a      	ldr	r2, [r3, #8]
 8001f6a:	f442 2240 	orr.w	r2, r2, #786432	; 0xc0000
 8001f6e:	609a      	str	r2, [r3, #8]
  SYS_TESTPADS_PER->OTYPER  &= ~GPIO_OTYPER_OT_9;
 8001f70:	685a      	ldr	r2, [r3, #4]
 8001f72:	f422 7200 	bic.w	r2, r2, #512	; 0x200
 8001f76:	605a      	str	r2, [r3, #4]
  SYS_TESTPADS_PER->OTYPER  |= (uint16_t)(GPIO_OType_PP << SYS_TESTPADS_PIN_NO);
 8001f78:	685a      	ldr	r2, [r3, #4]
 8001f7a:	605a      	str	r2, [r3, #4]
  SYS_TESTPADS_PER->PUPDR   &= ~GPIO_PUPDR_PUPDR9;
 8001f7c:	68da      	ldr	r2, [r3, #12]
 8001f7e:	f422 2240 	bic.w	r2, r2, #786432	; 0xc0000
 8001f82:	60da      	str	r2, [r3, #12]
  SYS_TESTPADS_PER->PUPDR   |= (((uint32_t)GPIO_PuPd_UP) << lPinPosition);
 8001f84:	68da      	ldr	r2, [r3, #12]
 8001f86:	f442 2280 	orr.w	r2, r2, #262144	; 0x40000
 8001f8a:	60da      	str	r2, [r3, #12]
  SYS_TESTPADS_PER->AFR[1] &= ~((uint32_t)0xF << ((uint32_t)((uint32_t)SYS_TESTPADS_PIN_NO & (uint32_t)0x07) * 4));
 8001f8c:	6a5a      	ldr	r2, [r3, #36]	; 0x24
 8001f8e:	f022 02f0 	bic.w	r2, r2, #240	; 0xf0
 8001f92:	625a      	str	r2, [r3, #36]	; 0x24
  SYS_TESTPADS_PER->AFR[1] |=  ((uint32_t)(SYS_TESTPADS_AF) << ((uint32_t)((uint32_t)SYS_TESTPADS_PIN_NO & (uint32_t)0x07) * 4));
 8001f94:	6a5a      	ldr	r2, [r3, #36]	; 0x24
 8001f96:	625a      	str	r2, [r3, #36]	; 0x24

  ArcadeIT_TestPad_Set(pFrequencySystem, pFrequencyDivider);
 8001f98:	f7ff ffc4 	bl	8001f24 <ArcadeIT_TestPad_Set>

  // Shows a message to serial port as debug
  if (gDevices & ARCADEIT_DEVICE_SERIAL)
 8001f9c:	4b06      	ldr	r3, [pc, #24]	; (8001fb8 <ArcadeIT_TestPad_Init+0x80>)
 8001f9e:	681b      	ldr	r3, [r3, #0]
 8001fa0:	f413 4f80 	tst.w	r3, #16384	; 0x4000
 8001fa4:	d100      	bne.n	8001fa8 <ArcadeIT_TestPad_Init+0x70>
    // Starts and configure the serial port.
    ArcadeIT_Serial_Port_String_Send(TEXT_TEST_PADS_INITED);

  } // End if.

} // End ArcadeIT_TestPads_Init.
 8001fa6:	bd08      	pop	{r3, pc}
    ArcadeIT_Serial_Port_String_Send(TEXT_TEST_PADS_INITED);
 8001fa8:	4804      	ldr	r0, [pc, #16]	; (8001fbc <ArcadeIT_TestPad_Init+0x84>)
 8001faa:	f7ff fe65 	bl	8001c78 <ArcadeIT_Serial_Port_String_Send>
} // End ArcadeIT_TestPads_Init.
 8001fae:	e7fa      	b.n	8001fa6 <ArcadeIT_TestPad_Init+0x6e>
 8001fb0:	40023800 	.word	0x40023800
 8001fb4:	40020800 	.word	0x40020800
 8001fb8:	200001f8 	.word	0x200001f8
 8001fbc:	080069ec 	.word	0x080069ec

08001fc0 <get_fattime>:
          | ((uint32_t)lRTC_TimeStructure.RTC_Seconds >> 1
          );
*/
  return 0;

} // end get_fattime
 8001fc0:	2000      	movs	r0, #0
 8001fc2:	4770      	bx	lr

08001fc4 <ArcadeIT_Scheduler_Task_Init>:
  PARMS:        See above.
  RETURNS:      Nothing.
  */

  uint8_t lTask = 0;
  for (lTask = 0; lTask < ARCADEIT_SCHEDULER_MAX_TASKS; lTask++)
 8001fc4:	2300      	movs	r3, #0
 8001fc6:	2b04      	cmp	r3, #4
 8001fc8:	d812      	bhi.n	8001ff0 <ArcadeIT_Scheduler_Task_Init+0x2c>
{
 8001fca:	b410      	push	{r4}
  {
    gArcadeITTasks[lTask].current_cycle = 0;
 8001fcc:	4c09      	ldr	r4, [pc, #36]	; (8001ff4 <ArcadeIT_Scheduler_Task_Init+0x30>)
 8001fce:	202c      	movs	r0, #44	; 0x2c
 8001fd0:	fb00 f003 	mul.w	r0, r0, r3
 8001fd4:	1821      	adds	r1, r4, r0
 8001fd6:	2200      	movs	r2, #0
 8001fd8:	604a      	str	r2, [r1, #4]
    gArcadeITTasks[lTask].cycles = 0;
 8001fda:	5022      	str	r2, [r4, r0]
    gArcadeITTasks[lTask].time_period = 0;
 8001fdc:	608a      	str	r2, [r1, #8]
    gArcadeITTasks[lTask].time_current = 0;
 8001fde:	60ca      	str	r2, [r1, #12]
    gArcadeITTasks[lTask].function = NULL;
 8001fe0:	610a      	str	r2, [r1, #16]
  for (lTask = 0; lTask < ARCADEIT_SCHEDULER_MAX_TASKS; lTask++)
 8001fe2:	3301      	adds	r3, #1
 8001fe4:	b2db      	uxtb	r3, r3
 8001fe6:	2b04      	cmp	r3, #4
 8001fe8:	d9f0      	bls.n	8001fcc <ArcadeIT_Scheduler_Task_Init+0x8>
  {
    //ArcadeIT_Serial_Port_String_Send(TEXT_SCHEDULER_INITED);

  } // End if.

} // End ArcadeIT_Scheduler_Task_Init.
 8001fea:	f85d 4b04 	ldr.w	r4, [sp], #4
 8001fee:	4770      	bx	lr
 8001ff0:	4770      	bx	lr
 8001ff2:	bf00      	nop
 8001ff4:	20000664 	.word	0x20000664

08001ff8 <ArcadeIT_Scheduler_Task_Set>:
  void *pFunctionPtr,        // The pointer to the function to execute.
  void *pParameters,         // The pointer to the parameters used by the function.
  uint32_t pCycles,          // The number of time that this task has to be executed. 0 = infinite.
  uint32_t pTimePeriod       // The time period in ms to elapse before the next execution.
)
{
 8001ff8:	b5f0      	push	{r4, r5, r6, r7, lr}
 8001ffa:	469e      	mov	lr, r3
 8001ffc:	9f05      	ldr	r7, [sp, #20]
  DESCRIPTION:  Setup a scheduled task.
  PARMS:        See above.
  RETURNS:      Nothing.
  */

  if (pParameters != NULL)
 8001ffe:	b1f2      	cbz	r2, 800203e <ArcadeIT_Scheduler_Task_Set+0x46>
 8002000:	4616      	mov	r6, r2
  {
    gArcadeITTasks[id].num_parameters = ((uint32_t*)pParameters)[PAR_1];
 8002002:	6814      	ldr	r4, [r2, #0]
 8002004:	4684      	mov	ip, r0
 8002006:	4d15      	ldr	r5, [pc, #84]	; (800205c <ArcadeIT_Scheduler_Task_Set+0x64>)
 8002008:	222c      	movs	r2, #44	; 0x2c
 800200a:	fb02 5200 	mla	r2, r2, r0, r5
 800200e:	7514      	strb	r4, [r2, #20]

    // Copy parameters.
    uint8_t lPars = 0;
    for (lPars = 0; lPars < gArcadeITTasks[id].num_parameters+1; lPars++)
 8002010:	2400      	movs	r4, #0
 8002012:	e00c      	b.n	800202e <ArcadeIT_Scheduler_Task_Set+0x36>
    {
      gArcadeITTasks[id].parameters[lPars] = ((uint32_t*)pParameters)[lPars];
 8002014:	eb0c 028c 	add.w	r2, ip, ip, lsl #2
 8002018:	eb0c 0242 	add.w	r2, ip, r2, lsl #1
 800201c:	4422      	add	r2, r4
 800201e:	3206      	adds	r2, #6
 8002020:	4d0e      	ldr	r5, [pc, #56]	; (800205c <ArcadeIT_Scheduler_Task_Set+0x64>)
 8002022:	f856 3024 	ldr.w	r3, [r6, r4, lsl #2]
 8002026:	f845 3022 	str.w	r3, [r5, r2, lsl #2]
    for (lPars = 0; lPars < gArcadeITTasks[id].num_parameters+1; lPars++)
 800202a:	3401      	adds	r4, #1
 800202c:	b2e4      	uxtb	r4, r4
 800202e:	4d0b      	ldr	r5, [pc, #44]	; (800205c <ArcadeIT_Scheduler_Task_Set+0x64>)
 8002030:	222c      	movs	r2, #44	; 0x2c
 8002032:	fb02 520c 	mla	r2, r2, ip, r5
 8002036:	7d12      	ldrb	r2, [r2, #20]
 8002038:	3201      	adds	r2, #1
 800203a:	4294      	cmp	r4, r2
 800203c:	dbea      	blt.n	8002014 <ArcadeIT_Scheduler_Task_Set+0x1c>

    } // End for.

  } // End if.

  gArcadeITTasks[id].current_cycle = 0;
 800203e:	4d07      	ldr	r5, [pc, #28]	; (800205c <ArcadeIT_Scheduler_Task_Set+0x64>)
 8002040:	222c      	movs	r2, #44	; 0x2c
 8002042:	fb02 f000 	mul.w	r0, r2, r0
 8002046:	182a      	adds	r2, r5, r0
 8002048:	2400      	movs	r4, #0
 800204a:	6054      	str	r4, [r2, #4]
  gArcadeITTasks[id].cycles = pCycles;
 800204c:	f845 e000 	str.w	lr, [r5, r0]
  gArcadeITTasks[id].time_period = pTimePeriod;
 8002050:	6097      	str	r7, [r2, #8]
  gArcadeITTasks[id].time_current = gArcadeITTasks[id].time_period;
 8002052:	60d7      	str	r7, [r2, #12]
  gArcadeITTasks[id].function = pFunctionPtr;
 8002054:	6111      	str	r1, [r2, #16]
  gArcadeITTasks[id].execute = FALSE;
 8002056:	f882 4028 	strb.w	r4, [r2, #40]	; 0x28

} // End ArcadeIT_Scheduler_Task_Set.
 800205a:	bdf0      	pop	{r4, r5, r6, r7, pc}
 800205c:	20000664 	.word	0x20000664

08002060 <ArcadeIT_Scheduler_Task_Unset>:
  DESCRIPTION:  Reset a scheduled task.
  PARMS:        See above.
  RETURNS:      Nothing.
  */

  gArcadeITTasks[id].current_cycle = 0;
 8002060:	4906      	ldr	r1, [pc, #24]	; (800207c <ArcadeIT_Scheduler_Task_Unset+0x1c>)
 8002062:	232c      	movs	r3, #44	; 0x2c
 8002064:	fb03 f000 	mul.w	r0, r3, r0
 8002068:	180a      	adds	r2, r1, r0
 800206a:	2300      	movs	r3, #0
 800206c:	6053      	str	r3, [r2, #4]
  gArcadeITTasks[id].cycles = 0;
 800206e:	500b      	str	r3, [r1, r0]
  gArcadeITTasks[id].time_period = 0;
 8002070:	6093      	str	r3, [r2, #8]
  gArcadeITTasks[id].time_current = 0;
 8002072:	60d3      	str	r3, [r2, #12]
  gArcadeITTasks[id].function = NULL;
 8002074:	6113      	str	r3, [r2, #16]
  gArcadeITTasks[id].execute = FALSE;
 8002076:	f882 3028 	strb.w	r3, [r2, #40]	; 0x28

} // End ArcadeIT_Scheduler_Task_Unset.
 800207a:	4770      	bx	lr
 800207c:	20000664 	.word	0x20000664

08002080 <ArcadeIT_Scheduler_Update>:

// /////////////////////////////////////////////////////////////////////////////
void ArcadeIT_Scheduler_Update(void)
{
 8002080:	b538      	push	{r3, r4, r5, lr}
  PARMS:        See above.
  RETURNS:      Nothing.
  */

  uint8_t lTask = 0;
  for (lTask = 0; lTask < ARCADEIT_SCHEDULER_MAX_TASKS; lTask++)
 8002082:	2400      	movs	r4, #0
 8002084:	e007      	b.n	8002096 <ArcadeIT_Scheduler_Update+0x16>

            } // End if.
          }
          else
          {
            gArcadeITTasks[lTask].time_current = gArcadeITTasks[lTask].time_period;
 8002086:	4b1f      	ldr	r3, [pc, #124]	; (8002104 <ArcadeIT_Scheduler_Update+0x84>)
 8002088:	222c      	movs	r2, #44	; 0x2c
 800208a:	fb02 3104 	mla	r1, r2, r4, r3
 800208e:	688b      	ldr	r3, [r1, #8]
 8002090:	60cb      	str	r3, [r1, #12]
  for (lTask = 0; lTask < ARCADEIT_SCHEDULER_MAX_TASKS; lTask++)
 8002092:	3401      	adds	r4, #1
 8002094:	b2e4      	uxtb	r4, r4
 8002096:	2c04      	cmp	r4, #4
 8002098:	d833      	bhi.n	8002102 <ArcadeIT_Scheduler_Update+0x82>
    if (gArcadeITTasks[lTask].function != NULL)
 800209a:	4621      	mov	r1, r4
 800209c:	4a19      	ldr	r2, [pc, #100]	; (8002104 <ArcadeIT_Scheduler_Update+0x84>)
 800209e:	232c      	movs	r3, #44	; 0x2c
 80020a0:	fb03 2304 	mla	r3, r3, r4, r2
 80020a4:	691b      	ldr	r3, [r3, #16]
 80020a6:	2b00      	cmp	r3, #0
 80020a8:	d0f3      	beq.n	8002092 <ArcadeIT_Scheduler_Update+0x12>
      if (gArcadeITTasks[lTask].execute == FALSE)
 80020aa:	232c      	movs	r3, #44	; 0x2c
 80020ac:	fb03 2304 	mla	r3, r3, r4, r2
 80020b0:	f893 3028 	ldrb.w	r3, [r3, #40]	; 0x28
 80020b4:	2b00      	cmp	r3, #0
 80020b6:	d1ec      	bne.n	8002092 <ArcadeIT_Scheduler_Update+0x12>
        gArcadeITTasks[lTask].time_current--;
 80020b8:	4613      	mov	r3, r2
 80020ba:	222c      	movs	r2, #44	; 0x2c
 80020bc:	fb02 3204 	mla	r2, r2, r4, r3
 80020c0:	68d3      	ldr	r3, [r2, #12]
 80020c2:	3b01      	subs	r3, #1
 80020c4:	60d3      	str	r3, [r2, #12]
        if (gArcadeITTasks[lTask].time_current == 0)
 80020c6:	2b00      	cmp	r3, #0
 80020c8:	d1e3      	bne.n	8002092 <ArcadeIT_Scheduler_Update+0x12>
          gArcadeITTasks[lTask].execute = TRUE;
 80020ca:	4a0e      	ldr	r2, [pc, #56]	; (8002104 <ArcadeIT_Scheduler_Update+0x84>)
 80020cc:	232c      	movs	r3, #44	; 0x2c
 80020ce:	fb03 f304 	mul.w	r3, r3, r4
 80020d2:	18d0      	adds	r0, r2, r3
 80020d4:	2501      	movs	r5, #1
 80020d6:	f880 5028 	strb.w	r5, [r0, #40]	; 0x28
          if (gArcadeITTasks[lTask].cycles)
 80020da:	58d3      	ldr	r3, [r2, r3]
 80020dc:	2b00      	cmp	r3, #0
 80020de:	d0d2      	beq.n	8002086 <ArcadeIT_Scheduler_Update+0x6>
            gArcadeITTasks[lTask].time_current = gArcadeITTasks[lTask].time_period;
 80020e0:	4610      	mov	r0, r2
 80020e2:	232c      	movs	r3, #44	; 0x2c
 80020e4:	fb03 f101 	mul.w	r1, r3, r1
 80020e8:	440a      	add	r2, r1
 80020ea:	6893      	ldr	r3, [r2, #8]
 80020ec:	60d3      	str	r3, [r2, #12]
            gArcadeITTasks[lTask].current_cycle++;
 80020ee:	6853      	ldr	r3, [r2, #4]
 80020f0:	442b      	add	r3, r5
 80020f2:	6053      	str	r3, [r2, #4]
            if (gArcadeITTasks[lTask].current_cycle == gArcadeITTasks[lTask].cycles)
 80020f4:	5842      	ldr	r2, [r0, r1]
 80020f6:	4293      	cmp	r3, r2
 80020f8:	d1cb      	bne.n	8002092 <ArcadeIT_Scheduler_Update+0x12>
              ArcadeIT_Scheduler_Task_Unset(lTask);
 80020fa:	4620      	mov	r0, r4
 80020fc:	f7ff ffb0 	bl	8002060 <ArcadeIT_Scheduler_Task_Unset>
 8002100:	e7c7      	b.n	8002092 <ArcadeIT_Scheduler_Update+0x12>

    } // End if.

  } // End for.

} // End ArcadeIT_Scheduler_Update.
 8002102:	bd38      	pop	{r3, r4, r5, pc}
 8002104:	20000664 	.word	0x20000664

08002108 <ArcadeIT_Scheduler_Run>:

// /////////////////////////////////////////////////////////////////////////////
void ArcadeIT_Scheduler_Run(void)
{
 8002108:	b538      	push	{r3, r4, r5, lr}
  PARMS:        See above.
  RETURNS:      Nothing.
  */

  uint8_t lTask = 0;
  for (lTask = 0; lTask < ARCADEIT_SCHEDULER_MAX_TASKS; lTask++)
 800210a:	2400      	movs	r4, #0
 800210c:	e001      	b.n	8002112 <ArcadeIT_Scheduler_Run+0xa>
 800210e:	3401      	adds	r4, #1
 8002110:	b2e4      	uxtb	r4, r4
 8002112:	2c04      	cmp	r4, #4
 8002114:	d814      	bhi.n	8002140 <ArcadeIT_Scheduler_Run+0x38>
  {
    if (gArcadeITTasks[lTask].execute)
 8002116:	4a0b      	ldr	r2, [pc, #44]	; (8002144 <ArcadeIT_Scheduler_Run+0x3c>)
 8002118:	232c      	movs	r3, #44	; 0x2c
 800211a:	fb03 2304 	mla	r3, r3, r4, r2
 800211e:	f893 3028 	ldrb.w	r3, [r3, #40]	; 0x28
 8002122:	2b00      	cmp	r3, #0
 8002124:	d0f3      	beq.n	800210e <ArcadeIT_Scheduler_Run+0x6>
    {
        // Here we call the function set for this task.
        gArcadeITTasks[lTask].function(gArcadeITTasks[lTask].parameters);
 8002126:	4610      	mov	r0, r2
 8002128:	232c      	movs	r3, #44	; 0x2c
 800212a:	fb03 f304 	mul.w	r3, r3, r4
 800212e:	18d5      	adds	r5, r2, r3
 8002130:	692a      	ldr	r2, [r5, #16]
 8002132:	3318      	adds	r3, #24
 8002134:	4418      	add	r0, r3
 8002136:	4790      	blx	r2

        // Unmark the function.
        gArcadeITTasks[lTask].execute = FALSE;
 8002138:	2300      	movs	r3, #0
 800213a:	f885 3028 	strb.w	r3, [r5, #40]	; 0x28
 800213e:	e7e6      	b.n	800210e <ArcadeIT_Scheduler_Run+0x6>

    } // End if.

  } // End for.

} // End ArcadeIT_Scheduler_Run.
 8002140:	bd38      	pop	{r3, r4, r5, pc}
 8002142:	bf00      	nop
 8002144:	20000664 	.word	0x20000664

08002148 <SD_disk_status>:
// Prototypes for unused functions
DSTATUS RAM_disk_status();
DSTATUS MMC_disk_status();
DSTATUS USB_disk_status();
DSTATUS SD_disk_status()
{
 8002148:	b508      	push	{r3, lr}
  return ArcadeIT_SDCard_Disk_Status();
 800214a:	f7ff fa1d 	bl	8001588 <ArcadeIT_SDCard_Disk_Status>
}
 800214e:	bd08      	pop	{r3, pc}

08002150 <SD_disk_initialize>:

DSTATUS RAM_disk_initialize();
DSTATUS MMC_disk_initialize();
DSTATUS USB_disk_initialize();
DSTATUS SD_disk_initialize()
{
 8002150:	b508      	push	{r3, lr}
  return ArcadeIT_SDCard_Disk_Initialize();
 8002152:	f7ff f973 	bl	800143c <ArcadeIT_SDCard_Disk_Initialize>
}
 8002156:	bd08      	pop	{r3, pc}

08002158 <SD_disk_read>:

DSTATUS RAM_disk_read(BYTE *buff, DWORD sector, UINT count);
DSTATUS MMC_disk_read(BYTE *buff, DWORD sector, UINT count);
DSTATUS USB_disk_read(BYTE *buff, DWORD sector, UINT count);
DSTATUS SD_disk_read(BYTE *buff, DWORD sector, UINT count)
{
 8002158:	b508      	push	{r3, lr}
  return ArcadeIT_SDCard_Disk_Read(buff, sector, count);
 800215a:	f7ff fa1b 	bl	8001594 <ArcadeIT_SDCard_Disk_Read>
}
 800215e:	bd08      	pop	{r3, pc}

08002160 <SD_disk_write>:

DSTATUS RAM_disk_write(const BYTE *buff, DWORD sector, UINT count);
DSTATUS MMC_disk_write(const BYTE *buff, DWORD sector, UINT count);
DSTATUS USB_disk_write(const BYTE *buff, DWORD sector, UINT count);
DSTATUS SD_disk_write(const BYTE *buff, DWORD sector, UINT count)
{
 8002160:	b508      	push	{r3, lr}
  return ArcadeIT_SDCard_Disk_Write((BYTE*)buff, sector, count);
 8002162:	f7ff fa57 	bl	8001614 <ArcadeIT_SDCard_Disk_Write>
}
 8002166:	bd08      	pop	{r3, pc}

08002168 <disk_status>:
/*-----------------------------------------------------------------------*/

DSTATUS disk_status (
	BYTE pdrv		/* Physical drive nmuber to identify the drive */
)
{
 8002168:	b508      	push	{r3, lr}
  DSTATUS result = 0;

	switch (pdrv) {
 800216a:	2803      	cmp	r0, #3
 800216c:	d808      	bhi.n	8002180 <disk_status+0x18>
 800216e:	e8df f000 	tbb	[pc, r0]
 8002172:	0402      	.short	0x0402
 8002174:	0202      	.short	0x0202
	case DEV_RAM :
		//result = RAM_disk_status();

		// translate the reslut code here

		return result;
 8002176:	2000      	movs	r0, #0
		// translate the reslut code here

		return result;
	}
	return STA_NOINIT;
}
 8002178:	bd08      	pop	{r3, pc}
		result = SD_disk_status();
 800217a:	f7ff ffe5 	bl	8002148 <SD_disk_status>
		return result;
 800217e:	e7fb      	b.n	8002178 <disk_status+0x10>
	return STA_NOINIT;
 8002180:	2001      	movs	r0, #1
 8002182:	e7f9      	b.n	8002178 <disk_status+0x10>

08002184 <disk_initialize>:
/*-----------------------------------------------------------------------*/

DSTATUS disk_initialize (
	BYTE pdrv				/* Physical drive nmuber to identify the drive */
)
{
 8002184:	b508      	push	{r3, lr}
  DSTATUS result = 0;

	switch (pdrv) {
 8002186:	2803      	cmp	r0, #3
 8002188:	d808      	bhi.n	800219c <disk_initialize+0x18>
 800218a:	e8df f000 	tbb	[pc, r0]
 800218e:	0402      	.short	0x0402
 8002190:	0202      	.short	0x0202
	case DEV_RAM :
		//result = RAM_disk_initialize();

		// translate the reslut code here

		return result;
 8002192:	2000      	movs	r0, #0
		// translate the reslut code here

		return result;
	}
	return STA_NOINIT;
}
 8002194:	bd08      	pop	{r3, pc}
	    result = SD_disk_initialize();
 8002196:	f7ff ffdb 	bl	8002150 <SD_disk_initialize>
	    return result;
 800219a:	e7fb      	b.n	8002194 <disk_initialize+0x10>
	return STA_NOINIT;
 800219c:	2001      	movs	r0, #1
 800219e:	e7f9      	b.n	8002194 <disk_initialize+0x10>

080021a0 <disk_read>:
	BYTE pdrv,		/* Physical drive nmuber to identify the drive */
	BYTE *buff,		/* Data buffer to store read data */
	LBA_t sector,	/* Start sector in LBA */
	UINT count		/* Number of sectors to read */
)
{
 80021a0:	b510      	push	{r4, lr}
  DSTATUS result = 0;

	switch (pdrv) {
 80021a2:	2803      	cmp	r0, #3
 80021a4:	d80c      	bhi.n	80021c0 <disk_read+0x20>
 80021a6:	e8df f000 	tbb	[pc, r0]
 80021aa:	0402      	.short	0x0402
 80021ac:	0202      	.short	0x0202

		//result = RAM_disk_read(buff, sector, count);

		// translate the reslut code here

		return result;
 80021ae:	2000      	movs	r0, #0

		return result;
	}

	return RES_PARERR;
}
 80021b0:	bd10      	pop	{r4, pc}
 80021b2:	4614      	mov	r4, r2
 80021b4:	4608      	mov	r0, r1
    result = SD_disk_read(buff, sector, count);
 80021b6:	461a      	mov	r2, r3
 80021b8:	4621      	mov	r1, r4
 80021ba:	f7ff ffcd 	bl	8002158 <SD_disk_read>
    return result;
 80021be:	e7f7      	b.n	80021b0 <disk_read+0x10>
	return RES_PARERR;
 80021c0:	2004      	movs	r0, #4
 80021c2:	e7f5      	b.n	80021b0 <disk_read+0x10>

080021c4 <disk_write>:
	BYTE pdrv,			/* Physical drive number to identify the drive */
	const BYTE *buff,	    /* Data to be written */
	LBA_t sector,		/* Start sector in LBA */
	UINT count			/* Number of sectors to write */
)
{
 80021c4:	b510      	push	{r4, lr}
  DSTATUS result = 0;

	switch (pdrv) {
 80021c6:	2803      	cmp	r0, #3
 80021c8:	d80c      	bhi.n	80021e4 <disk_write+0x20>
 80021ca:	e8df f000 	tbb	[pc, r0]
 80021ce:	0402      	.short	0x0402
 80021d0:	0202      	.short	0x0202

		//result = RAM_disk_write(buff, sector, count);

		// translate the reslut code here

		return result;
 80021d2:	2000      	movs	r0, #0

		return result;
	}

	return RES_PARERR;
}
 80021d4:	bd10      	pop	{r4, pc}
 80021d6:	4614      	mov	r4, r2
 80021d8:	4608      	mov	r0, r1
    result = SD_disk_write(buff, sector, count);
 80021da:	461a      	mov	r2, r3
 80021dc:	4621      	mov	r1, r4
 80021de:	f7ff ffbf 	bl	8002160 <SD_disk_write>
    return result;
 80021e2:	e7f7      	b.n	80021d4 <disk_write+0x10>
	return RES_PARERR;
 80021e4:	2004      	movs	r0, #4
 80021e6:	e7f5      	b.n	80021d4 <disk_write+0x10>

080021e8 <disk_ioctl>:
DRESULT disk_ioctl (
	BYTE pdrv,		/* Physical drive nmuber (0..) */
	BYTE cmd,		/* Control code */
	void *buff		/* Buffer to send/receive control data */
)
{
 80021e8:	b508      	push	{r3, lr}
  DSTATUS result = 0;

	switch (pdrv) {
 80021ea:	2803      	cmp	r0, #3
 80021ec:	d80a      	bhi.n	8002204 <disk_ioctl+0x1c>
 80021ee:	e8df f000 	tbb	[pc, r0]
 80021f2:	0402      	.short	0x0402
 80021f4:	0202      	.short	0x0202
	case DEV_RAM :

		// Process of the command for the RAM drive

		return result;
 80021f6:	2000      	movs	r0, #0

		return result;
	}

	return RES_PARERR;
}
 80021f8:	bd08      	pop	{r3, pc}
 80021fa:	4608      	mov	r0, r1
	  result = ArcadeIT_SDCard_Disk_Ioctl(cmd, buff);
 80021fc:	4611      	mov	r1, r2
 80021fe:	f7ff fa5b 	bl	80016b8 <ArcadeIT_SDCard_Disk_Ioctl>
		return result;
 8002202:	e7f9      	b.n	80021f8 <disk_ioctl+0x10>
	return RES_PARERR;
 8002204:	2004      	movs	r0, #4
 8002206:	e7f7      	b.n	80021f8 <disk_ioctl+0x10>

08002208 <ld_word>:

static WORD ld_word (const BYTE* ptr)	/*	 Load a 2-byte little-endian word */
{
	WORD rv;

	rv = ptr[1];
 8002208:	7842      	ldrb	r2, [r0, #1]
	rv = rv << 8 | ptr[0];
 800220a:	7800      	ldrb	r0, [r0, #0]
	return rv;
}
 800220c:	ea40 2002 	orr.w	r0, r0, r2, lsl #8
 8002210:	4770      	bx	lr

08002212 <ld_dword>:

static DWORD ld_dword (const BYTE* ptr)	/* Load a 4-byte little-endian word */
{
	DWORD rv;

	rv = ptr[3];
 8002212:	78c2      	ldrb	r2, [r0, #3]
	rv = rv << 8 | ptr[2];
 8002214:	7883      	ldrb	r3, [r0, #2]
 8002216:	ea43 2202 	orr.w	r2, r3, r2, lsl #8
	rv = rv << 8 | ptr[1];
 800221a:	7843      	ldrb	r3, [r0, #1]
 800221c:	ea43 2302 	orr.w	r3, r3, r2, lsl #8
	rv = rv << 8 | ptr[0];
 8002220:	7800      	ldrb	r0, [r0, #0]
	return rv;
}
 8002222:	ea40 2003 	orr.w	r0, r0, r3, lsl #8
 8002226:	4770      	bx	lr

08002228 <st_word>:
#endif

#if !FF_FS_READONLY
static void st_word (BYTE* ptr, WORD val)	/* Store a 2-byte word in little-endian */
{
	*ptr++ = (BYTE)val; val >>= 8;
 8002228:	7001      	strb	r1, [r0, #0]
	*ptr++ = (BYTE)val;
 800222a:	0a09      	lsrs	r1, r1, #8
 800222c:	7041      	strb	r1, [r0, #1]
}
 800222e:	4770      	bx	lr

08002230 <st_dword>:

static void st_dword (BYTE* ptr, DWORD val)	/* Store a 4-byte word in little-endian */
{
	*ptr++ = (BYTE)val; val >>= 8;
 8002230:	7001      	strb	r1, [r0, #0]
	*ptr++ = (BYTE)val; val >>= 8;
 8002232:	f3c1 2307 	ubfx	r3, r1, #8, #8
 8002236:	7043      	strb	r3, [r0, #1]
	*ptr++ = (BYTE)val; val >>= 8;
 8002238:	f3c1 4307 	ubfx	r3, r1, #16, #8
 800223c:	7083      	strb	r3, [r0, #2]
	*ptr++ = (BYTE)val;
 800223e:	0e09      	lsrs	r1, r1, #24
 8002240:	70c1      	strb	r1, [r0, #3]
}
 8002242:	4770      	bx	lr

08002244 <mem_cpy>:
static void mem_cpy (void* dst, const void* src, UINT cnt)
{
	BYTE *d = (BYTE*)dst;
	const BYTE *s = (const BYTE*)src;

	if (cnt != 0) {
 8002244:	4613      	mov	r3, r2
 8002246:	b12a      	cbz	r2, 8002254 <mem_cpy+0x10>
		do {
			*d++ = *s++;
 8002248:	780a      	ldrb	r2, [r1, #0]
 800224a:	7002      	strb	r2, [r0, #0]
 800224c:	3001      	adds	r0, #1
 800224e:	3101      	adds	r1, #1
		} while (--cnt);
 8002250:	3b01      	subs	r3, #1
 8002252:	d1f9      	bne.n	8002248 <mem_cpy+0x4>
	}
}
 8002254:	4770      	bx	lr

08002256 <mem_set>:
static void mem_set (void* dst, int val, UINT cnt)
{
	BYTE *d = (BYTE*)dst;

	do {
		*d++ = (BYTE)val;
 8002256:	7001      	strb	r1, [r0, #0]
 8002258:	3001      	adds	r0, #1
	} while (--cnt);
 800225a:	3a01      	subs	r2, #1
 800225c:	d1fb      	bne.n	8002256 <mem_set>
}
 800225e:	4770      	bx	lr

08002260 <mem_cmp>:


/* Compare memory block */
static int mem_cmp (const void* dst, const void* src, UINT cnt)	/* ZR:same, NZ:different */
{
 8002260:	b430      	push	{r4, r5}
	const BYTE *d = (const BYTE *)dst, *s = (const BYTE *)src;
	int r = 0;

	do {
		r = *d++ - *s++;
 8002262:	1c45      	adds	r5, r0, #1
 8002264:	7803      	ldrb	r3, [r0, #0]
 8002266:	7808      	ldrb	r0, [r1, #0]
 8002268:	1a1b      	subs	r3, r3, r0
	} while (--cnt && r == 0);
 800226a:	3a01      	subs	r2, #1
 800226c:	d004      	beq.n	8002278 <mem_cmp+0x18>
 800226e:	1c4c      	adds	r4, r1, #1
		r = *d++ - *s++;
 8002270:	4628      	mov	r0, r5
 8002272:	4621      	mov	r1, r4
	} while (--cnt && r == 0);
 8002274:	2b00      	cmp	r3, #0
 8002276:	d0f4      	beq.n	8002262 <mem_cmp+0x2>

	return r;
}
 8002278:	4618      	mov	r0, r3
 800227a:	bc30      	pop	{r4, r5}
 800227c:	4770      	bx	lr

0800227e <chk_chr>:


/* Check if chr is contained in the string */
static int chk_chr (const char* str, int chr)	/* NZ:contained, ZR:not contained */
{
	while (*str && *str != chr) str++;
 800227e:	e000      	b.n	8002282 <chk_chr+0x4>
 8002280:	3001      	adds	r0, #1
 8002282:	7803      	ldrb	r3, [r0, #0]
 8002284:	b10b      	cbz	r3, 800228a <chk_chr+0xc>
 8002286:	428b      	cmp	r3, r1
 8002288:	d1fa      	bne.n	8002280 <chk_chr+0x2>
	return *str;
}
 800228a:	4618      	mov	r0, r3
 800228c:	4770      	bx	lr

0800228e <dbc_1st>:
	if (DbcTbl && c >= DbcTbl[0]) {
		if (c <= DbcTbl[1]) return 1;					/* 1st byte range 1 */
		if (c >= DbcTbl[2] && c <= DbcTbl[3]) return 1;	/* 1st byte range 2 */
	}
#elif FF_CODE_PAGE >= 900	/* DBCS fixed code page */
	if (c >= DbcTbl[0]) {
 800228e:	2880      	cmp	r0, #128	; 0x80
 8002290:	d907      	bls.n	80022a2 <dbc_1st+0x14>
		if (c <= DbcTbl[1]) return 1;
 8002292:	289f      	cmp	r0, #159	; 0x9f
 8002294:	d907      	bls.n	80022a6 <dbc_1st+0x18>
		if (c >= DbcTbl[2] && c <= DbcTbl[3]) return 1;
 8002296:	28df      	cmp	r0, #223	; 0xdf
 8002298:	d907      	bls.n	80022aa <dbc_1st+0x1c>
 800229a:	28fc      	cmp	r0, #252	; 0xfc
 800229c:	d907      	bls.n	80022ae <dbc_1st+0x20>
	}
#else						/* SBCS fixed code page */
	if (c != 0) return 0;	/* Always false */
#endif
	return 0;
 800229e:	2000      	movs	r0, #0
 80022a0:	4770      	bx	lr
 80022a2:	2000      	movs	r0, #0
 80022a4:	4770      	bx	lr
		if (c <= DbcTbl[1]) return 1;
 80022a6:	2001      	movs	r0, #1
 80022a8:	4770      	bx	lr
	return 0;
 80022aa:	2000      	movs	r0, #0
 80022ac:	4770      	bx	lr
		if (c >= DbcTbl[2] && c <= DbcTbl[3]) return 1;
 80022ae:	2001      	movs	r0, #1
}
 80022b0:	4770      	bx	lr

080022b2 <dbc_2nd>:
		if (c <= DbcTbl[5]) return 1;					/* 2nd byte range 1 */
		if (c >= DbcTbl[6] && c <= DbcTbl[7]) return 1;	/* 2nd byte range 2 */
		if (c >= DbcTbl[8] && c <= DbcTbl[9]) return 1;	/* 2nd byte range 3 */
	}
#elif FF_CODE_PAGE >= 900	/* DBCS fixed code page */
	if (c >= DbcTbl[4]) {
 80022b2:	283f      	cmp	r0, #63	; 0x3f
 80022b4:	d90b      	bls.n	80022ce <dbc_2nd+0x1c>
		if (c <= DbcTbl[5]) return 1;
 80022b6:	287e      	cmp	r0, #126	; 0x7e
 80022b8:	d90b      	bls.n	80022d2 <dbc_2nd+0x20>
		if (c >= DbcTbl[6] && c <= DbcTbl[7]) return 1;
 80022ba:	f010 0f80 	tst.w	r0, #128	; 0x80
 80022be:	d102      	bne.n	80022c6 <dbc_2nd+0x14>
		if (c >= DbcTbl[8] && c <= DbcTbl[9]) return 1;
 80022c0:	b148      	cbz	r0, 80022d6 <dbc_2nd+0x24>
	}
#else						/* SBCS fixed code page */
	if (c != 0) return 0;	/* Always false */
#endif
	return 0;
 80022c2:	2000      	movs	r0, #0
 80022c4:	4770      	bx	lr
		if (c >= DbcTbl[6] && c <= DbcTbl[7]) return 1;
 80022c6:	28fc      	cmp	r0, #252	; 0xfc
 80022c8:	d8fa      	bhi.n	80022c0 <dbc_2nd+0xe>
 80022ca:	2001      	movs	r0, #1
 80022cc:	4770      	bx	lr
	return 0;
 80022ce:	2000      	movs	r0, #0
 80022d0:	4770      	bx	lr
		if (c <= DbcTbl[5]) return 1;
 80022d2:	2001      	movs	r0, #1
 80022d4:	4770      	bx	lr
		if (c >= DbcTbl[8] && c <= DbcTbl[9]) return 1;
 80022d6:	2001      	movs	r0, #1
}
 80022d8:	4770      	bx	lr

080022da <clst2sect>:
static LBA_t clst2sect (	/* !=0:Sector number, 0:Failed (invalid cluster#) */
	FATFS* fs,		/* Filesystem object */
	DWORD clst		/* Cluster# to be converted */
)
{
	clst -= 2;		/* Cluster number is origin from 2 */
 80022da:	3902      	subs	r1, #2
	if (clst >= fs->n_fatent - 2) return 0;		/* Is it invalid cluster number? */
 80022dc:	69c3      	ldr	r3, [r0, #28]
 80022de:	3b02      	subs	r3, #2
 80022e0:	428b      	cmp	r3, r1
 80022e2:	d904      	bls.n	80022ee <clst2sect+0x14>
	return fs->database + (LBA_t)fs->csize * clst;	/* Start sector number of the cluster */
 80022e4:	6b03      	ldr	r3, [r0, #48]	; 0x30
 80022e6:	8940      	ldrh	r0, [r0, #10]
 80022e8:	fb01 3000 	mla	r0, r1, r0, r3
 80022ec:	4770      	bx	lr
	if (clst >= fs->n_fatent - 2) return 0;		/* Is it invalid cluster number? */
 80022ee:	2000      	movs	r0, #0
}
 80022f0:	4770      	bx	lr

080022f2 <clmt_clust>:
	FIL* fp,		/* Pointer to the file object */
	FSIZE_t ofs		/* File offset to be converted to cluster# */
)
{
	DWORD cl, ncl, *tbl;
	FATFS *fs = fp->obj.fs;
 80022f2:	6802      	ldr	r2, [r0, #0]


	tbl = fp->cltbl + 1;	/* Top of CLMT */
 80022f4:	6a83      	ldr	r3, [r0, #40]	; 0x28
 80022f6:	3304      	adds	r3, #4
	cl = (DWORD)(ofs / SS(fs) / fs->csize);	/* Cluster order from top of the file */
 80022f8:	0a49      	lsrs	r1, r1, #9
 80022fa:	8952      	ldrh	r2, [r2, #10]
 80022fc:	fbb1 f1f2 	udiv	r1, r1, r2
	for (;;) {
		ncl = *tbl++;			/* Number of cluters in the fragment */
 8002300:	6818      	ldr	r0, [r3, #0]
		if (ncl == 0) return 0;	/* End of table? (error) */
 8002302:	b130      	cbz	r0, 8002312 <clmt_clust+0x20>
		if (cl < ncl) break;	/* In this fragment? */
 8002304:	4281      	cmp	r1, r0
 8002306:	d302      	bcc.n	800230e <clmt_clust+0x1c>
		cl -= ncl; tbl++;		/* Next fragment */
 8002308:	1a09      	subs	r1, r1, r0
 800230a:	3308      	adds	r3, #8
		ncl = *tbl++;			/* Number of cluters in the fragment */
 800230c:	e7f8      	b.n	8002300 <clmt_clust+0xe>
	}
	return cl + *tbl;	/* Return the cluster number */
 800230e:	6858      	ldr	r0, [r3, #4]
 8002310:	4408      	add	r0, r1
}
 8002312:	4770      	bx	lr

08002314 <ld_clust>:

static DWORD ld_clust (	/* Returns the top cluster value of the SFN entry */
	FATFS* fs,			/* Pointer to the fs object */
	const BYTE* dir		/* Pointer to the key entry */
)
{
 8002314:	b570      	push	{r4, r5, r6, lr}
 8002316:	4606      	mov	r6, r0
 8002318:	460d      	mov	r5, r1
	DWORD cl;

	cl = ld_word(dir + DIR_FstClusLO);
 800231a:	f101 001a 	add.w	r0, r1, #26
 800231e:	f7ff ff73 	bl	8002208 <ld_word>
	if (fs->fs_type == FS_FAT32) {
 8002322:	7833      	ldrb	r3, [r6, #0]
 8002324:	2b03      	cmp	r3, #3
 8002326:	d000      	beq.n	800232a <ld_clust+0x16>
		cl |= (DWORD)ld_word(dir + DIR_FstClusHI) << 16;
	}

	return cl;
}
 8002328:	bd70      	pop	{r4, r5, r6, pc}
 800232a:	4604      	mov	r4, r0
		cl |= (DWORD)ld_word(dir + DIR_FstClusHI) << 16;
 800232c:	f105 0014 	add.w	r0, r5, #20
 8002330:	f7ff ff6a 	bl	8002208 <ld_word>
 8002334:	ea44 4000 	orr.w	r0, r4, r0, lsl #16
	return cl;
 8002338:	e7f6      	b.n	8002328 <ld_clust+0x14>

0800233a <st_clust>:
static void st_clust (
	FATFS* fs,	/* Pointer to the fs object */
	BYTE* dir,	/* Pointer to the key entry */
	DWORD cl	/* Value to be set */
)
{
 800233a:	b570      	push	{r4, r5, r6, lr}
 800233c:	4606      	mov	r6, r0
 800233e:	460c      	mov	r4, r1
 8002340:	4615      	mov	r5, r2
	st_word(dir + DIR_FstClusLO, (WORD)cl);
 8002342:	b291      	uxth	r1, r2
 8002344:	f104 001a 	add.w	r0, r4, #26
 8002348:	f7ff ff6e 	bl	8002228 <st_word>
	if (fs->fs_type == FS_FAT32) {
 800234c:	7833      	ldrb	r3, [r6, #0]
 800234e:	2b03      	cmp	r3, #3
 8002350:	d000      	beq.n	8002354 <st_clust+0x1a>
		st_word(dir + DIR_FstClusHI, (WORD)(cl >> 16));
	}
}
 8002352:	bd70      	pop	{r4, r5, r6, pc}
		st_word(dir + DIR_FstClusHI, (WORD)(cl >> 16));
 8002354:	0c29      	lsrs	r1, r5, #16
 8002356:	f104 0014 	add.w	r0, r4, #20
 800235a:	f7ff ff65 	bl	8002228 <st_word>
}
 800235e:	e7f8      	b.n	8002352 <st_clust+0x18>

08002360 <pick_lfn>:

static int pick_lfn (	/* 1:succeeded, 0:buffer overflow or invalid LFN entry */
	WCHAR* lfnbuf,		/* Pointer to the LFN working buffer */
	BYTE* dir			/* Pointer to the LFN entry */
)
{
 8002360:	e92d 41f0 	stmdb	sp!, {r4, r5, r6, r7, r8, lr}
 8002364:	4607      	mov	r7, r0
 8002366:	460e      	mov	r6, r1
	UINT i, s;
	WCHAR wc, uc;


	if (ld_word(dir + LDIR_FstClusLO) != 0) return 0;	/* Check LDIR_FstClusLO is 0 */
 8002368:	f101 001a 	add.w	r0, r1, #26
 800236c:	f7ff ff4c 	bl	8002208 <ld_word>
 8002370:	bb78      	cbnz	r0, 80023d2 <pick_lfn+0x72>

	i = ((dir[LDIR_Ord] & ~LLEF) - 1) * 13;	/* Offset in the LFN buffer */
 8002372:	7835      	ldrb	r5, [r6, #0]
 8002374:	f025 0540 	bic.w	r5, r5, #64	; 0x40
 8002378:	3d01      	subs	r5, #1
 800237a:	eb05 0345 	add.w	r3, r5, r5, lsl #1
 800237e:	eb05 0583 	add.w	r5, r5, r3, lsl #2

	for (wc = 1, s = 0; s < 13; s++) {		/* Process all characters in the entry */
 8002382:	f04f 0801 	mov.w	r8, #1
 8002386:	2400      	movs	r4, #0
 8002388:	e004      	b.n	8002394 <pick_lfn+0x34>
		uc = ld_word(dir + LfnOfs[s]);		/* Pick an LFN character */
		if (wc != 0) {
			if (i >= FF_MAX_LFN + 1) return 0;	/* Buffer overflow? */
			lfnbuf[i++] = wc = uc;			/* Store it */
		} else {
			if (uc != 0xFFFF) return 0;		/* Check filler */
 800238a:	f64f 73ff 	movw	r3, #65535	; 0xffff
 800238e:	4298      	cmp	r0, r3
 8002390:	d124      	bne.n	80023dc <pick_lfn+0x7c>
	for (wc = 1, s = 0; s < 13; s++) {		/* Process all characters in the entry */
 8002392:	3401      	adds	r4, #1
 8002394:	2c0c      	cmp	r4, #12
 8002396:	d80e      	bhi.n	80023b6 <pick_lfn+0x56>
		uc = ld_word(dir + LfnOfs[s]);		/* Pick an LFN character */
 8002398:	4b14      	ldr	r3, [pc, #80]	; (80023ec <pick_lfn+0x8c>)
 800239a:	5d18      	ldrb	r0, [r3, r4]
 800239c:	4430      	add	r0, r6
 800239e:	f7ff ff33 	bl	8002208 <ld_word>
		if (wc != 0) {
 80023a2:	f1b8 0f00 	cmp.w	r8, #0
 80023a6:	d0f0      	beq.n	800238a <pick_lfn+0x2a>
			if (i >= FF_MAX_LFN + 1) return 0;	/* Buffer overflow? */
 80023a8:	2dff      	cmp	r5, #255	; 0xff
 80023aa:	d815      	bhi.n	80023d8 <pick_lfn+0x78>
			lfnbuf[i++] = wc = uc;			/* Store it */
 80023ac:	f827 0015 	strh.w	r0, [r7, r5, lsl #1]
 80023b0:	4680      	mov	r8, r0
 80023b2:	3501      	adds	r5, #1
 80023b4:	e7ed      	b.n	8002392 <pick_lfn+0x32>
		}
	}

	if (dir[LDIR_Ord] & LLEF && wc != 0) {	/* Put terminator if it is the last LFN part and not terminated */
 80023b6:	7833      	ldrb	r3, [r6, #0]
 80023b8:	f013 0f40 	tst.w	r3, #64	; 0x40
 80023bc:	d010      	beq.n	80023e0 <pick_lfn+0x80>
 80023be:	f1b8 0f00 	cmp.w	r8, #0
 80023c2:	d00f      	beq.n	80023e4 <pick_lfn+0x84>
		if (i >= FF_MAX_LFN + 1) return 0;	/* Buffer overflow? */
 80023c4:	2dff      	cmp	r5, #255	; 0xff
 80023c6:	d80f      	bhi.n	80023e8 <pick_lfn+0x88>
		lfnbuf[i] = 0;
 80023c8:	2300      	movs	r3, #0
 80023ca:	f827 3015 	strh.w	r3, [r7, r5, lsl #1]
	}

	return 1;		/* The part of LFN is valid */
 80023ce:	2001      	movs	r0, #1
 80023d0:	e000      	b.n	80023d4 <pick_lfn+0x74>
	if (ld_word(dir + LDIR_FstClusLO) != 0) return 0;	/* Check LDIR_FstClusLO is 0 */
 80023d2:	2000      	movs	r0, #0
}
 80023d4:	e8bd 81f0 	ldmia.w	sp!, {r4, r5, r6, r7, r8, pc}
			if (i >= FF_MAX_LFN + 1) return 0;	/* Buffer overflow? */
 80023d8:	2000      	movs	r0, #0
 80023da:	e7fb      	b.n	80023d4 <pick_lfn+0x74>
			if (uc != 0xFFFF) return 0;		/* Check filler */
 80023dc:	2000      	movs	r0, #0
 80023de:	e7f9      	b.n	80023d4 <pick_lfn+0x74>
	return 1;		/* The part of LFN is valid */
 80023e0:	2001      	movs	r0, #1
 80023e2:	e7f7      	b.n	80023d4 <pick_lfn+0x74>
 80023e4:	2001      	movs	r0, #1
 80023e6:	e7f5      	b.n	80023d4 <pick_lfn+0x74>
		if (i >= FF_MAX_LFN + 1) return 0;	/* Buffer overflow? */
 80023e8:	2000      	movs	r0, #0
 80023ea:	e7f3      	b.n	80023d4 <pick_lfn+0x74>
 80023ec:	08006d78 	.word	0x08006d78

080023f0 <put_lfn>:
	const WCHAR* lfn,	/* Pointer to the LFN */
	BYTE* dir,			/* Pointer to the LFN entry to be created */
	BYTE ord,			/* LFN order (1-20) */
	BYTE sum			/* Checksum of the corresponding SFN */
)
{
 80023f0:	e92d 43f8 	stmdb	sp!, {r3, r4, r5, r6, r7, r8, r9, lr}
 80023f4:	4680      	mov	r8, r0
 80023f6:	460f      	mov	r7, r1
 80023f8:	4691      	mov	r9, r2
	UINT i, s;
	WCHAR wc;


	dir[LDIR_Chksum] = sum;			/* Set checksum */
 80023fa:	734b      	strb	r3, [r1, #13]
	dir[LDIR_Attr] = AM_LFN;		/* Set attribute. LFN entry */
 80023fc:	230f      	movs	r3, #15
 80023fe:	72cb      	strb	r3, [r1, #11]
	dir[LDIR_Type] = 0;
 8002400:	2400      	movs	r4, #0
 8002402:	730c      	strb	r4, [r1, #12]
	st_word(dir + LDIR_FstClusLO, 0);
 8002404:	4621      	mov	r1, r4
 8002406:	f107 001a 	add.w	r0, r7, #26
 800240a:	f7ff ff0d 	bl	8002228 <st_word>

	i = (ord - 1) * 13;				/* Get offset in the LFN working buffer */
 800240e:	f109 36ff 	add.w	r6, r9, #4294967295
 8002412:	eb06 0346 	add.w	r3, r6, r6, lsl #1
 8002416:	eb06 0683 	add.w	r6, r6, r3, lsl #2
	s = wc = 0;
 800241a:	4625      	mov	r5, r4
 800241c:	e002      	b.n	8002424 <put_lfn+0x34>
	do {
		if (wc != 0xFFFF) wc = lfn[i++];	/* Get an effective character */
		st_word(dir + LfnOfs[s], wc);		/* Put it */
		if (wc == 0) wc = 0xFFFF;		/* Padding characters for following items */
	} while (++s < 13);
 800241e:	3401      	adds	r4, #1
 8002420:	2c0c      	cmp	r4, #12
 8002422:	d811      	bhi.n	8002448 <put_lfn+0x58>
		if (wc != 0xFFFF) wc = lfn[i++];	/* Get an effective character */
 8002424:	f64f 73ff 	movw	r3, #65535	; 0xffff
 8002428:	429d      	cmp	r5, r3
 800242a:	d002      	beq.n	8002432 <put_lfn+0x42>
 800242c:	f838 5016 	ldrh.w	r5, [r8, r6, lsl #1]
 8002430:	3601      	adds	r6, #1
		st_word(dir + LfnOfs[s], wc);		/* Put it */
 8002432:	4b0c      	ldr	r3, [pc, #48]	; (8002464 <put_lfn+0x74>)
 8002434:	5d18      	ldrb	r0, [r3, r4]
 8002436:	4629      	mov	r1, r5
 8002438:	4438      	add	r0, r7
 800243a:	f7ff fef5 	bl	8002228 <st_word>
		if (wc == 0) wc = 0xFFFF;		/* Padding characters for following items */
 800243e:	2d00      	cmp	r5, #0
 8002440:	d1ed      	bne.n	800241e <put_lfn+0x2e>
 8002442:	f64f 75ff 	movw	r5, #65535	; 0xffff
 8002446:	e7ea      	b.n	800241e <put_lfn+0x2e>
	if (wc == 0xFFFF || !lfn[i]) ord |= LLEF;	/* Last LFN part is the start of LFN sequence */
 8002448:	f64f 73ff 	movw	r3, #65535	; 0xffff
 800244c:	429d      	cmp	r5, r3
 800244e:	d002      	beq.n	8002456 <put_lfn+0x66>
 8002450:	f838 3016 	ldrh.w	r3, [r8, r6, lsl #1]
 8002454:	b90b      	cbnz	r3, 800245a <put_lfn+0x6a>
 8002456:	f049 0940 	orr.w	r9, r9, #64	; 0x40
	dir[LDIR_Ord] = ord;			/* Set the LFN order */
 800245a:	f887 9000 	strb.w	r9, [r7]
}
 800245e:	e8bd 83f8 	ldmia.w	sp!, {r3, r4, r5, r6, r7, r8, r9, pc}
 8002462:	bf00      	nop
 8002464:	08006d78 	.word	0x08006d78

08002468 <gen_numname>:
	BYTE* dst,			/* Pointer to the buffer to store numbered SFN */
	const BYTE* src,	/* Pointer to SFN */
	const WCHAR* lfn,	/* Pointer to LFN */
	UINT seq			/* Sequence number */
)
{
 8002468:	b5f0      	push	{r4, r5, r6, r7, lr}
 800246a:	b083      	sub	sp, #12
 800246c:	4607      	mov	r7, r0
 800246e:	4615      	mov	r5, r2
 8002470:	461c      	mov	r4, r3
	UINT i, j;
	WCHAR wc;
	DWORD sreg;


	mem_cpy(dst, src, 11);
 8002472:	220b      	movs	r2, #11
 8002474:	f7ff fee6 	bl	8002244 <mem_cpy>

	if (seq > 5) {	/* In case of many collisions, generate a hash number instead of sequential number */
 8002478:	2c05      	cmp	r4, #5
 800247a:	d811      	bhi.n	80024a0 <gen_numname+0x38>
		sreg = seq;
		while (*lfn) {	/* Create a CRC as hash value */
			wc = *lfn++;
			for (i = 0; i < 16; i++) {
 800247c:	2607      	movs	r6, #7
 800247e:	e01d      	b.n	80024bc <gen_numname+0x54>
 8002480:	3201      	adds	r2, #1
 8002482:	2a0f      	cmp	r2, #15
 8002484:	d80c      	bhi.n	80024a0 <gen_numname+0x38>
				sreg = (sreg << 1) + (wc & 1);
 8002486:	f003 0101 	and.w	r1, r3, #1
 800248a:	eb01 0444 	add.w	r4, r1, r4, lsl #1
				wc >>= 1;
 800248e:	085b      	lsrs	r3, r3, #1
				if (sreg & 0x10000) sreg ^= 0x11021;
 8002490:	f414 3f80 	tst.w	r4, #65536	; 0x10000
 8002494:	d0f4      	beq.n	8002480 <gen_numname+0x18>
 8002496:	f484 3488 	eor.w	r4, r4, #69632	; 0x11000
 800249a:	f084 0421 	eor.w	r4, r4, #33	; 0x21
 800249e:	e7ef      	b.n	8002480 <gen_numname+0x18>
		while (*lfn) {	/* Create a CRC as hash value */
 80024a0:	882b      	ldrh	r3, [r5, #0]
 80024a2:	2b00      	cmp	r3, #0
 80024a4:	d0ea      	beq.n	800247c <gen_numname+0x14>
			wc = *lfn++;
 80024a6:	3502      	adds	r5, #2
			for (i = 0; i < 16; i++) {
 80024a8:	2200      	movs	r2, #0
 80024aa:	e7ea      	b.n	8002482 <gen_numname+0x1a>
	/* itoa (hexdecimal) */
	i = 7;
	do {
		c = (BYTE)((seq % 16) + '0');
		if (c > '9') c += 7;
		ns[i--] = c;
 80024ac:	1e75      	subs	r5, r6, #1
 80024ae:	aa02      	add	r2, sp, #8
 80024b0:	4432      	add	r2, r6
 80024b2:	f802 3c08 	strb.w	r3, [r2, #-8]
		seq /= 16;
	} while (seq);
 80024b6:	0924      	lsrs	r4, r4, #4
 80024b8:	d009      	beq.n	80024ce <gen_numname+0x66>
		ns[i--] = c;
 80024ba:	462e      	mov	r6, r5
		c = (BYTE)((seq % 16) + '0');
 80024bc:	f004 020f 	and.w	r2, r4, #15
 80024c0:	f102 0330 	add.w	r3, r2, #48	; 0x30
		if (c > '9') c += 7;
 80024c4:	2b39      	cmp	r3, #57	; 0x39
 80024c6:	d9f1      	bls.n	80024ac <gen_numname+0x44>
 80024c8:	f102 0337 	add.w	r3, r2, #55	; 0x37
 80024cc:	e7ee      	b.n	80024ac <gen_numname+0x44>
	ns[i] = '~';
 80024ce:	227e      	movs	r2, #126	; 0x7e
 80024d0:	ab02      	add	r3, sp, #8
 80024d2:	442b      	add	r3, r5
 80024d4:	f803 2c08 	strb.w	r2, [r3, #-8]

	/* Append the number to the SFN body */
	for (j = 0; j < i && dst[j] != ' '; j++) {
 80024d8:	e000      	b.n	80024dc <gen_numname+0x74>
 80024da:	3401      	adds	r4, #1
 80024dc:	42ac      	cmp	r4, r5
 80024de:	d211      	bcs.n	8002504 <gen_numname+0x9c>
 80024e0:	5d38      	ldrb	r0, [r7, r4]
 80024e2:	2820      	cmp	r0, #32
 80024e4:	d00e      	beq.n	8002504 <gen_numname+0x9c>
		if (dbc_1st(dst[j])) {
 80024e6:	f7ff fed2 	bl	800228e <dbc_1st>
 80024ea:	2800      	cmp	r0, #0
 80024ec:	d0f5      	beq.n	80024da <gen_numname+0x72>
			if (j == i - 1) break;
 80024ee:	1eb3      	subs	r3, r6, #2
 80024f0:	42a3      	cmp	r3, r4
 80024f2:	d007      	beq.n	8002504 <gen_numname+0x9c>
			j++;
 80024f4:	3401      	adds	r4, #1
 80024f6:	e7f0      	b.n	80024da <gen_numname+0x72>
		}
	}
	do {
		dst[j++] = (i < 8) ? ns[i++] : ' ';
 80024f8:	2220      	movs	r2, #32
 80024fa:	1c63      	adds	r3, r4, #1
 80024fc:	553a      	strb	r2, [r7, r4]
	} while (j < 8);
 80024fe:	2b07      	cmp	r3, #7
 8002500:	d808      	bhi.n	8002514 <gen_numname+0xac>
		dst[j++] = (i < 8) ? ns[i++] : ' ';
 8002502:	461c      	mov	r4, r3
 8002504:	2d07      	cmp	r5, #7
 8002506:	d8f7      	bhi.n	80024f8 <gen_numname+0x90>
 8002508:	ab02      	add	r3, sp, #8
 800250a:	442b      	add	r3, r5
 800250c:	f813 2c08 	ldrb.w	r2, [r3, #-8]
 8002510:	3501      	adds	r5, #1
 8002512:	e7f2      	b.n	80024fa <gen_numname+0x92>
}
 8002514:	b003      	add	sp, #12
 8002516:	bdf0      	pop	{r4, r5, r6, r7, pc}

08002518 <sum_sfn>:
/*-----------------------------------------------------------------------*/

static BYTE sum_sfn (
	const BYTE* dir		/* Pointer to the SFN entry */
)
{
 8002518:	4601      	mov	r1, r0
	BYTE sum = 0;
	UINT n = 11;
 800251a:	220b      	movs	r2, #11
	BYTE sum = 0;
 800251c:	2000      	movs	r0, #0

	do {
		sum = (sum >> 1) + (sum << 7) + *dir++;
 800251e:	01c3      	lsls	r3, r0, #7
 8002520:	ea43 0350 	orr.w	r3, r3, r0, lsr #1
 8002524:	7808      	ldrb	r0, [r1, #0]
 8002526:	fa50 f383 	uxtab	r3, r0, r3
 800252a:	b2d8      	uxtb	r0, r3
 800252c:	3101      	adds	r1, #1
	} while (--n);
 800252e:	3a01      	subs	r2, #1
 8002530:	d1f5      	bne.n	800251e <sum_sfn+0x6>
	return sum;
}
 8002532:	4770      	bx	lr

08002534 <get_ldnumber>:
/*-----------------------------------------------------------------------*/

static int get_ldnumber (	/* Returns logical drive number (-1:invalid drive number or null pointer) */
	const TCHAR** path		/* Pointer to pointer to the path name */
)
{
 8002534:	b5f0      	push	{r4, r5, r6, r7, lr}
#if FF_STR_VOLUME_ID		/* Find string volume ID */
	const char *sp;
	char c;
#endif

	tt = tp = *path;
 8002536:	6807      	ldr	r7, [r0, #0]
	if (!tp) return vol;	/* Invalid path name? */
 8002538:	2f00      	cmp	r7, #0
 800253a:	d04b      	beq.n	80025d4 <get_ldnumber+0xa0>
	tt = tp = *path;
 800253c:	463a      	mov	r2, r7
	do tc = *tt++; while ((UINT)tc >= (FF_USE_LFN ? ' ' : '!') && tc != ':');	/* Find a colon in the path */
 800253e:	1c54      	adds	r4, r2, #1
 8002540:	7813      	ldrb	r3, [r2, #0]
 8002542:	2b1f      	cmp	r3, #31
 8002544:	d902      	bls.n	800254c <get_ldnumber+0x18>
 8002546:	4622      	mov	r2, r4
 8002548:	2b3a      	cmp	r3, #58	; 0x3a
 800254a:	d1f8      	bne.n	800253e <get_ldnumber+0xa>

	if (tc == ':') {	/* DOS/Windows style volume ID? */
 800254c:	2b3a      	cmp	r3, #58	; 0x3a
 800254e:	d004      	beq.n	800255a <get_ldnumber+0x26>
		}
	}
#endif
	/* No drive prefix is found */
#if FF_FS_RPATH != 0
	vol = CurrVol;	/* Default drive is current drive */
 8002550:	4b23      	ldr	r3, [pc, #140]	; (80025e0 <get_ldnumber+0xac>)
 8002552:	f893 e000 	ldrb.w	lr, [r3]
#else
	vol = 0;		/* Default drive is 0 */
#endif
	return vol;		/* Return the default drive */
}
 8002556:	4670      	mov	r0, lr
 8002558:	bdf0      	pop	{r4, r5, r6, r7, pc}
		if (IsDigit(*tp) && tp + 2 == tt) {	/* Is there a numeric volume ID + colon? */
 800255a:	f897 e000 	ldrb.w	lr, [r7]
 800255e:	f1ae 0330 	sub.w	r3, lr, #48	; 0x30
 8002562:	b2db      	uxtb	r3, r3
 8002564:	2b09      	cmp	r3, #9
 8002566:	d808      	bhi.n	800257a <get_ldnumber+0x46>
 8002568:	1cbb      	adds	r3, r7, #2
 800256a:	42a3      	cmp	r3, r4
 800256c:	d002      	beq.n	8002574 <get_ldnumber+0x40>
 800256e:	f04f 0e00 	mov.w	lr, #0
 8002572:	e004      	b.n	800257e <get_ldnumber+0x4a>
			i = (int)*tp - '0';	/* Get the LD number */
 8002574:	f1ae 0e30 	sub.w	lr, lr, #48	; 0x30
 8002578:	e027      	b.n	80025ca <get_ldnumber+0x96>
 800257a:	f04f 0e00 	mov.w	lr, #0
				sp = VolumeStr[i]; tp = *path;	/* This string volume ID and path name */
 800257e:	4b19      	ldr	r3, [pc, #100]	; (80025e4 <get_ldnumber+0xb0>)
 8002580:	f853 502e 	ldr.w	r5, [r3, lr, lsl #2]
 8002584:	4639      	mov	r1, r7
 8002586:	e004      	b.n	8002592 <get_ldnumber+0x5e>
				} while (c && (TCHAR)c == tc);
 8002588:	b1bb      	cbz	r3, 80025ba <get_ldnumber+0x86>
					c = *sp++; tc = *tp++;
 800258a:	4631      	mov	r1, r6
 800258c:	4665      	mov	r5, ip
				} while (c && (TCHAR)c == tc);
 800258e:	429a      	cmp	r2, r3
 8002590:	d113      	bne.n	80025ba <get_ldnumber+0x86>
					c = *sp++; tc = *tp++;
 8002592:	f105 0c01 	add.w	ip, r5, #1
 8002596:	782b      	ldrb	r3, [r5, #0]
 8002598:	1c4e      	adds	r6, r1, #1
 800259a:	780a      	ldrb	r2, [r1, #0]
					if (IsLower(c)) c -= 0x20;
 800259c:	f1a3 0161 	sub.w	r1, r3, #97	; 0x61
 80025a0:	b2c9      	uxtb	r1, r1
 80025a2:	2919      	cmp	r1, #25
 80025a4:	d801      	bhi.n	80025aa <get_ldnumber+0x76>
 80025a6:	3b20      	subs	r3, #32
 80025a8:	b2db      	uxtb	r3, r3
					if (IsLower(tc)) tc -= 0x20;
 80025aa:	f1a2 0161 	sub.w	r1, r2, #97	; 0x61
 80025ae:	b2c9      	uxtb	r1, r1
 80025b0:	2919      	cmp	r1, #25
 80025b2:	d8e9      	bhi.n	8002588 <get_ldnumber+0x54>
 80025b4:	3a20      	subs	r2, #32
 80025b6:	b2d2      	uxtb	r2, r2
 80025b8:	e7e6      	b.n	8002588 <get_ldnumber+0x54>
			} while ((c || tp != tt) && ++i < FF_VOLUMES);	/* Repeat for each id until pattern match */
 80025ba:	b90b      	cbnz	r3, 80025c0 <get_ldnumber+0x8c>
 80025bc:	42b4      	cmp	r4, r6
 80025be:	d004      	beq.n	80025ca <get_ldnumber+0x96>
 80025c0:	f10e 0e01 	add.w	lr, lr, #1
 80025c4:	f1be 0f01 	cmp.w	lr, #1
 80025c8:	ddd9      	ble.n	800257e <get_ldnumber+0x4a>
		if (i < FF_VOLUMES) {	/* If a volume ID is found, get the drive number and strip it */
 80025ca:	f1be 0f01 	cmp.w	lr, #1
 80025ce:	dc04      	bgt.n	80025da <get_ldnumber+0xa6>
			*path = tt;		/* Snip the drive prefix off */
 80025d0:	6004      	str	r4, [r0, #0]
 80025d2:	e7c0      	b.n	8002556 <get_ldnumber+0x22>
	if (!tp) return vol;	/* Invalid path name? */
 80025d4:	f04f 3eff 	mov.w	lr, #4294967295
 80025d8:	e7bd      	b.n	8002556 <get_ldnumber+0x22>
	int i, vol = -1;
 80025da:	f04f 3eff 	mov.w	lr, #4294967295
 80025de:	e7ba      	b.n	8002556 <get_ldnumber+0x22>
 80025e0:	20000210 	.word	0x20000210
 80025e4:	08006d88 	.word	0x08006d88

080025e8 <validate>:

static FRESULT validate (	/* Returns FR_OK or FR_INVALID_OBJECT */
	FFOBJID* obj,			/* Pointer to the FFOBJID, the 1st member in the FIL/DIR object, to check validity */
	FATFS** rfs				/* Pointer to pointer to the owner filesystem object to return */
)
{
 80025e8:	b538      	push	{r3, r4, r5, lr}
 80025ea:	460d      	mov	r5, r1
	FRESULT res = FR_INVALID_OBJECT;


	if (obj && obj->fs && obj->fs->fs_type && obj->id == obj->fs->id) {	/* Test if the object is valid */
 80025ec:	b1a8      	cbz	r0, 800261a <validate+0x32>
 80025ee:	4604      	mov	r4, r0
 80025f0:	6803      	ldr	r3, [r0, #0]
 80025f2:	b1ab      	cbz	r3, 8002620 <validate+0x38>
 80025f4:	781a      	ldrb	r2, [r3, #0]
 80025f6:	b1aa      	cbz	r2, 8002624 <validate+0x3c>
 80025f8:	8881      	ldrh	r1, [r0, #4]
 80025fa:	88da      	ldrh	r2, [r3, #6]
 80025fc:	4291      	cmp	r1, r2
 80025fe:	d003      	beq.n	8002608 <validate+0x20>
	FRESULT res = FR_INVALID_OBJECT;
 8002600:	2009      	movs	r0, #9
		if (!(disk_status(obj->fs->pdrv) & STA_NOINIT)) { /* Test if the phsical drive is kept initialized */
			res = FR_OK;
		}
#endif
	}
	*rfs = (res == FR_OK) ? obj->fs : 0;	/* Corresponding filesystem object */
 8002602:	2300      	movs	r3, #0
 8002604:	602b      	str	r3, [r5, #0]
	return res;
}
 8002606:	bd38      	pop	{r3, r4, r5, pc}
		if (!(disk_status(obj->fs->pdrv) & STA_NOINIT)) { /* Test if the phsical drive is kept initialized */
 8002608:	7858      	ldrb	r0, [r3, #1]
 800260a:	f7ff fdad 	bl	8002168 <disk_status>
 800260e:	f010 0f01 	tst.w	r0, #1
 8002612:	d10a      	bne.n	800262a <validate+0x42>
	*rfs = (res == FR_OK) ? obj->fs : 0;	/* Corresponding filesystem object */
 8002614:	6823      	ldr	r3, [r4, #0]
			res = FR_OK;
 8002616:	2000      	movs	r0, #0
 8002618:	e7f4      	b.n	8002604 <validate+0x1c>
	FRESULT res = FR_INVALID_OBJECT;
 800261a:	2009      	movs	r0, #9
	*rfs = (res == FR_OK) ? obj->fs : 0;	/* Corresponding filesystem object */
 800261c:	2300      	movs	r3, #0
 800261e:	e7f1      	b.n	8002604 <validate+0x1c>
	FRESULT res = FR_INVALID_OBJECT;
 8002620:	2009      	movs	r0, #9
 8002622:	e7ef      	b.n	8002604 <validate+0x1c>
 8002624:	2009      	movs	r0, #9
	*rfs = (res == FR_OK) ? obj->fs : 0;	/* Corresponding filesystem object */
 8002626:	2300      	movs	r3, #0
 8002628:	e7ec      	b.n	8002604 <validate+0x1c>
	FRESULT res = FR_INVALID_OBJECT;
 800262a:	2009      	movs	r0, #9
	*rfs = (res == FR_OK) ? obj->fs : 0;	/* Corresponding filesystem object */
 800262c:	2300      	movs	r3, #0
 800262e:	e7e9      	b.n	8002604 <validate+0x1c>

08002630 <sync_window>:
{
 8002630:	b538      	push	{r3, r4, r5, lr}
	if (fs->wflag) {	/* Is the disk access window dirty? */
 8002632:	78c3      	ldrb	r3, [r0, #3]
 8002634:	b90b      	cbnz	r3, 800263a <sync_window+0xa>
	FRESULT res = FR_OK;
 8002636:	2000      	movs	r0, #0
}
 8002638:	bd38      	pop	{r3, r4, r5, pc}
 800263a:	4604      	mov	r4, r0
		if (disk_write(fs->pdrv, fs->win, fs->winsect, 1) == RES_OK) {	/* Write it back into the volume */
 800263c:	f100 0538 	add.w	r5, r0, #56	; 0x38
 8002640:	2301      	movs	r3, #1
 8002642:	6b42      	ldr	r2, [r0, #52]	; 0x34
 8002644:	4629      	mov	r1, r5
 8002646:	7840      	ldrb	r0, [r0, #1]
 8002648:	f7ff fdbc 	bl	80021c4 <disk_write>
 800264c:	b9a0      	cbnz	r0, 8002678 <sync_window+0x48>
			fs->wflag = 0;	/* Clear window dirty flag */
 800264e:	2300      	movs	r3, #0
 8002650:	70e3      	strb	r3, [r4, #3]
			if (fs->winsect - fs->fatbase < fs->fsize) {	/* Is it in the 1st FAT? */
 8002652:	6b61      	ldr	r1, [r4, #52]	; 0x34
 8002654:	6aa3      	ldr	r3, [r4, #40]	; 0x28
 8002656:	1acb      	subs	r3, r1, r3
 8002658:	6a22      	ldr	r2, [r4, #32]
 800265a:	4293      	cmp	r3, r2
 800265c:	d20e      	bcs.n	800267c <sync_window+0x4c>
				if (fs->n_fats == 2) disk_write(fs->pdrv, fs->win, fs->winsect + fs->fsize, 1);	/* Reflect it to 2nd FAT if needed */
 800265e:	78a3      	ldrb	r3, [r4, #2]
 8002660:	2b02      	cmp	r3, #2
 8002662:	d001      	beq.n	8002668 <sync_window+0x38>
	FRESULT res = FR_OK;
 8002664:	2000      	movs	r0, #0
 8002666:	e7e7      	b.n	8002638 <sync_window+0x8>
				if (fs->n_fats == 2) disk_write(fs->pdrv, fs->win, fs->winsect + fs->fsize, 1);	/* Reflect it to 2nd FAT if needed */
 8002668:	2301      	movs	r3, #1
 800266a:	440a      	add	r2, r1
 800266c:	4629      	mov	r1, r5
 800266e:	7860      	ldrb	r0, [r4, #1]
 8002670:	f7ff fda8 	bl	80021c4 <disk_write>
	FRESULT res = FR_OK;
 8002674:	2000      	movs	r0, #0
 8002676:	e7df      	b.n	8002638 <sync_window+0x8>
			res = FR_DISK_ERR;
 8002678:	2001      	movs	r0, #1
 800267a:	e7dd      	b.n	8002638 <sync_window+0x8>
	FRESULT res = FR_OK;
 800267c:	2000      	movs	r0, #0
 800267e:	e7db      	b.n	8002638 <sync_window+0x8>

08002680 <move_window>:
{
 8002680:	b570      	push	{r4, r5, r6, lr}
	if (sect != fs->winsect) {	/* Window offset changed? */
 8002682:	6b43      	ldr	r3, [r0, #52]	; 0x34
 8002684:	428b      	cmp	r3, r1
 8002686:	d012      	beq.n	80026ae <move_window+0x2e>
 8002688:	4604      	mov	r4, r0
 800268a:	460d      	mov	r5, r1
		res = sync_window(fs);		/* Flush the window */
 800268c:	f7ff ffd0 	bl	8002630 <sync_window>
		if (res == FR_OK) {			/* Fill sector window with new data */
 8002690:	4606      	mov	r6, r0
 8002692:	b968      	cbnz	r0, 80026b0 <move_window+0x30>
			if (disk_read(fs->pdrv, fs->win, sect, 1) != RES_OK) {
 8002694:	2301      	movs	r3, #1
 8002696:	462a      	mov	r2, r5
 8002698:	f104 0138 	add.w	r1, r4, #56	; 0x38
 800269c:	7860      	ldrb	r0, [r4, #1]
 800269e:	f7ff fd7f 	bl	80021a0 <disk_read>
 80026a2:	b110      	cbz	r0, 80026aa <move_window+0x2a>
				res = FR_DISK_ERR;
 80026a4:	2601      	movs	r6, #1
				sect = (LBA_t)0 - 1;	/* Invalidate window if read data is not valid */
 80026a6:	f04f 35ff 	mov.w	r5, #4294967295
			fs->winsect = sect;
 80026aa:	6365      	str	r5, [r4, #52]	; 0x34
 80026ac:	e000      	b.n	80026b0 <move_window+0x30>
	FRESULT res = FR_OK;
 80026ae:	2600      	movs	r6, #0
}
 80026b0:	4630      	mov	r0, r6
 80026b2:	bd70      	pop	{r4, r5, r6, pc}

080026b4 <check_fs>:
{
 80026b4:	b510      	push	{r4, lr}
 80026b6:	4604      	mov	r4, r0
	fs->wflag = 0; fs->winsect = (LBA_t)0 - 1;		/* Invaidate window */
 80026b8:	2300      	movs	r3, #0
 80026ba:	70c3      	strb	r3, [r0, #3]
 80026bc:	f04f 33ff 	mov.w	r3, #4294967295
 80026c0:	6343      	str	r3, [r0, #52]	; 0x34
	if (move_window(fs, sect) != FR_OK) return 4;	/* Load the boot sector */
 80026c2:	f7ff ffdd 	bl	8002680 <move_window>
 80026c6:	b9f8      	cbnz	r0, 8002708 <check_fs+0x54>
	if (ld_word(fs->win + BS_55AA) != 0xAA55) return 3;	/* Check boot signature (always here regardless of the sector size) */
 80026c8:	f204 2036 	addw	r0, r4, #566	; 0x236
 80026cc:	f7ff fd9c 	bl	8002208 <ld_word>
 80026d0:	f64a 2355 	movw	r3, #43605	; 0xaa55
 80026d4:	4298      	cmp	r0, r3
 80026d6:	d119      	bne.n	800270c <check_fs+0x58>
	if (fs->win[BS_JmpBoot] == 0xE9 || fs->win[BS_JmpBoot] == 0xEB || fs->win[BS_JmpBoot] == 0xE8) {	/* Valid JumpBoot code? */
 80026d8:	f894 3038 	ldrb.w	r3, [r4, #56]	; 0x38
 80026dc:	2be9      	cmp	r3, #233	; 0xe9
 80026de:	d003      	beq.n	80026e8 <check_fs+0x34>
 80026e0:	2beb      	cmp	r3, #235	; 0xeb
 80026e2:	d001      	beq.n	80026e8 <check_fs+0x34>
 80026e4:	2be8      	cmp	r3, #232	; 0xe8
 80026e6:	d113      	bne.n	8002710 <check_fs+0x5c>
		if (!mem_cmp(fs->win + BS_FilSysType, "FAT", 3)) return 0;		/* Is it an FAT VBR? */
 80026e8:	2203      	movs	r2, #3
 80026ea:	490b      	ldr	r1, [pc, #44]	; (8002718 <check_fs+0x64>)
 80026ec:	f104 006e 	add.w	r0, r4, #110	; 0x6e
 80026f0:	f7ff fdb6 	bl	8002260 <mem_cmp>
 80026f4:	b170      	cbz	r0, 8002714 <check_fs+0x60>
		if (!mem_cmp(fs->win + BS_FilSysType32, "FAT32", 5)) return 0;	/* Is it an FAT32 VBR? */
 80026f6:	2205      	movs	r2, #5
 80026f8:	4908      	ldr	r1, [pc, #32]	; (800271c <check_fs+0x68>)
 80026fa:	f104 008a 	add.w	r0, r4, #138	; 0x8a
 80026fe:	f7ff fdaf 	bl	8002260 <mem_cmp>
 8002702:	b120      	cbz	r0, 800270e <check_fs+0x5a>
	return 2;	/* Valid BS but not FAT */
 8002704:	2002      	movs	r0, #2
 8002706:	e002      	b.n	800270e <check_fs+0x5a>
	if (move_window(fs, sect) != FR_OK) return 4;	/* Load the boot sector */
 8002708:	2004      	movs	r0, #4
 800270a:	e000      	b.n	800270e <check_fs+0x5a>
	if (ld_word(fs->win + BS_55AA) != 0xAA55) return 3;	/* Check boot signature (always here regardless of the sector size) */
 800270c:	2003      	movs	r0, #3
}
 800270e:	bd10      	pop	{r4, pc}
	return 2;	/* Valid BS but not FAT */
 8002710:	2002      	movs	r0, #2
 8002712:	e7fc      	b.n	800270e <check_fs+0x5a>
		if (!mem_cmp(fs->win + BS_FilSysType, "FAT", 3)) return 0;		/* Is it an FAT VBR? */
 8002714:	2000      	movs	r0, #0
 8002716:	e7fa      	b.n	800270e <check_fs+0x5a>
 8002718:	08006da4 	.word	0x08006da4
 800271c:	08006da8 	.word	0x08006da8

08002720 <find_volume>:
{
 8002720:	b570      	push	{r4, r5, r6, lr}
 8002722:	b084      	sub	sp, #16
 8002724:	4606      	mov	r6, r0
 8002726:	460d      	mov	r5, r1
	fmt = check_fs(fs, 0);				/* Load sector 0 and check if it is an FAT VBR as SFD */
 8002728:	2100      	movs	r1, #0
 800272a:	f7ff ffc3 	bl	80026b4 <check_fs>
	if (fmt != 2 && (fmt >= 3 || part == 0)) return fmt;	/* Returns if it is a FAT VBR as auto scan, not a BS or disk error */
 800272e:	2802      	cmp	r0, #2
 8002730:	d016      	beq.n	8002760 <find_volume+0x40>
 8002732:	d82b      	bhi.n	800278c <find_volume+0x6c>
 8002734:	b355      	cbz	r5, 800278c <find_volume+0x6c>
 8002736:	2400      	movs	r4, #0
 8002738:	e00d      	b.n	8002756 <find_volume+0x36>
		mbr_pt[i] = ld_dword(fs->win + MBR_Table + i * SZ_PTE + PTE_StLba);
 800273a:	f106 0038 	add.w	r0, r6, #56	; 0x38
 800273e:	0123      	lsls	r3, r4, #4
 8002740:	f503 73e3 	add.w	r3, r3, #454	; 0x1c6
 8002744:	4418      	add	r0, r3
 8002746:	f7ff fd64 	bl	8002212 <ld_dword>
 800274a:	ab04      	add	r3, sp, #16
 800274c:	eb03 0384 	add.w	r3, r3, r4, lsl #2
 8002750:	f843 0c10 	str.w	r0, [r3, #-16]
	for (i = 0; i < 4; i++) {		/* Load partition offset in the MBR */
 8002754:	3401      	adds	r4, #1
 8002756:	2c03      	cmp	r4, #3
 8002758:	d9ef      	bls.n	800273a <find_volume+0x1a>
	i = part ? part - 1 : 0;		/* Table index to find first */
 800275a:	b11d      	cbz	r5, 8002764 <find_volume+0x44>
 800275c:	1e6c      	subs	r4, r5, #1
 800275e:	e00c      	b.n	800277a <find_volume+0x5a>
 8002760:	2400      	movs	r4, #0
 8002762:	e7f8      	b.n	8002756 <find_volume+0x36>
 8002764:	462c      	mov	r4, r5
 8002766:	e008      	b.n	800277a <find_volume+0x5a>
		fmt = mbr_pt[i] ? check_fs(fs, mbr_pt[i]) : 3;	/* Check if the partition is FAT */
 8002768:	4630      	mov	r0, r6
 800276a:	f7ff ffa3 	bl	80026b4 <check_fs>
	} while (part == 0 && fmt >= 2 && ++i < 4);
 800276e:	b96d      	cbnz	r5, 800278c <find_volume+0x6c>
 8002770:	2801      	cmp	r0, #1
 8002772:	d90b      	bls.n	800278c <find_volume+0x6c>
 8002774:	3401      	adds	r4, #1
 8002776:	2c03      	cmp	r4, #3
 8002778:	d808      	bhi.n	800278c <find_volume+0x6c>
		fmt = mbr_pt[i] ? check_fs(fs, mbr_pt[i]) : 3;	/* Check if the partition is FAT */
 800277a:	ab04      	add	r3, sp, #16
 800277c:	eb03 0384 	add.w	r3, r3, r4, lsl #2
 8002780:	f853 1c10 	ldr.w	r1, [r3, #-16]
 8002784:	2900      	cmp	r1, #0
 8002786:	d1ef      	bne.n	8002768 <find_volume+0x48>
 8002788:	2003      	movs	r0, #3
 800278a:	e7f0      	b.n	800276e <find_volume+0x4e>
}
 800278c:	b004      	add	sp, #16
 800278e:	bd70      	pop	{r4, r5, r6, pc}

08002790 <mount_volume>:
{
 8002790:	e92d 47f0 	stmdb	sp!, {r4, r5, r6, r7, r8, r9, sl, lr}
 8002794:	460f      	mov	r7, r1
 8002796:	4616      	mov	r6, r2
	*rfs = 0;
 8002798:	2300      	movs	r3, #0
 800279a:	600b      	str	r3, [r1, #0]
	vol = get_ldnumber(path);
 800279c:	f7ff feca 	bl	8002534 <get_ldnumber>
	if (vol < 0) return FR_INVALID_DRIVE;
 80027a0:	1e05      	subs	r5, r0, #0
 80027a2:	f2c0 8117 	blt.w	80029d4 <mount_volume+0x244>
	fs = FatFs[vol];					/* Get pointer to the filesystem object */
 80027a6:	4ba0      	ldr	r3, [pc, #640]	; (8002a28 <mount_volume+0x298>)
 80027a8:	f853 4025 	ldr.w	r4, [r3, r5, lsl #2]
	if (!fs) return FR_NOT_ENABLED;		/* Is the filesystem object available? */
 80027ac:	2c00      	cmp	r4, #0
 80027ae:	f000 8114 	beq.w	80029da <mount_volume+0x24a>
	*rfs = fs;							/* Return pointer to the filesystem object */
 80027b2:	603c      	str	r4, [r7, #0]
	mode &= (BYTE)~FA_READ;				/* Desired access mode, write access or not */
 80027b4:	f006 06fe 	and.w	r6, r6, #254	; 0xfe
	if (fs->fs_type != 0) {				/* If the volume has been mounted */
 80027b8:	7823      	ldrb	r3, [r4, #0]
 80027ba:	b173      	cbz	r3, 80027da <mount_volume+0x4a>
		stat = disk_status(fs->pdrv);
 80027bc:	7860      	ldrb	r0, [r4, #1]
 80027be:	f7ff fcd3 	bl	8002168 <disk_status>
		if (!(stat & STA_NOINIT)) {		/* and the physical drive is kept initialized */
 80027c2:	f010 0f01 	tst.w	r0, #1
 80027c6:	d108      	bne.n	80027da <mount_volume+0x4a>
			if (!FF_FS_READONLY && mode && (stat & STA_PROTECT)) {	/* Check write protection if needed */
 80027c8:	2e00      	cmp	r6, #0
 80027ca:	f000 8108 	beq.w	80029de <mount_volume+0x24e>
 80027ce:	f010 0f04 	tst.w	r0, #4
 80027d2:	f040 8106 	bne.w	80029e2 <mount_volume+0x252>
			return FR_OK;				/* The filesystem object is already valid */
 80027d6:	2000      	movs	r0, #0
 80027d8:	e0fd      	b.n	80029d6 <mount_volume+0x246>
	fs->fs_type = 0;					/* Clear the filesystem object */
 80027da:	2300      	movs	r3, #0
 80027dc:	7023      	strb	r3, [r4, #0]
	fs->pdrv = LD2PD(vol);				/* Volume hosting physical drive */
 80027de:	b2e8      	uxtb	r0, r5
 80027e0:	7060      	strb	r0, [r4, #1]
	stat = disk_initialize(fs->pdrv);	/* Initialize the physical drive */
 80027e2:	f7ff fccf 	bl	8002184 <disk_initialize>
	if (stat & STA_NOINIT) { 			/* Check if the initialization succeeded */
 80027e6:	f010 0f01 	tst.w	r0, #1
 80027ea:	f040 80fc 	bne.w	80029e6 <mount_volume+0x256>
	if (!FF_FS_READONLY && mode && (stat & STA_PROTECT)) { /* Check disk write protection if needed */
 80027ee:	b11e      	cbz	r6, 80027f8 <mount_volume+0x68>
 80027f0:	f010 0f04 	tst.w	r0, #4
 80027f4:	f040 80f9 	bne.w	80029ea <mount_volume+0x25a>
	fmt = find_volume(fs, LD2PT(vol));
 80027f8:	2100      	movs	r1, #0
 80027fa:	4620      	mov	r0, r4
 80027fc:	f7ff ff90 	bl	8002720 <find_volume>
	if (fmt == 4) return FR_DISK_ERR;		/* An error occured in the disk I/O layer */
 8002800:	2804      	cmp	r0, #4
 8002802:	f000 80f4 	beq.w	80029ee <mount_volume+0x25e>
	if (fmt >= 2) return FR_NO_FILESYSTEM;	/* No FAT volume is found */
 8002806:	2801      	cmp	r0, #1
 8002808:	f200 80f3 	bhi.w	80029f2 <mount_volume+0x262>
	bsect = fs->winsect;					/* Volume location */
 800280c:	6b67      	ldr	r7, [r4, #52]	; 0x34
		if (ld_word(fs->win + BPB_BytsPerSec) != SS(fs)) return FR_NO_FILESYSTEM;	/* (BPB_BytsPerSec must be equal to the physical sector size) */
 800280e:	f104 0043 	add.w	r0, r4, #67	; 0x43
 8002812:	f7ff fcf9 	bl	8002208 <ld_word>
 8002816:	f5b0 7f00 	cmp.w	r0, #512	; 0x200
 800281a:	f040 80ec 	bne.w	80029f6 <mount_volume+0x266>
		fasize = ld_word(fs->win + BPB_FATSz16);		/* Number of sectors per FAT */
 800281e:	f104 004e 	add.w	r0, r4, #78	; 0x4e
 8002822:	f7ff fcf1 	bl	8002208 <ld_word>
 8002826:	4606      	mov	r6, r0
		if (fasize == 0) fasize = ld_dword(fs->win + BPB_FATSz32);
 8002828:	b920      	cbnz	r0, 8002834 <mount_volume+0xa4>
 800282a:	f104 005c 	add.w	r0, r4, #92	; 0x5c
 800282e:	f7ff fcf0 	bl	8002212 <ld_dword>
 8002832:	4606      	mov	r6, r0
		fs->fsize = fasize;
 8002834:	6226      	str	r6, [r4, #32]
		fs->n_fats = fs->win[BPB_NumFATs];				/* Number of FATs */
 8002836:	f894 2048 	ldrb.w	r2, [r4, #72]	; 0x48
 800283a:	70a2      	strb	r2, [r4, #2]
		if (fs->n_fats != 1 && fs->n_fats != 2) return FR_NO_FILESYSTEM;	/* (Must be 1 or 2) */
 800283c:	1e53      	subs	r3, r2, #1
 800283e:	b2db      	uxtb	r3, r3
 8002840:	2b01      	cmp	r3, #1
 8002842:	f200 80da 	bhi.w	80029fa <mount_volume+0x26a>
		fasize *= fs->n_fats;							/* Number of sectors for FAT area */
 8002846:	fb06 f502 	mul.w	r5, r6, r2
		fs->csize = fs->win[BPB_SecPerClus];			/* Cluster size */
 800284a:	f894 8045 	ldrb.w	r8, [r4, #69]	; 0x45
 800284e:	f8a4 800a 	strh.w	r8, [r4, #10]
		if (fs->csize == 0 || (fs->csize & (fs->csize - 1))) return FR_NO_FILESYSTEM;	/* (Must be power of 2) */
 8002852:	f1b8 0f00 	cmp.w	r8, #0
 8002856:	f000 80d2 	beq.w	80029fe <mount_volume+0x26e>
 800285a:	f108 33ff 	add.w	r3, r8, #4294967295
 800285e:	ea18 0f03 	tst.w	r8, r3
 8002862:	f040 80ce 	bne.w	8002a02 <mount_volume+0x272>
		fs->n_rootdir = ld_word(fs->win + BPB_RootEntCnt);	/* Number of root directory entries */
 8002866:	f104 0049 	add.w	r0, r4, #73	; 0x49
 800286a:	f7ff fccd 	bl	8002208 <ld_word>
 800286e:	4682      	mov	sl, r0
 8002870:	8120      	strh	r0, [r4, #8]
		if (fs->n_rootdir % (SS(fs) / SZDIRE)) return FR_NO_FILESYSTEM;	/* (Must be sector aligned) */
 8002872:	f010 0f0f 	tst.w	r0, #15
 8002876:	f040 80c6 	bne.w	8002a06 <mount_volume+0x276>
		tsect = ld_word(fs->win + BPB_TotSec16);		/* Number of sectors on the volume */
 800287a:	f104 004b 	add.w	r0, r4, #75	; 0x4b
 800287e:	f7ff fcc3 	bl	8002208 <ld_word>
 8002882:	4681      	mov	r9, r0
		if (tsect == 0) tsect = ld_dword(fs->win + BPB_TotSec32);
 8002884:	b920      	cbnz	r0, 8002890 <mount_volume+0x100>
 8002886:	f104 0058 	add.w	r0, r4, #88	; 0x58
 800288a:	f7ff fcc2 	bl	8002212 <ld_dword>
 800288e:	4681      	mov	r9, r0
		nrsv = ld_word(fs->win + BPB_RsvdSecCnt);		/* Number of reserved sectors */
 8002890:	f104 0046 	add.w	r0, r4, #70	; 0x46
 8002894:	f7ff fcb8 	bl	8002208 <ld_word>
		if (nrsv == 0) return FR_NO_FILESYSTEM;			/* (Must not be 0) */
 8002898:	4601      	mov	r1, r0
 800289a:	2800      	cmp	r0, #0
 800289c:	f000 80b5 	beq.w	8002a0a <mount_volume+0x27a>
		sysect = nrsv + fasize + fs->n_rootdir / (SS(fs) / SZDIRE);	/* RSV + FAT + DIR */
 80028a0:	1942      	adds	r2, r0, r5
 80028a2:	eb02 121a 	add.w	r2, r2, sl, lsr #4
		if (tsect < sysect) return FR_NO_FILESYSTEM;	/* (Invalid volume size) */
 80028a6:	4591      	cmp	r9, r2
 80028a8:	f0c0 80b1 	bcc.w	8002a0e <mount_volume+0x27e>
		nclst = (tsect - sysect) / fs->csize;			/* Number of clusters */
 80028ac:	eba9 0302 	sub.w	r3, r9, r2
 80028b0:	fbb3 f3f8 	udiv	r3, r3, r8
		if (nclst == 0) return FR_NO_FILESYSTEM;		/* (Invalid volume size) */
 80028b4:	2b00      	cmp	r3, #0
 80028b6:	f000 80ac 	beq.w	8002a12 <mount_volume+0x282>
		if (nclst <= MAX_FAT32) fmt = FS_FAT32;
 80028ba:	485c      	ldr	r0, [pc, #368]	; (8002a2c <mount_volume+0x29c>)
 80028bc:	4283      	cmp	r3, r0
 80028be:	d910      	bls.n	80028e2 <mount_volume+0x152>
		fmt = 0;
 80028c0:	f04f 0900 	mov.w	r9, #0
		if (nclst <= MAX_FAT16) fmt = FS_FAT16;
 80028c4:	f64f 70f5 	movw	r0, #65525	; 0xfff5
 80028c8:	4283      	cmp	r3, r0
 80028ca:	d801      	bhi.n	80028d0 <mount_volume+0x140>
 80028cc:	f04f 0902 	mov.w	r9, #2
		if (nclst <= MAX_FAT12) fmt = FS_FAT12;
 80028d0:	f640 70f5 	movw	r0, #4085	; 0xff5
 80028d4:	4283      	cmp	r3, r0
 80028d6:	d907      	bls.n	80028e8 <mount_volume+0x158>
		if (fmt == 0) return FR_NO_FILESYSTEM;
 80028d8:	f1b9 0f00 	cmp.w	r9, #0
 80028dc:	d106      	bne.n	80028ec <mount_volume+0x15c>
 80028de:	200d      	movs	r0, #13
 80028e0:	e079      	b.n	80029d6 <mount_volume+0x246>
		if (nclst <= MAX_FAT32) fmt = FS_FAT32;
 80028e2:	f04f 0903 	mov.w	r9, #3
 80028e6:	e7ed      	b.n	80028c4 <mount_volume+0x134>
		if (nclst <= MAX_FAT12) fmt = FS_FAT12;
 80028e8:	f04f 0901 	mov.w	r9, #1
		fs->n_fatent = nclst + 2;						/* Number of FAT entries */
 80028ec:	f103 0802 	add.w	r8, r3, #2
 80028f0:	f8c4 801c 	str.w	r8, [r4, #28]
		fs->volbase = bsect;							/* Volume start sector */
 80028f4:	6267      	str	r7, [r4, #36]	; 0x24
		fs->fatbase = bsect + nrsv; 					/* FAT start sector */
 80028f6:	19cb      	adds	r3, r1, r7
 80028f8:	62a3      	str	r3, [r4, #40]	; 0x28
		fs->database = bsect + sysect;					/* Data start sector */
 80028fa:	443a      	add	r2, r7
 80028fc:	6322      	str	r2, [r4, #48]	; 0x30
		if (fmt == FS_FAT32) {
 80028fe:	f1b9 0f03 	cmp.w	r9, #3
 8002902:	d029      	beq.n	8002958 <mount_volume+0x1c8>
			if (fs->n_rootdir == 0)	return FR_NO_FILESYSTEM;	/* (BPB_RootEntCnt must not be 0) */
 8002904:	f1ba 0f00 	cmp.w	sl, #0
 8002908:	f000 8089 	beq.w	8002a1e <mount_volume+0x28e>
			fs->dirbase = fs->fatbase + fasize;			/* Root directory start sector */
 800290c:	442b      	add	r3, r5
 800290e:	62e3      	str	r3, [r4, #44]	; 0x2c
				fs->n_fatent * 2 : fs->n_fatent * 3 / 2 + (fs->n_fatent & 1);
 8002910:	f1b9 0f02 	cmp.w	r9, #2
 8002914:	d031      	beq.n	800297a <mount_volume+0x1ea>
 8002916:	eb08 0248 	add.w	r2, r8, r8, lsl #1
 800291a:	f008 0301 	and.w	r3, r8, #1
 800291e:	eb03 0352 	add.w	r3, r3, r2, lsr #1
		if (fs->fsize < (szbfat + (SS(fs) - 1)) / SS(fs)) return FR_NO_FILESYSTEM;	/* (BPB_FATSz must not be less than the size needed) */
 8002922:	f203 13ff 	addw	r3, r3, #511	; 0x1ff
 8002926:	ebb6 2f53 	cmp.w	r6, r3, lsr #9
 800292a:	d37a      	bcc.n	8002a22 <mount_volume+0x292>
		fs->last_clst = fs->free_clst = 0xFFFFFFFF;		/* Initialize cluster allocation information */
 800292c:	f04f 33ff 	mov.w	r3, #4294967295
 8002930:	6163      	str	r3, [r4, #20]
 8002932:	6123      	str	r3, [r4, #16]
		fs->fsi_flag = 0x80;
 8002934:	2380      	movs	r3, #128	; 0x80
 8002936:	7123      	strb	r3, [r4, #4]
		if (fmt == FS_FAT32				/* Allow to update FSInfo only if BPB_FSInfo32 == 1 */
 8002938:	f1b9 0f03 	cmp.w	r9, #3
 800293c:	d020      	beq.n	8002980 <mount_volume+0x1f0>
	fs->fs_type = (BYTE)fmt;/* FAT sub-type */
 800293e:	f884 9000 	strb.w	r9, [r4]
	fs->id = ++Fsid;		/* Volume mount ID */
 8002942:	4a3b      	ldr	r2, [pc, #236]	; (8002a30 <mount_volume+0x2a0>)
 8002944:	8813      	ldrh	r3, [r2, #0]
 8002946:	3301      	adds	r3, #1
 8002948:	b29b      	uxth	r3, r3
 800294a:	8013      	strh	r3, [r2, #0]
 800294c:	80e3      	strh	r3, [r4, #6]
	fs->lfnbuf = LfnBuf;	/* Static LFN working buffer */
 800294e:	4b39      	ldr	r3, [pc, #228]	; (8002a34 <mount_volume+0x2a4>)
 8002950:	60e3      	str	r3, [r4, #12]
	fs->cdir = 0;			/* Initialize current directory */
 8002952:	2000      	movs	r0, #0
 8002954:	61a0      	str	r0, [r4, #24]
	return FR_OK;
 8002956:	e03e      	b.n	80029d6 <mount_volume+0x246>
			if (ld_word(fs->win + BPB_FSVer32) != 0) return FR_NO_FILESYSTEM;	/* (Must be FAT32 revision 0.0) */
 8002958:	f104 0062 	add.w	r0, r4, #98	; 0x62
 800295c:	f7ff fc54 	bl	8002208 <ld_word>
 8002960:	2800      	cmp	r0, #0
 8002962:	d158      	bne.n	8002a16 <mount_volume+0x286>
			if (fs->n_rootdir != 0) return FR_NO_FILESYSTEM;	/* (BPB_RootEntCnt must be 0) */
 8002964:	f1ba 0f00 	cmp.w	sl, #0
 8002968:	d157      	bne.n	8002a1a <mount_volume+0x28a>
			fs->dirbase = ld_dword(fs->win + BPB_RootClus32);	/* Root directory start cluster */
 800296a:	f104 0064 	add.w	r0, r4, #100	; 0x64
 800296e:	f7ff fc50 	bl	8002212 <ld_dword>
 8002972:	62e0      	str	r0, [r4, #44]	; 0x2c
			szbfat = fs->n_fatent * 4;					/* (Needed FAT size) */
 8002974:	ea4f 0388 	mov.w	r3, r8, lsl #2
 8002978:	e7d3      	b.n	8002922 <mount_volume+0x192>
				fs->n_fatent * 2 : fs->n_fatent * 3 / 2 + (fs->n_fatent & 1);
 800297a:	ea4f 0348 	mov.w	r3, r8, lsl #1
 800297e:	e7d0      	b.n	8002922 <mount_volume+0x192>
			&& ld_word(fs->win + BPB_FSInfo32) == 1
 8002980:	f104 0068 	add.w	r0, r4, #104	; 0x68
 8002984:	f7ff fc40 	bl	8002208 <ld_word>
 8002988:	2801      	cmp	r0, #1
 800298a:	d1d8      	bne.n	800293e <mount_volume+0x1ae>
			&& move_window(fs, bsect + 1) == FR_OK)
 800298c:	1c79      	adds	r1, r7, #1
 800298e:	4620      	mov	r0, r4
 8002990:	f7ff fe76 	bl	8002680 <move_window>
 8002994:	2800      	cmp	r0, #0
 8002996:	d1d2      	bne.n	800293e <mount_volume+0x1ae>
			fs->fsi_flag = 0;
 8002998:	2300      	movs	r3, #0
 800299a:	7123      	strb	r3, [r4, #4]
			if (ld_word(fs->win + BS_55AA) == 0xAA55	/* Load FSInfo data if available */
 800299c:	f204 2036 	addw	r0, r4, #566	; 0x236
 80029a0:	f7ff fc32 	bl	8002208 <ld_word>
 80029a4:	f64a 2355 	movw	r3, #43605	; 0xaa55
 80029a8:	4298      	cmp	r0, r3
 80029aa:	d1c8      	bne.n	800293e <mount_volume+0x1ae>
				&& ld_dword(fs->win + FSI_LeadSig) == 0x41615252
 80029ac:	f104 0038 	add.w	r0, r4, #56	; 0x38
 80029b0:	f7ff fc2f 	bl	8002212 <ld_dword>
 80029b4:	4b20      	ldr	r3, [pc, #128]	; (8002a38 <mount_volume+0x2a8>)
 80029b6:	4298      	cmp	r0, r3
 80029b8:	d1c1      	bne.n	800293e <mount_volume+0x1ae>
				&& ld_dword(fs->win + FSI_StrucSig) == 0x61417272)
 80029ba:	f504 7007 	add.w	r0, r4, #540	; 0x21c
 80029be:	f7ff fc28 	bl	8002212 <ld_dword>
 80029c2:	4b1e      	ldr	r3, [pc, #120]	; (8002a3c <mount_volume+0x2ac>)
 80029c4:	4298      	cmp	r0, r3
 80029c6:	d1ba      	bne.n	800293e <mount_volume+0x1ae>
				fs->free_clst = ld_dword(fs->win + FSI_Free_Count);
 80029c8:	f504 7008 	add.w	r0, r4, #544	; 0x220
 80029cc:	f7ff fc21 	bl	8002212 <ld_dword>
 80029d0:	6160      	str	r0, [r4, #20]
 80029d2:	e7b4      	b.n	800293e <mount_volume+0x1ae>
	if (vol < 0) return FR_INVALID_DRIVE;
 80029d4:	200b      	movs	r0, #11
}
 80029d6:	e8bd 87f0 	ldmia.w	sp!, {r4, r5, r6, r7, r8, r9, sl, pc}
	if (!fs) return FR_NOT_ENABLED;		/* Is the filesystem object available? */
 80029da:	200c      	movs	r0, #12
 80029dc:	e7fb      	b.n	80029d6 <mount_volume+0x246>
			return FR_OK;				/* The filesystem object is already valid */
 80029de:	2000      	movs	r0, #0
 80029e0:	e7f9      	b.n	80029d6 <mount_volume+0x246>
				return FR_WRITE_PROTECTED;
 80029e2:	200a      	movs	r0, #10
 80029e4:	e7f7      	b.n	80029d6 <mount_volume+0x246>
		return FR_NOT_READY;			/* Failed to initialize due to no medium or hard error */
 80029e6:	2003      	movs	r0, #3
 80029e8:	e7f5      	b.n	80029d6 <mount_volume+0x246>
		return FR_WRITE_PROTECTED;
 80029ea:	200a      	movs	r0, #10
 80029ec:	e7f3      	b.n	80029d6 <mount_volume+0x246>
	if (fmt == 4) return FR_DISK_ERR;		/* An error occured in the disk I/O layer */
 80029ee:	2001      	movs	r0, #1
 80029f0:	e7f1      	b.n	80029d6 <mount_volume+0x246>
	if (fmt >= 2) return FR_NO_FILESYSTEM;	/* No FAT volume is found */
 80029f2:	200d      	movs	r0, #13
 80029f4:	e7ef      	b.n	80029d6 <mount_volume+0x246>
		if (ld_word(fs->win + BPB_BytsPerSec) != SS(fs)) return FR_NO_FILESYSTEM;	/* (BPB_BytsPerSec must be equal to the physical sector size) */
 80029f6:	200d      	movs	r0, #13
 80029f8:	e7ed      	b.n	80029d6 <mount_volume+0x246>
		if (fs->n_fats != 1 && fs->n_fats != 2) return FR_NO_FILESYSTEM;	/* (Must be 1 or 2) */
 80029fa:	200d      	movs	r0, #13
 80029fc:	e7eb      	b.n	80029d6 <mount_volume+0x246>
		if (fs->csize == 0 || (fs->csize & (fs->csize - 1))) return FR_NO_FILESYSTEM;	/* (Must be power of 2) */
 80029fe:	200d      	movs	r0, #13
 8002a00:	e7e9      	b.n	80029d6 <mount_volume+0x246>
 8002a02:	200d      	movs	r0, #13
 8002a04:	e7e7      	b.n	80029d6 <mount_volume+0x246>
		if (fs->n_rootdir % (SS(fs) / SZDIRE)) return FR_NO_FILESYSTEM;	/* (Must be sector aligned) */
 8002a06:	200d      	movs	r0, #13
 8002a08:	e7e5      	b.n	80029d6 <mount_volume+0x246>
		if (nrsv == 0) return FR_NO_FILESYSTEM;			/* (Must not be 0) */
 8002a0a:	200d      	movs	r0, #13
 8002a0c:	e7e3      	b.n	80029d6 <mount_volume+0x246>
		if (tsect < sysect) return FR_NO_FILESYSTEM;	/* (Invalid volume size) */
 8002a0e:	200d      	movs	r0, #13
 8002a10:	e7e1      	b.n	80029d6 <mount_volume+0x246>
		if (nclst == 0) return FR_NO_FILESYSTEM;		/* (Invalid volume size) */
 8002a12:	200d      	movs	r0, #13
 8002a14:	e7df      	b.n	80029d6 <mount_volume+0x246>
			if (ld_word(fs->win + BPB_FSVer32) != 0) return FR_NO_FILESYSTEM;	/* (Must be FAT32 revision 0.0) */
 8002a16:	200d      	movs	r0, #13
 8002a18:	e7dd      	b.n	80029d6 <mount_volume+0x246>
			if (fs->n_rootdir != 0) return FR_NO_FILESYSTEM;	/* (BPB_RootEntCnt must be 0) */
 8002a1a:	200d      	movs	r0, #13
 8002a1c:	e7db      	b.n	80029d6 <mount_volume+0x246>
			if (fs->n_rootdir == 0)	return FR_NO_FILESYSTEM;	/* (BPB_RootEntCnt must not be 0) */
 8002a1e:	200d      	movs	r0, #13
 8002a20:	e7d9      	b.n	80029d6 <mount_volume+0x246>
		if (fs->fsize < (szbfat + (SS(fs) - 1)) / SS(fs)) return FR_NO_FILESYSTEM;	/* (BPB_FATSz must not be less than the size needed) */
 8002a22:	200d      	movs	r0, #13
 8002a24:	e7d7      	b.n	80029d6 <mount_volume+0x246>
 8002a26:	bf00      	nop
 8002a28:	20000214 	.word	0x20000214
 8002a2c:	0ffffff5 	.word	0x0ffffff5
 8002a30:	2000021c 	.word	0x2000021c
 8002a34:	20000220 	.word	0x20000220
 8002a38:	41615252 	.word	0x41615252
 8002a3c:	61417272 	.word	0x61417272

08002a40 <put_fat>:
{
 8002a40:	e92d 47f0 	stmdb	sp!, {r4, r5, r6, r7, r8, r9, sl, lr}
	if (clst >= 2 && clst < fs->n_fatent) {	/* Check if in valid range */
 8002a44:	2901      	cmp	r1, #1
 8002a46:	d97a      	bls.n	8002b3e <put_fat+0xfe>
 8002a48:	69c3      	ldr	r3, [r0, #28]
 8002a4a:	428b      	cmp	r3, r1
 8002a4c:	d979      	bls.n	8002b42 <put_fat+0x102>
 8002a4e:	4617      	mov	r7, r2
 8002a50:	460c      	mov	r4, r1
 8002a52:	4606      	mov	r6, r0
		switch (fs->fs_type) {
 8002a54:	7803      	ldrb	r3, [r0, #0]
 8002a56:	2b02      	cmp	r3, #2
 8002a58:	d043      	beq.n	8002ae2 <put_fat+0xa2>
 8002a5a:	2b03      	cmp	r3, #3
 8002a5c:	d054      	beq.n	8002b08 <put_fat+0xc8>
 8002a5e:	2b01      	cmp	r3, #1
 8002a60:	d001      	beq.n	8002a66 <put_fat+0x26>
	FRESULT res = FR_INT_ERR;
 8002a62:	2502      	movs	r5, #2
 8002a64:	e06e      	b.n	8002b44 <put_fat+0x104>
			bc = (UINT)clst; bc += bc / 2;	/* bc: byte offset of the entry */
 8002a66:	eb01 0851 	add.w	r8, r1, r1, lsr #1
			res = move_window(fs, fs->fatbase + (bc / SS(fs)));
 8002a6a:	6a81      	ldr	r1, [r0, #40]	; 0x28
 8002a6c:	eb01 2158 	add.w	r1, r1, r8, lsr #9
 8002a70:	f7ff fe06 	bl	8002680 <move_window>
			if (res != FR_OK) break;
 8002a74:	4605      	mov	r5, r0
 8002a76:	2800      	cmp	r0, #0
 8002a78:	d164      	bne.n	8002b44 <put_fat+0x104>
			p = fs->win + bc++ % SS(fs);
 8002a7a:	f106 0a38 	add.w	sl, r6, #56	; 0x38
 8002a7e:	f108 0901 	add.w	r9, r8, #1
 8002a82:	f3c8 0808 	ubfx	r8, r8, #0, #9
			*p = (clst & 1) ? ((*p & 0x0F) | ((BYTE)val << 4)) : (BYTE)val;		/* Update 1st byte */
 8002a86:	f014 0401 	ands.w	r4, r4, #1
 8002a8a:	d01f      	beq.n	8002acc <put_fat+0x8c>
 8002a8c:	f91a 3008 	ldrsb.w	r3, [sl, r8]
 8002a90:	f003 030f 	and.w	r3, r3, #15
 8002a94:	013a      	lsls	r2, r7, #4
 8002a96:	f402 627f 	and.w	r2, r2, #4080	; 0xff0
 8002a9a:	4313      	orrs	r3, r2
 8002a9c:	b2db      	uxtb	r3, r3
 8002a9e:	f80a 3008 	strb.w	r3, [sl, r8]
			fs->wflag = 1;
 8002aa2:	2301      	movs	r3, #1
 8002aa4:	70f3      	strb	r3, [r6, #3]
			res = move_window(fs, fs->fatbase + (bc / SS(fs)));
 8002aa6:	6ab1      	ldr	r1, [r6, #40]	; 0x28
 8002aa8:	eb01 2159 	add.w	r1, r1, r9, lsr #9
 8002aac:	4630      	mov	r0, r6
 8002aae:	f7ff fde7 	bl	8002680 <move_window>
			if (res != FR_OK) break;
 8002ab2:	4605      	mov	r5, r0
 8002ab4:	2800      	cmp	r0, #0
 8002ab6:	d145      	bne.n	8002b44 <put_fat+0x104>
			p = fs->win + bc % SS(fs);
 8002ab8:	f3c9 0908 	ubfx	r9, r9, #0, #9
			*p = (clst & 1) ? (BYTE)(val >> 4) : ((*p & 0xF0) | ((BYTE)(val >> 8) & 0x0F));	/* Update 2nd byte */
 8002abc:	b144      	cbz	r4, 8002ad0 <put_fat+0x90>
 8002abe:	f3c7 1207 	ubfx	r2, r7, #4, #8
 8002ac2:	f80a 2009 	strb.w	r2, [sl, r9]
			fs->wflag = 1;
 8002ac6:	2301      	movs	r3, #1
 8002ac8:	70f3      	strb	r3, [r6, #3]
			break;
 8002aca:	e03b      	b.n	8002b44 <put_fat+0x104>
			*p = (clst & 1) ? ((*p & 0x0F) | ((BYTE)val << 4)) : (BYTE)val;		/* Update 1st byte */
 8002acc:	b2fb      	uxtb	r3, r7
 8002ace:	e7e6      	b.n	8002a9e <put_fat+0x5e>
			*p = (clst & 1) ? (BYTE)(val >> 4) : ((*p & 0xF0) | ((BYTE)(val >> 8) & 0x0F));	/* Update 2nd byte */
 8002ad0:	f91a 2009 	ldrsb.w	r2, [sl, r9]
 8002ad4:	f022 020f 	bic.w	r2, r2, #15
 8002ad8:	f3c7 2703 	ubfx	r7, r7, #8, #4
 8002adc:	433a      	orrs	r2, r7
 8002ade:	b2d2      	uxtb	r2, r2
 8002ae0:	e7ef      	b.n	8002ac2 <put_fat+0x82>
			res = move_window(fs, fs->fatbase + (clst / (SS(fs) / 2)));
 8002ae2:	6a81      	ldr	r1, [r0, #40]	; 0x28
 8002ae4:	eb01 2114 	add.w	r1, r1, r4, lsr #8
 8002ae8:	f7ff fdca 	bl	8002680 <move_window>
			if (res != FR_OK) break;
 8002aec:	4605      	mov	r5, r0
 8002aee:	bb48      	cbnz	r0, 8002b44 <put_fat+0x104>
			st_word(fs->win + clst * 2 % SS(fs), (WORD)val);	/* Simple WORD array */
 8002af0:	f106 0038 	add.w	r0, r6, #56	; 0x38
 8002af4:	0064      	lsls	r4, r4, #1
 8002af6:	f404 74ff 	and.w	r4, r4, #510	; 0x1fe
 8002afa:	b2b9      	uxth	r1, r7
 8002afc:	4420      	add	r0, r4
 8002afe:	f7ff fb93 	bl	8002228 <st_word>
			fs->wflag = 1;
 8002b02:	2301      	movs	r3, #1
 8002b04:	70f3      	strb	r3, [r6, #3]
			break;
 8002b06:	e01d      	b.n	8002b44 <put_fat+0x104>
			res = move_window(fs, fs->fatbase + (clst / (SS(fs) / 4)));
 8002b08:	6a81      	ldr	r1, [r0, #40]	; 0x28
 8002b0a:	eb01 11d4 	add.w	r1, r1, r4, lsr #7
 8002b0e:	f7ff fdb7 	bl	8002680 <move_window>
			if (res != FR_OK) break;
 8002b12:	4605      	mov	r5, r0
 8002b14:	b9b0      	cbnz	r0, 8002b44 <put_fat+0x104>
				val = (val & 0x0FFFFFFF) | (ld_dword(fs->win + clst * 4 % SS(fs)) & 0xF0000000);
 8002b16:	f027 4770 	bic.w	r7, r7, #4026531840	; 0xf0000000
 8002b1a:	f106 0338 	add.w	r3, r6, #56	; 0x38
 8002b1e:	00a1      	lsls	r1, r4, #2
 8002b20:	f401 71fe 	and.w	r1, r1, #508	; 0x1fc
 8002b24:	185c      	adds	r4, r3, r1
 8002b26:	4620      	mov	r0, r4
 8002b28:	f7ff fb73 	bl	8002212 <ld_dword>
 8002b2c:	f000 4170 	and.w	r1, r0, #4026531840	; 0xf0000000
			st_dword(fs->win + clst * 4 % SS(fs), val);
 8002b30:	4339      	orrs	r1, r7
 8002b32:	4620      	mov	r0, r4
 8002b34:	f7ff fb7c 	bl	8002230 <st_dword>
			fs->wflag = 1;
 8002b38:	2301      	movs	r3, #1
 8002b3a:	70f3      	strb	r3, [r6, #3]
			break;
 8002b3c:	e002      	b.n	8002b44 <put_fat+0x104>
	FRESULT res = FR_INT_ERR;
 8002b3e:	2502      	movs	r5, #2
 8002b40:	e000      	b.n	8002b44 <put_fat+0x104>
 8002b42:	2502      	movs	r5, #2
}
 8002b44:	4628      	mov	r0, r5
 8002b46:	e8bd 87f0 	ldmia.w	sp!, {r4, r5, r6, r7, r8, r9, sl, pc}

08002b4a <get_fat>:
{
 8002b4a:	b5f8      	push	{r3, r4, r5, r6, r7, lr}
	FATFS *fs = obj->fs;
 8002b4c:	6806      	ldr	r6, [r0, #0]
	if (clst < 2 || clst >= fs->n_fatent) {	/* Check if in valid range */
 8002b4e:	2901      	cmp	r1, #1
 8002b50:	d953      	bls.n	8002bfa <get_fat+0xb0>
 8002b52:	69f3      	ldr	r3, [r6, #28]
 8002b54:	428b      	cmp	r3, r1
 8002b56:	d952      	bls.n	8002bfe <get_fat+0xb4>
 8002b58:	460c      	mov	r4, r1
		switch (fs->fs_type) {
 8002b5a:	7833      	ldrb	r3, [r6, #0]
 8002b5c:	2b02      	cmp	r3, #2
 8002b5e:	d02b      	beq.n	8002bb8 <get_fat+0x6e>
 8002b60:	2b03      	cmp	r3, #3
 8002b62:	d039      	beq.n	8002bd8 <get_fat+0x8e>
 8002b64:	2b01      	cmp	r3, #1
 8002b66:	d001      	beq.n	8002b6c <get_fat+0x22>
			val = 1;	/* Internal error */
 8002b68:	2001      	movs	r0, #1
 8002b6a:	e047      	b.n	8002bfc <get_fat+0xb2>
			bc = (UINT)clst; bc += bc / 2;
 8002b6c:	eb01 0551 	add.w	r5, r1, r1, lsr #1
			if (move_window(fs, fs->fatbase + (bc / SS(fs))) != FR_OK) break;
 8002b70:	6ab1      	ldr	r1, [r6, #40]	; 0x28
 8002b72:	eb01 2155 	add.w	r1, r1, r5, lsr #9
 8002b76:	4630      	mov	r0, r6
 8002b78:	f7ff fd82 	bl	8002680 <move_window>
 8002b7c:	2800      	cmp	r0, #0
 8002b7e:	d140      	bne.n	8002c02 <get_fat+0xb8>
			wc = fs->win[bc++ % SS(fs)];		/* Get 1st byte of the entry */
 8002b80:	1c6f      	adds	r7, r5, #1
 8002b82:	f3c5 0508 	ubfx	r5, r5, #0, #9
 8002b86:	4435      	add	r5, r6
 8002b88:	f895 5038 	ldrb.w	r5, [r5, #56]	; 0x38
			if (move_window(fs, fs->fatbase + (bc / SS(fs))) != FR_OK) break;
 8002b8c:	6ab1      	ldr	r1, [r6, #40]	; 0x28
 8002b8e:	eb01 2157 	add.w	r1, r1, r7, lsr #9
 8002b92:	4630      	mov	r0, r6
 8002b94:	f7ff fd74 	bl	8002680 <move_window>
 8002b98:	bbb0      	cbnz	r0, 8002c08 <get_fat+0xbe>
			wc |= fs->win[bc % SS(fs)] << 8;	/* Merge 2nd byte of the entry */
 8002b9a:	f3c7 0308 	ubfx	r3, r7, #0, #9
 8002b9e:	4433      	add	r3, r6
 8002ba0:	f893 0038 	ldrb.w	r0, [r3, #56]	; 0x38
 8002ba4:	ea45 2000 	orr.w	r0, r5, r0, lsl #8
			val = (clst & 1) ? (wc >> 4) : (wc & 0xFFF);	/* Adjust bit position */
 8002ba8:	f014 0f01 	tst.w	r4, #1
 8002bac:	d001      	beq.n	8002bb2 <get_fat+0x68>
 8002bae:	0900      	lsrs	r0, r0, #4
 8002bb0:	e024      	b.n	8002bfc <get_fat+0xb2>
 8002bb2:	f3c0 000b 	ubfx	r0, r0, #0, #12
 8002bb6:	e021      	b.n	8002bfc <get_fat+0xb2>
			if (move_window(fs, fs->fatbase + (clst / (SS(fs) / 2))) != FR_OK) break;
 8002bb8:	6ab1      	ldr	r1, [r6, #40]	; 0x28
 8002bba:	eb01 2114 	add.w	r1, r1, r4, lsr #8
 8002bbe:	4630      	mov	r0, r6
 8002bc0:	f7ff fd5e 	bl	8002680 <move_window>
 8002bc4:	bb18      	cbnz	r0, 8002c0e <get_fat+0xc4>
			val = ld_word(fs->win + clst * 2 % SS(fs));		/* Simple WORD array */
 8002bc6:	f106 0038 	add.w	r0, r6, #56	; 0x38
 8002bca:	0061      	lsls	r1, r4, #1
 8002bcc:	f401 71ff 	and.w	r1, r1, #510	; 0x1fe
 8002bd0:	4408      	add	r0, r1
 8002bd2:	f7ff fb19 	bl	8002208 <ld_word>
			break;
 8002bd6:	e011      	b.n	8002bfc <get_fat+0xb2>
			if (move_window(fs, fs->fatbase + (clst / (SS(fs) / 4))) != FR_OK) break;
 8002bd8:	6ab1      	ldr	r1, [r6, #40]	; 0x28
 8002bda:	eb01 11d4 	add.w	r1, r1, r4, lsr #7
 8002bde:	4630      	mov	r0, r6
 8002be0:	f7ff fd4e 	bl	8002680 <move_window>
 8002be4:	b9b0      	cbnz	r0, 8002c14 <get_fat+0xca>
			val = ld_dword(fs->win + clst * 4 % SS(fs)) & 0x0FFFFFFF;	/* Simple DWORD array but mask out upper 4 bits */
 8002be6:	3638      	adds	r6, #56	; 0x38
 8002be8:	00a1      	lsls	r1, r4, #2
 8002bea:	f401 70fe 	and.w	r0, r1, #508	; 0x1fc
 8002bee:	4430      	add	r0, r6
 8002bf0:	f7ff fb0f 	bl	8002212 <ld_dword>
 8002bf4:	f020 4070 	bic.w	r0, r0, #4026531840	; 0xf0000000
			break;
 8002bf8:	e000      	b.n	8002bfc <get_fat+0xb2>
		val = 1;	/* Internal error */
 8002bfa:	2001      	movs	r0, #1
}
 8002bfc:	bdf8      	pop	{r3, r4, r5, r6, r7, pc}
		val = 1;	/* Internal error */
 8002bfe:	2001      	movs	r0, #1
 8002c00:	e7fc      	b.n	8002bfc <get_fat+0xb2>
		val = 0xFFFFFFFF;	/* Default value falls on disk error */
 8002c02:	f04f 30ff 	mov.w	r0, #4294967295
 8002c06:	e7f9      	b.n	8002bfc <get_fat+0xb2>
 8002c08:	f04f 30ff 	mov.w	r0, #4294967295
 8002c0c:	e7f6      	b.n	8002bfc <get_fat+0xb2>
 8002c0e:	f04f 30ff 	mov.w	r0, #4294967295
 8002c12:	e7f3      	b.n	8002bfc <get_fat+0xb2>
 8002c14:	f04f 30ff 	mov.w	r0, #4294967295
	return val;
 8002c18:	e7f0      	b.n	8002bfc <get_fat+0xb2>

08002c1a <dir_sdi>:
{
 8002c1a:	e92d 41f0 	stmdb	sp!, {r4, r5, r6, r7, r8, lr}
	FATFS *fs = dp->obj.fs;
 8002c1e:	6807      	ldr	r7, [r0, #0]
	if (ofs >= (DWORD)((FF_FS_EXFAT && fs->fs_type == FS_EXFAT) ? MAX_DIR_EX : MAX_DIR) || ofs % SZDIRE) {	/* Check range of offset and alignment */
 8002c20:	f5b1 1f00 	cmp.w	r1, #2097152	; 0x200000
 8002c24:	d23b      	bcs.n	8002c9e <dir_sdi+0x84>
 8002c26:	4606      	mov	r6, r0
 8002c28:	460d      	mov	r5, r1
 8002c2a:	f011 0f1f 	tst.w	r1, #31
 8002c2e:	d139      	bne.n	8002ca4 <dir_sdi+0x8a>
	dp->dptr = ofs;				/* Set current offset */
 8002c30:	6131      	str	r1, [r6, #16]
	clst = dp->obj.sclust;		/* Table start cluster (0:root) */
 8002c32:	6884      	ldr	r4, [r0, #8]
	if (clst == 0 && fs->fs_type >= FS_FAT32) {	/* Replace cluster# 0 with root cluster# */
 8002c34:	b91c      	cbnz	r4, 8002c3e <dir_sdi+0x24>
 8002c36:	783b      	ldrb	r3, [r7, #0]
 8002c38:	2b02      	cmp	r3, #2
 8002c3a:	d900      	bls.n	8002c3e <dir_sdi+0x24>
		clst = (DWORD)fs->dirbase;
 8002c3c:	6afc      	ldr	r4, [r7, #44]	; 0x2c
	if (clst == 0) {	/* Static table (root-directory on the FAT volume) */
 8002c3e:	b994      	cbnz	r4, 8002c66 <dir_sdi+0x4c>
		if (ofs / SZDIRE >= fs->n_rootdir) return FR_INT_ERR;	/* Is index out of range? */
 8002c40:	893b      	ldrh	r3, [r7, #8]
 8002c42:	ebb3 1f55 	cmp.w	r3, r5, lsr #5
 8002c46:	d92f      	bls.n	8002ca8 <dir_sdi+0x8e>
		dp->sect = fs->dirbase;
 8002c48:	6afb      	ldr	r3, [r7, #44]	; 0x2c
 8002c4a:	61b3      	str	r3, [r6, #24]
	dp->clust = clst;					/* Current cluster# */
 8002c4c:	6174      	str	r4, [r6, #20]
	if (dp->sect == 0) return FR_INT_ERR;
 8002c4e:	69b3      	ldr	r3, [r6, #24]
 8002c50:	b393      	cbz	r3, 8002cb8 <dir_sdi+0x9e>
	dp->sect += ofs / SS(fs);			/* Sector# of the directory entry */
 8002c52:	eb03 2355 	add.w	r3, r3, r5, lsr #9
 8002c56:	61b3      	str	r3, [r6, #24]
	dp->dir = fs->win + (ofs % SS(fs));	/* Pointer to the entry in the win[] */
 8002c58:	3738      	adds	r7, #56	; 0x38
 8002c5a:	f3c5 0508 	ubfx	r5, r5, #0, #9
 8002c5e:	443d      	add	r5, r7
 8002c60:	61f5      	str	r5, [r6, #28]
	return FR_OK;
 8002c62:	2000      	movs	r0, #0
 8002c64:	e01c      	b.n	8002ca0 <dir_sdi+0x86>
		csz = (DWORD)fs->csize * SS(fs);	/* Bytes per cluster */
 8002c66:	f8b7 800a 	ldrh.w	r8, [r7, #10]
 8002c6a:	ea4f 2848 	mov.w	r8, r8, lsl #9
		while (ofs >= csz) {				/* Follow cluster chain */
 8002c6e:	4545      	cmp	r5, r8
 8002c70:	d30f      	bcc.n	8002c92 <dir_sdi+0x78>
			clst = get_fat(&dp->obj, clst);				/* Get next cluster */
 8002c72:	4621      	mov	r1, r4
 8002c74:	4630      	mov	r0, r6
 8002c76:	f7ff ff68 	bl	8002b4a <get_fat>
 8002c7a:	4604      	mov	r4, r0
			if (clst == 0xFFFFFFFF) return FR_DISK_ERR;	/* Disk error */
 8002c7c:	f1b0 3fff 	cmp.w	r0, #4294967295
 8002c80:	d014      	beq.n	8002cac <dir_sdi+0x92>
			if (clst < 2 || clst >= fs->n_fatent) return FR_INT_ERR;	/* Reached to end of table or internal error */
 8002c82:	2801      	cmp	r0, #1
 8002c84:	d914      	bls.n	8002cb0 <dir_sdi+0x96>
 8002c86:	69fb      	ldr	r3, [r7, #28]
 8002c88:	4283      	cmp	r3, r0
 8002c8a:	d913      	bls.n	8002cb4 <dir_sdi+0x9a>
			ofs -= csz;
 8002c8c:	eba5 0508 	sub.w	r5, r5, r8
 8002c90:	e7ed      	b.n	8002c6e <dir_sdi+0x54>
		dp->sect = clst2sect(fs, clst);
 8002c92:	4621      	mov	r1, r4
 8002c94:	4638      	mov	r0, r7
 8002c96:	f7ff fb20 	bl	80022da <clst2sect>
 8002c9a:	61b0      	str	r0, [r6, #24]
 8002c9c:	e7d6      	b.n	8002c4c <dir_sdi+0x32>
		return FR_INT_ERR;
 8002c9e:	2002      	movs	r0, #2
}
 8002ca0:	e8bd 81f0 	ldmia.w	sp!, {r4, r5, r6, r7, r8, pc}
		return FR_INT_ERR;
 8002ca4:	2002      	movs	r0, #2
 8002ca6:	e7fb      	b.n	8002ca0 <dir_sdi+0x86>
		if (ofs / SZDIRE >= fs->n_rootdir) return FR_INT_ERR;	/* Is index out of range? */
 8002ca8:	2002      	movs	r0, #2
 8002caa:	e7f9      	b.n	8002ca0 <dir_sdi+0x86>
			if (clst == 0xFFFFFFFF) return FR_DISK_ERR;	/* Disk error */
 8002cac:	2001      	movs	r0, #1
 8002cae:	e7f7      	b.n	8002ca0 <dir_sdi+0x86>
			if (clst < 2 || clst >= fs->n_fatent) return FR_INT_ERR;	/* Reached to end of table or internal error */
 8002cb0:	2002      	movs	r0, #2
 8002cb2:	e7f5      	b.n	8002ca0 <dir_sdi+0x86>
 8002cb4:	2002      	movs	r0, #2
 8002cb6:	e7f3      	b.n	8002ca0 <dir_sdi+0x86>
	if (dp->sect == 0) return FR_INT_ERR;
 8002cb8:	2002      	movs	r0, #2
 8002cba:	e7f1      	b.n	8002ca0 <dir_sdi+0x86>

08002cbc <create_chain>:
{
 8002cbc:	e92d 41f0 	stmdb	sp!, {r4, r5, r6, r7, r8, lr}
 8002cc0:	4607      	mov	r7, r0
	FATFS *fs = obj->fs;
 8002cc2:	6806      	ldr	r6, [r0, #0]
	if (clst == 0) {	/* Create a new chain */
 8002cc4:	4688      	mov	r8, r1
 8002cc6:	b931      	cbnz	r1, 8002cd6 <create_chain+0x1a>
		scl = fs->last_clst;				/* Suggested cluster to start to find */
 8002cc8:	6935      	ldr	r5, [r6, #16]
		if (scl == 0 || scl >= fs->n_fatent) scl = 1;
 8002cca:	b18d      	cbz	r5, 8002cf0 <create_chain+0x34>
 8002ccc:	69f3      	ldr	r3, [r6, #28]
 8002cce:	42ab      	cmp	r3, r5
 8002cd0:	d80f      	bhi.n	8002cf2 <create_chain+0x36>
 8002cd2:	2501      	movs	r5, #1
 8002cd4:	e00d      	b.n	8002cf2 <create_chain+0x36>
		cs = get_fat(obj, clst);			/* Check the cluster status */
 8002cd6:	f7ff ff38 	bl	8002b4a <get_fat>
 8002cda:	4603      	mov	r3, r0
		if (cs < 2) return 1;				/* Test for insanity */
 8002cdc:	2801      	cmp	r0, #1
 8002cde:	d967      	bls.n	8002db0 <create_chain+0xf4>
		if (cs == 0xFFFFFFFF) return cs;	/* Test for disk error */
 8002ce0:	f1b0 3fff 	cmp.w	r0, #4294967295
 8002ce4:	d065      	beq.n	8002db2 <create_chain+0xf6>
		if (cs < fs->n_fatent) return cs;	/* It is already followed by next cluster */
 8002ce6:	69f2      	ldr	r2, [r6, #28]
 8002ce8:	4282      	cmp	r2, r0
 8002cea:	d862      	bhi.n	8002db2 <create_chain+0xf6>
		scl = clst;							/* Cluster to start to find */
 8002cec:	4645      	mov	r5, r8
 8002cee:	e000      	b.n	8002cf2 <create_chain+0x36>
		if (scl == 0 || scl >= fs->n_fatent) scl = 1;
 8002cf0:	2501      	movs	r5, #1
	if (fs->free_clst == 0) return 0;		/* No free cluster */
 8002cf2:	6973      	ldr	r3, [r6, #20]
 8002cf4:	2b00      	cmp	r3, #0
 8002cf6:	d05c      	beq.n	8002db2 <create_chain+0xf6>
		if (scl == clst) {						/* Stretching an existing chain? */
 8002cf8:	4545      	cmp	r5, r8
 8002cfa:	d001      	beq.n	8002d00 <create_chain+0x44>
				if (cs >= 2 && cs < fs->n_fatent) scl = cs;
 8002cfc:	462c      	mov	r4, r5
 8002cfe:	e041      	b.n	8002d84 <create_chain+0xc8>
			ncl = scl + 1;						/* Test if next cluster is free */
 8002d00:	1c6c      	adds	r4, r5, #1
			if (ncl >= fs->n_fatent) ncl = 2;
 8002d02:	69f3      	ldr	r3, [r6, #28]
 8002d04:	42a3      	cmp	r3, r4
 8002d06:	d800      	bhi.n	8002d0a <create_chain+0x4e>
 8002d08:	2402      	movs	r4, #2
			cs = get_fat(obj, ncl);				/* Get next cluster status */
 8002d0a:	4621      	mov	r1, r4
 8002d0c:	4638      	mov	r0, r7
 8002d0e:	f7ff ff1c 	bl	8002b4a <get_fat>
 8002d12:	4603      	mov	r3, r0
			if (cs == 1 || cs == 0xFFFFFFFF) return cs;	/* Test for error */
 8002d14:	2801      	cmp	r0, #1
 8002d16:	d04c      	beq.n	8002db2 <create_chain+0xf6>
 8002d18:	f1b0 3fff 	cmp.w	r0, #4294967295
 8002d1c:	d049      	beq.n	8002db2 <create_chain+0xf6>
			if (cs != 0) {						/* Not free? */
 8002d1e:	b138      	cbz	r0, 8002d30 <create_chain+0x74>
				cs = fs->last_clst;				/* Start at suggested cluster if it is valid */
 8002d20:	6933      	ldr	r3, [r6, #16]
				if (cs >= 2 && cs < fs->n_fatent) scl = cs;
 8002d22:	2b01      	cmp	r3, #1
 8002d24:	d9ea      	bls.n	8002cfc <create_chain+0x40>
 8002d26:	69f2      	ldr	r2, [r6, #28]
 8002d28:	429a      	cmp	r2, r3
 8002d2a:	d9e7      	bls.n	8002cfc <create_chain+0x40>
 8002d2c:	461d      	mov	r5, r3
 8002d2e:	e7e5      	b.n	8002cfc <create_chain+0x40>
		if (ncl == 0) {	/* The new cluster cannot be contiguous and find another fragment */
 8002d30:	2c00      	cmp	r4, #0
 8002d32:	d0e3      	beq.n	8002cfc <create_chain+0x40>
		res = put_fat(fs, ncl, 0xFFFFFFFF);		/* Mark the new cluster 'EOC' */
 8002d34:	f04f 32ff 	mov.w	r2, #4294967295
 8002d38:	4621      	mov	r1, r4
 8002d3a:	4630      	mov	r0, r6
 8002d3c:	f7ff fe80 	bl	8002a40 <put_fat>
		if (res == FR_OK && clst != 0) {
 8002d40:	4603      	mov	r3, r0
 8002d42:	b910      	cbnz	r0, 8002d4a <create_chain+0x8e>
 8002d44:	f1b8 0f00 	cmp.w	r8, #0
 8002d48:	d124      	bne.n	8002d94 <create_chain+0xd8>
	if (res == FR_OK) {			/* Update FSINFO if function succeeded. */
 8002d4a:	bb53      	cbnz	r3, 8002da2 <create_chain+0xe6>
		fs->last_clst = ncl;
 8002d4c:	6134      	str	r4, [r6, #16]
		if (fs->free_clst <= fs->n_fatent - 2) fs->free_clst--;
 8002d4e:	6972      	ldr	r2, [r6, #20]
 8002d50:	69f3      	ldr	r3, [r6, #28]
 8002d52:	3b02      	subs	r3, #2
 8002d54:	429a      	cmp	r2, r3
 8002d56:	d801      	bhi.n	8002d5c <create_chain+0xa0>
 8002d58:	3a01      	subs	r2, #1
 8002d5a:	6172      	str	r2, [r6, #20]
		fs->fsi_flag |= 1;
 8002d5c:	7933      	ldrb	r3, [r6, #4]
 8002d5e:	f043 0301 	orr.w	r3, r3, #1
 8002d62:	7133      	strb	r3, [r6, #4]
 8002d64:	4623      	mov	r3, r4
 8002d66:	e024      	b.n	8002db2 <create_chain+0xf6>
				cs = get_fat(obj, ncl);			/* Get the cluster status */
 8002d68:	4621      	mov	r1, r4
 8002d6a:	4638      	mov	r0, r7
 8002d6c:	f7ff feed 	bl	8002b4a <get_fat>
				if (cs == 0) break;				/* Found a free cluster? */
 8002d70:	4603      	mov	r3, r0
 8002d72:	2800      	cmp	r0, #0
 8002d74:	d0de      	beq.n	8002d34 <create_chain+0x78>
				if (cs == 1 || cs == 0xFFFFFFFF) return cs;	/* Test for error */
 8002d76:	2801      	cmp	r0, #1
 8002d78:	d01b      	beq.n	8002db2 <create_chain+0xf6>
 8002d7a:	f1b0 3fff 	cmp.w	r0, #4294967295
 8002d7e:	d018      	beq.n	8002db2 <create_chain+0xf6>
				if (ncl == scl) return 0;		/* No free cluster found? */
 8002d80:	42ac      	cmp	r4, r5
 8002d82:	d01b      	beq.n	8002dbc <create_chain+0x100>
				ncl++;							/* Next cluster */
 8002d84:	3401      	adds	r4, #1
				if (ncl >= fs->n_fatent) {		/* Check wrap-around */
 8002d86:	69f3      	ldr	r3, [r6, #28]
 8002d88:	42a3      	cmp	r3, r4
 8002d8a:	d8ed      	bhi.n	8002d68 <create_chain+0xac>
					if (ncl > scl) return 0;	/* No free cluster found? */
 8002d8c:	2d01      	cmp	r5, #1
 8002d8e:	d913      	bls.n	8002db8 <create_chain+0xfc>
					ncl = 2;
 8002d90:	2402      	movs	r4, #2
 8002d92:	e7e9      	b.n	8002d68 <create_chain+0xac>
			res = put_fat(fs, clst, ncl);		/* Link it from the previous one if needed */
 8002d94:	4622      	mov	r2, r4
 8002d96:	4641      	mov	r1, r8
 8002d98:	4630      	mov	r0, r6
 8002d9a:	f7ff fe51 	bl	8002a40 <put_fat>
 8002d9e:	4603      	mov	r3, r0
 8002da0:	e7d3      	b.n	8002d4a <create_chain+0x8e>
		ncl = (res == FR_DISK_ERR) ? 0xFFFFFFFF : 1;	/* Failed. Generate error status */
 8002da2:	2b01      	cmp	r3, #1
 8002da4:	d001      	beq.n	8002daa <create_chain+0xee>
 8002da6:	2301      	movs	r3, #1
 8002da8:	e003      	b.n	8002db2 <create_chain+0xf6>
 8002daa:	f04f 33ff 	mov.w	r3, #4294967295
 8002dae:	e000      	b.n	8002db2 <create_chain+0xf6>
		if (cs < 2) return 1;				/* Test for insanity */
 8002db0:	2301      	movs	r3, #1
}
 8002db2:	4618      	mov	r0, r3
 8002db4:	e8bd 81f0 	ldmia.w	sp!, {r4, r5, r6, r7, r8, pc}
					if (ncl > scl) return 0;	/* No free cluster found? */
 8002db8:	2300      	movs	r3, #0
 8002dba:	e7fa      	b.n	8002db2 <create_chain+0xf6>
				if (ncl == scl) return 0;		/* No free cluster found? */
 8002dbc:	2300      	movs	r3, #0
 8002dbe:	e7f8      	b.n	8002db2 <create_chain+0xf6>

08002dc0 <remove_chain>:
{
 8002dc0:	b5f8      	push	{r3, r4, r5, r6, r7, lr}
 8002dc2:	460e      	mov	r6, r1
	FATFS *fs = obj->fs;
 8002dc4:	6805      	ldr	r5, [r0, #0]
	if (clst < 2 || clst >= fs->n_fatent) return FR_INT_ERR;	/* Check if in valid range */
 8002dc6:	2901      	cmp	r1, #1
 8002dc8:	d92e      	bls.n	8002e28 <remove_chain+0x68>
 8002dca:	4607      	mov	r7, r0
 8002dcc:	4611      	mov	r1, r2
 8002dce:	69eb      	ldr	r3, [r5, #28]
 8002dd0:	42b3      	cmp	r3, r6
 8002dd2:	d92c      	bls.n	8002e2e <remove_chain+0x6e>
	if (pclst != 0 && (!FF_FS_EXFAT || fs->fs_type != FS_EXFAT || obj->stat != 2)) {
 8002dd4:	b152      	cbz	r2, 8002dec <remove_chain+0x2c>
		res = put_fat(fs, pclst, 0xFFFFFFFF);
 8002dd6:	f04f 32ff 	mov.w	r2, #4294967295
 8002dda:	4628      	mov	r0, r5
 8002ddc:	f7ff fe30 	bl	8002a40 <put_fat>
		if (res != FR_OK) return res;
 8002de0:	4684      	mov	ip, r0
 8002de2:	b118      	cbz	r0, 8002dec <remove_chain+0x2c>
 8002de4:	e025      	b.n	8002e32 <remove_chain+0x72>
		clst = nxt;					/* Next cluster */
 8002de6:	4626      	mov	r6, r4
	} while (clst < fs->n_fatent);	/* Repeat while not the last link */
 8002de8:	42a2      	cmp	r2, r4
 8002dea:	d922      	bls.n	8002e32 <remove_chain+0x72>
		nxt = get_fat(obj, clst);			/* Get cluster status */
 8002dec:	4631      	mov	r1, r6
 8002dee:	4638      	mov	r0, r7
 8002df0:	f7ff feab 	bl	8002b4a <get_fat>
		if (nxt == 0) break;				/* Empty cluster? */
 8002df4:	4604      	mov	r4, r0
 8002df6:	b1f0      	cbz	r0, 8002e36 <remove_chain+0x76>
		if (nxt == 1) return FR_INT_ERR;	/* Internal error? */
 8002df8:	2801      	cmp	r0, #1
 8002dfa:	d01f      	beq.n	8002e3c <remove_chain+0x7c>
		if (nxt == 0xFFFFFFFF) return FR_DISK_ERR;	/* Disk error? */
 8002dfc:	f1b0 3fff 	cmp.w	r0, #4294967295
 8002e00:	d01f      	beq.n	8002e42 <remove_chain+0x82>
			res = put_fat(fs, clst, 0);		/* Mark the cluster 'free' on the FAT */
 8002e02:	2200      	movs	r2, #0
 8002e04:	4631      	mov	r1, r6
 8002e06:	4628      	mov	r0, r5
 8002e08:	f7ff fe1a 	bl	8002a40 <put_fat>
			if (res != FR_OK) return res;
 8002e0c:	4684      	mov	ip, r0
 8002e0e:	b980      	cbnz	r0, 8002e32 <remove_chain+0x72>
		if (fs->free_clst < fs->n_fatent - 2) {	/* Update FSINFO */
 8002e10:	696b      	ldr	r3, [r5, #20]
 8002e12:	69ea      	ldr	r2, [r5, #28]
 8002e14:	1e91      	subs	r1, r2, #2
 8002e16:	428b      	cmp	r3, r1
 8002e18:	d2e5      	bcs.n	8002de6 <remove_chain+0x26>
			fs->free_clst++;
 8002e1a:	3301      	adds	r3, #1
 8002e1c:	616b      	str	r3, [r5, #20]
			fs->fsi_flag |= 1;
 8002e1e:	792b      	ldrb	r3, [r5, #4]
 8002e20:	f043 0301 	orr.w	r3, r3, #1
 8002e24:	712b      	strb	r3, [r5, #4]
 8002e26:	e7de      	b.n	8002de6 <remove_chain+0x26>
	if (clst < 2 || clst >= fs->n_fatent) return FR_INT_ERR;	/* Check if in valid range */
 8002e28:	f04f 0c02 	mov.w	ip, #2
 8002e2c:	e001      	b.n	8002e32 <remove_chain+0x72>
 8002e2e:	f04f 0c02 	mov.w	ip, #2
}
 8002e32:	4660      	mov	r0, ip
 8002e34:	bdf8      	pop	{r3, r4, r5, r6, r7, pc}
	return FR_OK;
 8002e36:	f04f 0c00 	mov.w	ip, #0
 8002e3a:	e7fa      	b.n	8002e32 <remove_chain+0x72>
		if (nxt == 1) return FR_INT_ERR;	/* Internal error? */
 8002e3c:	f04f 0c02 	mov.w	ip, #2
 8002e40:	e7f7      	b.n	8002e32 <remove_chain+0x72>
		if (nxt == 0xFFFFFFFF) return FR_DISK_ERR;	/* Disk error? */
 8002e42:	f04f 0c01 	mov.w	ip, #1
 8002e46:	e7f4      	b.n	8002e32 <remove_chain+0x72>

08002e48 <dir_clear>:
{
 8002e48:	b5f8      	push	{r3, r4, r5, r6, r7, lr}
 8002e4a:	4605      	mov	r5, r0
 8002e4c:	460c      	mov	r4, r1
	if (sync_window(fs) != FR_OK) return FR_DISK_ERR;	/* Flush disk access window */
 8002e4e:	f7ff fbef 	bl	8002630 <sync_window>
 8002e52:	b108      	cbz	r0, 8002e58 <dir_clear+0x10>
 8002e54:	2001      	movs	r0, #1
}
 8002e56:	bdf8      	pop	{r3, r4, r5, r6, r7, pc}
	sect = clst2sect(fs, clst);		/* Top of the cluster */
 8002e58:	4621      	mov	r1, r4
 8002e5a:	4628      	mov	r0, r5
 8002e5c:	f7ff fa3d 	bl	80022da <clst2sect>
 8002e60:	4607      	mov	r7, r0
	fs->winsect = sect;				/* Set window to top of the cluster */
 8002e62:	6368      	str	r0, [r5, #52]	; 0x34
	mem_set(fs->win, 0, sizeof fs->win);	/* Clear window buffer */
 8002e64:	f105 0638 	add.w	r6, r5, #56	; 0x38
 8002e68:	f44f 7200 	mov.w	r2, #512	; 0x200
 8002e6c:	2100      	movs	r1, #0
 8002e6e:	4630      	mov	r0, r6
 8002e70:	f7ff f9f1 	bl	8002256 <mem_set>
		for (n = 0; n < fs->csize && disk_write(fs->pdrv, ibuf, sect + n, szb) == RES_OK; n += szb) ;	/* Fill the cluster with 0 */
 8002e74:	2400      	movs	r4, #0
 8002e76:	e000      	b.n	8002e7a <dir_clear+0x32>
 8002e78:	3401      	adds	r4, #1
 8002e7a:	896b      	ldrh	r3, [r5, #10]
 8002e7c:	42a3      	cmp	r3, r4
 8002e7e:	d907      	bls.n	8002e90 <dir_clear+0x48>
 8002e80:	2301      	movs	r3, #1
 8002e82:	19e2      	adds	r2, r4, r7
 8002e84:	4631      	mov	r1, r6
 8002e86:	7868      	ldrb	r0, [r5, #1]
 8002e88:	f7ff f99c 	bl	80021c4 <disk_write>
 8002e8c:	2800      	cmp	r0, #0
 8002e8e:	d0f3      	beq.n	8002e78 <dir_clear+0x30>
	return (n == fs->csize) ? FR_OK : FR_DISK_ERR;
 8002e90:	8968      	ldrh	r0, [r5, #10]
 8002e92:	1b00      	subs	r0, r0, r4
 8002e94:	bf18      	it	ne
 8002e96:	2001      	movne	r0, #1
 8002e98:	e7dd      	b.n	8002e56 <dir_clear+0xe>

08002e9a <dir_next>:
{
 8002e9a:	e92d 43f8 	stmdb	sp!, {r3, r4, r5, r6, r7, r8, r9, lr}
	FATFS *fs = dp->obj.fs;
 8002e9e:	6806      	ldr	r6, [r0, #0]
	ofs = dp->dptr + SZDIRE;	/* Next entry */
 8002ea0:	6905      	ldr	r5, [r0, #16]
 8002ea2:	3520      	adds	r5, #32
	if (ofs >= (DWORD)((FF_FS_EXFAT && fs->fs_type == FS_EXFAT) ? MAX_DIR_EX : MAX_DIR)) dp->sect = 0;	/* Disable it if the offset reached the max value */
 8002ea4:	f5b5 1f00 	cmp.w	r5, #2097152	; 0x200000
 8002ea8:	d301      	bcc.n	8002eae <dir_next+0x14>
 8002eaa:	2300      	movs	r3, #0
 8002eac:	6183      	str	r3, [r0, #24]
	if (dp->sect == 0) return FR_NO_FILE;	/* Report EOT if it has been disabled */
 8002eae:	6983      	ldr	r3, [r0, #24]
 8002eb0:	2b00      	cmp	r3, #0
 8002eb2:	d047      	beq.n	8002f44 <dir_next+0xaa>
 8002eb4:	4688      	mov	r8, r1
 8002eb6:	4604      	mov	r4, r0
	if (ofs % SS(fs) == 0) {	/* Sector changed? */
 8002eb8:	f3c5 0708 	ubfx	r7, r5, #0, #9
 8002ebc:	b93f      	cbnz	r7, 8002ece <dir_next+0x34>
		dp->sect++;				/* Next sector */
 8002ebe:	3301      	adds	r3, #1
 8002ec0:	6183      	str	r3, [r0, #24]
		if (dp->clust == 0) {	/* Static table */
 8002ec2:	6941      	ldr	r1, [r0, #20]
 8002ec4:	b979      	cbnz	r1, 8002ee6 <dir_next+0x4c>
			if (ofs / SZDIRE >= fs->n_rootdir) {	/* Report EOT if it reached end of static table */
 8002ec6:	8933      	ldrh	r3, [r6, #8]
 8002ec8:	ebb3 1f55 	cmp.w	r3, r5, lsr #5
 8002ecc:	d907      	bls.n	8002ede <dir_next+0x44>
	dp->dptr = ofs;						/* Current entry */
 8002ece:	6125      	str	r5, [r4, #16]
	dp->dir = fs->win + ofs % SS(fs);	/* Pointer to the entry in the win[] */
 8002ed0:	f106 0338 	add.w	r3, r6, #56	; 0x38
 8002ed4:	443b      	add	r3, r7
 8002ed6:	61e3      	str	r3, [r4, #28]
	return FR_OK;
 8002ed8:	2000      	movs	r0, #0
}
 8002eda:	e8bd 83f8 	ldmia.w	sp!, {r3, r4, r5, r6, r7, r8, r9, pc}
				dp->sect = 0; return FR_NO_FILE;
 8002ede:	2300      	movs	r3, #0
 8002ee0:	6183      	str	r3, [r0, #24]
 8002ee2:	2004      	movs	r0, #4
 8002ee4:	e7f9      	b.n	8002eda <dir_next+0x40>
			if ((ofs / SS(fs) & (fs->csize - 1)) == 0) {	/* Cluster changed? */
 8002ee6:	8973      	ldrh	r3, [r6, #10]
 8002ee8:	3b01      	subs	r3, #1
 8002eea:	ea13 2355 	ands.w	r3, r3, r5, lsr #9
 8002eee:	d1ee      	bne.n	8002ece <dir_next+0x34>
				clst = get_fat(&dp->obj, dp->clust);		/* Get next cluster */
 8002ef0:	f7ff fe2b 	bl	8002b4a <get_fat>
 8002ef4:	4681      	mov	r9, r0
				if (clst <= 1) return FR_INT_ERR;			/* Internal error */
 8002ef6:	2801      	cmp	r0, #1
 8002ef8:	d926      	bls.n	8002f48 <dir_next+0xae>
				if (clst == 0xFFFFFFFF) return FR_DISK_ERR;	/* Disk error */
 8002efa:	f1b0 3fff 	cmp.w	r0, #4294967295
 8002efe:	d025      	beq.n	8002f4c <dir_next+0xb2>
				if (clst >= fs->n_fatent) {					/* It reached end of dynamic table */
 8002f00:	69f3      	ldr	r3, [r6, #28]
 8002f02:	4283      	cmp	r3, r0
 8002f04:	d812      	bhi.n	8002f2c <dir_next+0x92>
					if (!stretch) {								/* If no stretch, report EOT */
 8002f06:	f1b8 0f00 	cmp.w	r8, #0
 8002f0a:	d017      	beq.n	8002f3c <dir_next+0xa2>
					clst = create_chain(&dp->obj, dp->clust);	/* Allocate a cluster */
 8002f0c:	6961      	ldr	r1, [r4, #20]
 8002f0e:	4620      	mov	r0, r4
 8002f10:	f7ff fed4 	bl	8002cbc <create_chain>
					if (clst == 0) return FR_DENIED;			/* No free cluster */
 8002f14:	4681      	mov	r9, r0
 8002f16:	b1d8      	cbz	r0, 8002f50 <dir_next+0xb6>
					if (clst == 1) return FR_INT_ERR;			/* Internal error */
 8002f18:	2801      	cmp	r0, #1
 8002f1a:	d01b      	beq.n	8002f54 <dir_next+0xba>
					if (clst == 0xFFFFFFFF) return FR_DISK_ERR;	/* Disk error */
 8002f1c:	f1b0 3fff 	cmp.w	r0, #4294967295
 8002f20:	d01a      	beq.n	8002f58 <dir_next+0xbe>
					if (dir_clear(fs, clst) != FR_OK) return FR_DISK_ERR;	/* Clean up the stretched table */
 8002f22:	4601      	mov	r1, r0
 8002f24:	4630      	mov	r0, r6
 8002f26:	f7ff ff8f 	bl	8002e48 <dir_clear>
 8002f2a:	b9b8      	cbnz	r0, 8002f5c <dir_next+0xc2>
				dp->clust = clst;		/* Initialize data for new cluster */
 8002f2c:	f8c4 9014 	str.w	r9, [r4, #20]
				dp->sect = clst2sect(fs, clst);
 8002f30:	4649      	mov	r1, r9
 8002f32:	4630      	mov	r0, r6
 8002f34:	f7ff f9d1 	bl	80022da <clst2sect>
 8002f38:	61a0      	str	r0, [r4, #24]
 8002f3a:	e7c8      	b.n	8002ece <dir_next+0x34>
						dp->sect = 0; return FR_NO_FILE;
 8002f3c:	2300      	movs	r3, #0
 8002f3e:	61a3      	str	r3, [r4, #24]
 8002f40:	2004      	movs	r0, #4
 8002f42:	e7ca      	b.n	8002eda <dir_next+0x40>
	if (dp->sect == 0) return FR_NO_FILE;	/* Report EOT if it has been disabled */
 8002f44:	2004      	movs	r0, #4
 8002f46:	e7c8      	b.n	8002eda <dir_next+0x40>
				if (clst <= 1) return FR_INT_ERR;			/* Internal error */
 8002f48:	2002      	movs	r0, #2
 8002f4a:	e7c6      	b.n	8002eda <dir_next+0x40>
				if (clst == 0xFFFFFFFF) return FR_DISK_ERR;	/* Disk error */
 8002f4c:	2001      	movs	r0, #1
 8002f4e:	e7c4      	b.n	8002eda <dir_next+0x40>
					if (clst == 0) return FR_DENIED;			/* No free cluster */
 8002f50:	2007      	movs	r0, #7
 8002f52:	e7c2      	b.n	8002eda <dir_next+0x40>
					if (clst == 1) return FR_INT_ERR;			/* Internal error */
 8002f54:	2002      	movs	r0, #2
 8002f56:	e7c0      	b.n	8002eda <dir_next+0x40>
					if (clst == 0xFFFFFFFF) return FR_DISK_ERR;	/* Disk error */
 8002f58:	2001      	movs	r0, #1
 8002f5a:	e7be      	b.n	8002eda <dir_next+0x40>
					if (dir_clear(fs, clst) != FR_OK) return FR_DISK_ERR;	/* Clean up the stretched table */
 8002f5c:	2001      	movs	r0, #1
 8002f5e:	e7bc      	b.n	8002eda <dir_next+0x40>

08002f60 <dir_alloc>:
{
 8002f60:	b5f8      	push	{r3, r4, r5, r6, r7, lr}
 8002f62:	4604      	mov	r4, r0
 8002f64:	460f      	mov	r7, r1
	FATFS *fs = dp->obj.fs;
 8002f66:	6806      	ldr	r6, [r0, #0]
	res = dir_sdi(dp, 0);
 8002f68:	2100      	movs	r1, #0
 8002f6a:	f7ff fe56 	bl	8002c1a <dir_sdi>
	if (res == FR_OK) {
 8002f6e:	4603      	mov	r3, r0
 8002f70:	b9c0      	cbnz	r0, 8002fa4 <dir_alloc+0x44>
		n = 0;
 8002f72:	2500      	movs	r5, #0
 8002f74:	e008      	b.n	8002f88 <dir_alloc+0x28>
				if (++n == nent) break;	/* A block of contiguous free entries is found */
 8002f76:	3501      	adds	r5, #1
 8002f78:	42bd      	cmp	r5, r7
 8002f7a:	d013      	beq.n	8002fa4 <dir_alloc+0x44>
			res = dir_next(dp, 1);
 8002f7c:	2101      	movs	r1, #1
 8002f7e:	4620      	mov	r0, r4
 8002f80:	f7ff ff8b 	bl	8002e9a <dir_next>
		} while (res == FR_OK);	/* Next entry with table stretch enabled */
 8002f84:	4603      	mov	r3, r0
 8002f86:	b968      	cbnz	r0, 8002fa4 <dir_alloc+0x44>
			res = move_window(fs, dp->sect);
 8002f88:	69a1      	ldr	r1, [r4, #24]
 8002f8a:	4630      	mov	r0, r6
 8002f8c:	f7ff fb78 	bl	8002680 <move_window>
			if (res != FR_OK) break;
 8002f90:	4603      	mov	r3, r0
 8002f92:	b938      	cbnz	r0, 8002fa4 <dir_alloc+0x44>
			if (dp->dir[DIR_Name] == DDEM || dp->dir[DIR_Name] == 0) {
 8002f94:	69e2      	ldr	r2, [r4, #28]
 8002f96:	7812      	ldrb	r2, [r2, #0]
 8002f98:	2ae5      	cmp	r2, #229	; 0xe5
 8002f9a:	d0ec      	beq.n	8002f76 <dir_alloc+0x16>
 8002f9c:	2a00      	cmp	r2, #0
 8002f9e:	d0ea      	beq.n	8002f76 <dir_alloc+0x16>
				n = 0;					/* Not a blank entry. Restart to search */
 8002fa0:	2500      	movs	r5, #0
 8002fa2:	e7eb      	b.n	8002f7c <dir_alloc+0x1c>
	if (res == FR_NO_FILE) res = FR_DENIED;	/* No directory entry to allocate */
 8002fa4:	2b04      	cmp	r3, #4
 8002fa6:	d001      	beq.n	8002fac <dir_alloc+0x4c>
}
 8002fa8:	4618      	mov	r0, r3
 8002faa:	bdf8      	pop	{r3, r4, r5, r6, r7, pc}
	if (res == FR_NO_FILE) res = FR_DENIED;	/* No directory entry to allocate */
 8002fac:	2307      	movs	r3, #7
 8002fae:	e7fb      	b.n	8002fa8 <dir_alloc+0x48>

08002fb0 <dir_read>:
{
 8002fb0:	e92d 43f8 	stmdb	sp!, {r3, r4, r5, r6, r7, r8, r9, lr}
 8002fb4:	4604      	mov	r4, r0
 8002fb6:	4688      	mov	r8, r1
	FATFS *fs = dp->obj.fs;
 8002fb8:	6807      	ldr	r7, [r0, #0]
	BYTE ord = 0xFF, sum = 0xFF;
 8002fba:	f04f 09ff 	mov.w	r9, #255	; 0xff
 8002fbe:	464e      	mov	r6, r9
	FRESULT res = FR_NO_FILE;
 8002fc0:	2504      	movs	r5, #4
	while (dp->sect) {
 8002fc2:	e02e      	b.n	8003022 <dir_read+0x72>
				if (attr == AM_LFN) {			/* An LFN entry is found */
 8002fc4:	2b0f      	cmp	r3, #15
 8002fc6:	d119      	bne.n	8002ffc <dir_read+0x4c>
					if (b & LLEF) {			/* Is it start of an LFN sequence? */
 8002fc8:	f012 0f40 	tst.w	r2, #64	; 0x40
 8002fcc:	d006      	beq.n	8002fdc <dir_read+0x2c>
						sum = dp->dir[LDIR_Chksum];
 8002fce:	f891 900d 	ldrb.w	r9, [r1, #13]
						b &= (BYTE)~LLEF; ord = b;
 8002fd2:	f002 02bf 	and.w	r2, r2, #191	; 0xbf
						dp->blk_ofs = dp->dptr;
 8002fd6:	6923      	ldr	r3, [r4, #16]
 8002fd8:	62e3      	str	r3, [r4, #44]	; 0x2c
						b &= (BYTE)~LLEF; ord = b;
 8002fda:	4616      	mov	r6, r2
					ord = (b == ord && sum == dp->dir[LDIR_Chksum] && pick_lfn(fs->lfnbuf, dp->dir)) ? ord - 1 : 0xFF;
 8002fdc:	42b2      	cmp	r2, r6
 8002fde:	d001      	beq.n	8002fe4 <dir_read+0x34>
 8002fe0:	26ff      	movs	r6, #255	; 0xff
 8002fe2:	e018      	b.n	8003016 <dir_read+0x66>
 8002fe4:	7b4b      	ldrb	r3, [r1, #13]
 8002fe6:	454b      	cmp	r3, r9
 8002fe8:	d001      	beq.n	8002fee <dir_read+0x3e>
 8002fea:	26ff      	movs	r6, #255	; 0xff
 8002fec:	e013      	b.n	8003016 <dir_read+0x66>
 8002fee:	68f8      	ldr	r0, [r7, #12]
 8002ff0:	f7ff f9b6 	bl	8002360 <pick_lfn>
 8002ff4:	b388      	cbz	r0, 800305a <dir_read+0xaa>
 8002ff6:	3e01      	subs	r6, #1
 8002ff8:	b2f6      	uxtb	r6, r6
 8002ffa:	e00c      	b.n	8003016 <dir_read+0x66>
					if (ord != 0 || sum != sum_sfn(dp->dir)) {	/* Is there a valid LFN? */
 8002ffc:	b926      	cbnz	r6, 8003008 <dir_read+0x58>
 8002ffe:	4608      	mov	r0, r1
 8003000:	f7ff fa8a 	bl	8002518 <sum_sfn>
 8003004:	4548      	cmp	r0, r9
 8003006:	d02b      	beq.n	8003060 <dir_read+0xb0>
						dp->blk_ofs = 0xFFFFFFFF;			/* It has no LFN. */
 8003008:	f04f 33ff 	mov.w	r3, #4294967295
 800300c:	62e3      	str	r3, [r4, #44]	; 0x2c
 800300e:	e027      	b.n	8003060 <dir_read+0xb0>
				ord = 0xFF;
 8003010:	26ff      	movs	r6, #255	; 0xff
 8003012:	e000      	b.n	8003016 <dir_read+0x66>
 8003014:	26ff      	movs	r6, #255	; 0xff
		res = dir_next(dp, 0);		/* Next entry */
 8003016:	2100      	movs	r1, #0
 8003018:	4620      	mov	r0, r4
 800301a:	f7ff ff3e 	bl	8002e9a <dir_next>
		if (res != FR_OK) break;
 800301e:	4605      	mov	r5, r0
 8003020:	b9f0      	cbnz	r0, 8003060 <dir_read+0xb0>
	while (dp->sect) {
 8003022:	69a1      	ldr	r1, [r4, #24]
 8003024:	b1e1      	cbz	r1, 8003060 <dir_read+0xb0>
		res = move_window(fs, dp->sect);
 8003026:	4638      	mov	r0, r7
 8003028:	f7ff fb2a 	bl	8002680 <move_window>
		if (res != FR_OK) break;
 800302c:	4605      	mov	r5, r0
 800302e:	b9b8      	cbnz	r0, 8003060 <dir_read+0xb0>
		b = dp->dir[DIR_Name];	/* Test for the entry type */
 8003030:	69e1      	ldr	r1, [r4, #28]
 8003032:	780a      	ldrb	r2, [r1, #0]
		if (b == 0) {
 8003034:	b19a      	cbz	r2, 800305e <dir_read+0xae>
			dp->obj.attr = attr = dp->dir[DIR_Attr] & AM_MASK;	/* Get attribute */
 8003036:	7acb      	ldrb	r3, [r1, #11]
 8003038:	f003 033f 	and.w	r3, r3, #63	; 0x3f
 800303c:	71a3      	strb	r3, [r4, #6]
			if (b == DDEM || b == '.' || (int)((attr & ~AM_ARC) == AM_VOL) != vol) {	/* An entry without valid data */
 800303e:	2ae5      	cmp	r2, #229	; 0xe5
 8003040:	d0e6      	beq.n	8003010 <dir_read+0x60>
 8003042:	2a2e      	cmp	r2, #46	; 0x2e
 8003044:	d0e6      	beq.n	8003014 <dir_read+0x64>
 8003046:	f023 0020 	bic.w	r0, r3, #32
 800304a:	2808      	cmp	r0, #8
 800304c:	bf14      	ite	ne
 800304e:	2000      	movne	r0, #0
 8003050:	2001      	moveq	r0, #1
 8003052:	4540      	cmp	r0, r8
 8003054:	d0b6      	beq.n	8002fc4 <dir_read+0x14>
				ord = 0xFF;
 8003056:	26ff      	movs	r6, #255	; 0xff
 8003058:	e7dd      	b.n	8003016 <dir_read+0x66>
					ord = (b == ord && sum == dp->dir[LDIR_Chksum] && pick_lfn(fs->lfnbuf, dp->dir)) ? ord - 1 : 0xFF;
 800305a:	26ff      	movs	r6, #255	; 0xff
 800305c:	e7db      	b.n	8003016 <dir_read+0x66>
			res = FR_NO_FILE; break; /* Reached to end of the directory */
 800305e:	2504      	movs	r5, #4
	if (res != FR_OK) dp->sect = 0;		/* Terminate the read operation on error or EOT */
 8003060:	b10d      	cbz	r5, 8003066 <dir_read+0xb6>
 8003062:	2300      	movs	r3, #0
 8003064:	61a3      	str	r3, [r4, #24]
}
 8003066:	4628      	mov	r0, r5
 8003068:	e8bd 83f8 	ldmia.w	sp!, {r3, r4, r5, r6, r7, r8, r9, pc}

0800306c <cmp_lfn>:
{
 800306c:	e92d 47f0 	stmdb	sp!, {r4, r5, r6, r7, r8, r9, sl, lr}
 8003070:	4681      	mov	r9, r0
 8003072:	460f      	mov	r7, r1
	if (ld_word(dir + LDIR_FstClusLO) != 0) return 0;	/* Check LDIR_FstClusLO */
 8003074:	f101 001a 	add.w	r0, r1, #26
 8003078:	f7ff f8c6 	bl	8002208 <ld_word>
 800307c:	bbb8      	cbnz	r0, 80030ee <cmp_lfn+0x82>
	i = ((dir[LDIR_Ord] & 0x3F) - 1) * 13;	/* Offset in the LFN buffer */
 800307e:	783d      	ldrb	r5, [r7, #0]
 8003080:	f005 053f 	and.w	r5, r5, #63	; 0x3f
 8003084:	3d01      	subs	r5, #1
 8003086:	eb05 0345 	add.w	r3, r5, r5, lsl #1
 800308a:	eb05 0583 	add.w	r5, r5, r3, lsl #2
	for (wc = 1, s = 0; s < 13; s++) {		/* Process all characters in the entry */
 800308e:	f04f 0801 	mov.w	r8, #1
 8003092:	2400      	movs	r4, #0
 8003094:	e004      	b.n	80030a0 <cmp_lfn+0x34>
			if (uc != 0xFFFF) return 0;		/* Check filler */
 8003096:	f64f 73ff 	movw	r3, #65535	; 0xffff
 800309a:	4298      	cmp	r0, r3
 800309c:	d12e      	bne.n	80030fc <cmp_lfn+0x90>
	for (wc = 1, s = 0; s < 13; s++) {		/* Process all characters in the entry */
 800309e:	3401      	adds	r4, #1
 80030a0:	2c0c      	cmp	r4, #12
 80030a2:	d818      	bhi.n	80030d6 <cmp_lfn+0x6a>
		uc = ld_word(dir + LfnOfs[s]);		/* Pick an LFN character */
 80030a4:	4b19      	ldr	r3, [pc, #100]	; (800310c <cmp_lfn+0xa0>)
 80030a6:	5d18      	ldrb	r0, [r3, r4]
 80030a8:	4438      	add	r0, r7
 80030aa:	f7ff f8ad 	bl	8002208 <ld_word>
 80030ae:	4606      	mov	r6, r0
		if (wc != 0) {
 80030b0:	f1b8 0f00 	cmp.w	r8, #0
 80030b4:	d0ef      	beq.n	8003096 <cmp_lfn+0x2a>
			if (i >= FF_MAX_LFN + 1 || ff_wtoupper(uc) != ff_wtoupper(lfnbuf[i++])) {	/* Compare it */
 80030b6:	2dff      	cmp	r5, #255	; 0xff
 80030b8:	d81c      	bhi.n	80030f4 <cmp_lfn+0x88>
 80030ba:	f001 fabf 	bl	800463c <ff_wtoupper>
 80030be:	4680      	mov	r8, r0
 80030c0:	f105 0a01 	add.w	sl, r5, #1
 80030c4:	f839 0015 	ldrh.w	r0, [r9, r5, lsl #1]
 80030c8:	f001 fab8 	bl	800463c <ff_wtoupper>
 80030cc:	4580      	cmp	r8, r0
 80030ce:	d113      	bne.n	80030f8 <cmp_lfn+0x8c>
			wc = uc;
 80030d0:	46b0      	mov	r8, r6
			if (i >= FF_MAX_LFN + 1 || ff_wtoupper(uc) != ff_wtoupper(lfnbuf[i++])) {	/* Compare it */
 80030d2:	4655      	mov	r5, sl
 80030d4:	e7e3      	b.n	800309e <cmp_lfn+0x32>
	if ((dir[LDIR_Ord] & LLEF) && wc && lfnbuf[i]) return 0;	/* Last segment matched but different length */
 80030d6:	783b      	ldrb	r3, [r7, #0]
 80030d8:	f013 0f40 	tst.w	r3, #64	; 0x40
 80030dc:	d010      	beq.n	8003100 <cmp_lfn+0x94>
 80030de:	f1b8 0f00 	cmp.w	r8, #0
 80030e2:	d00f      	beq.n	8003104 <cmp_lfn+0x98>
 80030e4:	f839 3015 	ldrh.w	r3, [r9, r5, lsl #1]
 80030e8:	b973      	cbnz	r3, 8003108 <cmp_lfn+0x9c>
	return 1;		/* The part of LFN matched */
 80030ea:	2001      	movs	r0, #1
 80030ec:	e000      	b.n	80030f0 <cmp_lfn+0x84>
	if (ld_word(dir + LDIR_FstClusLO) != 0) return 0;	/* Check LDIR_FstClusLO */
 80030ee:	2000      	movs	r0, #0
}
 80030f0:	e8bd 87f0 	ldmia.w	sp!, {r4, r5, r6, r7, r8, r9, sl, pc}
				return 0;					/* Not matched */
 80030f4:	2000      	movs	r0, #0
 80030f6:	e7fb      	b.n	80030f0 <cmp_lfn+0x84>
 80030f8:	2000      	movs	r0, #0
 80030fa:	e7f9      	b.n	80030f0 <cmp_lfn+0x84>
			if (uc != 0xFFFF) return 0;		/* Check filler */
 80030fc:	2000      	movs	r0, #0
 80030fe:	e7f7      	b.n	80030f0 <cmp_lfn+0x84>
	return 1;		/* The part of LFN matched */
 8003100:	2001      	movs	r0, #1
 8003102:	e7f5      	b.n	80030f0 <cmp_lfn+0x84>
 8003104:	2001      	movs	r0, #1
 8003106:	e7f3      	b.n	80030f0 <cmp_lfn+0x84>
	if ((dir[LDIR_Ord] & LLEF) && wc && lfnbuf[i]) return 0;	/* Last segment matched but different length */
 8003108:	2000      	movs	r0, #0
 800310a:	e7f1      	b.n	80030f0 <cmp_lfn+0x84>
 800310c:	08006d78 	.word	0x08006d78

08003110 <dir_find>:
{
 8003110:	e92d 43f8 	stmdb	sp!, {r3, r4, r5, r6, r7, r8, r9, lr}
 8003114:	4604      	mov	r4, r0
	FATFS *fs = dp->obj.fs;
 8003116:	f8d0 8000 	ldr.w	r8, [r0]
	res = dir_sdi(dp, 0);			/* Rewind directory object */
 800311a:	2100      	movs	r1, #0
 800311c:	f7ff fd7d 	bl	8002c1a <dir_sdi>
	if (res != FR_OK) return res;
 8003120:	4606      	mov	r6, r0
 8003122:	2800      	cmp	r0, #0
 8003124:	d164      	bne.n	80031f0 <dir_find+0xe0>
	ord = sum = 0xFF; dp->blk_ofs = 0xFFFFFFFF;	/* Reset LFN sequence */
 8003126:	f04f 33ff 	mov.w	r3, #4294967295
 800312a:	62e3      	str	r3, [r4, #44]	; 0x2c
 800312c:	f04f 09ff 	mov.w	r9, #255	; 0xff
 8003130:	464f      	mov	r7, r9
 8003132:	e00a      	b.n	800314a <dir_find+0x3a>
			ord = 0xFF; dp->blk_ofs = 0xFFFFFFFF;	/* Reset LFN sequence */
 8003134:	f04f 33ff 	mov.w	r3, #4294967295
 8003138:	62e3      	str	r3, [r4, #44]	; 0x2c
 800313a:	27ff      	movs	r7, #255	; 0xff
		res = dir_next(dp, 0);	/* Next entry */
 800313c:	2100      	movs	r1, #0
 800313e:	4620      	mov	r0, r4
 8003140:	f7ff feab 	bl	8002e9a <dir_next>
	} while (res == FR_OK);
 8003144:	4606      	mov	r6, r0
 8003146:	2800      	cmp	r0, #0
 8003148:	d152      	bne.n	80031f0 <dir_find+0xe0>
		res = move_window(fs, dp->sect);
 800314a:	69a1      	ldr	r1, [r4, #24]
 800314c:	4640      	mov	r0, r8
 800314e:	f7ff fa97 	bl	8002680 <move_window>
		if (res != FR_OK) break;
 8003152:	4606      	mov	r6, r0
 8003154:	2800      	cmp	r0, #0
 8003156:	d14b      	bne.n	80031f0 <dir_find+0xe0>
		c = dp->dir[DIR_Name];
 8003158:	69e5      	ldr	r5, [r4, #28]
 800315a:	782b      	ldrb	r3, [r5, #0]
		if (c == 0) { res = FR_NO_FILE; break; }	/* Reached to end of table */
 800315c:	2b00      	cmp	r3, #0
 800315e:	d046      	beq.n	80031ee <dir_find+0xde>
		dp->obj.attr = a = dp->dir[DIR_Attr] & AM_MASK;
 8003160:	7ae9      	ldrb	r1, [r5, #11]
 8003162:	f001 023f 	and.w	r2, r1, #63	; 0x3f
 8003166:	71a2      	strb	r2, [r4, #6]
		if (c == DDEM || ((a & AM_VOL) && a != AM_LFN)) {	/* An entry without valid data */
 8003168:	2be5      	cmp	r3, #229	; 0xe5
 800316a:	d0e3      	beq.n	8003134 <dir_find+0x24>
 800316c:	f011 0f08 	tst.w	r1, #8
 8003170:	d001      	beq.n	8003176 <dir_find+0x66>
 8003172:	2a0f      	cmp	r2, #15
 8003174:	d1de      	bne.n	8003134 <dir_find+0x24>
			if (a == AM_LFN) {			/* An LFN entry is found */
 8003176:	2a0f      	cmp	r2, #15
 8003178:	d016      	beq.n	80031a8 <dir_find+0x98>
				if (ord == 0 && sum == sum_sfn(dp->dir)) break;	/* LFN matched? */
 800317a:	b927      	cbnz	r7, 8003186 <dir_find+0x76>
 800317c:	4628      	mov	r0, r5
 800317e:	f7ff f9cb 	bl	8002518 <sum_sfn>
 8003182:	4548      	cmp	r0, r9
 8003184:	d034      	beq.n	80031f0 <dir_find+0xe0>
				if (!(dp->fn[NSFLAG] & NS_LOSS) && !mem_cmp(dp->dir, dp->fn, 11)) break;	/* SFN matched? */
 8003186:	f894 302b 	ldrb.w	r3, [r4, #43]	; 0x2b
 800318a:	f013 0f01 	tst.w	r3, #1
 800318e:	d106      	bne.n	800319e <dir_find+0x8e>
 8003190:	220b      	movs	r2, #11
 8003192:	f104 0120 	add.w	r1, r4, #32
 8003196:	4628      	mov	r0, r5
 8003198:	f7ff f862 	bl	8002260 <mem_cmp>
 800319c:	b340      	cbz	r0, 80031f0 <dir_find+0xe0>
				ord = 0xFF; dp->blk_ofs = 0xFFFFFFFF;	/* Reset LFN sequence */
 800319e:	f04f 33ff 	mov.w	r3, #4294967295
 80031a2:	62e3      	str	r3, [r4, #44]	; 0x2c
 80031a4:	27ff      	movs	r7, #255	; 0xff
 80031a6:	e7c9      	b.n	800313c <dir_find+0x2c>
				if (!(dp->fn[NSFLAG] & NS_NOLFN)) {
 80031a8:	f894 202b 	ldrb.w	r2, [r4, #43]	; 0x2b
 80031ac:	f012 0f40 	tst.w	r2, #64	; 0x40
 80031b0:	d1c4      	bne.n	800313c <dir_find+0x2c>
					if (c & LLEF) {		/* Is it start of LFN sequence? */
 80031b2:	f013 0f40 	tst.w	r3, #64	; 0x40
 80031b6:	d006      	beq.n	80031c6 <dir_find+0xb6>
						sum = dp->dir[LDIR_Chksum];
 80031b8:	f895 900d 	ldrb.w	r9, [r5, #13]
						c &= (BYTE)~LLEF; ord = c;	/* LFN start order */
 80031bc:	f003 03bf 	and.w	r3, r3, #191	; 0xbf
						dp->blk_ofs = dp->dptr;	/* Start offset of LFN */
 80031c0:	6922      	ldr	r2, [r4, #16]
 80031c2:	62e2      	str	r2, [r4, #44]	; 0x2c
						c &= (BYTE)~LLEF; ord = c;	/* LFN start order */
 80031c4:	461f      	mov	r7, r3
					ord = (c == ord && sum == dp->dir[LDIR_Chksum] && cmp_lfn(fs->lfnbuf, dp->dir)) ? ord - 1 : 0xFF;
 80031c6:	42bb      	cmp	r3, r7
 80031c8:	d001      	beq.n	80031ce <dir_find+0xbe>
 80031ca:	27ff      	movs	r7, #255	; 0xff
 80031cc:	e7b6      	b.n	800313c <dir_find+0x2c>
 80031ce:	7b6b      	ldrb	r3, [r5, #13]
 80031d0:	454b      	cmp	r3, r9
 80031d2:	d001      	beq.n	80031d8 <dir_find+0xc8>
 80031d4:	27ff      	movs	r7, #255	; 0xff
 80031d6:	e7b1      	b.n	800313c <dir_find+0x2c>
 80031d8:	4629      	mov	r1, r5
 80031da:	f8d8 000c 	ldr.w	r0, [r8, #12]
 80031de:	f7ff ff45 	bl	800306c <cmp_lfn>
 80031e2:	b110      	cbz	r0, 80031ea <dir_find+0xda>
 80031e4:	3f01      	subs	r7, #1
 80031e6:	b2ff      	uxtb	r7, r7
 80031e8:	e7a8      	b.n	800313c <dir_find+0x2c>
 80031ea:	27ff      	movs	r7, #255	; 0xff
 80031ec:	e7a6      	b.n	800313c <dir_find+0x2c>
		if (c == 0) { res = FR_NO_FILE; break; }	/* Reached to end of table */
 80031ee:	2604      	movs	r6, #4
}
 80031f0:	4630      	mov	r0, r6
 80031f2:	e8bd 83f8 	ldmia.w	sp!, {r3, r4, r5, r6, r7, r8, r9, pc}
	...

080031f8 <dir_register>:
{
 80031f8:	e92d 43f0 	stmdb	sp!, {r4, r5, r6, r7, r8, r9, lr}
 80031fc:	b085      	sub	sp, #20
	FATFS *fs = dp->obj.fs;
 80031fe:	6806      	ldr	r6, [r0, #0]
	if (dp->fn[NSFLAG] & (NS_DOT | NS_NONAME)) return FR_INVALID_NAME;	/* Check name validity */
 8003200:	f890 302b 	ldrb.w	r3, [r0, #43]	; 0x2b
 8003204:	f013 0fa0 	tst.w	r3, #160	; 0xa0
 8003208:	f040 808d 	bne.w	8003326 <dir_register+0x12e>
	for (nlen = 0; fs->lfnbuf[nlen]; nlen++) ;	/* Get lfn length */
 800320c:	2400      	movs	r4, #0
 800320e:	e000      	b.n	8003212 <dir_register+0x1a>
 8003210:	3401      	adds	r4, #1
 8003212:	68f3      	ldr	r3, [r6, #12]
 8003214:	f833 3014 	ldrh.w	r3, [r3, r4, lsl #1]
 8003218:	2b00      	cmp	r3, #0
 800321a:	d1f9      	bne.n	8003210 <dir_register+0x18>
 800321c:	4605      	mov	r5, r0
	mem_cpy(sn, dp->fn, 12);
 800321e:	f100 0720 	add.w	r7, r0, #32
 8003222:	220c      	movs	r2, #12
 8003224:	4639      	mov	r1, r7
 8003226:	a801      	add	r0, sp, #4
 8003228:	f7ff f80c 	bl	8002244 <mem_cpy>
	if (sn[NSFLAG] & NS_LOSS) {			/* When LFN is out of 8.3 format, generate a numbered name */
 800322c:	f89d 300f 	ldrb.w	r3, [sp, #15]
 8003230:	f013 0f01 	tst.w	r3, #1
 8003234:	d01f      	beq.n	8003276 <dir_register+0x7e>
		dp->fn[NSFLAG] = NS_NOLFN;		/* Find only SFN */
 8003236:	2340      	movs	r3, #64	; 0x40
 8003238:	f885 302b 	strb.w	r3, [r5, #43]	; 0x2b
		for (n = 1; n < 100; n++) {
 800323c:	f04f 0801 	mov.w	r8, #1
 8003240:	f1b8 0f63 	cmp.w	r8, #99	; 0x63
 8003244:	d80d      	bhi.n	8003262 <dir_register+0x6a>
			gen_numname(dp->fn, sn, fs->lfnbuf, n);	/* Generate a numbered name */
 8003246:	4643      	mov	r3, r8
 8003248:	68f2      	ldr	r2, [r6, #12]
 800324a:	a901      	add	r1, sp, #4
 800324c:	4638      	mov	r0, r7
 800324e:	f7ff f90b 	bl	8002468 <gen_numname>
			res = dir_find(dp);				/* Check if the name collides with existing SFN */
 8003252:	4628      	mov	r0, r5
 8003254:	f7ff ff5c 	bl	8003110 <dir_find>
			if (res != FR_OK) break;
 8003258:	4681      	mov	r9, r0
 800325a:	b910      	cbnz	r0, 8003262 <dir_register+0x6a>
		for (n = 1; n < 100; n++) {
 800325c:	f108 0801 	add.w	r8, r8, #1
 8003260:	e7ee      	b.n	8003240 <dir_register+0x48>
		if (n == 100) return FR_DENIED;		/* Abort if too many collisions */
 8003262:	f1b8 0f64 	cmp.w	r8, #100	; 0x64
 8003266:	d064      	beq.n	8003332 <dir_register+0x13a>
		if (res != FR_NO_FILE) return res;	/* Abort if the result is other than 'not collided' */
 8003268:	f1b9 0f04 	cmp.w	r9, #4
 800326c:	d15d      	bne.n	800332a <dir_register+0x132>
		dp->fn[NSFLAG] = sn[NSFLAG];
 800326e:	f89d 300f 	ldrb.w	r3, [sp, #15]
 8003272:	f885 302b 	strb.w	r3, [r5, #43]	; 0x2b
	nent = (sn[NSFLAG] & NS_LFN) ? (nlen + 12) / 13 + 1 : 1;	/* Number of entries to allocate */
 8003276:	f89d 300f 	ldrb.w	r3, [sp, #15]
 800327a:	f013 0f02 	tst.w	r3, #2
 800327e:	d02a      	beq.n	80032d6 <dir_register+0xde>
 8003280:	340c      	adds	r4, #12
 8003282:	4b2d      	ldr	r3, [pc, #180]	; (8003338 <dir_register+0x140>)
 8003284:	fba3 3404 	umull	r3, r4, r3, r4
 8003288:	08a4      	lsrs	r4, r4, #2
 800328a:	3401      	adds	r4, #1
	res = dir_alloc(dp, nent);		/* Allocate entries */
 800328c:	4621      	mov	r1, r4
 800328e:	4628      	mov	r0, r5
 8003290:	f7ff fe66 	bl	8002f60 <dir_alloc>
	if (res == FR_OK && --nent) {	/* Set LFN entry if needed */
 8003294:	4681      	mov	r9, r0
 8003296:	b908      	cbnz	r0, 800329c <dir_register+0xa4>
 8003298:	3c01      	subs	r4, #1
 800329a:	d11e      	bne.n	80032da <dir_register+0xe2>
	if (res == FR_OK) {
 800329c:	f1b9 0f00 	cmp.w	r9, #0
 80032a0:	d143      	bne.n	800332a <dir_register+0x132>
		res = move_window(fs, dp->sect);
 80032a2:	69a9      	ldr	r1, [r5, #24]
 80032a4:	4630      	mov	r0, r6
 80032a6:	f7ff f9eb 	bl	8002680 <move_window>
		if (res == FR_OK) {
 80032aa:	4681      	mov	r9, r0
 80032ac:	2800      	cmp	r0, #0
 80032ae:	d13c      	bne.n	800332a <dir_register+0x132>
			mem_set(dp->dir, 0, SZDIRE);	/* Clean the entry */
 80032b0:	2220      	movs	r2, #32
 80032b2:	2100      	movs	r1, #0
 80032b4:	69e8      	ldr	r0, [r5, #28]
 80032b6:	f7fe ffce 	bl	8002256 <mem_set>
			mem_cpy(dp->dir + DIR_Name, dp->fn, 11);	/* Put SFN */
 80032ba:	220b      	movs	r2, #11
 80032bc:	4639      	mov	r1, r7
 80032be:	69e8      	ldr	r0, [r5, #28]
 80032c0:	f7fe ffc0 	bl	8002244 <mem_cpy>
			dp->dir[DIR_NTres] = dp->fn[NSFLAG] & (NS_BODY | NS_EXT);	/* Put NT flag */
 80032c4:	f895 302b 	ldrb.w	r3, [r5, #43]	; 0x2b
 80032c8:	69ea      	ldr	r2, [r5, #28]
 80032ca:	f003 0318 	and.w	r3, r3, #24
 80032ce:	7313      	strb	r3, [r2, #12]
			fs->wflag = 1;
 80032d0:	2301      	movs	r3, #1
 80032d2:	70f3      	strb	r3, [r6, #3]
 80032d4:	e029      	b.n	800332a <dir_register+0x132>
	nent = (sn[NSFLAG] & NS_LFN) ? (nlen + 12) / 13 + 1 : 1;	/* Number of entries to allocate */
 80032d6:	2401      	movs	r4, #1
 80032d8:	e7d8      	b.n	800328c <dir_register+0x94>
		res = dir_sdi(dp, dp->dptr - nent * SZDIRE);
 80032da:	6929      	ldr	r1, [r5, #16]
 80032dc:	eba1 1144 	sub.w	r1, r1, r4, lsl #5
 80032e0:	4628      	mov	r0, r5
 80032e2:	f7ff fc9a 	bl	8002c1a <dir_sdi>
		if (res == FR_OK) {
 80032e6:	4681      	mov	r9, r0
 80032e8:	2800      	cmp	r0, #0
 80032ea:	d1d7      	bne.n	800329c <dir_register+0xa4>
			sum = sum_sfn(dp->fn);	/* Checksum value of the SFN tied to the LFN */
 80032ec:	4638      	mov	r0, r7
 80032ee:	f7ff f913 	bl	8002518 <sum_sfn>
 80032f2:	4680      	mov	r8, r0
				res = move_window(fs, dp->sect);
 80032f4:	69a9      	ldr	r1, [r5, #24]
 80032f6:	4630      	mov	r0, r6
 80032f8:	f7ff f9c2 	bl	8002680 <move_window>
				if (res != FR_OK) break;
 80032fc:	4681      	mov	r9, r0
 80032fe:	2800      	cmp	r0, #0
 8003300:	d1cc      	bne.n	800329c <dir_register+0xa4>
				put_lfn(fs->lfnbuf, dp->dir, (BYTE)nent, sum);
 8003302:	4643      	mov	r3, r8
 8003304:	b2e2      	uxtb	r2, r4
 8003306:	69e9      	ldr	r1, [r5, #28]
 8003308:	68f0      	ldr	r0, [r6, #12]
 800330a:	f7ff f871 	bl	80023f0 <put_lfn>
				fs->wflag = 1;
 800330e:	2301      	movs	r3, #1
 8003310:	70f3      	strb	r3, [r6, #3]
				res = dir_next(dp, 0);	/* Next entry */
 8003312:	2100      	movs	r1, #0
 8003314:	4628      	mov	r0, r5
 8003316:	f7ff fdc0 	bl	8002e9a <dir_next>
			} while (res == FR_OK && --nent);
 800331a:	4681      	mov	r9, r0
 800331c:	2800      	cmp	r0, #0
 800331e:	d1bd      	bne.n	800329c <dir_register+0xa4>
 8003320:	3c01      	subs	r4, #1
 8003322:	d1e7      	bne.n	80032f4 <dir_register+0xfc>
 8003324:	e7ba      	b.n	800329c <dir_register+0xa4>
	if (dp->fn[NSFLAG] & (NS_DOT | NS_NONAME)) return FR_INVALID_NAME;	/* Check name validity */
 8003326:	f04f 0906 	mov.w	r9, #6
}
 800332a:	4648      	mov	r0, r9
 800332c:	b005      	add	sp, #20
 800332e:	e8bd 83f0 	ldmia.w	sp!, {r4, r5, r6, r7, r8, r9, pc}
		if (n == 100) return FR_DENIED;		/* Abort if too many collisions */
 8003332:	f04f 0907 	mov.w	r9, #7
 8003336:	e7f8      	b.n	800332a <dir_register+0x132>
 8003338:	4ec4ec4f 	.word	0x4ec4ec4f

0800333c <tchar2uni>:
{
 800333c:	b5f8      	push	{r3, r4, r5, r6, r7, lr}
 800333e:	4606      	mov	r6, r0
	const TCHAR *p = *str;
 8003340:	6805      	ldr	r5, [r0, #0]
	wc = (BYTE)*p++;			/* Get a byte */
 8003342:	1c6f      	adds	r7, r5, #1
 8003344:	7828      	ldrb	r0, [r5, #0]
 8003346:	b284      	uxth	r4, r0
	if (dbc_1st((BYTE)wc)) {	/* Is it a DBC 1st byte? */
 8003348:	f7fe ffa1 	bl	800228e <dbc_1st>
 800334c:	b140      	cbz	r0, 8003360 <tchar2uni+0x24>
		b = (BYTE)*p++;			/* Get 2nd byte */
 800334e:	1caf      	adds	r7, r5, #2
 8003350:	786d      	ldrb	r5, [r5, #1]
		if (!dbc_2nd(b)) return 0xFFFFFFFF;	/* Invalid code? */
 8003352:	4628      	mov	r0, r5
 8003354:	f7fe ffad 	bl	80022b2 <dbc_2nd>
 8003358:	b188      	cbz	r0, 800337e <tchar2uni+0x42>
		wc = (wc << 8) + b;		/* Make a DBC */
 800335a:	eb05 2404 	add.w	r4, r5, r4, lsl #8
 800335e:	b2a4      	uxth	r4, r4
	if (wc != 0) {
 8003360:	b914      	cbnz	r4, 8003368 <tchar2uni+0x2c>
	uc = wc;
 8003362:	4620      	mov	r0, r4
	*str = p;	/* Next read pointer */
 8003364:	6037      	str	r7, [r6, #0]
}
 8003366:	bdf8      	pop	{r3, r4, r5, r6, r7, pc}
		wc = ff_oem2uni(wc, CODEPAGE);	/* ANSI/OEM ==> Unicode */
 8003368:	f44f 7169 	mov.w	r1, #932	; 0x3a4
 800336c:	4620      	mov	r0, r4
 800336e:	f001 f93d 	bl	80045ec <ff_oem2uni>
		if (wc == 0) return 0xFFFFFFFF;	/* Invalid code? */
 8003372:	4604      	mov	r4, r0
 8003374:	2800      	cmp	r0, #0
 8003376:	d1f4      	bne.n	8003362 <tchar2uni+0x26>
 8003378:	f04f 30ff 	mov.w	r0, #4294967295
 800337c:	e7f3      	b.n	8003366 <tchar2uni+0x2a>
		if (!dbc_2nd(b)) return 0xFFFFFFFF;	/* Invalid code? */
 800337e:	f04f 30ff 	mov.w	r0, #4294967295
 8003382:	e7f0      	b.n	8003366 <tchar2uni+0x2a>

08003384 <create_name>:
{
 8003384:	e92d 4ff0 	stmdb	sp!, {r4, r5, r6, r7, r8, r9, sl, fp, lr}
 8003388:	b085      	sub	sp, #20
 800338a:	4607      	mov	r7, r0
 800338c:	4689      	mov	r9, r1
	p = *path; lfn = dp->obj.fs->lfnbuf; di = 0;
 800338e:	680b      	ldr	r3, [r1, #0]
 8003390:	9303      	str	r3, [sp, #12]
 8003392:	6803      	ldr	r3, [r0, #0]
 8003394:	68dd      	ldr	r5, [r3, #12]
 8003396:	2400      	movs	r4, #0
 8003398:	e00e      	b.n	80033b8 <create_name+0x34>
		wc = (WCHAR)uc;
 800339a:	b286      	uxth	r6, r0
		if (wc < ' ' || wc == '/' || wc == '\\') break;	/* Break if end of the path or a separator is found */
 800339c:	2e1f      	cmp	r6, #31
 800339e:	d922      	bls.n	80033e6 <create_name+0x62>
 80033a0:	2e2f      	cmp	r6, #47	; 0x2f
 80033a2:	d020      	beq.n	80033e6 <create_name+0x62>
 80033a4:	2e5c      	cmp	r6, #92	; 0x5c
 80033a6:	d01e      	beq.n	80033e6 <create_name+0x62>
		if (wc < 0x80 && chk_chr("\"*:<>\?|\x7F", wc)) return FR_INVALID_NAME;	/* Reject illegal characters for LFN */
 80033a8:	2e7f      	cmp	r6, #127	; 0x7f
 80033aa:	d914      	bls.n	80033d6 <create_name+0x52>
		if (di >= FF_MAX_LFN) return FR_INVALID_NAME;	/* Reject too long name */
 80033ac:	2cfe      	cmp	r4, #254	; 0xfe
 80033ae:	f200 812e 	bhi.w	800360e <create_name+0x28a>
		lfn[di++] = wc;					/* Store the Unicode character */
 80033b2:	f825 6014 	strh.w	r6, [r5, r4, lsl #1]
 80033b6:	3401      	adds	r4, #1
		uc = tchar2uni(&p);			/* Get a character */
 80033b8:	a803      	add	r0, sp, #12
 80033ba:	f7ff ffbf 	bl	800333c <tchar2uni>
		if (uc == 0xFFFFFFFF) return FR_INVALID_NAME;		/* Invalid code or UTF decode error */
 80033be:	f1b0 3fff 	cmp.w	r0, #4294967295
 80033c2:	f000 8122 	beq.w	800360a <create_name+0x286>
		if (uc >= 0x10000) lfn[di++] = (WCHAR)(uc >> 16);	/* Store high surrogate if needed */
 80033c6:	f5b0 3f80 	cmp.w	r0, #65536	; 0x10000
 80033ca:	d3e6      	bcc.n	800339a <create_name+0x16>
 80033cc:	0c03      	lsrs	r3, r0, #16
 80033ce:	f825 3014 	strh.w	r3, [r5, r4, lsl #1]
 80033d2:	3401      	adds	r4, #1
 80033d4:	e7e1      	b.n	800339a <create_name+0x16>
		if (wc < 0x80 && chk_chr("\"*:<>\?|\x7F", wc)) return FR_INVALID_NAME;	/* Reject illegal characters for LFN */
 80033d6:	4631      	mov	r1, r6
 80033d8:	488f      	ldr	r0, [pc, #572]	; (8003618 <create_name+0x294>)
 80033da:	f7fe ff50 	bl	800227e <chk_chr>
 80033de:	2800      	cmp	r0, #0
 80033e0:	d0e4      	beq.n	80033ac <create_name+0x28>
 80033e2:	2006      	movs	r0, #6
 80033e4:	e0c1      	b.n	800356a <create_name+0x1e6>
	if (wc < ' ') {				/* End of path? */
 80033e6:	2e1f      	cmp	r6, #31
 80033e8:	d804      	bhi.n	80033f4 <create_name+0x70>
		cf = NS_LAST;			/* Set last segment flag */
 80033ea:	f04f 0804 	mov.w	r8, #4
 80033ee:	e009      	b.n	8003404 <create_name+0x80>
		while (*p == '/' || *p == '\\') p++;	/* Skip duplicated separators if exist */
 80033f0:	3301      	adds	r3, #1
 80033f2:	9303      	str	r3, [sp, #12]
 80033f4:	9b03      	ldr	r3, [sp, #12]
 80033f6:	781a      	ldrb	r2, [r3, #0]
 80033f8:	2a2f      	cmp	r2, #47	; 0x2f
 80033fa:	d0f9      	beq.n	80033f0 <create_name+0x6c>
 80033fc:	2a5c      	cmp	r2, #92	; 0x5c
 80033fe:	d0f7      	beq.n	80033f0 <create_name+0x6c>
		cf = 0;					/* Next segment follows */
 8003400:	f04f 0800 	mov.w	r8, #0
	*path = p;					/* Return pointer to the next segment */
 8003404:	9b03      	ldr	r3, [sp, #12]
 8003406:	f8c9 3000 	str.w	r3, [r9]
	if ((di == 1 && lfn[di - 1] == '.') ||
 800340a:	2c01      	cmp	r4, #1
 800340c:	d010      	beq.n	8003430 <create_name+0xac>
 800340e:	2c02      	cmp	r4, #2
 8003410:	d12c      	bne.n	800346c <create_name+0xe8>
		(di == 2 && lfn[di - 1] == '.' && lfn[di - 2] == '.')) {	/* Is this segment a dot name? */
 8003412:	f104 4300 	add.w	r3, r4, #2147483648	; 0x80000000
 8003416:	3b01      	subs	r3, #1
 8003418:	f835 3013 	ldrh.w	r3, [r5, r3, lsl #1]
 800341c:	2b2e      	cmp	r3, #46	; 0x2e
 800341e:	d125      	bne.n	800346c <create_name+0xe8>
 8003420:	f104 4300 	add.w	r3, r4, #2147483648	; 0x80000000
 8003424:	3b02      	subs	r3, #2
 8003426:	f835 3013 	ldrh.w	r3, [r5, r3, lsl #1]
 800342a:	2b2e      	cmp	r3, #46	; 0x2e
 800342c:	d11e      	bne.n	800346c <create_name+0xe8>
 800342e:	e006      	b.n	800343e <create_name+0xba>
	if ((di == 1 && lfn[di - 1] == '.') ||
 8003430:	f104 4300 	add.w	r3, r4, #2147483648	; 0x80000000
 8003434:	3b01      	subs	r3, #1
 8003436:	f835 3013 	ldrh.w	r3, [r5, r3, lsl #1]
 800343a:	2b2e      	cmp	r3, #46	; 0x2e
 800343c:	d1e7      	bne.n	800340e <create_name+0x8a>
		lfn[di] = 0;
 800343e:	2300      	movs	r3, #0
 8003440:	f825 3014 	strh.w	r3, [r5, r4, lsl #1]
		for (i = 0; i < 11; i++) {		/* Create dot name for SFN entry */
 8003444:	e004      	b.n	8003450 <create_name+0xcc>
			dp->fn[i] = (i < di) ? '.' : ' ';
 8003446:	2120      	movs	r1, #32
 8003448:	18fa      	adds	r2, r7, r3
 800344a:	f882 1020 	strb.w	r1, [r2, #32]
		for (i = 0; i < 11; i++) {		/* Create dot name for SFN entry */
 800344e:	3301      	adds	r3, #1
 8003450:	2b0a      	cmp	r3, #10
 8003452:	d803      	bhi.n	800345c <create_name+0xd8>
			dp->fn[i] = (i < di) ? '.' : ' ';
 8003454:	42a3      	cmp	r3, r4
 8003456:	d2f6      	bcs.n	8003446 <create_name+0xc2>
 8003458:	212e      	movs	r1, #46	; 0x2e
 800345a:	e7f5      	b.n	8003448 <create_name+0xc4>
		dp->fn[i] = cf | NS_DOT;		/* This is a dot entry */
 800345c:	443b      	add	r3, r7
 800345e:	f048 0820 	orr.w	r8, r8, #32
 8003462:	f883 8020 	strb.w	r8, [r3, #32]
		return FR_OK;
 8003466:	2000      	movs	r0, #0
 8003468:	e07f      	b.n	800356a <create_name+0x1e6>
		di--;
 800346a:	3c01      	subs	r4, #1
	while (di) {						/* Snip off trailing spaces and dots if exist */
 800346c:	b144      	cbz	r4, 8003480 <create_name+0xfc>
		wc = lfn[di - 1];
 800346e:	f104 4300 	add.w	r3, r4, #2147483648	; 0x80000000
 8003472:	3b01      	subs	r3, #1
 8003474:	f835 3013 	ldrh.w	r3, [r5, r3, lsl #1]
		if (wc != ' ' && wc != '.') break;
 8003478:	2b20      	cmp	r3, #32
 800347a:	d0f6      	beq.n	800346a <create_name+0xe6>
 800347c:	2b2e      	cmp	r3, #46	; 0x2e
 800347e:	d0f4      	beq.n	800346a <create_name+0xe6>
	lfn[di] = 0;							/* LFN is created into the working buffer */
 8003480:	2300      	movs	r3, #0
 8003482:	f825 3014 	strh.w	r3, [r5, r4, lsl #1]
	if (di == 0) return FR_INVALID_NAME;	/* Reject null name */
 8003486:	2c00      	cmp	r4, #0
 8003488:	f000 80c3 	beq.w	8003612 <create_name+0x28e>
	for (si = 0; lfn[si] == ' '; si++) ;	/* Remove leading spaces */
 800348c:	461e      	mov	r6, r3
 800348e:	e000      	b.n	8003492 <create_name+0x10e>
 8003490:	3601      	adds	r6, #1
 8003492:	f835 3016 	ldrh.w	r3, [r5, r6, lsl #1]
 8003496:	2b20      	cmp	r3, #32
 8003498:	d0fa      	beq.n	8003490 <create_name+0x10c>
	if (si > 0 || lfn[si] == '.') cf |= NS_LOSS | NS_LFN;	/* Is there any leading space or dot? */
 800349a:	b90e      	cbnz	r6, 80034a0 <create_name+0x11c>
 800349c:	2b2e      	cmp	r3, #46	; 0x2e
 800349e:	d103      	bne.n	80034a8 <create_name+0x124>
 80034a0:	f048 0803 	orr.w	r8, r8, #3
 80034a4:	e000      	b.n	80034a8 <create_name+0x124>
	while (di > 0 && lfn[di - 1] != '.') di--;	/* Find last dot (di<=si: no extension) */
 80034a6:	3c01      	subs	r4, #1
 80034a8:	b134      	cbz	r4, 80034b8 <create_name+0x134>
 80034aa:	f104 4300 	add.w	r3, r4, #2147483648	; 0x80000000
 80034ae:	3b01      	subs	r3, #1
 80034b0:	f835 3013 	ldrh.w	r3, [r5, r3, lsl #1]
 80034b4:	2b2e      	cmp	r3, #46	; 0x2e
 80034b6:	d1f6      	bne.n	80034a6 <create_name+0x122>
	mem_set(dp->fn, ' ', 11);
 80034b8:	220b      	movs	r2, #11
 80034ba:	2120      	movs	r1, #32
 80034bc:	1878      	adds	r0, r7, r1
 80034be:	f7fe feca 	bl	8002256 <mem_set>
	i = b = 0; ni = 8;
 80034c2:	f04f 0b08 	mov.w	fp, #8
 80034c6:	2300      	movs	r3, #0
 80034c8:	9301      	str	r3, [sp, #4]
 80034ca:	469a      	mov	sl, r3
		wc = lfn[si++];					/* Get an LFN character */
 80034cc:	f106 0901 	add.w	r9, r6, #1
 80034d0:	f835 6016 	ldrh.w	r6, [r5, r6, lsl #1]
		if (wc == 0) break;				/* Break on end of the LFN */
 80034d4:	b346      	cbz	r6, 8003528 <create_name+0x1a4>
		if (wc == ' ' || (wc == '.' && si != di)) {	/* Remove embedded spaces and dots */
 80034d6:	2e20      	cmp	r6, #32
 80034d8:	d019      	beq.n	800350e <create_name+0x18a>
 80034da:	2e2e      	cmp	r6, #46	; 0x2e
 80034dc:	d015      	beq.n	800350a <create_name+0x186>
		if (i >= ni || si == di) {		/* End of field? */
 80034de:	9b01      	ldr	r3, [sp, #4]
 80034e0:	455b      	cmp	r3, fp
 80034e2:	d218      	bcs.n	8003516 <create_name+0x192>
 80034e4:	454c      	cmp	r4, r9
 80034e6:	d016      	beq.n	8003516 <create_name+0x192>
		if (wc >= 0x80) {	/* Is this a non-ASCII character? */
 80034e8:	2e7f      	cmp	r6, #127	; 0x7f
 80034ea:	d84e      	bhi.n	800358a <create_name+0x206>
		if (wc >= 0x100) {				/* Is this a DBC? */
 80034ec:	2eff      	cmp	r6, #255	; 0xff
 80034ee:	d95d      	bls.n	80035ac <create_name+0x228>
			if (i >= ni - 1) {			/* Field overflow? */
 80034f0:	f10b 33ff 	add.w	r3, fp, #4294967295
 80034f4:	9a01      	ldr	r2, [sp, #4]
 80034f6:	4293      	cmp	r3, r2
 80034f8:	d952      	bls.n	80035a0 <create_name+0x21c>
			dp->fn[i++] = (BYTE)(wc >> 8);	/* Put 1st byte */
 80034fa:	9901      	ldr	r1, [sp, #4]
 80034fc:	1c4b      	adds	r3, r1, #1
 80034fe:	f3c6 2207 	ubfx	r2, r6, #8, #8
 8003502:	1879      	adds	r1, r7, r1
 8003504:	f881 2020 	strb.w	r2, [r1, #32]
 8003508:	e055      	b.n	80035b6 <create_name+0x232>
		if (wc == ' ' || (wc == '.' && si != di)) {	/* Remove embedded spaces and dots */
 800350a:	454c      	cmp	r4, r9
 800350c:	d0e7      	beq.n	80034de <create_name+0x15a>
			cf |= NS_LOSS | NS_LFN;
 800350e:	f048 0803 	orr.w	r8, r8, #3
		wc = lfn[si++];					/* Get an LFN character */
 8003512:	464e      	mov	r6, r9
			continue;
 8003514:	e7da      	b.n	80034cc <create_name+0x148>
			if (ni == 11) {				/* Name extension overflow? */
 8003516:	f1bb 0f0b 	cmp.w	fp, #11
 800351a:	d029      	beq.n	8003570 <create_name+0x1ec>
			if (si != di) cf |= NS_LOSS | NS_LFN;	/* Name body overflow? */
 800351c:	454c      	cmp	r4, r9
 800351e:	d001      	beq.n	8003524 <create_name+0x1a0>
 8003520:	f048 0803 	orr.w	r8, r8, #3
			if (si > di) break;						/* No name extension? */
 8003524:	454c      	cmp	r4, r9
 8003526:	d226      	bcs.n	8003576 <create_name+0x1f2>
	if (dp->fn[0] == DDEM) dp->fn[0] = RDDEM;	/* If the first character collides with DDEM, replace it with RDDEM */
 8003528:	f897 3020 	ldrb.w	r3, [r7, #32]
 800352c:	2be5      	cmp	r3, #229	; 0xe5
 800352e:	d063      	beq.n	80035f8 <create_name+0x274>
	if (ni == 8) b <<= 2;				/* Shift capital flags if no extension */
 8003530:	f1bb 0f08 	cmp.w	fp, #8
 8003534:	d064      	beq.n	8003600 <create_name+0x27c>
	if ((b & 0x0C) == 0x0C || (b & 0x03) == 0x03) cf |= NS_LFN;	/* LFN entry needs to be created if composite capitals */
 8003536:	f00a 030c 	and.w	r3, sl, #12
 800353a:	2b0c      	cmp	r3, #12
 800353c:	d003      	beq.n	8003546 <create_name+0x1c2>
 800353e:	f00a 0303 	and.w	r3, sl, #3
 8003542:	2b03      	cmp	r3, #3
 8003544:	d101      	bne.n	800354a <create_name+0x1c6>
 8003546:	f048 0802 	orr.w	r8, r8, #2
	if (!(cf & NS_LFN)) {				/* When LFN is in 8.3 format without extended character, NT flags are created */
 800354a:	f018 0f02 	tst.w	r8, #2
 800354e:	d109      	bne.n	8003564 <create_name+0x1e0>
		if (b & 0x01) cf |= NS_EXT;		/* NT flag (Extension has small capital letters only) */
 8003550:	f01a 0f01 	tst.w	sl, #1
 8003554:	d001      	beq.n	800355a <create_name+0x1d6>
 8003556:	f048 0810 	orr.w	r8, r8, #16
		if (b & 0x04) cf |= NS_BODY;	/* NT flag (Body has small capital letters only) */
 800355a:	f01a 0f04 	tst.w	sl, #4
 800355e:	d001      	beq.n	8003564 <create_name+0x1e0>
 8003560:	f048 0808 	orr.w	r8, r8, #8
	dp->fn[NSFLAG] = cf;	/* SFN is created into dp->fn[] */
 8003564:	f887 802b 	strb.w	r8, [r7, #43]	; 0x2b
	return FR_OK;
 8003568:	2000      	movs	r0, #0
}
 800356a:	b005      	add	sp, #20
 800356c:	e8bd 8ff0 	ldmia.w	sp!, {r4, r5, r6, r7, r8, r9, sl, fp, pc}
				cf |= NS_LOSS | NS_LFN;
 8003570:	f048 0803 	orr.w	r8, r8, #3
				break;
 8003574:	e7d8      	b.n	8003528 <create_name+0x1a4>
			si = di; i = 8; ni = 11; b <<= 2;		/* Enter name extension */
 8003576:	ea4f 0a8a 	mov.w	sl, sl, lsl #2
 800357a:	fa5f fa8a 	uxtb.w	sl, sl
 800357e:	4626      	mov	r6, r4
 8003580:	f04f 0b0b 	mov.w	fp, #11
 8003584:	2308      	movs	r3, #8
 8003586:	9301      	str	r3, [sp, #4]
			continue;
 8003588:	e7a0      	b.n	80034cc <create_name+0x148>
			cf |= NS_LFN;	/* LFN entry needs to be created */
 800358a:	f048 0802 	orr.w	r8, r8, #2
			wc = ff_uni2oem(ff_wtoupper(wc), CODEPAGE);	/* Unicode ==> Upper convert ==> ANSI/OEM code */
 800358e:	4630      	mov	r0, r6
 8003590:	f001 f854 	bl	800463c <ff_wtoupper>
 8003594:	f44f 7169 	mov.w	r1, #932	; 0x3a4
 8003598:	f000 fff8 	bl	800458c <ff_uni2oem>
 800359c:	4606      	mov	r6, r0
 800359e:	e7a5      	b.n	80034ec <create_name+0x168>
				cf |= NS_LOSS | NS_LFN;
 80035a0:	f048 0803 	orr.w	r8, r8, #3
		wc = lfn[si++];					/* Get an LFN character */
 80035a4:	464e      	mov	r6, r9
				i = ni; continue;		/* Next field */
 80035a6:	f8cd b004 	str.w	fp, [sp, #4]
 80035aa:	e78f      	b.n	80034cc <create_name+0x148>
			if (wc == 0 || chk_chr("+,;=[]", wc)) {	/* Replace illegal characters for SFN if needed */
 80035ac:	b956      	cbnz	r6, 80035c4 <create_name+0x240>
				wc = '_'; cf |= NS_LOSS | NS_LFN;/* Lossy conversion */
 80035ae:	f048 0803 	orr.w	r8, r8, #3
 80035b2:	9b01      	ldr	r3, [sp, #4]
 80035b4:	265f      	movs	r6, #95	; 0x5f
		dp->fn[i++] = (BYTE)wc;
 80035b6:	1c5a      	adds	r2, r3, #1
 80035b8:	9201      	str	r2, [sp, #4]
 80035ba:	443b      	add	r3, r7
 80035bc:	f883 6020 	strb.w	r6, [r3, #32]
		wc = lfn[si++];					/* Get an LFN character */
 80035c0:	464e      	mov	r6, r9
 80035c2:	e783      	b.n	80034cc <create_name+0x148>
			if (wc == 0 || chk_chr("+,;=[]", wc)) {	/* Replace illegal characters for SFN if needed */
 80035c4:	4631      	mov	r1, r6
 80035c6:	4815      	ldr	r0, [pc, #84]	; (800361c <create_name+0x298>)
 80035c8:	f7fe fe59 	bl	800227e <chk_chr>
 80035cc:	2800      	cmp	r0, #0
 80035ce:	d1ee      	bne.n	80035ae <create_name+0x22a>
				if (IsUpper(wc)) {		/* ASCII upper case? */
 80035d0:	f1a6 0341 	sub.w	r3, r6, #65	; 0x41
 80035d4:	b29b      	uxth	r3, r3
 80035d6:	2b19      	cmp	r3, #25
 80035d8:	d801      	bhi.n	80035de <create_name+0x25a>
					b |= 2;
 80035da:	f04a 0a02 	orr.w	sl, sl, #2
				if (IsLower(wc)) {		/* ASCII lower case? */
 80035de:	f1a6 0361 	sub.w	r3, r6, #97	; 0x61
 80035e2:	b29b      	uxth	r3, r3
 80035e4:	2b19      	cmp	r3, #25
 80035e6:	d805      	bhi.n	80035f4 <create_name+0x270>
					b |= 1; wc -= 0x20;
 80035e8:	f04a 0a01 	orr.w	sl, sl, #1
 80035ec:	3e20      	subs	r6, #32
 80035ee:	b2b6      	uxth	r6, r6
 80035f0:	9b01      	ldr	r3, [sp, #4]
 80035f2:	e7e0      	b.n	80035b6 <create_name+0x232>
 80035f4:	9b01      	ldr	r3, [sp, #4]
 80035f6:	e7de      	b.n	80035b6 <create_name+0x232>
	if (dp->fn[0] == DDEM) dp->fn[0] = RDDEM;	/* If the first character collides with DDEM, replace it with RDDEM */
 80035f8:	2305      	movs	r3, #5
 80035fa:	f887 3020 	strb.w	r3, [r7, #32]
 80035fe:	e797      	b.n	8003530 <create_name+0x1ac>
	if (ni == 8) b <<= 2;				/* Shift capital flags if no extension */
 8003600:	ea4f 0a8a 	mov.w	sl, sl, lsl #2
 8003604:	fa5f fa8a 	uxtb.w	sl, sl
 8003608:	e795      	b.n	8003536 <create_name+0x1b2>
		if (uc == 0xFFFFFFFF) return FR_INVALID_NAME;		/* Invalid code or UTF decode error */
 800360a:	2006      	movs	r0, #6
 800360c:	e7ad      	b.n	800356a <create_name+0x1e6>
		if (di >= FF_MAX_LFN) return FR_INVALID_NAME;	/* Reject too long name */
 800360e:	2006      	movs	r0, #6
 8003610:	e7ab      	b.n	800356a <create_name+0x1e6>
	if (di == 0) return FR_INVALID_NAME;	/* Reject null name */
 8003612:	2006      	movs	r0, #6
 8003614:	e7a9      	b.n	800356a <create_name+0x1e6>
 8003616:	bf00      	nop
 8003618:	08006db0 	.word	0x08006db0
 800361c:	08006dbc 	.word	0x08006dbc

08003620 <follow_path>:
{
 8003620:	b570      	push	{r4, r5, r6, lr}
 8003622:	b082      	sub	sp, #8
 8003624:	4604      	mov	r4, r0
 8003626:	9101      	str	r1, [sp, #4]
	FATFS *fs = dp->obj.fs;
 8003628:	6805      	ldr	r5, [r0, #0]
	if (*path != '/' && *path != '\\') {	/* Without heading separator */
 800362a:	780b      	ldrb	r3, [r1, #0]
 800362c:	2b2f      	cmp	r3, #47	; 0x2f
 800362e:	d006      	beq.n	800363e <follow_path+0x1e>
 8003630:	2b5c      	cmp	r3, #92	; 0x5c
 8003632:	d004      	beq.n	800363e <follow_path+0x1e>
		dp->obj.sclust = fs->cdir;				/* Start from current directory */
 8003634:	69ab      	ldr	r3, [r5, #24]
 8003636:	6083      	str	r3, [r0, #8]
 8003638:	e009      	b.n	800364e <follow_path+0x2e>
		while (*path == '/' || *path == '\\') path++;	/* Strip heading separator */
 800363a:	3301      	adds	r3, #1
 800363c:	9301      	str	r3, [sp, #4]
 800363e:	9b01      	ldr	r3, [sp, #4]
 8003640:	781a      	ldrb	r2, [r3, #0]
 8003642:	2a2f      	cmp	r2, #47	; 0x2f
 8003644:	d0f9      	beq.n	800363a <follow_path+0x1a>
 8003646:	2a5c      	cmp	r2, #92	; 0x5c
 8003648:	d0f7      	beq.n	800363a <follow_path+0x1a>
		dp->obj.sclust = 0;					/* Start from root directory */
 800364a:	2300      	movs	r3, #0
 800364c:	60a3      	str	r3, [r4, #8]
	if ((UINT)*path < ' ') {				/* Null path name is the origin directory itself */
 800364e:	9b01      	ldr	r3, [sp, #4]
 8003650:	781b      	ldrb	r3, [r3, #0]
 8003652:	2b1f      	cmp	r3, #31
 8003654:	d81e      	bhi.n	8003694 <follow_path+0x74>
		dp->fn[NSFLAG] = NS_NONAME;
 8003656:	2380      	movs	r3, #128	; 0x80
 8003658:	f884 302b 	strb.w	r3, [r4, #43]	; 0x2b
		res = dir_sdi(dp, 0);
 800365c:	2100      	movs	r1, #0
 800365e:	4620      	mov	r0, r4
 8003660:	f7ff fadb 	bl	8002c1a <dir_sdi>
 8003664:	4606      	mov	r6, r0
 8003666:	e02d      	b.n	80036c4 <follow_path+0xa4>
						if (!(ns & NS_LAST)) res = FR_NO_PATH;	/* Adjust error code if not last segment */
 8003668:	f013 0f04 	tst.w	r3, #4
 800366c:	d02f      	beq.n	80036ce <follow_path+0xae>
			res = dir_find(dp);				/* Find an object with the segment name */
 800366e:	4606      	mov	r6, r0
 8003670:	e028      	b.n	80036c4 <follow_path+0xa4>
			if (ns & NS_LAST) break;			/* Last segment matched. Function completed. */
 8003672:	f013 0f04 	tst.w	r3, #4
 8003676:	d12c      	bne.n	80036d2 <follow_path+0xb2>
			if (!(dp->obj.attr & AM_DIR)) {		/* It is not a sub-directory and cannot follow */
 8003678:	79a3      	ldrb	r3, [r4, #6]
 800367a:	f013 0f10 	tst.w	r3, #16
 800367e:	d02a      	beq.n	80036d6 <follow_path+0xb6>
				dp->obj.sclust = ld_clust(fs, fs->win + dp->dptr % SS(fs));	/* Open next directory */
 8003680:	f105 0138 	add.w	r1, r5, #56	; 0x38
 8003684:	6923      	ldr	r3, [r4, #16]
 8003686:	f3c3 0308 	ubfx	r3, r3, #0, #9
 800368a:	4419      	add	r1, r3
 800368c:	4628      	mov	r0, r5
 800368e:	f7fe fe41 	bl	8002314 <ld_clust>
 8003692:	60a0      	str	r0, [r4, #8]
			res = create_name(dp, &path);	/* Get a segment name of the path */
 8003694:	a901      	add	r1, sp, #4
 8003696:	4620      	mov	r0, r4
 8003698:	f7ff fe74 	bl	8003384 <create_name>
			if (res != FR_OK) break;
 800369c:	4606      	mov	r6, r0
 800369e:	b988      	cbnz	r0, 80036c4 <follow_path+0xa4>
			res = dir_find(dp);				/* Find an object with the segment name */
 80036a0:	4620      	mov	r0, r4
 80036a2:	f7ff fd35 	bl	8003110 <dir_find>
			ns = dp->fn[NSFLAG];
 80036a6:	f894 302b 	ldrb.w	r3, [r4, #43]	; 0x2b
			if (res != FR_OK) {				/* Failed to find the object */
 80036aa:	2800      	cmp	r0, #0
 80036ac:	d0e1      	beq.n	8003672 <follow_path+0x52>
				if (res == FR_NO_FILE) {	/* Object is not found */
 80036ae:	2804      	cmp	r0, #4
 80036b0:	d10b      	bne.n	80036ca <follow_path+0xaa>
					if (FF_FS_RPATH && (ns & NS_DOT)) {	/* If dot entry is not exist, stay there */
 80036b2:	f013 0f20 	tst.w	r3, #32
 80036b6:	d0d7      	beq.n	8003668 <follow_path+0x48>
						if (!(ns & NS_LAST)) continue;	/* Continue to follow if not last segment */
 80036b8:	f013 0f04 	tst.w	r3, #4
 80036bc:	d0ea      	beq.n	8003694 <follow_path+0x74>
						dp->fn[NSFLAG] = NS_NONAME;
 80036be:	2380      	movs	r3, #128	; 0x80
 80036c0:	f884 302b 	strb.w	r3, [r4, #43]	; 0x2b
}
 80036c4:	4630      	mov	r0, r6
 80036c6:	b002      	add	sp, #8
 80036c8:	bd70      	pop	{r4, r5, r6, pc}
			res = dir_find(dp);				/* Find an object with the segment name */
 80036ca:	4606      	mov	r6, r0
 80036cc:	e7fa      	b.n	80036c4 <follow_path+0xa4>
						if (!(ns & NS_LAST)) res = FR_NO_PATH;	/* Adjust error code if not last segment */
 80036ce:	2605      	movs	r6, #5
 80036d0:	e7f8      	b.n	80036c4 <follow_path+0xa4>
			res = dir_find(dp);				/* Find an object with the segment name */
 80036d2:	4606      	mov	r6, r0
 80036d4:	e7f6      	b.n	80036c4 <follow_path+0xa4>
				res = FR_NO_PATH; break;
 80036d6:	2605      	movs	r6, #5
 80036d8:	e7f4      	b.n	80036c4 <follow_path+0xa4>
	...

080036dc <sync_fs>:
{
 80036dc:	b570      	push	{r4, r5, r6, lr}
 80036de:	4604      	mov	r4, r0
	res = sync_window(fs);
 80036e0:	f7fe ffa6 	bl	8002630 <sync_window>
	if (res == FR_OK) {
 80036e4:	4605      	mov	r5, r0
 80036e6:	b948      	cbnz	r0, 80036fc <sync_fs+0x20>
		if (fs->fs_type == FS_FAT32 && fs->fsi_flag == 1) {	/* FAT32: Update FSInfo sector if needed */
 80036e8:	7823      	ldrb	r3, [r4, #0]
 80036ea:	2b03      	cmp	r3, #3
 80036ec:	d008      	beq.n	8003700 <sync_fs+0x24>
		if (disk_ioctl(fs->pdrv, CTRL_SYNC, 0) != RES_OK) res = FR_DISK_ERR;
 80036ee:	2200      	movs	r2, #0
 80036f0:	4611      	mov	r1, r2
 80036f2:	7860      	ldrb	r0, [r4, #1]
 80036f4:	f7fe fd78 	bl	80021e8 <disk_ioctl>
 80036f8:	b100      	cbz	r0, 80036fc <sync_fs+0x20>
 80036fa:	2501      	movs	r5, #1
}
 80036fc:	4628      	mov	r0, r5
 80036fe:	bd70      	pop	{r4, r5, r6, pc}
		if (fs->fs_type == FS_FAT32 && fs->fsi_flag == 1) {	/* FAT32: Update FSInfo sector if needed */
 8003700:	7923      	ldrb	r3, [r4, #4]
 8003702:	2b01      	cmp	r3, #1
 8003704:	d1f3      	bne.n	80036ee <sync_fs+0x12>
			mem_set(fs->win, 0, sizeof fs->win);
 8003706:	f104 0638 	add.w	r6, r4, #56	; 0x38
 800370a:	f44f 7200 	mov.w	r2, #512	; 0x200
 800370e:	2100      	movs	r1, #0
 8003710:	4630      	mov	r0, r6
 8003712:	f7fe fda0 	bl	8002256 <mem_set>
			st_word(fs->win + BS_55AA, 0xAA55);
 8003716:	f64a 2155 	movw	r1, #43605	; 0xaa55
 800371a:	f204 2036 	addw	r0, r4, #566	; 0x236
 800371e:	f7fe fd83 	bl	8002228 <st_word>
			st_dword(fs->win + FSI_LeadSig, 0x41615252);
 8003722:	490f      	ldr	r1, [pc, #60]	; (8003760 <sync_fs+0x84>)
 8003724:	4630      	mov	r0, r6
 8003726:	f7fe fd83 	bl	8002230 <st_dword>
			st_dword(fs->win + FSI_StrucSig, 0x61417272);
 800372a:	490e      	ldr	r1, [pc, #56]	; (8003764 <sync_fs+0x88>)
 800372c:	f504 7007 	add.w	r0, r4, #540	; 0x21c
 8003730:	f7fe fd7e 	bl	8002230 <st_dword>
			st_dword(fs->win + FSI_Free_Count, fs->free_clst);
 8003734:	6961      	ldr	r1, [r4, #20]
 8003736:	f504 7008 	add.w	r0, r4, #544	; 0x220
 800373a:	f7fe fd79 	bl	8002230 <st_dword>
			st_dword(fs->win + FSI_Nxt_Free, fs->last_clst);
 800373e:	6921      	ldr	r1, [r4, #16]
 8003740:	f504 7009 	add.w	r0, r4, #548	; 0x224
 8003744:	f7fe fd74 	bl	8002230 <st_dword>
			fs->winsect = fs->volbase + 1;
 8003748:	6a62      	ldr	r2, [r4, #36]	; 0x24
 800374a:	3201      	adds	r2, #1
 800374c:	6362      	str	r2, [r4, #52]	; 0x34
			disk_write(fs->pdrv, fs->win, fs->winsect, 1);
 800374e:	2301      	movs	r3, #1
 8003750:	4631      	mov	r1, r6
 8003752:	7860      	ldrb	r0, [r4, #1]
 8003754:	f7fe fd36 	bl	80021c4 <disk_write>
			fs->fsi_flag = 0;
 8003758:	2300      	movs	r3, #0
 800375a:	7123      	strb	r3, [r4, #4]
 800375c:	e7c7      	b.n	80036ee <sync_fs+0x12>
 800375e:	bf00      	nop
 8003760:	41615252 	.word	0x41615252
 8003764:	61417272 	.word	0x61417272

08003768 <create_partition>:
	BYTE drv,			/* Physical drive number */
	const LBA_t plst[],	/* Partition list */
	UINT sys,			/* System ID (for only MBR, temp setting) and bit8:GPT */
	BYTE* buf			/* Working buffer for a sector */
)
{
 8003768:	e92d 4ff0 	stmdb	sp!, {r4, r5, r6, r7, r8, r9, sl, fp, lr}
 800376c:	b085      	sub	sp, #20
 800376e:	9000      	str	r0, [sp, #0]
 8003770:	9101      	str	r1, [sp, #4]
 8003772:	4693      	mov	fp, r2
 8003774:	4699      	mov	r9, r3
	LBA_t sz_drv;
	DWORD sz_drv32, s_lba32, n_lba32;
	BYTE *pte, hd, n_hd, sc, n_sc;

	/* Get drive size */
	if (disk_ioctl(drv, GET_SECTOR_COUNT, &sz_drv) != RES_OK) return FR_DISK_ERR;
 8003776:	aa03      	add	r2, sp, #12
 8003778:	2101      	movs	r1, #1
 800377a:	f7fe fd35 	bl	80021e8 <disk_ioctl>
 800377e:	2800      	cmp	r0, #0
 8003780:	f040 8081 	bne.w	8003886 <create_partition+0x11e>
		if (disk_write(drv, buf, 0, 1) != RES_OK) return FR_DISK_ERR;

	} else
#endif
	{					/* Create partitions in MBR */
		sz_drv32 = (DWORD)sz_drv;
 8003784:	f8dd 800c 	ldr.w	r8, [sp, #12]
		n_sc = N_SEC_TRACK;		/* Determine drive CHS without any consideration of the drive geometry */
		for (n_hd = 8; n_hd != 0 && sz_drv32 / n_hd / n_sc > 1024; n_hd *= 2) ;
 8003788:	2408      	movs	r4, #8
 800378a:	b12c      	cbz	r4, 8003798 <create_partition+0x30>
 800378c:	fbb8 f2f4 	udiv	r2, r8, r4
 8003790:	f64f 433e 	movw	r3, #64574	; 0xfc3e
 8003794:	429a      	cmp	r2, r3
 8003796:	d824      	bhi.n	80037e2 <create_partition+0x7a>
		if (n_hd == 0) n_hd = 255;	/* Number of heads needs to be <256 */
 8003798:	b904      	cbnz	r4, 800379c <create_partition+0x34>
 800379a:	24ff      	movs	r4, #255	; 0xff

		mem_set(buf, 0, FF_MAX_SS);	/* Clear MBR */
 800379c:	f44f 7200 	mov.w	r2, #512	; 0x200
 80037a0:	2100      	movs	r1, #0
 80037a2:	4648      	mov	r0, r9
 80037a4:	f7fe fd57 	bl	8002256 <mem_set>
		pte = buf + MBR_Table;	/* Partition table in the MBR */
 80037a8:	f509 76df 	add.w	r6, r9, #446	; 0x1be
		for (i = 0, s_lba32 = n_sc; i < 4 && s_lba32 != 0 && s_lba32 < sz_drv32; i++, s_lba32 += n_lba32) {
 80037ac:	253f      	movs	r5, #63	; 0x3f
 80037ae:	f04f 0a00 	mov.w	sl, #0
 80037b2:	f1ba 0f03 	cmp.w	sl, #3
 80037b6:	d802      	bhi.n	80037be <create_partition+0x56>
 80037b8:	b10d      	cbz	r5, 80037be <create_partition+0x56>
 80037ba:	4545      	cmp	r5, r8
 80037bc:	d314      	bcc.n	80037e8 <create_partition+0x80>
			pte[PTE_EdCyl] = (BYTE)cy;

			pte += SZ_PTE;		/* Next entry */
		}

		st_word(buf + BS_55AA, 0xAA55);		/* MBR signature */
 80037be:	f64a 2155 	movw	r1, #43605	; 0xaa55
 80037c2:	f509 70ff 	add.w	r0, r9, #510	; 0x1fe
 80037c6:	f7fe fd2f 	bl	8002228 <st_word>
		if (disk_write(drv, buf, 0, 1) != RES_OK) return FR_DISK_ERR;	/* Write it to the MBR */
 80037ca:	2301      	movs	r3, #1
 80037cc:	2200      	movs	r2, #0
 80037ce:	4649      	mov	r1, r9
 80037d0:	9800      	ldr	r0, [sp, #0]
 80037d2:	f7fe fcf7 	bl	80021c4 <disk_write>
 80037d6:	2800      	cmp	r0, #0
 80037d8:	d057      	beq.n	800388a <create_partition+0x122>
 80037da:	2001      	movs	r0, #1
	}

	return FR_OK;
}
 80037dc:	b005      	add	sp, #20
 80037de:	e8bd 8ff0 	ldmia.w	sp!, {r4, r5, r6, r7, r8, r9, sl, fp, pc}
		for (n_hd = 8; n_hd != 0 && sz_drv32 / n_hd / n_sc > 1024; n_hd *= 2) ;
 80037e2:	0064      	lsls	r4, r4, #1
 80037e4:	b2e4      	uxtb	r4, r4
 80037e6:	e7d0      	b.n	800378a <create_partition+0x22>
			n_lba32 = (DWORD)plst[i];	/* Get partition size */
 80037e8:	9b01      	ldr	r3, [sp, #4]
 80037ea:	f853 702a 	ldr.w	r7, [r3, sl, lsl #2]
			if (n_lba32 <= 100) n_lba32 = (n_lba32 == 100) ? sz_drv32 : sz_drv32 / 100 * n_lba32;	/* Size in percentage? */
 80037ee:	2f64      	cmp	r7, #100	; 0x64
 80037f0:	d805      	bhi.n	80037fe <create_partition+0x96>
 80037f2:	d046      	beq.n	8003882 <create_partition+0x11a>
 80037f4:	2364      	movs	r3, #100	; 0x64
 80037f6:	fbb8 f3f3 	udiv	r3, r8, r3
 80037fa:	fb03 f707 	mul.w	r7, r3, r7
			if (s_lba32 + n_lba32 > sz_drv32 || s_lba32 + n_lba32 < s_lba32) n_lba32 = sz_drv32 - s_lba32;	/* Clip at drive size */
 80037fe:	19eb      	adds	r3, r5, r7
 8003800:	4543      	cmp	r3, r8
 8003802:	d801      	bhi.n	8003808 <create_partition+0xa0>
 8003804:	42ab      	cmp	r3, r5
 8003806:	d201      	bcs.n	800380c <create_partition+0xa4>
 8003808:	eba8 0705 	sub.w	r7, r8, r5
			if (n_lba32 == 0) break;	/* End of table or no sector to allocate? */
 800380c:	2f00      	cmp	r7, #0
 800380e:	d0d6      	beq.n	80037be <create_partition+0x56>
			st_dword(pte + PTE_StLba, s_lba32);		/* Start LBA */
 8003810:	4629      	mov	r1, r5
 8003812:	f106 0008 	add.w	r0, r6, #8
 8003816:	f7fe fd0b 	bl	8002230 <st_dword>
			st_dword(pte + PTE_SizLba, n_lba32);	/* Number of sectors */
 800381a:	4639      	mov	r1, r7
 800381c:	f106 000c 	add.w	r0, r6, #12
 8003820:	f7fe fd06 	bl	8002230 <st_dword>
			pte[PTE_System] = (BYTE)sys;			/* System type */
 8003824:	f886 b004 	strb.w	fp, [r6, #4]
			cy = (UINT)(s_lba32 / n_sc / n_hd);		/* Start cylinder */
 8003828:	223f      	movs	r2, #63	; 0x3f
 800382a:	fbb5 f3f2 	udiv	r3, r5, r2
 800382e:	fbb3 f1f4 	udiv	r1, r3, r4
			hd = (BYTE)(s_lba32 / n_sc % n_hd);		/* Start head */
 8003832:	fb04 3011 	mls	r0, r4, r1, r3
			sc = (BYTE)(s_lba32 % n_sc + 1);		/* Start sector */
 8003836:	ebc3 1383 	rsb	r3, r3, r3, lsl #6
 800383a:	1aeb      	subs	r3, r5, r3
 800383c:	b2db      	uxtb	r3, r3
 800383e:	3301      	adds	r3, #1
 8003840:	b2db      	uxtb	r3, r3
			pte[PTE_StHead] = hd;
 8003842:	7070      	strb	r0, [r6, #1]
			pte[PTE_StSec] = (BYTE)((cy >> 2 & 0xC0) | sc);
 8003844:	0888      	lsrs	r0, r1, #2
 8003846:	f000 00c0 	and.w	r0, r0, #192	; 0xc0
 800384a:	4303      	orrs	r3, r0
 800384c:	70b3      	strb	r3, [r6, #2]
			pte[PTE_StCyl] = (BYTE)cy;
 800384e:	70f1      	strb	r1, [r6, #3]
			cy = (UINT)((s_lba32 + n_lba32 - 1) / n_sc / n_hd);	/* End cylinder */
 8003850:	443d      	add	r5, r7
 8003852:	1e6b      	subs	r3, r5, #1
 8003854:	fbb3 f2f2 	udiv	r2, r3, r2
 8003858:	fbb2 f1f4 	udiv	r1, r2, r4
			hd = (BYTE)((s_lba32 + n_lba32 - 1) / n_sc % n_hd);	/* End head */
 800385c:	fb04 2011 	mls	r0, r4, r1, r2
			sc = (BYTE)((s_lba32 + n_lba32 - 1) % n_sc + 1);	/* End sector */
 8003860:	ebc2 1282 	rsb	r2, r2, r2, lsl #6
 8003864:	1a9b      	subs	r3, r3, r2
 8003866:	b2db      	uxtb	r3, r3
 8003868:	3301      	adds	r3, #1
 800386a:	b2db      	uxtb	r3, r3
			pte[PTE_EdHead] = hd;
 800386c:	7170      	strb	r0, [r6, #5]
			pte[PTE_EdSec] = (BYTE)((cy >> 2 & 0xC0) | sc);
 800386e:	088a      	lsrs	r2, r1, #2
 8003870:	f002 02c0 	and.w	r2, r2, #192	; 0xc0
 8003874:	4313      	orrs	r3, r2
 8003876:	71b3      	strb	r3, [r6, #6]
			pte[PTE_EdCyl] = (BYTE)cy;
 8003878:	71f1      	strb	r1, [r6, #7]
			pte += SZ_PTE;		/* Next entry */
 800387a:	3610      	adds	r6, #16
		for (i = 0, s_lba32 = n_sc; i < 4 && s_lba32 != 0 && s_lba32 < sz_drv32; i++, s_lba32 += n_lba32) {
 800387c:	f10a 0a01 	add.w	sl, sl, #1
 8003880:	e797      	b.n	80037b2 <create_partition+0x4a>
			if (n_lba32 <= 100) n_lba32 = (n_lba32 == 100) ? sz_drv32 : sz_drv32 / 100 * n_lba32;	/* Size in percentage? */
 8003882:	4647      	mov	r7, r8
 8003884:	e7bb      	b.n	80037fe <create_partition+0x96>
	if (disk_ioctl(drv, GET_SECTOR_COUNT, &sz_drv) != RES_OK) return FR_DISK_ERR;
 8003886:	2001      	movs	r0, #1
 8003888:	e7a8      	b.n	80037dc <create_partition+0x74>
	return FR_OK;
 800388a:	2000      	movs	r0, #0
 800388c:	e7a6      	b.n	80037dc <create_partition+0x74>
	...

08003890 <f_mount>:
{
 8003890:	b510      	push	{r4, lr}
 8003892:	b084      	sub	sp, #16
 8003894:	9001      	str	r0, [sp, #4]
 8003896:	9100      	str	r1, [sp, #0]
 8003898:	4614      	mov	r4, r2
	const TCHAR *rp = path;
 800389a:	a804      	add	r0, sp, #16
 800389c:	f840 1d04 	str.w	r1, [r0, #-4]!
	vol = get_ldnumber(&rp);
 80038a0:	f7fe fe48 	bl	8002534 <get_ldnumber>
	if (vol < 0) return FR_INVALID_DRIVE;
 80038a4:	2800      	cmp	r0, #0
 80038a6:	db17      	blt.n	80038d8 <f_mount+0x48>
	cfs = FatFs[vol];					/* Pointer to fs object */
 80038a8:	4b0c      	ldr	r3, [pc, #48]	; (80038dc <f_mount+0x4c>)
 80038aa:	f853 3020 	ldr.w	r3, [r3, r0, lsl #2]
	if (cfs) {
 80038ae:	b10b      	cbz	r3, 80038b4 <f_mount+0x24>
		cfs->fs_type = 0;				/* Clear old fs object */
 80038b0:	2200      	movs	r2, #0
 80038b2:	701a      	strb	r2, [r3, #0]
	if (fs) {
 80038b4:	9b01      	ldr	r3, [sp, #4]
 80038b6:	b10b      	cbz	r3, 80038bc <f_mount+0x2c>
		fs->fs_type = 0;				/* Clear new fs object */
 80038b8:	2200      	movs	r2, #0
 80038ba:	701a      	strb	r2, [r3, #0]
	FatFs[vol] = fs;					/* Register new fs object */
 80038bc:	4b07      	ldr	r3, [pc, #28]	; (80038dc <f_mount+0x4c>)
 80038be:	9a01      	ldr	r2, [sp, #4]
 80038c0:	f843 2020 	str.w	r2, [r3, r0, lsl #2]
	if (opt == 0) return FR_OK;			/* Do not mount now, it will be mounted later */
 80038c4:	b914      	cbnz	r4, 80038cc <f_mount+0x3c>
 80038c6:	2000      	movs	r0, #0
}
 80038c8:	b004      	add	sp, #16
 80038ca:	bd10      	pop	{r4, pc}
	res = mount_volume(&path, &fs, 0);	/* Force mounted the volume */
 80038cc:	2200      	movs	r2, #0
 80038ce:	a901      	add	r1, sp, #4
 80038d0:	4668      	mov	r0, sp
 80038d2:	f7fe ff5d 	bl	8002790 <mount_volume>
	LEAVE_FF(fs, res);
 80038d6:	e7f7      	b.n	80038c8 <f_mount+0x38>
	if (vol < 0) return FR_INVALID_DRIVE;
 80038d8:	200b      	movs	r0, #11
 80038da:	e7f5      	b.n	80038c8 <f_mount+0x38>
 80038dc:	20000214 	.word	0x20000214

080038e0 <f_open>:
{
 80038e0:	e92d 43f0 	stmdb	sp!, {r4, r5, r6, r7, r8, r9, lr}
 80038e4:	b091      	sub	sp, #68	; 0x44
 80038e6:	9101      	str	r1, [sp, #4]
	if (!fp) return FR_INVALID_OBJECT;
 80038e8:	2800      	cmp	r0, #0
 80038ea:	f000 80dd 	beq.w	8003aa8 <f_open+0x1c8>
 80038ee:	4604      	mov	r4, r0
 80038f0:	4616      	mov	r6, r2
	mode &= FF_FS_READONLY ? FA_READ : FA_READ | FA_WRITE | FA_CREATE_ALWAYS | FA_CREATE_NEW | FA_OPEN_ALWAYS | FA_OPEN_APPEND;
 80038f2:	f002 073f 	and.w	r7, r2, #63	; 0x3f
	res = mount_volume(&path, &fs, mode);
 80038f6:	463a      	mov	r2, r7
 80038f8:	a902      	add	r1, sp, #8
 80038fa:	a801      	add	r0, sp, #4
 80038fc:	f7fe ff48 	bl	8002790 <mount_volume>
	if (res == FR_OK) {
 8003900:	4605      	mov	r5, r0
 8003902:	b130      	cbz	r0, 8003912 <f_open+0x32>
	if (res != FR_OK) fp->obj.fs = 0;	/* Invalidate file object on error */
 8003904:	b10d      	cbz	r5, 800390a <f_open+0x2a>
 8003906:	2300      	movs	r3, #0
 8003908:	6023      	str	r3, [r4, #0]
}
 800390a:	4628      	mov	r0, r5
 800390c:	b011      	add	sp, #68	; 0x44
 800390e:	e8bd 83f0 	ldmia.w	sp!, {r4, r5, r6, r7, r8, r9, pc}
		dj.obj.fs = fs;
 8003912:	9b02      	ldr	r3, [sp, #8]
 8003914:	9303      	str	r3, [sp, #12]
		res = follow_path(&dj, path);	/* Follow the file path */
 8003916:	9901      	ldr	r1, [sp, #4]
 8003918:	a803      	add	r0, sp, #12
 800391a:	f7ff fe81 	bl	8003620 <follow_path>
		if (res == FR_OK) {
 800391e:	4605      	mov	r5, r0
 8003920:	b918      	cbnz	r0, 800392a <f_open+0x4a>
			if (dj.fn[NSFLAG] & NS_NONAME) {	/* Origin directory itself? */
 8003922:	f99d 3037 	ldrsb.w	r3, [sp, #55]	; 0x37
 8003926:	2b00      	cmp	r3, #0
 8003928:	db40      	blt.n	80039ac <f_open+0xcc>
		if (mode & (FA_CREATE_ALWAYS | FA_OPEN_ALWAYS | FA_CREATE_NEW)) {
 800392a:	f016 0f1c 	tst.w	r6, #28
 800392e:	d04e      	beq.n	80039ce <f_open+0xee>
			if (res != FR_OK) {					/* No file, create new */
 8003930:	2d00      	cmp	r5, #0
 8003932:	d042      	beq.n	80039ba <f_open+0xda>
				if (res == FR_NO_FILE) {		/* There is no file to open, create a new entry */
 8003934:	2d04      	cmp	r5, #4
 8003936:	d03b      	beq.n	80039b0 <f_open+0xd0>
				mode |= FA_CREATE_ALWAYS;		/* File is created */
 8003938:	f047 0708 	orr.w	r7, r7, #8
			if (res == FR_OK && (mode & FA_CREATE_ALWAYS)) {	/* Truncate the file if overwrite mode */
 800393c:	2d00      	cmp	r5, #0
 800393e:	d155      	bne.n	80039ec <f_open+0x10c>
 8003940:	f017 0f08 	tst.w	r7, #8
 8003944:	d052      	beq.n	80039ec <f_open+0x10c>
					cl = ld_clust(fs, dj.dir);			/* Get current cluster chain */
 8003946:	9e0a      	ldr	r6, [sp, #40]	; 0x28
 8003948:	4631      	mov	r1, r6
 800394a:	9802      	ldr	r0, [sp, #8]
 800394c:	f7fe fce2 	bl	8002314 <ld_clust>
 8003950:	4680      	mov	r8, r0
					st_dword(dj.dir + DIR_CrtTime, GET_FATTIME());	/* Set created time */
 8003952:	f7fe fb35 	bl	8001fc0 <get_fattime>
 8003956:	4601      	mov	r1, r0
 8003958:	f106 000e 	add.w	r0, r6, #14
 800395c:	f7fe fc68 	bl	8002230 <st_dword>
					dj.dir[DIR_Attr] = AM_ARC;			/* Reset attribute */
 8003960:	9b0a      	ldr	r3, [sp, #40]	; 0x28
 8003962:	2220      	movs	r2, #32
 8003964:	72da      	strb	r2, [r3, #11]
					st_clust(fs, dj.dir, 0);			/* Reset file allocation info */
 8003966:	2200      	movs	r2, #0
 8003968:	990a      	ldr	r1, [sp, #40]	; 0x28
 800396a:	9802      	ldr	r0, [sp, #8]
 800396c:	f7fe fce5 	bl	800233a <st_clust>
					st_dword(dj.dir + DIR_FileSize, 0);
 8003970:	2100      	movs	r1, #0
 8003972:	980a      	ldr	r0, [sp, #40]	; 0x28
 8003974:	301c      	adds	r0, #28
 8003976:	f7fe fc5b 	bl	8002230 <st_dword>
					fs->wflag = 1;
 800397a:	9b02      	ldr	r3, [sp, #8]
 800397c:	2201      	movs	r2, #1
 800397e:	70da      	strb	r2, [r3, #3]
					if (cl != 0) {						/* Remove the cluster chain if exist */
 8003980:	f1b8 0f00 	cmp.w	r8, #0
 8003984:	d032      	beq.n	80039ec <f_open+0x10c>
						sc = fs->winsect;
 8003986:	9b02      	ldr	r3, [sp, #8]
 8003988:	6b5e      	ldr	r6, [r3, #52]	; 0x34
						res = remove_chain(&dj.obj, cl, 0);
 800398a:	2200      	movs	r2, #0
 800398c:	4641      	mov	r1, r8
 800398e:	a803      	add	r0, sp, #12
 8003990:	f7ff fa16 	bl	8002dc0 <remove_chain>
						if (res == FR_OK) {
 8003994:	4605      	mov	r5, r0
 8003996:	bb48      	cbnz	r0, 80039ec <f_open+0x10c>
							res = move_window(fs, sc);
 8003998:	4631      	mov	r1, r6
 800399a:	9802      	ldr	r0, [sp, #8]
 800399c:	f7fe fe70 	bl	8002680 <move_window>
 80039a0:	4605      	mov	r5, r0
							fs->last_clst = cl - 1;		/* Reuse the cluster hole */
 80039a2:	f108 33ff 	add.w	r3, r8, #4294967295
 80039a6:	9a02      	ldr	r2, [sp, #8]
 80039a8:	6113      	str	r3, [r2, #16]
 80039aa:	e01f      	b.n	80039ec <f_open+0x10c>
				res = FR_INVALID_NAME;
 80039ac:	2506      	movs	r5, #6
 80039ae:	e7bc      	b.n	800392a <f_open+0x4a>
					res = dir_register(&dj);
 80039b0:	a803      	add	r0, sp, #12
 80039b2:	f7ff fc21 	bl	80031f8 <dir_register>
 80039b6:	4605      	mov	r5, r0
 80039b8:	e7be      	b.n	8003938 <f_open+0x58>
				if (dj.obj.attr & (AM_RDO | AM_DIR)) {	/* Cannot overwrite it (R/O or DIR) */
 80039ba:	f89d 3012 	ldrb.w	r3, [sp, #18]
 80039be:	f013 0f11 	tst.w	r3, #17
 80039c2:	d112      	bne.n	80039ea <f_open+0x10a>
					if (mode & FA_CREATE_NEW) res = FR_EXIST;	/* Cannot create as new file */
 80039c4:	f016 0f04 	tst.w	r6, #4
 80039c8:	d0b8      	beq.n	800393c <f_open+0x5c>
 80039ca:	2508      	movs	r5, #8
 80039cc:	e00e      	b.n	80039ec <f_open+0x10c>
			if (res == FR_OK) {					/* Is the object exsiting? */
 80039ce:	b96d      	cbnz	r5, 80039ec <f_open+0x10c>
				if (dj.obj.attr & AM_DIR) {		/* File open against a directory */
 80039d0:	f89d 3012 	ldrb.w	r3, [sp, #18]
 80039d4:	f013 0f10 	tst.w	r3, #16
 80039d8:	d13d      	bne.n	8003a56 <f_open+0x176>
					if ((mode & FA_WRITE) && (dj.obj.attr & AM_RDO)) { /* Write mode open against R/O file */
 80039da:	f016 0f02 	tst.w	r6, #2
 80039de:	d005      	beq.n	80039ec <f_open+0x10c>
 80039e0:	f013 0f01 	tst.w	r3, #1
 80039e4:	d002      	beq.n	80039ec <f_open+0x10c>
						res = FR_DENIED;
 80039e6:	2507      	movs	r5, #7
 80039e8:	e00b      	b.n	8003a02 <f_open+0x122>
					res = FR_DENIED;
 80039ea:	2507      	movs	r5, #7
		if (res == FR_OK) {
 80039ec:	b94d      	cbnz	r5, 8003a02 <f_open+0x122>
			if (mode & FA_CREATE_ALWAYS) mode |= FA_MODIFIED;	/* Set file change flag if created or overwritten */
 80039ee:	f017 0f08 	tst.w	r7, #8
 80039f2:	d001      	beq.n	80039f8 <f_open+0x118>
 80039f4:	f047 0740 	orr.w	r7, r7, #64	; 0x40
			fp->dir_sect = fs->winsect;			/* Pointer to the directory entry */
 80039f8:	9b02      	ldr	r3, [sp, #8]
 80039fa:	6b5b      	ldr	r3, [r3, #52]	; 0x34
 80039fc:	6223      	str	r3, [r4, #32]
			fp->dir_ptr = dj.dir;
 80039fe:	9b0a      	ldr	r3, [sp, #40]	; 0x28
 8003a00:	6263      	str	r3, [r4, #36]	; 0x24
		if (res == FR_OK) {
 8003a02:	2d00      	cmp	r5, #0
 8003a04:	f47f af7e 	bne.w	8003904 <f_open+0x24>
				fp->obj.sclust = ld_clust(fs, dj.dir);					/* Get object allocation info */
 8003a08:	f8dd 9008 	ldr.w	r9, [sp, #8]
 8003a0c:	f8dd 8028 	ldr.w	r8, [sp, #40]	; 0x28
 8003a10:	4641      	mov	r1, r8
 8003a12:	4648      	mov	r0, r9
 8003a14:	f7fe fc7e 	bl	8002314 <ld_clust>
 8003a18:	4606      	mov	r6, r0
 8003a1a:	60a0      	str	r0, [r4, #8]
				fp->obj.objsize = ld_dword(dj.dir + DIR_FileSize);
 8003a1c:	f108 001c 	add.w	r0, r8, #28
 8003a20:	f7fe fbf7 	bl	8002212 <ld_dword>
 8003a24:	4680      	mov	r8, r0
 8003a26:	60e0      	str	r0, [r4, #12]
			fp->cltbl = 0;			/* Disable fast seek mode */
 8003a28:	2300      	movs	r3, #0
 8003a2a:	62a3      	str	r3, [r4, #40]	; 0x28
			fp->obj.fs = fs;	 	/* Validate the file object */
 8003a2c:	f8c4 9000 	str.w	r9, [r4]
			fp->obj.id = fs->id;
 8003a30:	f8b9 2006 	ldrh.w	r2, [r9, #6]
 8003a34:	80a2      	strh	r2, [r4, #4]
			fp->flag = mode;		/* Set file access mode */
 8003a36:	7427      	strb	r7, [r4, #16]
			fp->err = 0;			/* Clear error flag */
 8003a38:	7463      	strb	r3, [r4, #17]
			fp->sect = 0;			/* Invalidate current data sector */
 8003a3a:	61e3      	str	r3, [r4, #28]
			fp->fptr = 0;			/* Set file pointer top of the file */
 8003a3c:	6163      	str	r3, [r4, #20]
			if ((mode & FA_SEEKEND) && fp->obj.objsize > 0) {	/* Seek to end of file if FA_OPEN_APPEND is specified */
 8003a3e:	f017 0f20 	tst.w	r7, #32
 8003a42:	f43f af5f 	beq.w	8003904 <f_open+0x24>
 8003a46:	2800      	cmp	r0, #0
 8003a48:	f43f af5c 	beq.w	8003904 <f_open+0x24>
				fp->fptr = fp->obj.objsize;			/* Offset to seek */
 8003a4c:	6160      	str	r0, [r4, #20]
				bcs = (DWORD)fs->csize * SS(fs);	/* Cluster size in byte */
 8003a4e:	f8b9 700a 	ldrh.w	r7, [r9, #10]
 8003a52:	027f      	lsls	r7, r7, #9
				for (ofs = fp->obj.objsize; res == FR_OK && ofs > bcs; ofs -= bcs) {
 8003a54:	e006      	b.n	8003a64 <f_open+0x184>
					res = FR_NO_FILE;
 8003a56:	2504      	movs	r5, #4
 8003a58:	e7d3      	b.n	8003a02 <f_open+0x122>
					if (clst == 0xFFFFFFFF) res = FR_DISK_ERR;
 8003a5a:	f1b6 3fff 	cmp.w	r6, #4294967295
 8003a5e:	d00d      	beq.n	8003a7c <f_open+0x19c>
				for (ofs = fp->obj.objsize; res == FR_OK && ofs > bcs; ofs -= bcs) {
 8003a60:	eba8 0807 	sub.w	r8, r8, r7
 8003a64:	b965      	cbnz	r5, 8003a80 <f_open+0x1a0>
 8003a66:	45b8      	cmp	r8, r7
 8003a68:	d90a      	bls.n	8003a80 <f_open+0x1a0>
					clst = get_fat(&fp->obj, clst);
 8003a6a:	4631      	mov	r1, r6
 8003a6c:	4620      	mov	r0, r4
 8003a6e:	f7ff f86c 	bl	8002b4a <get_fat>
 8003a72:	4606      	mov	r6, r0
					if (clst <= 1) res = FR_INT_ERR;
 8003a74:	2801      	cmp	r0, #1
 8003a76:	d8f0      	bhi.n	8003a5a <f_open+0x17a>
 8003a78:	2502      	movs	r5, #2
 8003a7a:	e7ee      	b.n	8003a5a <f_open+0x17a>
					if (clst == 0xFFFFFFFF) res = FR_DISK_ERR;
 8003a7c:	2501      	movs	r5, #1
 8003a7e:	e7ef      	b.n	8003a60 <f_open+0x180>
				fp->clust = clst;
 8003a80:	61a6      	str	r6, [r4, #24]
				if (res == FR_OK && ofs % SS(fs)) {	/* Fill sector buffer if not on the sector boundary */
 8003a82:	2d00      	cmp	r5, #0
 8003a84:	f47f af3e 	bne.w	8003904 <f_open+0x24>
 8003a88:	f3c8 0308 	ubfx	r3, r8, #0, #9
 8003a8c:	2b00      	cmp	r3, #0
 8003a8e:	f43f af39 	beq.w	8003904 <f_open+0x24>
					sc = clst2sect(fs, clst);
 8003a92:	4631      	mov	r1, r6
 8003a94:	9802      	ldr	r0, [sp, #8]
 8003a96:	f7fe fc20 	bl	80022da <clst2sect>
					if (sc == 0) {
 8003a9a:	b118      	cbz	r0, 8003aa4 <f_open+0x1c4>
						fp->sect = sc + (DWORD)(ofs / SS(fs));
 8003a9c:	eb00 2358 	add.w	r3, r0, r8, lsr #9
 8003aa0:	61e3      	str	r3, [r4, #28]
 8003aa2:	e72f      	b.n	8003904 <f_open+0x24>
						res = FR_INT_ERR;
 8003aa4:	2502      	movs	r5, #2
 8003aa6:	e72e      	b.n	8003906 <f_open+0x26>
	if (!fp) return FR_INVALID_OBJECT;
 8003aa8:	2509      	movs	r5, #9
 8003aaa:	e72e      	b.n	800390a <f_open+0x2a>

08003aac <f_write>:
{
 8003aac:	e92d 4ff0 	stmdb	sp!, {r4, r5, r6, r7, r8, r9, sl, fp, lr}
 8003ab0:	b085      	sub	sp, #20
 8003ab2:	4605      	mov	r5, r0
 8003ab4:	468a      	mov	sl, r1
 8003ab6:	4616      	mov	r6, r2
 8003ab8:	4699      	mov	r9, r3
	*bw = 0;	/* Clear write byte counter */
 8003aba:	2300      	movs	r3, #0
 8003abc:	f8c9 3000 	str.w	r3, [r9]
	res = validate(&fp->obj, &fs);			/* Check validity of the file object */
 8003ac0:	9000      	str	r0, [sp, #0]
 8003ac2:	a903      	add	r1, sp, #12
 8003ac4:	f7fe fd90 	bl	80025e8 <validate>
	if (res != FR_OK || (res = (FRESULT)fp->err) != FR_OK) LEAVE_FF(fs, res);	/* Check validity */
 8003ac8:	4607      	mov	r7, r0
 8003aca:	2800      	cmp	r0, #0
 8003acc:	d142      	bne.n	8003b54 <f_write+0xa8>
 8003ace:	7c6f      	ldrb	r7, [r5, #17]
 8003ad0:	2f00      	cmp	r7, #0
 8003ad2:	d13f      	bne.n	8003b54 <f_write+0xa8>
	if (!(fp->flag & FA_WRITE)) LEAVE_FF(fs, FR_DENIED);	/* Check access mode */
 8003ad4:	7c2b      	ldrb	r3, [r5, #16]
 8003ad6:	f013 0f02 	tst.w	r3, #2
 8003ada:	f000 80c4 	beq.w	8003c66 <f_write+0x1ba>
	if ((!FF_FS_EXFAT || fs->fs_type != FS_EXFAT) && (DWORD)(fp->fptr + btw) < (DWORD)fp->fptr) {
 8003ade:	696b      	ldr	r3, [r5, #20]
 8003ae0:	42f3      	cmn	r3, r6
 8003ae2:	f0c0 8093 	bcc.w	8003c0c <f_write+0x160>
		btw = (UINT)(0xFFFFFFFF - (DWORD)fp->fptr);
 8003ae6:	43de      	mvns	r6, r3
 8003ae8:	e090      	b.n	8003c0c <f_write+0x160>
					if (fp->cltbl) {
 8003aea:	6aab      	ldr	r3, [r5, #40]	; 0x28
 8003aec:	2b00      	cmp	r3, #0
 8003aee:	d035      	beq.n	8003b5c <f_write+0xb0>
						clst = clmt_clust(fp, fp->fptr);	/* Get cluster# from the CLMT */
 8003af0:	4628      	mov	r0, r5
 8003af2:	f7fe fbfe 	bl	80022f2 <clmt_clust>
				if (clst == 0) break;		/* Could not allocate a new cluster (disk full) */
 8003af6:	2800      	cmp	r0, #0
 8003af8:	f000 80b0 	beq.w	8003c5c <f_write+0x1b0>
				if (clst == 1) ABORT(fs, FR_INT_ERR);
 8003afc:	2801      	cmp	r0, #1
 8003afe:	d032      	beq.n	8003b66 <f_write+0xba>
				if (clst == 0xFFFFFFFF) ABORT(fs, FR_DISK_ERR);
 8003b00:	f1b0 3fff 	cmp.w	r0, #4294967295
 8003b04:	d032      	beq.n	8003b6c <f_write+0xc0>
				fp->clust = clst;			/* Update current cluster */
 8003b06:	61a8      	str	r0, [r5, #24]
				if (fp->obj.sclust == 0) fp->obj.sclust = clst;	/* Set start cluster if the first write */
 8003b08:	68ab      	ldr	r3, [r5, #8]
 8003b0a:	b903      	cbnz	r3, 8003b0e <f_write+0x62>
 8003b0c:	60a8      	str	r0, [r5, #8]
			if (fs->winsect == fp->sect && sync_window(fs) != FR_OK) ABORT(fs, FR_DISK_ERR);	/* Write-back sector cache */
 8003b0e:	9803      	ldr	r0, [sp, #12]
 8003b10:	6b42      	ldr	r2, [r0, #52]	; 0x34
 8003b12:	69eb      	ldr	r3, [r5, #28]
 8003b14:	429a      	cmp	r2, r3
 8003b16:	d02c      	beq.n	8003b72 <f_write+0xc6>
			sect = clst2sect(fs, fp->clust);	/* Get current sector */
 8003b18:	f8dd b00c 	ldr.w	fp, [sp, #12]
 8003b1c:	69a9      	ldr	r1, [r5, #24]
 8003b1e:	4658      	mov	r0, fp
 8003b20:	f7fe fbdb 	bl	80022da <clst2sect>
			if (sect == 0) ABORT(fs, FR_INT_ERR);
 8003b24:	b360      	cbz	r0, 8003b80 <f_write+0xd4>
			sect += csect;
 8003b26:	eb08 0300 	add.w	r3, r8, r0
 8003b2a:	9301      	str	r3, [sp, #4]
			if (cc > 0) {					/* Write maximum contiguous sectors directly */
 8003b2c:	0a74      	lsrs	r4, r6, #9
 8003b2e:	d03d      	beq.n	8003bac <f_write+0x100>
				if (csect + cc > fs->csize) {	/* Clip at cluster boundary */
 8003b30:	eb08 0304 	add.w	r3, r8, r4
 8003b34:	f8bb 200a 	ldrh.w	r2, [fp, #10]
 8003b38:	4293      	cmp	r3, r2
 8003b3a:	d901      	bls.n	8003b40 <f_write+0x94>
					cc = fs->csize - csect;
 8003b3c:	eba2 0408 	sub.w	r4, r2, r8
				if (disk_write(fs->pdrv, wbuff, sect, cc) != RES_OK) ABORT(fs, FR_DISK_ERR);
 8003b40:	4623      	mov	r3, r4
 8003b42:	9a01      	ldr	r2, [sp, #4]
 8003b44:	4651      	mov	r1, sl
 8003b46:	f89b 0001 	ldrb.w	r0, [fp, #1]
 8003b4a:	f7fe fb3b 	bl	80021c4 <disk_write>
 8003b4e:	b1d0      	cbz	r0, 8003b86 <f_write+0xda>
 8003b50:	2701      	movs	r7, #1
 8003b52:	746f      	strb	r7, [r5, #17]
}
 8003b54:	4638      	mov	r0, r7
 8003b56:	b005      	add	sp, #20
 8003b58:	e8bd 8ff0 	ldmia.w	sp!, {r4, r5, r6, r7, r8, r9, sl, fp, pc}
						clst = create_chain(&fp->obj, fp->clust);	/* Follow or stretch cluster chain on the FAT */
 8003b5c:	69a9      	ldr	r1, [r5, #24]
 8003b5e:	9800      	ldr	r0, [sp, #0]
 8003b60:	f7ff f8ac 	bl	8002cbc <create_chain>
 8003b64:	e7c7      	b.n	8003af6 <f_write+0x4a>
				if (clst == 1) ABORT(fs, FR_INT_ERR);
 8003b66:	2702      	movs	r7, #2
 8003b68:	746f      	strb	r7, [r5, #17]
 8003b6a:	e7f3      	b.n	8003b54 <f_write+0xa8>
				if (clst == 0xFFFFFFFF) ABORT(fs, FR_DISK_ERR);
 8003b6c:	2701      	movs	r7, #1
 8003b6e:	746f      	strb	r7, [r5, #17]
 8003b70:	e7f0      	b.n	8003b54 <f_write+0xa8>
			if (fs->winsect == fp->sect && sync_window(fs) != FR_OK) ABORT(fs, FR_DISK_ERR);	/* Write-back sector cache */
 8003b72:	f7fe fd5d 	bl	8002630 <sync_window>
 8003b76:	2800      	cmp	r0, #0
 8003b78:	d0ce      	beq.n	8003b18 <f_write+0x6c>
 8003b7a:	2701      	movs	r7, #1
 8003b7c:	746f      	strb	r7, [r5, #17]
 8003b7e:	e7e9      	b.n	8003b54 <f_write+0xa8>
			if (sect == 0) ABORT(fs, FR_INT_ERR);
 8003b80:	2702      	movs	r7, #2
 8003b82:	746f      	strb	r7, [r5, #17]
 8003b84:	e7e6      	b.n	8003b54 <f_write+0xa8>
				if (fs->winsect - sect < cc) {	/* Refill sector cache if it gets invalidated by the direct write */
 8003b86:	9803      	ldr	r0, [sp, #12]
 8003b88:	6b41      	ldr	r1, [r0, #52]	; 0x34
 8003b8a:	9b01      	ldr	r3, [sp, #4]
 8003b8c:	1ac9      	subs	r1, r1, r3
 8003b8e:	42a1      	cmp	r1, r4
 8003b90:	d301      	bcc.n	8003b96 <f_write+0xea>
				wcnt = SS(fs) * cc;		/* Number of bytes transferred */
 8003b92:	0264      	lsls	r4, r4, #9
				continue;
 8003b94:	e02b      	b.n	8003bee <f_write+0x142>
					mem_cpy(fs->win, wbuff + ((fs->winsect - sect) * SS(fs)), SS(fs));
 8003b96:	f44f 7200 	mov.w	r2, #512	; 0x200
 8003b9a:	eb0a 2141 	add.w	r1, sl, r1, lsl #9
 8003b9e:	3038      	adds	r0, #56	; 0x38
 8003ba0:	f7fe fb50 	bl	8002244 <mem_cpy>
					fs->wflag = 0;
 8003ba4:	9b03      	ldr	r3, [sp, #12]
 8003ba6:	2200      	movs	r2, #0
 8003ba8:	70da      	strb	r2, [r3, #3]
 8003baa:	e7f2      	b.n	8003b92 <f_write+0xe6>
			if (fp->fptr >= fp->obj.objsize) {	/* Avoid silly cache filling on the growing edge */
 8003bac:	696a      	ldr	r2, [r5, #20]
 8003bae:	68eb      	ldr	r3, [r5, #12]
 8003bb0:	429a      	cmp	r2, r3
 8003bb2:	d245      	bcs.n	8003c40 <f_write+0x194>
			fp->sect = sect;
 8003bb4:	9b01      	ldr	r3, [sp, #4]
 8003bb6:	61eb      	str	r3, [r5, #28]
		wcnt = SS(fs) - (UINT)fp->fptr % SS(fs);	/* Number of bytes remains in the sector */
 8003bb8:	696c      	ldr	r4, [r5, #20]
 8003bba:	f3c4 0408 	ubfx	r4, r4, #0, #9
 8003bbe:	f5c4 7400 	rsb	r4, r4, #512	; 0x200
		if (wcnt > btw) wcnt = btw;					/* Clip it by btw if needed */
 8003bc2:	42a6      	cmp	r6, r4
 8003bc4:	d200      	bcs.n	8003bc8 <f_write+0x11c>
 8003bc6:	4634      	mov	r4, r6
		if (move_window(fs, fp->sect) != FR_OK) ABORT(fs, FR_DISK_ERR);	/* Move sector window */
 8003bc8:	69e9      	ldr	r1, [r5, #28]
 8003bca:	9803      	ldr	r0, [sp, #12]
 8003bcc:	f7fe fd58 	bl	8002680 <move_window>
 8003bd0:	2800      	cmp	r0, #0
 8003bd2:	d140      	bne.n	8003c56 <f_write+0x1aa>
		mem_cpy(fs->win + fp->fptr % SS(fs), wbuff, wcnt);	/* Fit data to the sector */
 8003bd4:	9803      	ldr	r0, [sp, #12]
 8003bd6:	3038      	adds	r0, #56	; 0x38
 8003bd8:	696b      	ldr	r3, [r5, #20]
 8003bda:	f3c3 0308 	ubfx	r3, r3, #0, #9
 8003bde:	4622      	mov	r2, r4
 8003be0:	4651      	mov	r1, sl
 8003be2:	4418      	add	r0, r3
 8003be4:	f7fe fb2e 	bl	8002244 <mem_cpy>
		fs->wflag = 1;
 8003be8:	9b03      	ldr	r3, [sp, #12]
 8003bea:	2201      	movs	r2, #1
 8003bec:	70da      	strb	r2, [r3, #3]
		btw -= wcnt, *bw += wcnt, wbuff += wcnt, fp->fptr += wcnt, fp->obj.objsize = (fp->fptr > fp->obj.objsize) ? fp->fptr : fp->obj.objsize) {
 8003bee:	1b36      	subs	r6, r6, r4
 8003bf0:	f8d9 3000 	ldr.w	r3, [r9]
 8003bf4:	4423      	add	r3, r4
 8003bf6:	f8c9 3000 	str.w	r3, [r9]
 8003bfa:	44a2      	add	sl, r4
 8003bfc:	696b      	ldr	r3, [r5, #20]
 8003bfe:	441c      	add	r4, r3
 8003c00:	616c      	str	r4, [r5, #20]
 8003c02:	68eb      	ldr	r3, [r5, #12]
 8003c04:	429c      	cmp	r4, r3
 8003c06:	bf38      	it	cc
 8003c08:	461c      	movcc	r4, r3
 8003c0a:	60ec      	str	r4, [r5, #12]
	for ( ;  btw;							/* Repeat until all data written */
 8003c0c:	b336      	cbz	r6, 8003c5c <f_write+0x1b0>
		if (fp->fptr % SS(fs) == 0) {		/* On the sector boundary? */
 8003c0e:	6969      	ldr	r1, [r5, #20]
 8003c10:	f3c1 0308 	ubfx	r3, r1, #0, #9
 8003c14:	2b00      	cmp	r3, #0
 8003c16:	d1cf      	bne.n	8003bb8 <f_write+0x10c>
			csect = (UINT)(fp->fptr / SS(fs)) & (fs->csize - 1);	/* Sector offset in the cluster */
 8003c18:	9b03      	ldr	r3, [sp, #12]
 8003c1a:	f8b3 800a 	ldrh.w	r8, [r3, #10]
 8003c1e:	f108 38ff 	add.w	r8, r8, #4294967295
			if (csect == 0) {				/* On the cluster boundary? */
 8003c22:	ea18 2851 	ands.w	r8, r8, r1, lsr #9
 8003c26:	f47f af72 	bne.w	8003b0e <f_write+0x62>
				if (fp->fptr == 0) {		/* On the top of the file? */
 8003c2a:	2900      	cmp	r1, #0
 8003c2c:	f47f af5d 	bne.w	8003aea <f_write+0x3e>
					clst = fp->obj.sclust;	/* Follow from the origin */
 8003c30:	68a8      	ldr	r0, [r5, #8]
					if (clst == 0) {		/* If no cluster is allocated, */
 8003c32:	2800      	cmp	r0, #0
 8003c34:	f47f af5f 	bne.w	8003af6 <f_write+0x4a>
						clst = create_chain(&fp->obj, 0);	/* create a new cluster chain */
 8003c38:	9800      	ldr	r0, [sp, #0]
 8003c3a:	f7ff f83f 	bl	8002cbc <create_chain>
 8003c3e:	e75a      	b.n	8003af6 <f_write+0x4a>
				if (sync_window(fs) != FR_OK) ABORT(fs, FR_DISK_ERR);
 8003c40:	4658      	mov	r0, fp
 8003c42:	f7fe fcf5 	bl	8002630 <sync_window>
 8003c46:	b918      	cbnz	r0, 8003c50 <f_write+0x1a4>
				fs->winsect = sect;
 8003c48:	9b03      	ldr	r3, [sp, #12]
 8003c4a:	9a01      	ldr	r2, [sp, #4]
 8003c4c:	635a      	str	r2, [r3, #52]	; 0x34
 8003c4e:	e7b1      	b.n	8003bb4 <f_write+0x108>
				if (sync_window(fs) != FR_OK) ABORT(fs, FR_DISK_ERR);
 8003c50:	2701      	movs	r7, #1
 8003c52:	746f      	strb	r7, [r5, #17]
 8003c54:	e77e      	b.n	8003b54 <f_write+0xa8>
		if (move_window(fs, fp->sect) != FR_OK) ABORT(fs, FR_DISK_ERR);	/* Move sector window */
 8003c56:	2701      	movs	r7, #1
 8003c58:	746f      	strb	r7, [r5, #17]
 8003c5a:	e77b      	b.n	8003b54 <f_write+0xa8>
	fp->flag |= FA_MODIFIED;				/* Set file change flag */
 8003c5c:	7c2b      	ldrb	r3, [r5, #16]
 8003c5e:	f043 0340 	orr.w	r3, r3, #64	; 0x40
 8003c62:	742b      	strb	r3, [r5, #16]
	LEAVE_FF(fs, FR_OK);
 8003c64:	e776      	b.n	8003b54 <f_write+0xa8>
	if (!(fp->flag & FA_WRITE)) LEAVE_FF(fs, FR_DENIED);	/* Check access mode */
 8003c66:	2707      	movs	r7, #7
 8003c68:	e774      	b.n	8003b54 <f_write+0xa8>

08003c6a <f_sync>:
{
 8003c6a:	b570      	push	{r4, r5, r6, lr}
 8003c6c:	b082      	sub	sp, #8
 8003c6e:	4604      	mov	r4, r0
	res = validate(&fp->obj, &fs);	/* Check validity of the file object */
 8003c70:	a901      	add	r1, sp, #4
 8003c72:	f7fe fcb9 	bl	80025e8 <validate>
	if (res == FR_OK) {
 8003c76:	4603      	mov	r3, r0
 8003c78:	b918      	cbnz	r0, 8003c82 <f_sync+0x18>
		if (fp->flag & FA_MODIFIED) {	/* Is there any change to the file? */
 8003c7a:	7c22      	ldrb	r2, [r4, #16]
 8003c7c:	f012 0f40 	tst.w	r2, #64	; 0x40
 8003c80:	d102      	bne.n	8003c88 <f_sync+0x1e>
}
 8003c82:	4618      	mov	r0, r3
 8003c84:	b002      	add	sp, #8
 8003c86:	bd70      	pop	{r4, r5, r6, pc}
			tm = GET_FATTIME();				/* Modified time */
 8003c88:	f7fe f99a 	bl	8001fc0 <get_fattime>
 8003c8c:	4606      	mov	r6, r0
				res = move_window(fs, fp->dir_sect);
 8003c8e:	6a21      	ldr	r1, [r4, #32]
 8003c90:	9801      	ldr	r0, [sp, #4]
 8003c92:	f7fe fcf5 	bl	8002680 <move_window>
				if (res == FR_OK) {
 8003c96:	4603      	mov	r3, r0
 8003c98:	2800      	cmp	r0, #0
 8003c9a:	d1f2      	bne.n	8003c82 <f_sync+0x18>
					dir = fp->dir_ptr;
 8003c9c:	6a65      	ldr	r5, [r4, #36]	; 0x24
					dir[DIR_Attr] |= AM_ARC;						/* Set archive attribute to indicate that the file has been changed */
 8003c9e:	7aeb      	ldrb	r3, [r5, #11]
 8003ca0:	f043 0320 	orr.w	r3, r3, #32
 8003ca4:	72eb      	strb	r3, [r5, #11]
					st_clust(fp->obj.fs, dir, fp->obj.sclust);		/* Update file allocation information  */
 8003ca6:	68a2      	ldr	r2, [r4, #8]
 8003ca8:	4629      	mov	r1, r5
 8003caa:	6820      	ldr	r0, [r4, #0]
 8003cac:	f7fe fb45 	bl	800233a <st_clust>
					st_dword(dir + DIR_FileSize, (DWORD)fp->obj.objsize);	/* Update file size */
 8003cb0:	68e1      	ldr	r1, [r4, #12]
 8003cb2:	f105 001c 	add.w	r0, r5, #28
 8003cb6:	f7fe fabb 	bl	8002230 <st_dword>
					st_dword(dir + DIR_ModTime, tm);				/* Update modified time */
 8003cba:	4631      	mov	r1, r6
 8003cbc:	f105 0016 	add.w	r0, r5, #22
 8003cc0:	f7fe fab6 	bl	8002230 <st_dword>
					st_word(dir + DIR_LstAccDate, 0);
 8003cc4:	2100      	movs	r1, #0
 8003cc6:	f105 0012 	add.w	r0, r5, #18
 8003cca:	f7fe faad 	bl	8002228 <st_word>
					fs->wflag = 1;
 8003cce:	9b01      	ldr	r3, [sp, #4]
 8003cd0:	2201      	movs	r2, #1
 8003cd2:	70da      	strb	r2, [r3, #3]
					res = sync_fs(fs);					/* Restore it to the directory */
 8003cd4:	9801      	ldr	r0, [sp, #4]
 8003cd6:	f7ff fd01 	bl	80036dc <sync_fs>
 8003cda:	4603      	mov	r3, r0
					fp->flag &= (BYTE)~FA_MODIFIED;
 8003cdc:	7c22      	ldrb	r2, [r4, #16]
 8003cde:	f022 0240 	bic.w	r2, r2, #64	; 0x40
 8003ce2:	7422      	strb	r2, [r4, #16]
 8003ce4:	e7cd      	b.n	8003c82 <f_sync+0x18>

08003ce6 <f_close>:
{
 8003ce6:	b510      	push	{r4, lr}
 8003ce8:	b082      	sub	sp, #8
 8003cea:	4604      	mov	r4, r0
	res = f_sync(fp);					/* Flush cached data */
 8003cec:	f7ff ffbd 	bl	8003c6a <f_sync>
	if (res == FR_OK)
 8003cf0:	4603      	mov	r3, r0
 8003cf2:	b110      	cbz	r0, 8003cfa <f_close+0x14>
}
 8003cf4:	4618      	mov	r0, r3
 8003cf6:	b002      	add	sp, #8
 8003cf8:	bd10      	pop	{r4, pc}
		res = validate(&fp->obj, &fs);	/* Lock volume */
 8003cfa:	a901      	add	r1, sp, #4
 8003cfc:	4620      	mov	r0, r4
 8003cfe:	f7fe fc73 	bl	80025e8 <validate>
		if (res == FR_OK) {
 8003d02:	4603      	mov	r3, r0
 8003d04:	2800      	cmp	r0, #0
 8003d06:	d1f5      	bne.n	8003cf4 <f_close+0xe>
			fp->obj.fs = 0;	/* Invalidate file object */
 8003d08:	2200      	movs	r2, #0
 8003d0a:	6022      	str	r2, [r4, #0]
 8003d0c:	e7f2      	b.n	8003cf4 <f_close+0xe>
	...

08003d10 <f_chdrive>:
{
 8003d10:	b500      	push	{lr}
 8003d12:	b083      	sub	sp, #12
 8003d14:	ab02      	add	r3, sp, #8
 8003d16:	f843 0d04 	str.w	r0, [r3, #-4]!
	vol = get_ldnumber(&path);
 8003d1a:	4618      	mov	r0, r3
 8003d1c:	f7fe fc0a 	bl	8002534 <get_ldnumber>
	if (vol < 0) return FR_INVALID_DRIVE;
 8003d20:	2800      	cmp	r0, #0
 8003d22:	db05      	blt.n	8003d30 <f_chdrive+0x20>
	CurrVol = (BYTE)vol;	/* Set it as current volume */
 8003d24:	4b03      	ldr	r3, [pc, #12]	; (8003d34 <f_chdrive+0x24>)
 8003d26:	7018      	strb	r0, [r3, #0]
	return FR_OK;
 8003d28:	2000      	movs	r0, #0
}
 8003d2a:	b003      	add	sp, #12
 8003d2c:	f85d fb04 	ldr.w	pc, [sp], #4
	if (vol < 0) return FR_INVALID_DRIVE;
 8003d30:	200b      	movs	r0, #11
 8003d32:	e7fa      	b.n	8003d2a <f_chdrive+0x1a>
 8003d34:	20000210 	.word	0x20000210

08003d38 <f_getfree>:
{
 8003d38:	e92d 47f0 	stmdb	sp!, {r4, r5, r6, r7, r8, r9, sl, lr}
 8003d3c:	b088      	sub	sp, #32
 8003d3e:	9001      	str	r0, [sp, #4]
 8003d40:	4689      	mov	r9, r1
 8003d42:	4614      	mov	r4, r2
	res = mount_volume(&path, &fs, 0);
 8003d44:	2200      	movs	r2, #0
 8003d46:	a907      	add	r1, sp, #28
 8003d48:	a801      	add	r0, sp, #4
 8003d4a:	f7fe fd21 	bl	8002790 <mount_volume>
	if (res == FR_OK) {
 8003d4e:	4607      	mov	r7, r0
 8003d50:	2800      	cmp	r0, #0
 8003d52:	d156      	bne.n	8003e02 <f_getfree+0xca>
		*fatfs = fs;				/* Return ptr to the fs object */
 8003d54:	9b07      	ldr	r3, [sp, #28]
 8003d56:	6023      	str	r3, [r4, #0]
		if (fs->free_clst <= fs->n_fatent - 2) {
 8003d58:	695a      	ldr	r2, [r3, #20]
 8003d5a:	69dd      	ldr	r5, [r3, #28]
 8003d5c:	1ea9      	subs	r1, r5, #2
 8003d5e:	428a      	cmp	r2, r1
 8003d60:	d907      	bls.n	8003d72 <f_getfree+0x3a>
			if (fs->fs_type == FS_FAT12) {	/* FAT12: Scan bit field FAT entries */
 8003d62:	781a      	ldrb	r2, [r3, #0]
 8003d64:	2a01      	cmp	r2, #1
 8003d66:	d007      	beq.n	8003d78 <f_getfree+0x40>
					sect = fs->fatbase;		/* Top of the FAT */
 8003d68:	f8d3 8028 	ldr.w	r8, [r3, #40]	; 0x28
					i = 0;					/* Offset in the sector */
 8003d6c:	2400      	movs	r4, #0
			nfree = 0;
 8003d6e:	4626      	mov	r6, r4
 8003d70:	e02f      	b.n	8003dd2 <f_getfree+0x9a>
			*nclst = fs->free_clst;
 8003d72:	f8c9 2000 	str.w	r2, [r9]
 8003d76:	e044      	b.n	8003e02 <f_getfree+0xca>
				clst = 2; obj.fs = fs;
 8003d78:	9303      	str	r3, [sp, #12]
 8003d7a:	2402      	movs	r4, #2
			nfree = 0;
 8003d7c:	2600      	movs	r6, #0
 8003d7e:	e004      	b.n	8003d8a <f_getfree+0x52>
				} while (++clst < fs->n_fatent);
 8003d80:	3401      	adds	r4, #1
 8003d82:	9b07      	ldr	r3, [sp, #28]
 8003d84:	69db      	ldr	r3, [r3, #28]
 8003d86:	42a3      	cmp	r3, r4
 8003d88:	d933      	bls.n	8003df2 <f_getfree+0xba>
					stat = get_fat(&obj, clst);
 8003d8a:	4621      	mov	r1, r4
 8003d8c:	a803      	add	r0, sp, #12
 8003d8e:	f7fe fedc 	bl	8002b4a <get_fat>
					if (stat == 0xFFFFFFFF) { res = FR_DISK_ERR; break; }
 8003d92:	f1b0 3fff 	cmp.w	r0, #4294967295
 8003d96:	d02b      	beq.n	8003df0 <f_getfree+0xb8>
					if (stat == 1) { res = FR_INT_ERR; break; }
 8003d98:	2801      	cmp	r0, #1
 8003d9a:	d036      	beq.n	8003e0a <f_getfree+0xd2>
					if (stat == 0) nfree++;
 8003d9c:	2800      	cmp	r0, #0
 8003d9e:	d1ef      	bne.n	8003d80 <f_getfree+0x48>
 8003da0:	3601      	adds	r6, #1
 8003da2:	e7ed      	b.n	8003d80 <f_getfree+0x48>
							res = move_window(fs, sect++);
 8003da4:	f108 0a01 	add.w	sl, r8, #1
 8003da8:	4641      	mov	r1, r8
 8003daa:	9807      	ldr	r0, [sp, #28]
 8003dac:	f7fe fc68 	bl	8002680 <move_window>
							if (res != FR_OK) break;
 8003db0:	4607      	mov	r7, r0
 8003db2:	b9f0      	cbnz	r0, 8003df2 <f_getfree+0xba>
							res = move_window(fs, sect++);
 8003db4:	46d0      	mov	r8, sl
 8003db6:	e00e      	b.n	8003dd6 <f_getfree+0x9e>
							if (ld_word(fs->win + i) == 0) nfree++;
 8003db8:	3038      	adds	r0, #56	; 0x38
 8003dba:	4420      	add	r0, r4
 8003dbc:	f7fe fa24 	bl	8002208 <ld_word>
 8003dc0:	b900      	cbnz	r0, 8003dc4 <f_getfree+0x8c>
 8003dc2:	3601      	adds	r6, #1
							i += 2;
 8003dc4:	3402      	adds	r4, #2
 8003dc6:	e000      	b.n	8003dca <f_getfree+0x92>
							i += 4;
 8003dc8:	3404      	adds	r4, #4
						i %= SS(fs);
 8003dca:	f3c4 0408 	ubfx	r4, r4, #0, #9
					} while (--clst);
 8003dce:	3d01      	subs	r5, #1
 8003dd0:	d00f      	beq.n	8003df2 <f_getfree+0xba>
						if (i == 0) {
 8003dd2:	2c00      	cmp	r4, #0
 8003dd4:	d0e6      	beq.n	8003da4 <f_getfree+0x6c>
						if (fs->fs_type == FS_FAT16) {
 8003dd6:	9807      	ldr	r0, [sp, #28]
 8003dd8:	7803      	ldrb	r3, [r0, #0]
 8003dda:	2b02      	cmp	r3, #2
 8003ddc:	d0ec      	beq.n	8003db8 <f_getfree+0x80>
							if ((ld_dword(fs->win + i) & 0x0FFFFFFF) == 0) nfree++;
 8003dde:	3038      	adds	r0, #56	; 0x38
 8003de0:	4420      	add	r0, r4
 8003de2:	f7fe fa16 	bl	8002212 <ld_dword>
 8003de6:	f030 4370 	bics.w	r3, r0, #4026531840	; 0xf0000000
 8003dea:	d1ed      	bne.n	8003dc8 <f_getfree+0x90>
 8003dec:	3601      	adds	r6, #1
 8003dee:	e7eb      	b.n	8003dc8 <f_getfree+0x90>
					if (stat == 0xFFFFFFFF) { res = FR_DISK_ERR; break; }
 8003df0:	2701      	movs	r7, #1
			*nclst = nfree;			/* Return the free clusters */
 8003df2:	f8c9 6000 	str.w	r6, [r9]
			fs->free_clst = nfree;	/* Now free_clst is valid */
 8003df6:	9b07      	ldr	r3, [sp, #28]
 8003df8:	615e      	str	r6, [r3, #20]
			fs->fsi_flag |= 1;		/* FAT32: FSInfo is to be updated */
 8003dfa:	791a      	ldrb	r2, [r3, #4]
 8003dfc:	f042 0201 	orr.w	r2, r2, #1
 8003e00:	711a      	strb	r2, [r3, #4]
}
 8003e02:	4638      	mov	r0, r7
 8003e04:	b008      	add	sp, #32
 8003e06:	e8bd 87f0 	ldmia.w	sp!, {r4, r5, r6, r7, r8, r9, sl, pc}
					if (stat == 1) { res = FR_INT_ERR; break; }
 8003e0a:	2702      	movs	r7, #2
 8003e0c:	e7f1      	b.n	8003df2 <f_getfree+0xba>
	...

08003e10 <f_setlabel>:
{
 8003e10:	b530      	push	{r4, r5, lr}
 8003e12:	b097      	sub	sp, #92	; 0x5c
 8003e14:	9001      	str	r0, [sp, #4]
	res = mount_volume(&label, &fs, FA_WRITE);
 8003e16:	2202      	movs	r2, #2
 8003e18:	a908      	add	r1, sp, #32
 8003e1a:	a801      	add	r0, sp, #4
 8003e1c:	f7fe fcb8 	bl	8002790 <mount_volume>
	if (res != FR_OK) LEAVE_FF(fs, res);
 8003e20:	4605      	mov	r5, r0
 8003e22:	b110      	cbz	r0, 8003e2a <f_setlabel+0x1a>
}
 8003e24:	4628      	mov	r0, r5
 8003e26:	b017      	add	sp, #92	; 0x5c
 8003e28:	bd30      	pop	{r4, r5, pc}
		mem_set(dirvn, ' ', 11);
 8003e2a:	220b      	movs	r2, #11
 8003e2c:	2120      	movs	r1, #32
 8003e2e:	a802      	add	r0, sp, #8
 8003e30:	f7fe fa11 	bl	8002256 <mem_set>
		di = 0;
 8003e34:	2400      	movs	r4, #0
		while ((UINT)*label >= ' ') {	/* Create volume label */
 8003e36:	e006      	b.n	8003e46 <f_setlabel+0x36>
			if (wc == 0 || chk_chr(badchr + 0, (int)wc) || di >= (UINT)((wc >= 0x100) ? 10 : 11)) {	/* Reject invalid characters for volume label */
 8003e38:	230b      	movs	r3, #11
 8003e3a:	e020      	b.n	8003e7e <f_setlabel+0x6e>
			dirvn[di++] = (BYTE)wc;
 8003e3c:	ab16      	add	r3, sp, #88	; 0x58
 8003e3e:	4423      	add	r3, r4
 8003e40:	f803 5c50 	strb.w	r5, [r3, #-80]
 8003e44:	3401      	adds	r4, #1
		while ((UINT)*label >= ' ') {	/* Create volume label */
 8003e46:	9b01      	ldr	r3, [sp, #4]
 8003e48:	781b      	ldrb	r3, [r3, #0]
 8003e4a:	2b1f      	cmp	r3, #31
 8003e4c:	d923      	bls.n	8003e96 <f_setlabel+0x86>
			dc = tchar2uni(&label);
 8003e4e:	a801      	add	r0, sp, #4
 8003e50:	f7ff fa74 	bl	800333c <tchar2uni>
			wc = (dc < 0x10000) ? ff_uni2oem(ff_wtoupper(dc), CODEPAGE) : 0;
 8003e54:	f5b0 3f80 	cmp.w	r0, #65536	; 0x10000
 8003e58:	d26f      	bcs.n	8003f3a <f_setlabel+0x12a>
 8003e5a:	f000 fbef 	bl	800463c <ff_wtoupper>
 8003e5e:	f44f 7169 	mov.w	r1, #932	; 0x3a4
 8003e62:	f000 fb93 	bl	800458c <ff_uni2oem>
			if (wc == 0 || chk_chr(badchr + 0, (int)wc) || di >= (UINT)((wc >= 0x100) ? 10 : 11)) {	/* Reject invalid characters for volume label */
 8003e66:	4605      	mov	r5, r0
 8003e68:	2800      	cmp	r0, #0
 8003e6a:	d068      	beq.n	8003f3e <f_setlabel+0x12e>
 8003e6c:	4601      	mov	r1, r0
 8003e6e:	4837      	ldr	r0, [pc, #220]	; (8003f4c <f_setlabel+0x13c>)
 8003e70:	f7fe fa05 	bl	800227e <chk_chr>
 8003e74:	2800      	cmp	r0, #0
 8003e76:	d164      	bne.n	8003f42 <f_setlabel+0x132>
 8003e78:	2dff      	cmp	r5, #255	; 0xff
 8003e7a:	d9dd      	bls.n	8003e38 <f_setlabel+0x28>
 8003e7c:	230a      	movs	r3, #10
 8003e7e:	42a3      	cmp	r3, r4
 8003e80:	d961      	bls.n	8003f46 <f_setlabel+0x136>
			if (wc >= 0x100) dirvn[di++] = (BYTE)(wc >> 8);
 8003e82:	2dff      	cmp	r5, #255	; 0xff
 8003e84:	d9da      	bls.n	8003e3c <f_setlabel+0x2c>
 8003e86:	f3c5 2307 	ubfx	r3, r5, #8, #8
 8003e8a:	aa16      	add	r2, sp, #88	; 0x58
 8003e8c:	4422      	add	r2, r4
 8003e8e:	f802 3c50 	strb.w	r3, [r2, #-80]
 8003e92:	3401      	adds	r4, #1
 8003e94:	e7d2      	b.n	8003e3c <f_setlabel+0x2c>
		if (dirvn[0] == DDEM) LEAVE_FF(fs, FR_INVALID_NAME);	/* Reject illegal name (heading DDEM) */
 8003e96:	f89d 3008 	ldrb.w	r3, [sp, #8]
 8003e9a:	2be5      	cmp	r3, #229	; 0xe5
 8003e9c:	d102      	bne.n	8003ea4 <f_setlabel+0x94>
 8003e9e:	2506      	movs	r5, #6
 8003ea0:	e7c0      	b.n	8003e24 <f_setlabel+0x14>
		while (di && dirvn[di - 1] == ' ') di--;				/* Snip trailing spaces */
 8003ea2:	461c      	mov	r4, r3
 8003ea4:	b134      	cbz	r4, 8003eb4 <f_setlabel+0xa4>
 8003ea6:	1e63      	subs	r3, r4, #1
 8003ea8:	aa16      	add	r2, sp, #88	; 0x58
 8003eaa:	441a      	add	r2, r3
 8003eac:	f812 2c50 	ldrb.w	r2, [r2, #-80]
 8003eb0:	2a20      	cmp	r2, #32
 8003eb2:	d0f6      	beq.n	8003ea2 <f_setlabel+0x92>
	dj.obj.fs = fs; dj.obj.sclust = 0;	/* Open root directory */
 8003eb4:	9b08      	ldr	r3, [sp, #32]
 8003eb6:	9309      	str	r3, [sp, #36]	; 0x24
 8003eb8:	2100      	movs	r1, #0
 8003eba:	910b      	str	r1, [sp, #44]	; 0x2c
	res = dir_sdi(&dj, 0);
 8003ebc:	a809      	add	r0, sp, #36	; 0x24
 8003ebe:	f7fe feac 	bl	8002c1a <dir_sdi>
	if (res == FR_OK) {
 8003ec2:	4605      	mov	r5, r0
 8003ec4:	2800      	cmp	r0, #0
 8003ec6:	d1ad      	bne.n	8003e24 <f_setlabel+0x14>
		res = DIR_READ_LABEL(&dj);	/* Get volume label entry */
 8003ec8:	2101      	movs	r1, #1
 8003eca:	a809      	add	r0, sp, #36	; 0x24
 8003ecc:	f7ff f870 	bl	8002fb0 <dir_read>
		if (res == FR_OK) {
 8003ed0:	b988      	cbnz	r0, 8003ef6 <f_setlabel+0xe6>
				if (di != 0) {
 8003ed2:	b954      	cbnz	r4, 8003eea <f_setlabel+0xda>
					dj.dir[DIR_Name] = DDEM;	/* Remove the volume label */
 8003ed4:	9b10      	ldr	r3, [sp, #64]	; 0x40
 8003ed6:	22e5      	movs	r2, #229	; 0xe5
 8003ed8:	701a      	strb	r2, [r3, #0]
			fs->wflag = 1;
 8003eda:	9b08      	ldr	r3, [sp, #32]
 8003edc:	2201      	movs	r2, #1
 8003ede:	70da      	strb	r2, [r3, #3]
			res = sync_fs(fs);
 8003ee0:	9808      	ldr	r0, [sp, #32]
 8003ee2:	f7ff fbfb 	bl	80036dc <sync_fs>
 8003ee6:	4605      	mov	r5, r0
 8003ee8:	e79c      	b.n	8003e24 <f_setlabel+0x14>
					mem_cpy(dj.dir, dirvn, 11);	/* Change the volume label */
 8003eea:	220b      	movs	r2, #11
 8003eec:	a902      	add	r1, sp, #8
 8003eee:	9810      	ldr	r0, [sp, #64]	; 0x40
 8003ef0:	f7fe f9a8 	bl	8002244 <mem_cpy>
 8003ef4:	e7f1      	b.n	8003eda <f_setlabel+0xca>
			if (res == FR_NO_FILE) {
 8003ef6:	2804      	cmp	r0, #4
 8003ef8:	d001      	beq.n	8003efe <f_setlabel+0xee>
		res = DIR_READ_LABEL(&dj);	/* Get volume label entry */
 8003efa:	4605      	mov	r5, r0
 8003efc:	e792      	b.n	8003e24 <f_setlabel+0x14>
				if (di != 0) {	/* Create a volume label entry */
 8003efe:	2c00      	cmp	r4, #0
 8003f00:	d090      	beq.n	8003e24 <f_setlabel+0x14>
					res = dir_alloc(&dj, 1);	/* Allocate an entry */
 8003f02:	2101      	movs	r1, #1
 8003f04:	a809      	add	r0, sp, #36	; 0x24
 8003f06:	f7ff f82b 	bl	8002f60 <dir_alloc>
					if (res == FR_OK) {
 8003f0a:	4605      	mov	r5, r0
 8003f0c:	2800      	cmp	r0, #0
 8003f0e:	d189      	bne.n	8003e24 <f_setlabel+0x14>
						mem_set(dj.dir, 0, SZDIRE);	/* Clean the entry */
 8003f10:	2220      	movs	r2, #32
 8003f12:	2100      	movs	r1, #0
 8003f14:	9810      	ldr	r0, [sp, #64]	; 0x40
 8003f16:	f7fe f99e 	bl	8002256 <mem_set>
							dj.dir[DIR_Attr] = AM_VOL;		/* Create volume label entry */
 8003f1a:	9b10      	ldr	r3, [sp, #64]	; 0x40
 8003f1c:	2208      	movs	r2, #8
 8003f1e:	72da      	strb	r2, [r3, #11]
							mem_cpy(dj.dir, dirvn, 11);
 8003f20:	220b      	movs	r2, #11
 8003f22:	a902      	add	r1, sp, #8
 8003f24:	9810      	ldr	r0, [sp, #64]	; 0x40
 8003f26:	f7fe f98d 	bl	8002244 <mem_cpy>
						fs->wflag = 1;
 8003f2a:	9b08      	ldr	r3, [sp, #32]
 8003f2c:	2201      	movs	r2, #1
 8003f2e:	70da      	strb	r2, [r3, #3]
						res = sync_fs(fs);
 8003f30:	9808      	ldr	r0, [sp, #32]
 8003f32:	f7ff fbd3 	bl	80036dc <sync_fs>
 8003f36:	4605      	mov	r5, r0
 8003f38:	e774      	b.n	8003e24 <f_setlabel+0x14>
				LEAVE_FF(fs, FR_INVALID_NAME);
 8003f3a:	2506      	movs	r5, #6
 8003f3c:	e772      	b.n	8003e24 <f_setlabel+0x14>
 8003f3e:	2506      	movs	r5, #6
 8003f40:	e770      	b.n	8003e24 <f_setlabel+0x14>
 8003f42:	2506      	movs	r5, #6
 8003f44:	e76e      	b.n	8003e24 <f_setlabel+0x14>
 8003f46:	2506      	movs	r5, #6
 8003f48:	e76c      	b.n	8003e24 <f_setlabel+0x14>
 8003f4a:	bf00      	nop
 8003f4c:	08006d90 	.word	0x08006d90

08003f50 <f_mkfs>:
	const TCHAR* path,		/* Logical drive number */
	const MKFS_PARM* opt,	/* Format options */
	void* work,				/* Pointer to working buffer (null: use heap memory) */
	UINT len				/* Size of working buffer [byte] */
)
{
 8003f50:	e92d 4ff0 	stmdb	sp!, {r4, r5, r6, r7, r8, r9, sl, fp, lr}
 8003f54:	b08f      	sub	sp, #60	; 0x3c
 8003f56:	ac0e      	add	r4, sp, #56	; 0x38
 8003f58:	f844 0d14 	str.w	r0, [r4, #-20]!
 8003f5c:	460d      	mov	r5, r1
 8003f5e:	9200      	str	r2, [sp, #0]
 8003f60:	461e      	mov	r6, r3
	DSTATUS ds;
	FRESULT fr;


	/* Check mounted drive and clear work area */
	vol = get_ldnumber(&path);					/* Get target logical drive */
 8003f62:	4620      	mov	r0, r4
 8003f64:	f7fe fae6 	bl	8002534 <get_ldnumber>
	if (vol < 0) return FR_INVALID_DRIVE;
 8003f68:	2800      	cmp	r0, #0
 8003f6a:	f2c0 82dd 	blt.w	8004528 <f_mkfs+0x5d8>
	if (FatFs[vol]) FatFs[vol]->fs_type = 0;	/* Clear the fs object if mounted */
 8003f6e:	4ba8      	ldr	r3, [pc, #672]	; (8004210 <f_mkfs+0x2c0>)
 8003f70:	f853 3020 	ldr.w	r3, [r3, r0, lsl #2]
 8003f74:	b10b      	cbz	r3, 8003f7a <f_mkfs+0x2a>
 8003f76:	2200      	movs	r2, #0
 8003f78:	701a      	strb	r2, [r3, #0]
	pdrv = LD2PD(vol);			/* Physical drive */
 8003f7a:	b2c4      	uxtb	r4, r0
	ipart = LD2PT(vol);			/* Partition (0:create as new, 1..:get from partition table) */
	if (!opt) opt = &defopt;	/* Use default parameter if it is not given */
 8003f7c:	b35d      	cbz	r5, 8003fd6 <f_mkfs+0x86>

	/* Get physical drive status (sz_drv, sz_blk, ss) */
	ds = disk_initialize(pdrv);
 8003f7e:	4620      	mov	r0, r4
 8003f80:	f7fe f900 	bl	8002184 <disk_initialize>
	if (ds & STA_NOINIT) return FR_NOT_READY;
 8003f84:	f010 0f01 	tst.w	r0, #1
 8003f88:	f040 82d0 	bne.w	800452c <f_mkfs+0x5dc>
	if (ds & STA_PROTECT) return FR_WRITE_PROTECTED;
 8003f8c:	f010 0f04 	tst.w	r0, #4
 8003f90:	f040 82d1 	bne.w	8004536 <f_mkfs+0x5e6>
	sz_blk = opt->align;
 8003f94:	686b      	ldr	r3, [r5, #4]
 8003f96:	930d      	str	r3, [sp, #52]	; 0x34
	if (sz_blk == 0 && disk_ioctl(pdrv, GET_BLOCK_SIZE, &sz_blk) != RES_OK) sz_blk = 1;
 8003f98:	b1fb      	cbz	r3, 8003fda <f_mkfs+0x8a>
 	if (sz_blk == 0 || sz_blk > 0x8000 || (sz_blk & (sz_blk - 1))) sz_blk = 1;
 8003f9a:	9a0d      	ldr	r2, [sp, #52]	; 0x34
 8003f9c:	1e53      	subs	r3, r2, #1
 8003f9e:	f5b3 4f00 	cmp.w	r3, #32768	; 0x8000
 8003fa2:	d201      	bcs.n	8003fa8 <f_mkfs+0x58>
 8003fa4:	421a      	tst	r2, r3
 8003fa6:	d001      	beq.n	8003fac <f_mkfs+0x5c>
 8003fa8:	2301      	movs	r3, #1
 8003faa:	930d      	str	r3, [sp, #52]	; 0x34
	if (ss > FF_MAX_SS || ss < FF_MIN_SS || (ss & (ss - 1))) return FR_DISK_ERR;
#else
	ss = FF_MAX_SS;
#endif
	/* Options for FAT sub-type and FAT parameters */
	fsopt = opt->fmt & (FM_ANY | FM_SFD);
 8003fac:	f895 a000 	ldrb.w	sl, [r5]
	n_fat = (opt->n_fat >= 1 && opt->n_fat <= 2) ? opt->n_fat : 1;
 8003fb0:	786f      	ldrb	r7, [r5, #1]
 8003fb2:	1e7b      	subs	r3, r7, #1
 8003fb4:	b2db      	uxtb	r3, r3
 8003fb6:	2b01      	cmp	r3, #1
 8003fb8:	d900      	bls.n	8003fbc <f_mkfs+0x6c>
 8003fba:	2701      	movs	r7, #1
	n_root = (opt->n_root >= 1 && opt->n_root <= 32768 && (opt->n_root % (ss / SZDIRE)) == 0) ? opt->n_root : 512;
 8003fbc:	f8d5 9008 	ldr.w	r9, [r5, #8]
 8003fc0:	f109 33ff 	add.w	r3, r9, #4294967295
 8003fc4:	f5b3 4f00 	cmp.w	r3, #32768	; 0x8000
 8003fc8:	d211      	bcs.n	8003fee <f_mkfs+0x9e>
 8003fca:	f019 0f0f 	tst.w	r9, #15
 8003fce:	d010      	beq.n	8003ff2 <f_mkfs+0xa2>
 8003fd0:	f44f 7900 	mov.w	r9, #512	; 0x200
 8003fd4:	e00d      	b.n	8003ff2 <f_mkfs+0xa2>
	if (!opt) opt = &defopt;	/* Use default parameter if it is not given */
 8003fd6:	4d8f      	ldr	r5, [pc, #572]	; (8004214 <f_mkfs+0x2c4>)
 8003fd8:	e7d1      	b.n	8003f7e <f_mkfs+0x2e>
	if (sz_blk == 0 && disk_ioctl(pdrv, GET_BLOCK_SIZE, &sz_blk) != RES_OK) sz_blk = 1;
 8003fda:	aa0d      	add	r2, sp, #52	; 0x34
 8003fdc:	2103      	movs	r1, #3
 8003fde:	4620      	mov	r0, r4
 8003fe0:	f7fe f902 	bl	80021e8 <disk_ioctl>
 8003fe4:	2800      	cmp	r0, #0
 8003fe6:	d0d8      	beq.n	8003f9a <f_mkfs+0x4a>
 8003fe8:	2301      	movs	r3, #1
 8003fea:	930d      	str	r3, [sp, #52]	; 0x34
 8003fec:	e7d5      	b.n	8003f9a <f_mkfs+0x4a>
	n_root = (opt->n_root >= 1 && opt->n_root <= 32768 && (opt->n_root % (ss / SZDIRE)) == 0) ? opt->n_root : 512;
 8003fee:	f44f 7900 	mov.w	r9, #512	; 0x200
	sz_au = (opt->au_size <= 0x1000000 && (opt->au_size & (opt->au_size - 1)) == 0) ? opt->au_size : 0;
 8003ff2:	68ed      	ldr	r5, [r5, #12]
 8003ff4:	f1b5 7f80 	cmp.w	r5, #16777216	; 0x1000000
 8003ff8:	d804      	bhi.n	8004004 <f_mkfs+0xb4>
 8003ffa:	1e6b      	subs	r3, r5, #1
 8003ffc:	421d      	tst	r5, r3
 8003ffe:	d002      	beq.n	8004006 <f_mkfs+0xb6>
 8004000:	2500      	movs	r5, #0
 8004002:	e000      	b.n	8004006 <f_mkfs+0xb6>
 8004004:	2500      	movs	r5, #0
	sz_au /= ss;	/* Byte --> Sector */
 8004006:	0a6d      	lsrs	r5, r5, #9

	/* Get working buffer */
	sz_buf = len / ss;		/* Size of working buffer [sector] */
	if (sz_buf == 0) return FR_NOT_ENOUGH_CORE;
 8004008:	0a73      	lsrs	r3, r6, #9
 800400a:	9301      	str	r3, [sp, #4]
 800400c:	f000 8295 	beq.w	800453a <f_mkfs+0x5ea>
	buf = (BYTE*)work;		/* Working buffer */
#if FF_USE_LFN == 3
	if (!buf) buf = ff_memalloc(sz_buf * ss);	/* Use heap memory for working buffer */
#endif
	if (!buf) return FR_NOT_ENOUGH_CORE;
 8004010:	9b00      	ldr	r3, [sp, #0]
 8004012:	2b00      	cmp	r3, #0
 8004014:	f000 8293 	beq.w	800453e <f_mkfs+0x5ee>

	/* Determine where the volume to be located (b_vol, sz_vol) */
	b_vol = sz_vol = 0;
 8004018:	aa0e      	add	r2, sp, #56	; 0x38
 800401a:	2300      	movs	r3, #0
 800401c:	f842 3d08 	str.w	r3, [r2, #-8]!
			if (ipart > 4 || pte[PTE_System] == 0) LEAVE_MKFS(FR_MKFS_ABORTED);	/* No partition? */
			b_vol = ld_dword(pte + PTE_StLba);		/* Get volume start sector */
			sz_vol = ld_dword(pte + PTE_SizLba);	/* Get volume size */
		}
	} else {	/* The volume is associated with a physical drive */
		if (disk_ioctl(pdrv, GET_SECTOR_COUNT, &sz_vol) != RES_OK) LEAVE_MKFS(FR_DISK_ERR);
 8004020:	2101      	movs	r1, #1
 8004022:	4620      	mov	r0, r4
 8004024:	f7fe f8e0 	bl	80021e8 <disk_ioctl>
 8004028:	2800      	cmp	r0, #0
 800402a:	f040 828a 	bne.w	8004542 <f_mkfs+0x5f2>
		if (!(fsopt & FM_SFD)) {	/* To be partitioned? */
 800402e:	f01a 0308 	ands.w	r3, sl, #8
 8004032:	9303      	str	r3, [sp, #12]
 8004034:	d107      	bne.n	8004046 <f_mkfs+0xf6>
				fsopt |= 0x80;		/* Partitioning is in GPT */
				b_vol = GPT_ALIGN / ss; sz_vol -= b_vol + GPT_ITEMS * SZ_GPTE / ss + 1;	/* Estimated partition offset and size */
			} else
#endif
			{	/* Partitioning is in MBR */
				if (sz_vol > N_SEC_TRACK) {
 8004036:	9b0c      	ldr	r3, [sp, #48]	; 0x30
 8004038:	2b3f      	cmp	r3, #63	; 0x3f
 800403a:	d97d      	bls.n	8004138 <f_mkfs+0x1e8>
					b_vol = N_SEC_TRACK; sz_vol -= b_vol;	/* Estimated partition offset and size */
 800403c:	3b3f      	subs	r3, #63	; 0x3f
 800403e:	930c      	str	r3, [sp, #48]	; 0x30
 8004040:	233f      	movs	r3, #63	; 0x3f
 8004042:	9302      	str	r3, [sp, #8]
 8004044:	e001      	b.n	800404a <f_mkfs+0xfa>
	b_vol = sz_vol = 0;
 8004046:	2300      	movs	r3, #0
 8004048:	9302      	str	r3, [sp, #8]
				}
			}
		}
	}
	if (sz_vol < 128) LEAVE_MKFS(FR_MKFS_ABORTED);	/* Check if volume size is >=128s */
 800404a:	980c      	ldr	r0, [sp, #48]	; 0x30
 800404c:	287f      	cmp	r0, #127	; 0x7f
 800404e:	f240 827a 	bls.w	8004546 <f_mkfs+0x5f6>
			}
		}
#if FF_LBA64
		if (sz_vol >= 0x100000000) LEAVE_MKFS(FR_MKFS_ABORTED);	/* Too large volume for FAT/FAT32 */
#endif
		if (sz_au > 128) sz_au = 128;	/* Invalid AU for FAT/FAT32? */
 8004052:	2d80      	cmp	r5, #128	; 0x80
 8004054:	d900      	bls.n	8004058 <f_mkfs+0x108>
 8004056:	2580      	movs	r5, #128	; 0x80
		if (fsopt & FM_FAT32) {	/* FAT32 possible? */
 8004058:	f01a 0c02 	ands.w	ip, sl, #2
 800405c:	d002      	beq.n	8004064 <f_mkfs+0x114>
			if (!(fsopt & FM_FAT)) {	/* no-FAT? */
 800405e:	f01a 0f01 	tst.w	sl, #1
 8004062:	d06c      	beq.n	800413e <f_mkfs+0x1ee>
				fsty = FS_FAT32; break;
			}
		}
		if (!(fsopt & FM_FAT)) LEAVE_MKFS(FR_INVALID_PARAMETER);	/* no-FAT? */
 8004064:	f01a 0f01 	tst.w	sl, #1
 8004068:	f000 826f 	beq.w	800454a <f_mkfs+0x5fa>
		fsty = FS_FAT16;
 800406c:	f04f 0802 	mov.w	r8, #2
 8004070:	9404      	str	r4, [sp, #16]
 8004072:	9605      	str	r6, [sp, #20]
#endif	/* FF_FS_EXFAT */
	{	/* Create an FAT/FAT32 volume */
		do {
			pau = sz_au;
			/* Pre-determine number of clusters and FAT sub-type */
			if (fsty == FS_FAT32) {	/* FAT32 volume */
 8004074:	f1b8 0f03 	cmp.w	r8, #3
 8004078:	d06a      	beq.n	8004150 <f_mkfs+0x200>
				sz_fat = (n_clst * 4 + 8 + ss - 1) / ss;	/* FAT size [sector] */
				sz_rsv = 32;	/* Number of reserved sectors */
				sz_dir = 0;		/* No static directory */
				if (n_clst <= MAX_FAT16 || n_clst > MAX_FAT32) LEAVE_MKFS(FR_MKFS_ABORTED);
			} else {				/* FAT volume */
				if (pau == 0) {	/* au auto-selection */
 800407a:	2d00      	cmp	r5, #0
 800407c:	f000 808e 	beq.w	800419c <f_mkfs+0x24c>
 8004080:	46aa      	mov	sl, r5
					n = (DWORD)sz_vol / 0x1000;	/* Volume size in unit of 4KS */
					for (i = 0, pau = 1; cst[i] && cst[i] <= n; i++, pau <<= 1) ;	/* Get from table */
				}
				n_clst = (DWORD)sz_vol / pau;
 8004082:	fbb0 f3fa 	udiv	r3, r0, sl
				if (n_clst > MAX_FAT12) {
 8004086:	f640 72f5 	movw	r2, #4085	; 0xff5
 800408a:	4293      	cmp	r3, r2
 800408c:	f240 8097 	bls.w	80041be <f_mkfs+0x26e>
					n = n_clst * 2 + 4;		/* FAT size [byte] */
 8004090:	f103 0b02 	add.w	fp, r3, #2
 8004094:	ea4f 0b4b 	mov.w	fp, fp, lsl #1
				} else {
					fsty = FS_FAT12;
					n = (n_clst * 3 + 1) / 2 + 3;	/* FAT size [byte] */
				}
				sz_fat = (n + ss - 1) / ss;		/* FAT size [sector] */
 8004098:	f20b 1bff 	addw	fp, fp, #511	; 0x1ff
 800409c:	ea4f 2b5b 	mov.w	fp, fp, lsr #9
				sz_rsv = 1;						/* Number of reserved sectors */
				sz_dir = (DWORD)n_root * SZDIRE / ss;	/* Root dir size [sector] */
 80040a0:	f3c9 1616 	ubfx	r6, r9, #4, #23
				sz_rsv = 1;						/* Number of reserved sectors */
 80040a4:	2101      	movs	r1, #1
			}
			b_fat = b_vol + sz_rsv;						/* FAT base */
 80040a6:	9b02      	ldr	r3, [sp, #8]
 80040a8:	185c      	adds	r4, r3, r1
			b_data = b_fat + sz_fat * n_fat + sz_dir;	/* Data base */
 80040aa:	fb07 420b 	mla	r2, r7, fp, r4
 80040ae:	4432      	add	r2, r6

			/* Align data area to erase block boundary (for flash memory media) */
			n = (DWORD)(((b_data + sz_blk - 1) & ~(sz_blk - 1)) - b_data);	/* Sectors to next nearest from current data base */
 80040b0:	f8dd e034 	ldr.w	lr, [sp, #52]	; 0x34
 80040b4:	eb0e 0302 	add.w	r3, lr, r2
 80040b8:	3b01      	subs	r3, #1
 80040ba:	f1ce 0e00 	rsb	lr, lr, #0
 80040be:	ea03 030e 	and.w	r3, r3, lr
 80040c2:	1a9b      	subs	r3, r3, r2
			if (fsty == FS_FAT32) {		/* FAT32: Move FAT */
 80040c4:	f1b8 0f03 	cmp.w	r8, #3
 80040c8:	f000 8084 	beq.w	80041d4 <f_mkfs+0x284>
				sz_rsv += n; b_fat += n;
			} else {					/* FAT: Expand FAT */
				if (n % n_fat) {	/* Adjust fractional error if needed */
 80040cc:	fbb3 fef7 	udiv	lr, r3, r7
 80040d0:	fb07 3e1e 	mls	lr, r7, lr, r3
 80040d4:	f1be 0f00 	cmp.w	lr, #0
 80040d8:	d002      	beq.n	80040e0 <f_mkfs+0x190>
					n--; sz_rsv++; b_fat++;
 80040da:	3b01      	subs	r3, #1
 80040dc:	3101      	adds	r1, #1
 80040de:	3401      	adds	r4, #1
				}
				sz_fat += n / n_fat;
 80040e0:	fbb3 f3f7 	udiv	r3, r3, r7
 80040e4:	449b      	add	fp, r3
			}

			/* Determine number of clusters and final check of validity of the FAT sub-type */
			if (sz_vol < b_data + pau * 16 - b_vol) LEAVE_MKFS(FR_MKFS_ABORTED);	/* Too small volume? */
 80040e6:	eb02 120a 	add.w	r2, r2, sl, lsl #4
 80040ea:	9b02      	ldr	r3, [sp, #8]
 80040ec:	1ad2      	subs	r2, r2, r3
 80040ee:	4290      	cmp	r0, r2
 80040f0:	f0c0 822f 	bcc.w	8004552 <f_mkfs+0x602>
			n_clst = ((DWORD)sz_vol - sz_rsv - sz_fat * n_fat - sz_dir) / pau;
 80040f4:	1a43      	subs	r3, r0, r1
 80040f6:	fb07 331b 	mls	r3, r7, fp, r3
 80040fa:	1b9b      	subs	r3, r3, r6
 80040fc:	fbb3 f3fa 	udiv	r3, r3, sl
			if (fsty == FS_FAT32) {
 8004100:	f1b8 0f03 	cmp.w	r8, #3
 8004104:	d069      	beq.n	80041da <f_mkfs+0x28a>
				if (n_clst <= MAX_FAT16) {	/* Too few clusters for FAT32? */
					if (sz_au == 0 && (sz_au = pau / 2) != 0) continue;	/* Adjust cluster size and retry */
					LEAVE_MKFS(FR_MKFS_ABORTED);
				}
			}
			if (fsty == FS_FAT16) {
 8004106:	f1b8 0f02 	cmp.w	r8, #2
 800410a:	f040 808b 	bne.w	8004224 <f_mkfs+0x2d4>
				if (n_clst > MAX_FAT16) {	/* Too many clusters for FAT16 */
 800410e:	f64f 72f5 	movw	r2, #65525	; 0xfff5
 8004112:	4293      	cmp	r3, r2
 8004114:	d96e      	bls.n	80041f4 <f_mkfs+0x2a4>
					if (sz_au == 0 && (pau * 2) <= 64) {
 8004116:	b91d      	cbnz	r5, 8004120 <f_mkfs+0x1d0>
 8004118:	ea4f 034a 	mov.w	r3, sl, lsl #1
 800411c:	2b40      	cmp	r3, #64	; 0x40
 800411e:	d913      	bls.n	8004148 <f_mkfs+0x1f8>
						sz_au = pau * 2; continue;		/* Adjust cluster size and retry */
					}
					if ((fsopt & FM_FAT32)) {
 8004120:	f1bc 0f00 	cmp.w	ip, #0
 8004124:	d112      	bne.n	800414c <f_mkfs+0x1fc>
						fsty = FS_FAT32; continue;	/* Switch type to FAT32 and retry */
					}
					if (sz_au == 0 && (sz_au = pau * 2) <= 128) continue;	/* Adjust cluster size and retry */
 8004126:	2d00      	cmp	r5, #0
 8004128:	f040 8217 	bne.w	800455a <f_mkfs+0x60a>
 800412c:	ea4f 054a 	mov.w	r5, sl, lsl #1
 8004130:	2d80      	cmp	r5, #128	; 0x80
 8004132:	d99f      	bls.n	8004074 <f_mkfs+0x124>
					LEAVE_MKFS(FR_MKFS_ABORTED);
 8004134:	230e      	movs	r3, #14
 8004136:	e1fa      	b.n	800452e <f_mkfs+0x5de>
	b_vol = sz_vol = 0;
 8004138:	2300      	movs	r3, #0
 800413a:	9302      	str	r3, [sp, #8]
 800413c:	e785      	b.n	800404a <f_mkfs+0xfa>
				fsty = FS_FAT32; break;
 800413e:	f04f 0803 	mov.w	r8, #3
 8004142:	9404      	str	r4, [sp, #16]
 8004144:	9605      	str	r6, [sp, #20]
 8004146:	e795      	b.n	8004074 <f_mkfs+0x124>
						sz_au = pau * 2; continue;		/* Adjust cluster size and retry */
 8004148:	461d      	mov	r5, r3
 800414a:	e793      	b.n	8004074 <f_mkfs+0x124>
						fsty = FS_FAT32; continue;	/* Switch type to FAT32 and retry */
 800414c:	f04f 0803 	mov.w	r8, #3
				if (pau == 0) {	/* AU auto-selection */
 8004150:	b1a5      	cbz	r5, 800417c <f_mkfs+0x22c>
 8004152:	46aa      	mov	sl, r5
				n_clst = (DWORD)sz_vol / pau;	/* Number of clusters */
 8004154:	fbb0 f3fa 	udiv	r3, r0, sl
				sz_fat = (n_clst * 4 + 8 + ss - 1) / ss;	/* FAT size [sector] */
 8004158:	f103 0b02 	add.w	fp, r3, #2
 800415c:	ea4f 0b8b 	mov.w	fp, fp, lsl #2
 8004160:	f20b 1bff 	addw	fp, fp, #511	; 0x1ff
 8004164:	ea4f 2b5b 	mov.w	fp, fp, lsr #9
				if (n_clst <= MAX_FAT16 || n_clst > MAX_FAT32) LEAVE_MKFS(FR_MKFS_ABORTED);
 8004168:	f5a3 437f 	sub.w	r3, r3, #65280	; 0xff00
 800416c:	3bf6      	subs	r3, #246	; 0xf6
 800416e:	4a2a      	ldr	r2, [pc, #168]	; (8004218 <f_mkfs+0x2c8>)
 8004170:	4293      	cmp	r3, r2
 8004172:	f200 81ec 	bhi.w	800454e <f_mkfs+0x5fe>
				sz_dir = 0;		/* No static directory */
 8004176:	2600      	movs	r6, #0
				sz_rsv = 32;	/* Number of reserved sectors */
 8004178:	2120      	movs	r1, #32
 800417a:	e794      	b.n	80040a6 <f_mkfs+0x156>
					n = (DWORD)sz_vol / 0x20000;	/* Volume size in unit of 128KS */
 800417c:	0c41      	lsrs	r1, r0, #17
					for (i = 0, pau = 1; cst32[i] && cst32[i] <= n; i++, pau <<= 1) ;	/* Get from table */
 800417e:	2200      	movs	r2, #0
 8004180:	f04f 0a01 	mov.w	sl, #1
 8004184:	e002      	b.n	800418c <f_mkfs+0x23c>
 8004186:	3201      	adds	r2, #1
 8004188:	ea4f 0a4a 	mov.w	sl, sl, lsl #1
 800418c:	4b23      	ldr	r3, [pc, #140]	; (800421c <f_mkfs+0x2cc>)
 800418e:	f833 3012 	ldrh.w	r3, [r3, r2, lsl #1]
 8004192:	2b00      	cmp	r3, #0
 8004194:	d0de      	beq.n	8004154 <f_mkfs+0x204>
 8004196:	428b      	cmp	r3, r1
 8004198:	d9f5      	bls.n	8004186 <f_mkfs+0x236>
 800419a:	e7db      	b.n	8004154 <f_mkfs+0x204>
					n = (DWORD)sz_vol / 0x1000;	/* Volume size in unit of 4KS */
 800419c:	0b01      	lsrs	r1, r0, #12
					for (i = 0, pau = 1; cst[i] && cst[i] <= n; i++, pau <<= 1) ;	/* Get from table */
 800419e:	2200      	movs	r2, #0
 80041a0:	f04f 0a01 	mov.w	sl, #1
 80041a4:	e002      	b.n	80041ac <f_mkfs+0x25c>
 80041a6:	3201      	adds	r2, #1
 80041a8:	ea4f 0a4a 	mov.w	sl, sl, lsl #1
 80041ac:	4b1c      	ldr	r3, [pc, #112]	; (8004220 <f_mkfs+0x2d0>)
 80041ae:	f833 3012 	ldrh.w	r3, [r3, r2, lsl #1]
 80041b2:	2b00      	cmp	r3, #0
 80041b4:	f43f af65 	beq.w	8004082 <f_mkfs+0x132>
 80041b8:	428b      	cmp	r3, r1
 80041ba:	d9f4      	bls.n	80041a6 <f_mkfs+0x256>
 80041bc:	e761      	b.n	8004082 <f_mkfs+0x132>
					n = (n_clst * 3 + 1) / 2 + 3;	/* FAT size [byte] */
 80041be:	eb03 0b43 	add.w	fp, r3, r3, lsl #1
 80041c2:	f10b 0b01 	add.w	fp, fp, #1
 80041c6:	ea4f 0b5b 	mov.w	fp, fp, lsr #1
 80041ca:	f10b 0b03 	add.w	fp, fp, #3
					fsty = FS_FAT12;
 80041ce:	f04f 0801 	mov.w	r8, #1
 80041d2:	e761      	b.n	8004098 <f_mkfs+0x148>
				sz_rsv += n; b_fat += n;
 80041d4:	4419      	add	r1, r3
 80041d6:	441c      	add	r4, r3
 80041d8:	e785      	b.n	80040e6 <f_mkfs+0x196>
				if (n_clst <= MAX_FAT16) {	/* Too few clusters for FAT32? */
 80041da:	f64f 72f5 	movw	r2, #65525	; 0xfff5
 80041de:	4293      	cmp	r3, r2
 80041e0:	d891      	bhi.n	8004106 <f_mkfs+0x1b6>
					if (sz_au == 0 && (sz_au = pau / 2) != 0) continue;	/* Adjust cluster size and retry */
 80041e2:	2d00      	cmp	r5, #0
 80041e4:	f040 81b7 	bne.w	8004556 <f_mkfs+0x606>
 80041e8:	ea5f 055a 	movs.w	r5, sl, lsr #1
 80041ec:	f47f af42 	bne.w	8004074 <f_mkfs+0x124>
					LEAVE_MKFS(FR_MKFS_ABORTED);
 80041f0:	230e      	movs	r3, #14
 80041f2:	e19c      	b.n	800452e <f_mkfs+0x5de>
				}
				if  (n_clst <= MAX_FAT12) {	/* Too few clusters for FAT16 */
 80041f4:	f640 72f5 	movw	r2, #4085	; 0xff5
 80041f8:	4293      	cmp	r3, r2
 80041fa:	d813      	bhi.n	8004224 <f_mkfs+0x2d4>
					if (sz_au == 0 && (sz_au = pau * 2) <= 128) continue;	/* Adjust cluster size and retry */
 80041fc:	2d00      	cmp	r5, #0
 80041fe:	f040 81ae 	bne.w	800455e <f_mkfs+0x60e>
 8004202:	ea4f 054a 	mov.w	r5, sl, lsl #1
 8004206:	2d80      	cmp	r5, #128	; 0x80
 8004208:	f67f af34 	bls.w	8004074 <f_mkfs+0x124>
					LEAVE_MKFS(FR_MKFS_ABORTED);
 800420c:	230e      	movs	r3, #14
 800420e:	e18e      	b.n	800452e <f_mkfs+0x5de>
 8004210:	20000214 	.word	0x20000214
 8004214:	08006de4 	.word	0x08006de4
 8004218:	0ffeffff 	.word	0x0ffeffff
 800421c:	08006dd4 	.word	0x08006dd4
 8004220:	08006dc4 	.word	0x08006dc4
 8004224:	9406      	str	r4, [sp, #24]
 8004226:	9107      	str	r1, [sp, #28]
 8004228:	9608      	str	r6, [sp, #32]
 800422a:	9c04      	ldr	r4, [sp, #16]
 800422c:	461a      	mov	r2, r3
 800422e:	9304      	str	r3, [sp, #16]
 8004230:	9e05      	ldr	r6, [sp, #20]
				}
			}
			if (fsty == FS_FAT12 && n_clst > MAX_FAT12) LEAVE_MKFS(FR_MKFS_ABORTED);	/* Too many clusters for FAT12 */
 8004232:	f1b8 0f01 	cmp.w	r8, #1
 8004236:	d104      	bne.n	8004242 <f_mkfs+0x2f2>
 8004238:	f640 73f5 	movw	r3, #4085	; 0xff5
 800423c:	429a      	cmp	r2, r3
 800423e:	f200 8190 	bhi.w	8004562 <f_mkfs+0x612>
#if FF_USE_TRIM
		lba[0] = b_vol; lba[1] = b_vol + sz_vol - 1;	/* Inform storage device that the volume area may be erased */
		disk_ioctl(pdrv, CTRL_TRIM, lba);
#endif
		/* Create FAT VBR */
		mem_set(buf, 0, ss);
 8004242:	f44f 7200 	mov.w	r2, #512	; 0x200
 8004246:	2100      	movs	r1, #0
 8004248:	9d00      	ldr	r5, [sp, #0]
 800424a:	4628      	mov	r0, r5
 800424c:	f7fe f803 	bl	8002256 <mem_set>
		mem_cpy(buf + BS_JmpBoot, "\xEB\xFE\x90" "MSDOS5.0", 11);/* Boot jump code (x86), OEM name */
 8004250:	220b      	movs	r2, #11
 8004252:	49c8      	ldr	r1, [pc, #800]	; (8004574 <f_mkfs+0x624>)
 8004254:	4628      	mov	r0, r5
 8004256:	f7fd fff5 	bl	8002244 <mem_cpy>
		st_word(buf + BPB_BytsPerSec, ss);				/* Sector size [byte] */
 800425a:	f44f 7100 	mov.w	r1, #512	; 0x200
 800425e:	f105 000b 	add.w	r0, r5, #11
 8004262:	f7fd ffe1 	bl	8002228 <st_word>
		buf[BPB_SecPerClus] = (BYTE)pau;				/* Cluster size [sector] */
 8004266:	f885 a00d 	strb.w	sl, [r5, #13]
		st_word(buf + BPB_RsvdSecCnt, (WORD)sz_rsv);	/* Size of reserved area */
 800426a:	f8bd 101c 	ldrh.w	r1, [sp, #28]
 800426e:	f105 000e 	add.w	r0, r5, #14
 8004272:	f7fd ffd9 	bl	8002228 <st_word>
		buf[BPB_NumFATs] = (BYTE)n_fat;					/* Number of FATs */
 8004276:	742f      	strb	r7, [r5, #16]
		st_word(buf + BPB_RootEntCnt, (WORD)((fsty == FS_FAT32) ? 0 : n_root));	/* Number of root directory entries */
 8004278:	f105 0011 	add.w	r0, r5, #17
 800427c:	f1b8 0f03 	cmp.w	r8, #3
 8004280:	f000 808e 	beq.w	80043a0 <f_mkfs+0x450>
 8004284:	fa1f f189 	uxth.w	r1, r9
 8004288:	f7fd ffce 	bl	8002228 <st_word>
		if (sz_vol < 0x10000) {
 800428c:	990c      	ldr	r1, [sp, #48]	; 0x30
 800428e:	f5b1 3f80 	cmp.w	r1, #65536	; 0x10000
 8004292:	f080 8087 	bcs.w	80043a4 <f_mkfs+0x454>
			st_word(buf + BPB_TotSec16, (WORD)sz_vol);	/* Volume size in 16-bit LBA */
 8004296:	b289      	uxth	r1, r1
 8004298:	9b00      	ldr	r3, [sp, #0]
 800429a:	f103 0013 	add.w	r0, r3, #19
 800429e:	f7fd ffc3 	bl	8002228 <st_word>
		} else {
			st_dword(buf + BPB_TotSec32, (DWORD)sz_vol);	/* Volume size in 32-bit LBA */
		}
		buf[BPB_Media] = 0xF8;							/* Media descriptor byte */
 80042a2:	23f8      	movs	r3, #248	; 0xf8
 80042a4:	9d00      	ldr	r5, [sp, #0]
 80042a6:	756b      	strb	r3, [r5, #21]
		st_word(buf + BPB_SecPerTrk, 63);				/* Number of sectors per track (for int13) */
 80042a8:	213f      	movs	r1, #63	; 0x3f
 80042aa:	f105 0018 	add.w	r0, r5, #24
 80042ae:	f7fd ffbb 	bl	8002228 <st_word>
		st_word(buf + BPB_NumHeads, 255);				/* Number of heads (for int13) */
 80042b2:	21ff      	movs	r1, #255	; 0xff
 80042b4:	f105 001a 	add.w	r0, r5, #26
 80042b8:	f7fd ffb6 	bl	8002228 <st_word>
		st_dword(buf + BPB_HiddSec, (DWORD)b_vol);		/* Volume offset in the physical drive [sector] */
 80042bc:	9902      	ldr	r1, [sp, #8]
 80042be:	f105 001c 	add.w	r0, r5, #28
 80042c2:	f7fd ffb5 	bl	8002230 <st_dword>
		if (fsty == FS_FAT32) {
 80042c6:	f1b8 0f03 	cmp.w	r8, #3
 80042ca:	d071      	beq.n	80043b0 <f_mkfs+0x460>
			st_word(buf + BPB_BkBootSec32, 6);			/* Offset of backup VBR (VBR + 6) */
			buf[BS_DrvNum32] = 0x80;					/* Drive number (for int13) */
			buf[BS_BootSig32] = 0x29;					/* Extended boot signature */
			mem_cpy(buf + BS_VolLab32, "NO NAME    " "FAT32   ", 19);	/* Volume label, FAT signature */
		} else {
			st_dword(buf + BS_VolID, GET_FATTIME());	/* VSN */
 80042cc:	f7fd fe78 	bl	8001fc0 <get_fattime>
 80042d0:	4601      	mov	r1, r0
 80042d2:	9d00      	ldr	r5, [sp, #0]
 80042d4:	f105 0027 	add.w	r0, r5, #39	; 0x27
 80042d8:	f7fd ffaa 	bl	8002230 <st_dword>
			st_word(buf + BPB_FATSz16, (WORD)sz_fat);	/* FAT size [sector] */
 80042dc:	fa1f f18b 	uxth.w	r1, fp
 80042e0:	f105 0016 	add.w	r0, r5, #22
 80042e4:	f7fd ffa0 	bl	8002228 <st_word>
			buf[BS_DrvNum] = 0x80;						/* Drive number (for int13) */
 80042e8:	2380      	movs	r3, #128	; 0x80
 80042ea:	f885 3024 	strb.w	r3, [r5, #36]	; 0x24
			buf[BS_BootSig] = 0x29;						/* Extended boot signature */
 80042ee:	2329      	movs	r3, #41	; 0x29
 80042f0:	4628      	mov	r0, r5
 80042f2:	f885 3026 	strb.w	r3, [r5, #38]	; 0x26
			mem_cpy(buf + BS_VolLab, "NO NAME    " "FAT     ", 19);	/* Volume label, FAT signature */
 80042f6:	2213      	movs	r2, #19
 80042f8:	499f      	ldr	r1, [pc, #636]	; (8004578 <f_mkfs+0x628>)
 80042fa:	302b      	adds	r0, #43	; 0x2b
 80042fc:	f7fd ffa2 	bl	8002244 <mem_cpy>
		}
		st_word(buf + BS_55AA, 0xAA55);					/* Signature (offset is fixed here regardless of sector size) */
 8004300:	9b00      	ldr	r3, [sp, #0]
 8004302:	f503 75ff 	add.w	r5, r3, #510	; 0x1fe
 8004306:	f64a 2155 	movw	r1, #43605	; 0xaa55
 800430a:	4628      	mov	r0, r5
 800430c:	f7fd ff8c 	bl	8002228 <st_word>
		if (disk_write(pdrv, buf, b_vol, 1) != RES_OK) LEAVE_MKFS(FR_DISK_ERR);	/* Write it to the VBR sector */
 8004310:	2301      	movs	r3, #1
 8004312:	9a02      	ldr	r2, [sp, #8]
 8004314:	9900      	ldr	r1, [sp, #0]
 8004316:	4620      	mov	r0, r4
 8004318:	f7fd ff54 	bl	80021c4 <disk_write>
 800431c:	2800      	cmp	r0, #0
 800431e:	f040 8122 	bne.w	8004566 <f_mkfs+0x616>

		/* Create FSINFO record if needed */
		if (fsty == FS_FAT32) {
 8004322:	f1b8 0f03 	cmp.w	r8, #3
 8004326:	d06c      	beq.n	8004402 <f_mkfs+0x4b2>
			disk_write(pdrv, buf, b_vol + 7, 1);		/* Write backup FSINFO (VBR + 7) */
			disk_write(pdrv, buf, b_vol + 1, 1);		/* Write original FSINFO (VBR + 1) */
		}

		/* Initialize FAT area */
		mem_set(buf, 0, sz_buf * ss);
 8004328:	f426 72ff 	bic.w	r2, r6, #510	; 0x1fe
 800432c:	f022 0201 	bic.w	r2, r2, #1
 8004330:	2100      	movs	r1, #0
 8004332:	9800      	ldr	r0, [sp, #0]
 8004334:	f7fd ff8f 	bl	8002256 <mem_set>
		sect = b_fat;		/* FAT start sector */
		for (i = 0; i < n_fat; i++) {			/* Initialize FATs each */
 8004338:	f04f 0900 	mov.w	r9, #0
 800433c:	f8cd b008 	str.w	fp, [sp, #8]
 8004340:	f8cd a010 	str.w	sl, [sp, #16]
 8004344:	f8dd a018 	ldr.w	sl, [sp, #24]
 8004348:	f8dd b004 	ldr.w	fp, [sp, #4]
 800434c:	45b9      	cmp	r9, r7
 800434e:	f080 80a8 	bcs.w	80044a2 <f_mkfs+0x552>
			if (fsty == FS_FAT32) {
 8004352:	f1b8 0f03 	cmp.w	r8, #3
 8004356:	f000 8090 	beq.w	800447a <f_mkfs+0x52a>
				st_dword(buf + 0, 0xFFFFFFF8);	/* FAT[0] */
				st_dword(buf + 4, 0xFFFFFFFF);	/* FAT[1] */
				st_dword(buf + 8, 0x0FFFFFFF);	/* FAT[2] (root directory) */
			} else {
				st_dword(buf + 0, (fsty == FS_FAT12) ? 0xFFFFF8 : 0xFFFFFFF8);	/* FAT[0] and FAT[1] */
 800435a:	f1b8 0f01 	cmp.w	r8, #1
 800435e:	f000 809e 	beq.w	800449e <f_mkfs+0x54e>
 8004362:	f06f 0107 	mvn.w	r1, #7
 8004366:	9800      	ldr	r0, [sp, #0]
 8004368:	f7fd ff62 	bl	8002230 <st_dword>
 800436c:	9e02      	ldr	r6, [sp, #8]
			}
			nsect = sz_fat;		/* Number of FAT sectors */
			do {	/* Fill FAT sectors */
				n = (nsect > sz_buf) ? sz_buf : nsect;
 800436e:	4635      	mov	r5, r6
 8004370:	455e      	cmp	r6, fp
 8004372:	bf28      	it	cs
 8004374:	465d      	movcs	r5, fp
				if (disk_write(pdrv, buf, sect, (UINT)n) != RES_OK) LEAVE_MKFS(FR_DISK_ERR);
 8004376:	462b      	mov	r3, r5
 8004378:	4652      	mov	r2, sl
 800437a:	9900      	ldr	r1, [sp, #0]
 800437c:	4620      	mov	r0, r4
 800437e:	f7fd ff21 	bl	80021c4 <disk_write>
 8004382:	2800      	cmp	r0, #0
 8004384:	f040 80f1 	bne.w	800456a <f_mkfs+0x61a>
				mem_set(buf, 0, ss);	/* Rest of FAT all are cleared */
 8004388:	f44f 7200 	mov.w	r2, #512	; 0x200
 800438c:	2100      	movs	r1, #0
 800438e:	9800      	ldr	r0, [sp, #0]
 8004390:	f7fd ff61 	bl	8002256 <mem_set>
				sect += n; nsect -= n;
 8004394:	44aa      	add	sl, r5
			} while (nsect);
 8004396:	1b76      	subs	r6, r6, r5
 8004398:	d1e9      	bne.n	800436e <f_mkfs+0x41e>
		for (i = 0; i < n_fat; i++) {			/* Initialize FATs each */
 800439a:	f109 0901 	add.w	r9, r9, #1
 800439e:	e7d5      	b.n	800434c <f_mkfs+0x3fc>
		st_word(buf + BPB_RootEntCnt, (WORD)((fsty == FS_FAT32) ? 0 : n_root));	/* Number of root directory entries */
 80043a0:	2100      	movs	r1, #0
 80043a2:	e771      	b.n	8004288 <f_mkfs+0x338>
			st_dword(buf + BPB_TotSec32, (DWORD)sz_vol);	/* Volume size in 32-bit LBA */
 80043a4:	9b00      	ldr	r3, [sp, #0]
 80043a6:	f103 0020 	add.w	r0, r3, #32
 80043aa:	f7fd ff41 	bl	8002230 <st_dword>
 80043ae:	e778      	b.n	80042a2 <f_mkfs+0x352>
			st_dword(buf + BS_VolID32, GET_FATTIME());	/* VSN */
 80043b0:	f7fd fe06 	bl	8001fc0 <get_fattime>
 80043b4:	4601      	mov	r1, r0
 80043b6:	9d00      	ldr	r5, [sp, #0]
 80043b8:	f105 0043 	add.w	r0, r5, #67	; 0x43
 80043bc:	f7fd ff38 	bl	8002230 <st_dword>
			st_dword(buf + BPB_FATSz32, sz_fat);		/* FAT size [sector] */
 80043c0:	4659      	mov	r1, fp
 80043c2:	f105 0024 	add.w	r0, r5, #36	; 0x24
 80043c6:	f7fd ff33 	bl	8002230 <st_dword>
			st_dword(buf + BPB_RootClus32, 2);			/* Root directory cluster # (2) */
 80043ca:	2102      	movs	r1, #2
 80043cc:	f105 002c 	add.w	r0, r5, #44	; 0x2c
 80043d0:	f7fd ff2e 	bl	8002230 <st_dword>
			st_word(buf + BPB_FSInfo32, 1);				/* Offset of FSINFO sector (VBR + 1) */
 80043d4:	2101      	movs	r1, #1
 80043d6:	f105 0030 	add.w	r0, r5, #48	; 0x30
 80043da:	f7fd ff25 	bl	8002228 <st_word>
			st_word(buf + BPB_BkBootSec32, 6);			/* Offset of backup VBR (VBR + 6) */
 80043de:	2106      	movs	r1, #6
 80043e0:	f105 0032 	add.w	r0, r5, #50	; 0x32
 80043e4:	f7fd ff20 	bl	8002228 <st_word>
			buf[BS_DrvNum32] = 0x80;					/* Drive number (for int13) */
 80043e8:	2380      	movs	r3, #128	; 0x80
 80043ea:	f885 3040 	strb.w	r3, [r5, #64]	; 0x40
			buf[BS_BootSig32] = 0x29;					/* Extended boot signature */
 80043ee:	2329      	movs	r3, #41	; 0x29
 80043f0:	4628      	mov	r0, r5
 80043f2:	f885 3042 	strb.w	r3, [r5, #66]	; 0x42
			mem_cpy(buf + BS_VolLab32, "NO NAME    " "FAT32   ", 19);	/* Volume label, FAT signature */
 80043f6:	2213      	movs	r2, #19
 80043f8:	4960      	ldr	r1, [pc, #384]	; (800457c <f_mkfs+0x62c>)
 80043fa:	3047      	adds	r0, #71	; 0x47
 80043fc:	f7fd ff22 	bl	8002244 <mem_cpy>
 8004400:	e77e      	b.n	8004300 <f_mkfs+0x3b0>
			disk_write(pdrv, buf, b_vol + 6, 1);		/* Write backup VBR (VBR + 6) */
 8004402:	2301      	movs	r3, #1
 8004404:	9a02      	ldr	r2, [sp, #8]
 8004406:	3206      	adds	r2, #6
 8004408:	f8dd 9000 	ldr.w	r9, [sp]
 800440c:	4649      	mov	r1, r9
 800440e:	4620      	mov	r0, r4
 8004410:	f7fd fed8 	bl	80021c4 <disk_write>
			mem_set(buf, 0, ss);
 8004414:	f44f 7200 	mov.w	r2, #512	; 0x200
 8004418:	2100      	movs	r1, #0
 800441a:	4648      	mov	r0, r9
 800441c:	f7fd ff1b 	bl	8002256 <mem_set>
			st_dword(buf + FSI_LeadSig, 0x41615252);
 8004420:	4957      	ldr	r1, [pc, #348]	; (8004580 <f_mkfs+0x630>)
 8004422:	4648      	mov	r0, r9
 8004424:	f7fd ff04 	bl	8002230 <st_dword>
			st_dword(buf + FSI_StrucSig, 0x61417272);
 8004428:	4956      	ldr	r1, [pc, #344]	; (8004584 <f_mkfs+0x634>)
 800442a:	f8cd 9000 	str.w	r9, [sp]
 800442e:	f509 70f2 	add.w	r0, r9, #484	; 0x1e4
 8004432:	f7fd fefd 	bl	8002230 <st_dword>
			st_dword(buf + FSI_Free_Count, n_clst - 1);	/* Number of free clusters */
 8004436:	9904      	ldr	r1, [sp, #16]
 8004438:	3901      	subs	r1, #1
 800443a:	9b00      	ldr	r3, [sp, #0]
 800443c:	f503 70f4 	add.w	r0, r3, #488	; 0x1e8
 8004440:	f7fd fef6 	bl	8002230 <st_dword>
			st_dword(buf + FSI_Nxt_Free, 2);			/* Last allocated cluster# */
 8004444:	2102      	movs	r1, #2
 8004446:	9b00      	ldr	r3, [sp, #0]
 8004448:	f503 70f6 	add.w	r0, r3, #492	; 0x1ec
 800444c:	f7fd fef0 	bl	8002230 <st_dword>
			st_word(buf + BS_55AA, 0xAA55);
 8004450:	f64a 2155 	movw	r1, #43605	; 0xaa55
 8004454:	4628      	mov	r0, r5
 8004456:	f7fd fee7 	bl	8002228 <st_word>
			disk_write(pdrv, buf, b_vol + 7, 1);		/* Write backup FSINFO (VBR + 7) */
 800445a:	2301      	movs	r3, #1
 800445c:	9d02      	ldr	r5, [sp, #8]
 800445e:	1dea      	adds	r2, r5, #7
 8004460:	f8dd 9000 	ldr.w	r9, [sp]
 8004464:	4649      	mov	r1, r9
 8004466:	4620      	mov	r0, r4
 8004468:	f7fd feac 	bl	80021c4 <disk_write>
			disk_write(pdrv, buf, b_vol + 1, 1);		/* Write original FSINFO (VBR + 1) */
 800446c:	2301      	movs	r3, #1
 800446e:	18ea      	adds	r2, r5, r3
 8004470:	4649      	mov	r1, r9
 8004472:	4620      	mov	r0, r4
 8004474:	f7fd fea6 	bl	80021c4 <disk_write>
 8004478:	e756      	b.n	8004328 <f_mkfs+0x3d8>
				st_dword(buf + 0, 0xFFFFFFF8);	/* FAT[0] */
 800447a:	f06f 0107 	mvn.w	r1, #7
 800447e:	9d00      	ldr	r5, [sp, #0]
 8004480:	4628      	mov	r0, r5
 8004482:	f7fd fed5 	bl	8002230 <st_dword>
				st_dword(buf + 4, 0xFFFFFFFF);	/* FAT[1] */
 8004486:	f04f 31ff 	mov.w	r1, #4294967295
 800448a:	1d28      	adds	r0, r5, #4
 800448c:	f7fd fed0 	bl	8002230 <st_dword>
				st_dword(buf + 8, 0x0FFFFFFF);	/* FAT[2] (root directory) */
 8004490:	f06f 4170 	mvn.w	r1, #4026531840	; 0xf0000000
 8004494:	f105 0008 	add.w	r0, r5, #8
 8004498:	f7fd feca 	bl	8002230 <st_dword>
 800449c:	e766      	b.n	800436c <f_mkfs+0x41c>
				st_dword(buf + 0, (fsty == FS_FAT12) ? 0xFFFFF8 : 0xFFFFFFF8);	/* FAT[0] and FAT[1] */
 800449e:	493a      	ldr	r1, [pc, #232]	; (8004588 <f_mkfs+0x638>)
 80044a0:	e761      	b.n	8004366 <f_mkfs+0x416>
 80044a2:	f8cd a018 	str.w	sl, [sp, #24]
 80044a6:	f8dd a010 	ldr.w	sl, [sp, #16]
		}

		/* Initialize root directory (fill with zero) */
		nsect = (fsty == FS_FAT32) ? pau : sz_dir;	/* Number of root directory sectors */
 80044aa:	f1b8 0f03 	cmp.w	r8, #3
 80044ae:	d030      	beq.n	8004512 <f_mkfs+0x5c2>
 80044b0:	9f06      	ldr	r7, [sp, #24]
 80044b2:	9e08      	ldr	r6, [sp, #32]
		do {
			n = (nsect > sz_buf) ? sz_buf : nsect;
 80044b4:	9b01      	ldr	r3, [sp, #4]
 80044b6:	42b3      	cmp	r3, r6
 80044b8:	bf28      	it	cs
 80044ba:	4633      	movcs	r3, r6
 80044bc:	461d      	mov	r5, r3
			if (disk_write(pdrv, buf, sect, (UINT)n) != RES_OK) LEAVE_MKFS(FR_DISK_ERR);
 80044be:	463a      	mov	r2, r7
 80044c0:	9900      	ldr	r1, [sp, #0]
 80044c2:	4620      	mov	r0, r4
 80044c4:	f7fd fe7e 	bl	80021c4 <disk_write>
 80044c8:	2800      	cmp	r0, #0
 80044ca:	d150      	bne.n	800456e <f_mkfs+0x61e>
			sect += n; nsect -= n;
 80044cc:	442f      	add	r7, r5
		} while (nsect);
 80044ce:	1b76      	subs	r6, r6, r5
 80044d0:	d1f0      	bne.n	80044b4 <f_mkfs+0x564>

	/* Determine system ID in the MBR partition table */
	if (FF_FS_EXFAT && fsty == FS_EXFAT) {
		sys = 0x07;			/* exFAT */
	} else {
		if (fsty == FS_FAT32) {
 80044d2:	f1b8 0f03 	cmp.w	r8, #3
 80044d6:	d01f      	beq.n	8004518 <f_mkfs+0x5c8>
			sys = 0x0C;		/* FAT32X */
		} else {
			if (sz_vol >= 0x10000) {
 80044d8:	9b0c      	ldr	r3, [sp, #48]	; 0x30
 80044da:	f5b3 3f80 	cmp.w	r3, #65536	; 0x10000
 80044de:	d21d      	bcs.n	800451c <f_mkfs+0x5cc>
				sys = 0x06;	/* FAT12/16 (large) */
			} else {
				sys = (fsty == FS_FAT16) ? 0x04 : 0x01;	/* FAT16 : FAT12 */
 80044e0:	f1b8 0f02 	cmp.w	r8, #2
 80044e4:	d11c      	bne.n	8004520 <f_mkfs+0x5d0>
 80044e6:	2204      	movs	r2, #4
			if (disk_read(pdrv, buf, 0, 1) != RES_OK) LEAVE_MKFS(FR_DISK_ERR);	/* Read the MBR */
			buf[MBR_Table + (ipart - 1) * SZ_PTE + PTE_System] = sys;			/* Set system ID */
			if (disk_write(pdrv, buf, 0, 1) != RES_OK) LEAVE_MKFS(FR_DISK_ERR);	/* Write it back to the MBR */
		}
	} else {								/* Volume as a new single partition */
		if (!(fsopt & FM_SFD)) {	/* Create partition table if not in SFD */
 80044e8:	9b03      	ldr	r3, [sp, #12]
 80044ea:	b953      	cbnz	r3, 8004502 <f_mkfs+0x5b2>
			lba[0] = sz_vol, lba[1] = 0;
 80044ec:	9b0c      	ldr	r3, [sp, #48]	; 0x30
 80044ee:	930a      	str	r3, [sp, #40]	; 0x28
 80044f0:	2300      	movs	r3, #0
 80044f2:	930b      	str	r3, [sp, #44]	; 0x2c
			fr = create_partition(pdrv, lba, sys, buf);
 80044f4:	9b00      	ldr	r3, [sp, #0]
 80044f6:	a90a      	add	r1, sp, #40	; 0x28
 80044f8:	4620      	mov	r0, r4
 80044fa:	f7ff f935 	bl	8003768 <create_partition>
			if (fr != FR_OK) LEAVE_MKFS(fr);
 80044fe:	4603      	mov	r3, r0
 8004500:	b9a8      	cbnz	r0, 800452e <f_mkfs+0x5de>
		}
	}

	if (disk_ioctl(pdrv, CTRL_SYNC, 0) != RES_OK) LEAVE_MKFS(FR_DISK_ERR);
 8004502:	2200      	movs	r2, #0
 8004504:	4611      	mov	r1, r2
 8004506:	4620      	mov	r0, r4
 8004508:	f7fd fe6e 	bl	80021e8 <disk_ioctl>
 800450c:	b950      	cbnz	r0, 8004524 <f_mkfs+0x5d4>

	LEAVE_MKFS(FR_OK);
 800450e:	2300      	movs	r3, #0
 8004510:	e00d      	b.n	800452e <f_mkfs+0x5de>
		nsect = (fsty == FS_FAT32) ? pau : sz_dir;	/* Number of root directory sectors */
 8004512:	4656      	mov	r6, sl
 8004514:	9f06      	ldr	r7, [sp, #24]
 8004516:	e7cd      	b.n	80044b4 <f_mkfs+0x564>
			sys = 0x0C;		/* FAT32X */
 8004518:	220c      	movs	r2, #12
 800451a:	e7e5      	b.n	80044e8 <f_mkfs+0x598>
				sys = 0x06;	/* FAT12/16 (large) */
 800451c:	2206      	movs	r2, #6
 800451e:	e7e3      	b.n	80044e8 <f_mkfs+0x598>
				sys = (fsty == FS_FAT16) ? 0x04 : 0x01;	/* FAT16 : FAT12 */
 8004520:	2201      	movs	r2, #1
 8004522:	e7e1      	b.n	80044e8 <f_mkfs+0x598>
	if (disk_ioctl(pdrv, CTRL_SYNC, 0) != RES_OK) LEAVE_MKFS(FR_DISK_ERR);
 8004524:	2301      	movs	r3, #1
 8004526:	e002      	b.n	800452e <f_mkfs+0x5de>
	if (vol < 0) return FR_INVALID_DRIVE;
 8004528:	230b      	movs	r3, #11
 800452a:	e000      	b.n	800452e <f_mkfs+0x5de>
	if (ds & STA_NOINIT) return FR_NOT_READY;
 800452c:	2303      	movs	r3, #3
}
 800452e:	4618      	mov	r0, r3
 8004530:	b00f      	add	sp, #60	; 0x3c
 8004532:	e8bd 8ff0 	ldmia.w	sp!, {r4, r5, r6, r7, r8, r9, sl, fp, pc}
	if (ds & STA_PROTECT) return FR_WRITE_PROTECTED;
 8004536:	230a      	movs	r3, #10
 8004538:	e7f9      	b.n	800452e <f_mkfs+0x5de>
	if (sz_buf == 0) return FR_NOT_ENOUGH_CORE;
 800453a:	2311      	movs	r3, #17
 800453c:	e7f7      	b.n	800452e <f_mkfs+0x5de>
	if (!buf) return FR_NOT_ENOUGH_CORE;
 800453e:	2311      	movs	r3, #17
 8004540:	e7f5      	b.n	800452e <f_mkfs+0x5de>
		if (disk_ioctl(pdrv, GET_SECTOR_COUNT, &sz_vol) != RES_OK) LEAVE_MKFS(FR_DISK_ERR);
 8004542:	2301      	movs	r3, #1
 8004544:	e7f3      	b.n	800452e <f_mkfs+0x5de>
	if (sz_vol < 128) LEAVE_MKFS(FR_MKFS_ABORTED);	/* Check if volume size is >=128s */
 8004546:	230e      	movs	r3, #14
 8004548:	e7f1      	b.n	800452e <f_mkfs+0x5de>
		if (!(fsopt & FM_FAT)) LEAVE_MKFS(FR_INVALID_PARAMETER);	/* no-FAT? */
 800454a:	2313      	movs	r3, #19
 800454c:	e7ef      	b.n	800452e <f_mkfs+0x5de>
				if (n_clst <= MAX_FAT16 || n_clst > MAX_FAT32) LEAVE_MKFS(FR_MKFS_ABORTED);
 800454e:	230e      	movs	r3, #14
 8004550:	e7ed      	b.n	800452e <f_mkfs+0x5de>
			if (sz_vol < b_data + pau * 16 - b_vol) LEAVE_MKFS(FR_MKFS_ABORTED);	/* Too small volume? */
 8004552:	230e      	movs	r3, #14
 8004554:	e7eb      	b.n	800452e <f_mkfs+0x5de>
					LEAVE_MKFS(FR_MKFS_ABORTED);
 8004556:	230e      	movs	r3, #14
 8004558:	e7e9      	b.n	800452e <f_mkfs+0x5de>
					LEAVE_MKFS(FR_MKFS_ABORTED);
 800455a:	230e      	movs	r3, #14
 800455c:	e7e7      	b.n	800452e <f_mkfs+0x5de>
					LEAVE_MKFS(FR_MKFS_ABORTED);
 800455e:	230e      	movs	r3, #14
 8004560:	e7e5      	b.n	800452e <f_mkfs+0x5de>
			if (fsty == FS_FAT12 && n_clst > MAX_FAT12) LEAVE_MKFS(FR_MKFS_ABORTED);	/* Too many clusters for FAT12 */
 8004562:	230e      	movs	r3, #14
 8004564:	e7e3      	b.n	800452e <f_mkfs+0x5de>
		if (disk_write(pdrv, buf, b_vol, 1) != RES_OK) LEAVE_MKFS(FR_DISK_ERR);	/* Write it to the VBR sector */
 8004566:	2301      	movs	r3, #1
 8004568:	e7e1      	b.n	800452e <f_mkfs+0x5de>
				if (disk_write(pdrv, buf, sect, (UINT)n) != RES_OK) LEAVE_MKFS(FR_DISK_ERR);
 800456a:	2301      	movs	r3, #1
 800456c:	e7df      	b.n	800452e <f_mkfs+0x5de>
			if (disk_write(pdrv, buf, sect, (UINT)n) != RES_OK) LEAVE_MKFS(FR_DISK_ERR);
 800456e:	2301      	movs	r3, #1
 8004570:	e7dd      	b.n	800452e <f_mkfs+0x5de>
 8004572:	bf00      	nop
 8004574:	08006df4 	.word	0x08006df4
 8004578:	08006e14 	.word	0x08006e14
 800457c:	08006e00 	.word	0x08006e00
 8004580:	41615252 	.word	0x41615252
 8004584:	61417272 	.word	0x61417272
 8004588:	00fffff8 	.word	0x00fffff8

0800458c <ff_uni2oem>:
	const WCHAR *p;
	WCHAR c = 0, uc;
	UINT i = 0, n, li, hi;


	if (uni < 0x80) {	/* ASCII? */
 800458c:	287f      	cmp	r0, #127	; 0x7f
 800458e:	d907      	bls.n	80045a0 <ff_uni2oem+0x14>
		c = (WCHAR)uni;

	} else {			/* Non-ASCII */
		if (uni < 0x10000 && cp == FF_CODE_PAGE) {	/* Is it in BMP and valid code page? */
 8004590:	f5b0 3f80 	cmp.w	r0, #65536	; 0x10000
 8004594:	d223      	bcs.n	80045de <ff_uni2oem+0x52>
 8004596:	f5b1 7f69 	cmp.w	r1, #932	; 0x3a4
 800459a:	d003      	beq.n	80045a4 <ff_uni2oem+0x18>
	WCHAR c = 0, uc;
 800459c:	2000      	movs	r0, #0
			if (n != 0) c = p[i * 2 + 1];
		}
	}

	return c;
}
 800459e:	4770      	bx	lr
		c = (WCHAR)uni;
 80045a0:	b280      	uxth	r0, r0
 80045a2:	4770      	bx	lr
{
 80045a4:	b430      	push	{r4, r5}
			uc = (WCHAR)uni;
 80045a6:	b280      	uxth	r0, r0
			hi = sizeof CVTBL(uni2oem, FF_CODE_PAGE) / 4 - 1;
 80045a8:	f641 45dd 	movw	r5, #7389	; 0x1cdd
			li = 0;
 80045ac:	2400      	movs	r4, #0
			for (n = 16; n; n--) {
 80045ae:	2210      	movs	r2, #16
	UINT i = 0, n, li, hi;
 80045b0:	4623      	mov	r3, r4
			for (n = 16; n; n--) {
 80045b2:	e001      	b.n	80045b8 <ff_uni2oem+0x2c>
					hi = i;
 80045b4:	461d      	mov	r5, r3
			for (n = 16; n; n--) {
 80045b6:	3a01      	subs	r2, #1
 80045b8:	b152      	cbz	r2, 80045d0 <ff_uni2oem+0x44>
				i = li + (hi - li) / 2;
 80045ba:	1b2b      	subs	r3, r5, r4
 80045bc:	eb04 0353 	add.w	r3, r4, r3, lsr #1
				if (uc == p[i * 2]) break;
 80045c0:	4909      	ldr	r1, [pc, #36]	; (80045e8 <ff_uni2oem+0x5c>)
 80045c2:	f831 1023 	ldrh.w	r1, [r1, r3, lsl #2]
 80045c6:	4281      	cmp	r1, r0
 80045c8:	d002      	beq.n	80045d0 <ff_uni2oem+0x44>
				if (uc > p[i * 2]) {
 80045ca:	d2f3      	bcs.n	80045b4 <ff_uni2oem+0x28>
					li = i;
 80045cc:	461c      	mov	r4, r3
 80045ce:	e7f2      	b.n	80045b6 <ff_uni2oem+0x2a>
			if (n != 0) c = p[i * 2 + 1];
 80045d0:	b13a      	cbz	r2, 80045e2 <ff_uni2oem+0x56>
 80045d2:	009b      	lsls	r3, r3, #2
 80045d4:	3302      	adds	r3, #2
 80045d6:	4a04      	ldr	r2, [pc, #16]	; (80045e8 <ff_uni2oem+0x5c>)
 80045d8:	5a98      	ldrh	r0, [r3, r2]
}
 80045da:	bc30      	pop	{r4, r5}
 80045dc:	4770      	bx	lr
	WCHAR c = 0, uc;
 80045de:	2000      	movs	r0, #0
 80045e0:	4770      	bx	lr
 80045e2:	2000      	movs	r0, #0
 80045e4:	e7f9      	b.n	80045da <ff_uni2oem+0x4e>
 80045e6:	bf00      	nop
 80045e8:	0800e460 	.word	0x0800e460

080045ec <ff_oem2uni>:
	const WCHAR *p;
	WCHAR c = 0;
	UINT i = 0, n, li, hi;


	if (oem < 0x80) {	/* ASCII? */
 80045ec:	287f      	cmp	r0, #127	; 0x7f
 80045ee:	d922      	bls.n	8004636 <ff_oem2uni+0x4a>
		c = oem;

	} else {			/* Extended char */
		if (cp == FF_CODE_PAGE) {	/* Is it valid code page? */
 80045f0:	f5b1 7f69 	cmp.w	r1, #932	; 0x3a4
 80045f4:	d00f      	beq.n	8004616 <ff_oem2uni+0x2a>
	WCHAR c = 0;
 80045f6:	2000      	movs	r0, #0
 80045f8:	4770      	bx	lr
				i = li + (hi - li) / 2;
				if (oem == p[i * 2]) break;
				if (oem > p[i * 2]) {
					li = i;
				} else {
					hi = i;
 80045fa:	461d      	mov	r5, r3
			for (n = 16; n; n--) {
 80045fc:	3a01      	subs	r2, #1
 80045fe:	b18a      	cbz	r2, 8004624 <ff_oem2uni+0x38>
				i = li + (hi - li) / 2;
 8004600:	1b2b      	subs	r3, r5, r4
 8004602:	eb04 0353 	add.w	r3, r4, r3, lsr #1
				if (oem == p[i * 2]) break;
 8004606:	490c      	ldr	r1, [pc, #48]	; (8004638 <ff_oem2uni+0x4c>)
 8004608:	f831 1023 	ldrh.w	r1, [r1, r3, lsl #2]
 800460c:	4281      	cmp	r1, r0
 800460e:	d009      	beq.n	8004624 <ff_oem2uni+0x38>
				if (oem > p[i * 2]) {
 8004610:	d2f3      	bcs.n	80045fa <ff_oem2uni+0xe>
					li = i;
 8004612:	461c      	mov	r4, r3
 8004614:	e7f2      	b.n	80045fc <ff_oem2uni+0x10>
{
 8004616:	b430      	push	{r4, r5}
			hi = sizeof CVTBL(oem2uni, FF_CODE_PAGE) / 4 - 1;
 8004618:	f641 45dd 	movw	r5, #7389	; 0x1cdd
			li = 0;
 800461c:	2400      	movs	r4, #0
			for (n = 16; n; n--) {
 800461e:	2210      	movs	r2, #16
	UINT i = 0, n, li, hi;
 8004620:	4623      	mov	r3, r4
 8004622:	e7ec      	b.n	80045fe <ff_oem2uni+0x12>
				}
			}
			if (n != 0) c = p[i * 2 + 1];
 8004624:	b12a      	cbz	r2, 8004632 <ff_oem2uni+0x46>
 8004626:	009b      	lsls	r3, r3, #2
 8004628:	3302      	adds	r3, #2
 800462a:	4a03      	ldr	r2, [pc, #12]	; (8004638 <ff_oem2uni+0x4c>)
 800462c:	5a98      	ldrh	r0, [r3, r2]
		}
	}

	return c;
}
 800462e:	bc30      	pop	{r4, r5}
 8004630:	4770      	bx	lr
	WCHAR c = 0;
 8004632:	2000      	movs	r0, #0
 8004634:	e7fb      	b.n	800462e <ff_oem2uni+0x42>
}
 8004636:	4770      	bx	lr
 8004638:	080070e8 	.word	0x080070e8

0800463c <ff_wtoupper>:

		0x0000	/* EOT */
	};


	if (uni < 0x10000) {	/* Is it in BMP? */
 800463c:	f5b0 3f80 	cmp.w	r0, #65536	; 0x10000
 8004640:	d245      	bcs.n	80046ce <ff_wtoupper+0x92>
{
 8004642:	b4f0      	push	{r4, r5, r6, r7}
		uc = (WORD)uni;
 8004644:	b287      	uxth	r7, r0
		p = uc < 0x1000 ? cvt1 : cvt2;
 8004646:	f5b7 5f80 	cmp.w	r7, #4096	; 0x1000
 800464a:	d201      	bcs.n	8004650 <ff_wtoupper+0x14>
 800464c:	4b20      	ldr	r3, [pc, #128]	; (80046d0 <ff_wtoupper+0x94>)
 800464e:	e002      	b.n	8004656 <ff_wtoupper+0x1a>
 8004650:	4b20      	ldr	r3, [pc, #128]	; (80046d4 <ff_wtoupper+0x98>)
 8004652:	e000      	b.n	8004656 <ff_wtoupper+0x1a>
		for (;;) {
			bc = *p++;								/* Get the block base */
			if (bc == 0 || uc < bc) break;			/* Not matched? */
			nc = *p++; cmd = nc >> 8; nc &= 0xFF;	/* Get processing command and block size */
 8004654:	4633      	mov	r3, r6
			bc = *p++;								/* Get the block base */
 8004656:	881a      	ldrh	r2, [r3, #0]
			if (bc == 0 || uc < bc) break;			/* Not matched? */
 8004658:	b1d2      	cbz	r2, 8004690 <ff_wtoupper+0x54>
 800465a:	4297      	cmp	r7, r2
 800465c:	d318      	bcc.n	8004690 <ff_wtoupper+0x54>
			nc = *p++; cmd = nc >> 8; nc &= 0xFF;	/* Get processing command and block size */
 800465e:	1d1e      	adds	r6, r3, #4
 8004660:	885b      	ldrh	r3, [r3, #2]
 8004662:	0a19      	lsrs	r1, r3, #8
 8004664:	b2db      	uxtb	r3, r3
			if (uc < bc + nc) {	/* In the block? */
 8004666:	b284      	uxth	r4, r0
 8004668:	189d      	adds	r5, r3, r2
 800466a:	42ac      	cmp	r4, r5
 800466c:	db04      	blt.n	8004678 <ff_wtoupper+0x3c>
				case 7: uc -= 80; break;			/* Shift -80 */
				case 8:	uc -= 0x1C60; break;		/* Shift -0x1C60 */
				}
				break;
			}
			if (cmd == 0) p += nc;	/* Skip table if needed */
 800466e:	2900      	cmp	r1, #0
 8004670:	d1f0      	bne.n	8004654 <ff_wtoupper+0x18>
 8004672:	eb06 0343 	add.w	r3, r6, r3, lsl #1
 8004676:	e7ee      	b.n	8004656 <ff_wtoupper+0x1a>
				switch (cmd) {
 8004678:	2908      	cmp	r1, #8
 800467a:	d809      	bhi.n	8004690 <ff_wtoupper+0x54>
 800467c:	e8df f001 	tbb	[pc, r1]
 8004680:	14110b05 	.word	0x14110b05
 8004684:	201d1a17 	.word	0x201d1a17
 8004688:	23          	.byte	0x23
 8004689:	00          	.byte	0x00
				case 0:	uc = p[uc - bc]; break;		/* Table conversion */
 800468a:	1aa4      	subs	r4, r4, r2
 800468c:	f836 7014 	ldrh.w	r7, [r6, r4, lsl #1]
		}
		uni = uc;
 8004690:	4638      	mov	r0, r7
	}

	return uni;
}
 8004692:	bcf0      	pop	{r4, r5, r6, r7}
 8004694:	4770      	bx	lr
				case 1:	uc -= (uc - bc) & 1; break;	/* Case pairs */
 8004696:	1aba      	subs	r2, r7, r2
 8004698:	f002 0301 	and.w	r3, r2, #1
 800469c:	1aff      	subs	r7, r7, r3
 800469e:	b2bf      	uxth	r7, r7
 80046a0:	e7f6      	b.n	8004690 <ff_wtoupper+0x54>
				case 2: uc -= 16; break;			/* Shift -16 */
 80046a2:	3f10      	subs	r7, #16
 80046a4:	b2bf      	uxth	r7, r7
 80046a6:	e7f3      	b.n	8004690 <ff_wtoupper+0x54>
				case 3:	uc -= 32; break;			/* Shift -32 */
 80046a8:	3f20      	subs	r7, #32
 80046aa:	b2bf      	uxth	r7, r7
 80046ac:	e7f0      	b.n	8004690 <ff_wtoupper+0x54>
				case 4:	uc -= 48; break;			/* Shift -48 */
 80046ae:	3f30      	subs	r7, #48	; 0x30
 80046b0:	b2bf      	uxth	r7, r7
 80046b2:	e7ed      	b.n	8004690 <ff_wtoupper+0x54>
				case 5:	uc -= 26; break;			/* Shift -26 */
 80046b4:	3f1a      	subs	r7, #26
 80046b6:	b2bf      	uxth	r7, r7
 80046b8:	e7ea      	b.n	8004690 <ff_wtoupper+0x54>
				case 6:	uc += 8; break;				/* Shift +8 */
 80046ba:	3708      	adds	r7, #8
 80046bc:	b2bf      	uxth	r7, r7
 80046be:	e7e7      	b.n	8004690 <ff_wtoupper+0x54>
				case 7: uc -= 80; break;			/* Shift -80 */
 80046c0:	3f50      	subs	r7, #80	; 0x50
 80046c2:	b2bf      	uxth	r7, r7
 80046c4:	e7e4      	b.n	8004690 <ff_wtoupper+0x54>
				case 8:	uc -= 0x1C60; break;		/* Shift -0x1C60 */
 80046c6:	f5a7 57e3 	sub.w	r7, r7, #7264	; 0x1c60
 80046ca:	b2bf      	uxth	r7, r7
 80046cc:	e7e0      	b.n	8004690 <ff_wtoupper+0x54>
}
 80046ce:	4770      	bx	lr
 80046d0:	08006e38 	.word	0x08006e38
 80046d4:	0800702c 	.word	0x0800702c

080046d8 <__errno>:
 80046d8:	4b01      	ldr	r3, [pc, #4]	; (80046e0 <__errno+0x8>)
 80046da:	6818      	ldr	r0, [r3, #0]
 80046dc:	4770      	bx	lr
 80046de:	bf00      	nop
 80046e0:	20000008 	.word	0x20000008

080046e4 <__libc_init_array>:
 80046e4:	b570      	push	{r4, r5, r6, lr}
 80046e6:	4e0d      	ldr	r6, [pc, #52]	; (800471c <__libc_init_array+0x38>)
 80046e8:	4c0d      	ldr	r4, [pc, #52]	; (8004720 <__libc_init_array+0x3c>)
 80046ea:	1ba4      	subs	r4, r4, r6
 80046ec:	10a4      	asrs	r4, r4, #2
 80046ee:	2500      	movs	r5, #0
 80046f0:	42a5      	cmp	r5, r4
 80046f2:	d109      	bne.n	8004708 <__libc_init_array+0x24>
 80046f4:	4e0b      	ldr	r6, [pc, #44]	; (8004724 <__libc_init_array+0x40>)
 80046f6:	4c0c      	ldr	r4, [pc, #48]	; (8004728 <__libc_init_array+0x44>)
 80046f8:	f002 f868 	bl	80067cc <_init>
 80046fc:	1ba4      	subs	r4, r4, r6
 80046fe:	10a4      	asrs	r4, r4, #2
 8004700:	2500      	movs	r5, #0
 8004702:	42a5      	cmp	r5, r4
 8004704:	d105      	bne.n	8004712 <__libc_init_array+0x2e>
 8004706:	bd70      	pop	{r4, r5, r6, pc}
 8004708:	f856 3025 	ldr.w	r3, [r6, r5, lsl #2]
 800470c:	4798      	blx	r3
 800470e:	3501      	adds	r5, #1
 8004710:	e7ee      	b.n	80046f0 <__libc_init_array+0xc>
 8004712:	f856 3025 	ldr.w	r3, [r6, r5, lsl #2]
 8004716:	4798      	blx	r3
 8004718:	3501      	adds	r5, #1
 800471a:	e7f2      	b.n	8004702 <__libc_init_array+0x1e>
 800471c:	08015a38 	.word	0x08015a38
 8004720:	08015a38 	.word	0x08015a38
 8004724:	08015a38 	.word	0x08015a38
 8004728:	08015a3c 	.word	0x08015a3c

0800472c <__ascii_mbtowc>:
 800472c:	b082      	sub	sp, #8
 800472e:	b901      	cbnz	r1, 8004732 <__ascii_mbtowc+0x6>
 8004730:	a901      	add	r1, sp, #4
 8004732:	b142      	cbz	r2, 8004746 <__ascii_mbtowc+0x1a>
 8004734:	b14b      	cbz	r3, 800474a <__ascii_mbtowc+0x1e>
 8004736:	7813      	ldrb	r3, [r2, #0]
 8004738:	600b      	str	r3, [r1, #0]
 800473a:	7812      	ldrb	r2, [r2, #0]
 800473c:	1c10      	adds	r0, r2, #0
 800473e:	bf18      	it	ne
 8004740:	2001      	movne	r0, #1
 8004742:	b002      	add	sp, #8
 8004744:	4770      	bx	lr
 8004746:	4610      	mov	r0, r2
 8004748:	e7fb      	b.n	8004742 <__ascii_mbtowc+0x16>
 800474a:	f06f 0001 	mvn.w	r0, #1
 800474e:	e7f8      	b.n	8004742 <__ascii_mbtowc+0x16>

08004750 <memset>:
 8004750:	4402      	add	r2, r0
 8004752:	4603      	mov	r3, r0
 8004754:	4293      	cmp	r3, r2
 8004756:	d100      	bne.n	800475a <memset+0xa>
 8004758:	4770      	bx	lr
 800475a:	f803 1b01 	strb.w	r1, [r3], #1
 800475e:	e7f9      	b.n	8004754 <memset+0x4>

08004760 <__cvt>:
 8004760:	e92d 47ff 	stmdb	sp!, {r0, r1, r2, r3, r4, r5, r6, r7, r8, r9, sl, lr}
 8004764:	ec55 4b10 	vmov	r4, r5, d0
 8004768:	9f0d      	ldr	r7, [sp, #52]	; 0x34
 800476a:	f8dd a030 	ldr.w	sl, [sp, #48]	; 0x30
 800476e:	2d00      	cmp	r5, #0
 8004770:	460e      	mov	r6, r1
 8004772:	4691      	mov	r9, r2
 8004774:	4619      	mov	r1, r3
 8004776:	bfb8      	it	lt
 8004778:	4622      	movlt	r2, r4
 800477a:	462b      	mov	r3, r5
 800477c:	f027 0720 	bic.w	r7, r7, #32
 8004780:	bfbb      	ittet	lt
 8004782:	f105 4300 	addlt.w	r3, r5, #2147483648	; 0x80000000
 8004786:	461d      	movlt	r5, r3
 8004788:	2300      	movge	r3, #0
 800478a:	232d      	movlt	r3, #45	; 0x2d
 800478c:	bfb8      	it	lt
 800478e:	4614      	movlt	r4, r2
 8004790:	2f46      	cmp	r7, #70	; 0x46
 8004792:	700b      	strb	r3, [r1, #0]
 8004794:	d004      	beq.n	80047a0 <__cvt+0x40>
 8004796:	2f45      	cmp	r7, #69	; 0x45
 8004798:	d100      	bne.n	800479c <__cvt+0x3c>
 800479a:	3601      	adds	r6, #1
 800479c:	2102      	movs	r1, #2
 800479e:	e000      	b.n	80047a2 <__cvt+0x42>
 80047a0:	2103      	movs	r1, #3
 80047a2:	ab03      	add	r3, sp, #12
 80047a4:	9301      	str	r3, [sp, #4]
 80047a6:	ab02      	add	r3, sp, #8
 80047a8:	9300      	str	r3, [sp, #0]
 80047aa:	4632      	mov	r2, r6
 80047ac:	4653      	mov	r3, sl
 80047ae:	ec45 4b10 	vmov	d0, r4, r5
 80047b2:	f000 fcf5 	bl	80051a0 <_dtoa_r>
 80047b6:	2f47      	cmp	r7, #71	; 0x47
 80047b8:	4680      	mov	r8, r0
 80047ba:	d102      	bne.n	80047c2 <__cvt+0x62>
 80047bc:	f019 0f01 	tst.w	r9, #1
 80047c0:	d026      	beq.n	8004810 <__cvt+0xb0>
 80047c2:	2f46      	cmp	r7, #70	; 0x46
 80047c4:	eb08 0906 	add.w	r9, r8, r6
 80047c8:	d111      	bne.n	80047ee <__cvt+0x8e>
 80047ca:	f898 3000 	ldrb.w	r3, [r8]
 80047ce:	2b30      	cmp	r3, #48	; 0x30
 80047d0:	d10a      	bne.n	80047e8 <__cvt+0x88>
 80047d2:	2200      	movs	r2, #0
 80047d4:	2300      	movs	r3, #0
 80047d6:	4620      	mov	r0, r4
 80047d8:	4629      	mov	r1, r5
 80047da:	f7fc f98d 	bl	8000af8 <__aeabi_dcmpeq>
 80047de:	b918      	cbnz	r0, 80047e8 <__cvt+0x88>
 80047e0:	f1c6 0601 	rsb	r6, r6, #1
 80047e4:	f8ca 6000 	str.w	r6, [sl]
 80047e8:	f8da 3000 	ldr.w	r3, [sl]
 80047ec:	4499      	add	r9, r3
 80047ee:	2200      	movs	r2, #0
 80047f0:	2300      	movs	r3, #0
 80047f2:	4620      	mov	r0, r4
 80047f4:	4629      	mov	r1, r5
 80047f6:	f7fc f97f 	bl	8000af8 <__aeabi_dcmpeq>
 80047fa:	b938      	cbnz	r0, 800480c <__cvt+0xac>
 80047fc:	2230      	movs	r2, #48	; 0x30
 80047fe:	9b03      	ldr	r3, [sp, #12]
 8004800:	454b      	cmp	r3, r9
 8004802:	d205      	bcs.n	8004810 <__cvt+0xb0>
 8004804:	1c59      	adds	r1, r3, #1
 8004806:	9103      	str	r1, [sp, #12]
 8004808:	701a      	strb	r2, [r3, #0]
 800480a:	e7f8      	b.n	80047fe <__cvt+0x9e>
 800480c:	f8cd 900c 	str.w	r9, [sp, #12]
 8004810:	9b03      	ldr	r3, [sp, #12]
 8004812:	9a0e      	ldr	r2, [sp, #56]	; 0x38
 8004814:	eba3 0308 	sub.w	r3, r3, r8
 8004818:	4640      	mov	r0, r8
 800481a:	6013      	str	r3, [r2, #0]
 800481c:	b004      	add	sp, #16
 800481e:	e8bd 87f0 	ldmia.w	sp!, {r4, r5, r6, r7, r8, r9, sl, pc}

08004822 <__exponent>:
 8004822:	b5f7      	push	{r0, r1, r2, r4, r5, r6, r7, lr}
 8004824:	2900      	cmp	r1, #0
 8004826:	4604      	mov	r4, r0
 8004828:	bfba      	itte	lt
 800482a:	4249      	neglt	r1, r1
 800482c:	232d      	movlt	r3, #45	; 0x2d
 800482e:	232b      	movge	r3, #43	; 0x2b
 8004830:	2909      	cmp	r1, #9
 8004832:	f804 2b02 	strb.w	r2, [r4], #2
 8004836:	7043      	strb	r3, [r0, #1]
 8004838:	dd20      	ble.n	800487c <__exponent+0x5a>
 800483a:	f10d 0307 	add.w	r3, sp, #7
 800483e:	461f      	mov	r7, r3
 8004840:	260a      	movs	r6, #10
 8004842:	fb91 f5f6 	sdiv	r5, r1, r6
 8004846:	fb06 1115 	mls	r1, r6, r5, r1
 800484a:	3130      	adds	r1, #48	; 0x30
 800484c:	2d09      	cmp	r5, #9
 800484e:	f803 1c01 	strb.w	r1, [r3, #-1]
 8004852:	f103 32ff 	add.w	r2, r3, #4294967295
 8004856:	4629      	mov	r1, r5
 8004858:	dc09      	bgt.n	800486e <__exponent+0x4c>
 800485a:	3130      	adds	r1, #48	; 0x30
 800485c:	3b02      	subs	r3, #2
 800485e:	f802 1c01 	strb.w	r1, [r2, #-1]
 8004862:	42bb      	cmp	r3, r7
 8004864:	4622      	mov	r2, r4
 8004866:	d304      	bcc.n	8004872 <__exponent+0x50>
 8004868:	1a10      	subs	r0, r2, r0
 800486a:	b003      	add	sp, #12
 800486c:	bdf0      	pop	{r4, r5, r6, r7, pc}
 800486e:	4613      	mov	r3, r2
 8004870:	e7e7      	b.n	8004842 <__exponent+0x20>
 8004872:	f813 2b01 	ldrb.w	r2, [r3], #1
 8004876:	f804 2b01 	strb.w	r2, [r4], #1
 800487a:	e7f2      	b.n	8004862 <__exponent+0x40>
 800487c:	2330      	movs	r3, #48	; 0x30
 800487e:	4419      	add	r1, r3
 8004880:	7083      	strb	r3, [r0, #2]
 8004882:	1d02      	adds	r2, r0, #4
 8004884:	70c1      	strb	r1, [r0, #3]
 8004886:	e7ef      	b.n	8004868 <__exponent+0x46>

08004888 <_printf_float>:
 8004888:	e92d 4ff0 	stmdb	sp!, {r4, r5, r6, r7, r8, r9, sl, fp, lr}
 800488c:	b08d      	sub	sp, #52	; 0x34
 800488e:	460c      	mov	r4, r1
 8004890:	f8dd 8058 	ldr.w	r8, [sp, #88]	; 0x58
 8004894:	4616      	mov	r6, r2
 8004896:	461f      	mov	r7, r3
 8004898:	4605      	mov	r5, r0
 800489a:	f001 fa39 	bl	8005d10 <_localeconv_r>
 800489e:	6803      	ldr	r3, [r0, #0]
 80048a0:	9304      	str	r3, [sp, #16]
 80048a2:	4618      	mov	r0, r3
 80048a4:	f7fb fcac 	bl	8000200 <strlen>
 80048a8:	2300      	movs	r3, #0
 80048aa:	930a      	str	r3, [sp, #40]	; 0x28
 80048ac:	f8d8 3000 	ldr.w	r3, [r8]
 80048b0:	9005      	str	r0, [sp, #20]
 80048b2:	3307      	adds	r3, #7
 80048b4:	f023 0307 	bic.w	r3, r3, #7
 80048b8:	f103 0208 	add.w	r2, r3, #8
 80048bc:	f894 a018 	ldrb.w	sl, [r4, #24]
 80048c0:	f8d4 b000 	ldr.w	fp, [r4]
 80048c4:	f8c8 2000 	str.w	r2, [r8]
 80048c8:	e9d3 2300 	ldrd	r2, r3, [r3]
 80048cc:	e9c4 2312 	strd	r2, r3, [r4, #72]	; 0x48
 80048d0:	e9d4 8912 	ldrd	r8, r9, [r4, #72]	; 0x48
 80048d4:	f029 4300 	bic.w	r3, r9, #2147483648	; 0x80000000
 80048d8:	9307      	str	r3, [sp, #28]
 80048da:	f8cd 8018 	str.w	r8, [sp, #24]
 80048de:	f04f 32ff 	mov.w	r2, #4294967295
 80048e2:	4ba7      	ldr	r3, [pc, #668]	; (8004b80 <_printf_float+0x2f8>)
 80048e4:	e9dd 0106 	ldrd	r0, r1, [sp, #24]
 80048e8:	f7fc f938 	bl	8000b5c <__aeabi_dcmpun>
 80048ec:	bb70      	cbnz	r0, 800494c <_printf_float+0xc4>
 80048ee:	f04f 32ff 	mov.w	r2, #4294967295
 80048f2:	4ba3      	ldr	r3, [pc, #652]	; (8004b80 <_printf_float+0x2f8>)
 80048f4:	e9dd 0106 	ldrd	r0, r1, [sp, #24]
 80048f8:	f7fc f912 	bl	8000b20 <__aeabi_dcmple>
 80048fc:	bb30      	cbnz	r0, 800494c <_printf_float+0xc4>
 80048fe:	2200      	movs	r2, #0
 8004900:	2300      	movs	r3, #0
 8004902:	4640      	mov	r0, r8
 8004904:	4649      	mov	r1, r9
 8004906:	f7fc f901 	bl	8000b0c <__aeabi_dcmplt>
 800490a:	b110      	cbz	r0, 8004912 <_printf_float+0x8a>
 800490c:	232d      	movs	r3, #45	; 0x2d
 800490e:	f884 3043 	strb.w	r3, [r4, #67]	; 0x43
 8004912:	4a9c      	ldr	r2, [pc, #624]	; (8004b84 <_printf_float+0x2fc>)
 8004914:	4b9c      	ldr	r3, [pc, #624]	; (8004b88 <_printf_float+0x300>)
 8004916:	f1ba 0f47 	cmp.w	sl, #71	; 0x47
 800491a:	bf8c      	ite	hi
 800491c:	4690      	movhi	r8, r2
 800491e:	4698      	movls	r8, r3
 8004920:	2303      	movs	r3, #3
 8004922:	f02b 0204 	bic.w	r2, fp, #4
 8004926:	6123      	str	r3, [r4, #16]
 8004928:	6022      	str	r2, [r4, #0]
 800492a:	f04f 0900 	mov.w	r9, #0
 800492e:	9700      	str	r7, [sp, #0]
 8004930:	4633      	mov	r3, r6
 8004932:	aa0b      	add	r2, sp, #44	; 0x2c
 8004934:	4621      	mov	r1, r4
 8004936:	4628      	mov	r0, r5
 8004938:	f000 f9e6 	bl	8004d08 <_printf_common>
 800493c:	3001      	adds	r0, #1
 800493e:	f040 808d 	bne.w	8004a5c <_printf_float+0x1d4>
 8004942:	f04f 30ff 	mov.w	r0, #4294967295
 8004946:	b00d      	add	sp, #52	; 0x34
 8004948:	e8bd 8ff0 	ldmia.w	sp!, {r4, r5, r6, r7, r8, r9, sl, fp, pc}
 800494c:	4642      	mov	r2, r8
 800494e:	464b      	mov	r3, r9
 8004950:	4640      	mov	r0, r8
 8004952:	4649      	mov	r1, r9
 8004954:	f7fc f902 	bl	8000b5c <__aeabi_dcmpun>
 8004958:	b110      	cbz	r0, 8004960 <_printf_float+0xd8>
 800495a:	4a8c      	ldr	r2, [pc, #560]	; (8004b8c <_printf_float+0x304>)
 800495c:	4b8c      	ldr	r3, [pc, #560]	; (8004b90 <_printf_float+0x308>)
 800495e:	e7da      	b.n	8004916 <_printf_float+0x8e>
 8004960:	6861      	ldr	r1, [r4, #4]
 8004962:	1c4b      	adds	r3, r1, #1
 8004964:	f44b 6280 	orr.w	r2, fp, #1024	; 0x400
 8004968:	a80a      	add	r0, sp, #40	; 0x28
 800496a:	d13e      	bne.n	80049ea <_printf_float+0x162>
 800496c:	2306      	movs	r3, #6
 800496e:	6063      	str	r3, [r4, #4]
 8004970:	2300      	movs	r3, #0
 8004972:	e9cd 0302 	strd	r0, r3, [sp, #8]
 8004976:	ab09      	add	r3, sp, #36	; 0x24
 8004978:	9300      	str	r3, [sp, #0]
 800497a:	ec49 8b10 	vmov	d0, r8, r9
 800497e:	f10d 0323 	add.w	r3, sp, #35	; 0x23
 8004982:	6022      	str	r2, [r4, #0]
 8004984:	f8cd a004 	str.w	sl, [sp, #4]
 8004988:	6861      	ldr	r1, [r4, #4]
 800498a:	4628      	mov	r0, r5
 800498c:	f7ff fee8 	bl	8004760 <__cvt>
 8004990:	f00a 03df 	and.w	r3, sl, #223	; 0xdf
 8004994:	2b47      	cmp	r3, #71	; 0x47
 8004996:	4680      	mov	r8, r0
 8004998:	d109      	bne.n	80049ae <_printf_float+0x126>
 800499a:	9b09      	ldr	r3, [sp, #36]	; 0x24
 800499c:	1cd8      	adds	r0, r3, #3
 800499e:	db02      	blt.n	80049a6 <_printf_float+0x11e>
 80049a0:	6862      	ldr	r2, [r4, #4]
 80049a2:	4293      	cmp	r3, r2
 80049a4:	dd47      	ble.n	8004a36 <_printf_float+0x1ae>
 80049a6:	f1aa 0a02 	sub.w	sl, sl, #2
 80049aa:	fa5f fa8a 	uxtb.w	sl, sl
 80049ae:	f1ba 0f65 	cmp.w	sl, #101	; 0x65
 80049b2:	9909      	ldr	r1, [sp, #36]	; 0x24
 80049b4:	d824      	bhi.n	8004a00 <_printf_float+0x178>
 80049b6:	3901      	subs	r1, #1
 80049b8:	4652      	mov	r2, sl
 80049ba:	f104 0050 	add.w	r0, r4, #80	; 0x50
 80049be:	9109      	str	r1, [sp, #36]	; 0x24
 80049c0:	f7ff ff2f 	bl	8004822 <__exponent>
 80049c4:	9a0a      	ldr	r2, [sp, #40]	; 0x28
 80049c6:	1813      	adds	r3, r2, r0
 80049c8:	2a01      	cmp	r2, #1
 80049ca:	4681      	mov	r9, r0
 80049cc:	6123      	str	r3, [r4, #16]
 80049ce:	dc02      	bgt.n	80049d6 <_printf_float+0x14e>
 80049d0:	6822      	ldr	r2, [r4, #0]
 80049d2:	07d1      	lsls	r1, r2, #31
 80049d4:	d501      	bpl.n	80049da <_printf_float+0x152>
 80049d6:	3301      	adds	r3, #1
 80049d8:	6123      	str	r3, [r4, #16]
 80049da:	f89d 3023 	ldrb.w	r3, [sp, #35]	; 0x23
 80049de:	2b00      	cmp	r3, #0
 80049e0:	d0a5      	beq.n	800492e <_printf_float+0xa6>
 80049e2:	232d      	movs	r3, #45	; 0x2d
 80049e4:	f884 3043 	strb.w	r3, [r4, #67]	; 0x43
 80049e8:	e7a1      	b.n	800492e <_printf_float+0xa6>
 80049ea:	f1ba 0f67 	cmp.w	sl, #103	; 0x67
 80049ee:	f000 8177 	beq.w	8004ce0 <_printf_float+0x458>
 80049f2:	f1ba 0f47 	cmp.w	sl, #71	; 0x47
 80049f6:	d1bb      	bne.n	8004970 <_printf_float+0xe8>
 80049f8:	2900      	cmp	r1, #0
 80049fa:	d1b9      	bne.n	8004970 <_printf_float+0xe8>
 80049fc:	2301      	movs	r3, #1
 80049fe:	e7b6      	b.n	800496e <_printf_float+0xe6>
 8004a00:	f1ba 0f66 	cmp.w	sl, #102	; 0x66
 8004a04:	d119      	bne.n	8004a3a <_printf_float+0x1b2>
 8004a06:	2900      	cmp	r1, #0
 8004a08:	6863      	ldr	r3, [r4, #4]
 8004a0a:	dd0c      	ble.n	8004a26 <_printf_float+0x19e>
 8004a0c:	6121      	str	r1, [r4, #16]
 8004a0e:	b913      	cbnz	r3, 8004a16 <_printf_float+0x18e>
 8004a10:	6822      	ldr	r2, [r4, #0]
 8004a12:	07d2      	lsls	r2, r2, #31
 8004a14:	d502      	bpl.n	8004a1c <_printf_float+0x194>
 8004a16:	3301      	adds	r3, #1
 8004a18:	440b      	add	r3, r1
 8004a1a:	6123      	str	r3, [r4, #16]
 8004a1c:	9b09      	ldr	r3, [sp, #36]	; 0x24
 8004a1e:	65a3      	str	r3, [r4, #88]	; 0x58
 8004a20:	f04f 0900 	mov.w	r9, #0
 8004a24:	e7d9      	b.n	80049da <_printf_float+0x152>
 8004a26:	b913      	cbnz	r3, 8004a2e <_printf_float+0x1a6>
 8004a28:	6822      	ldr	r2, [r4, #0]
 8004a2a:	07d0      	lsls	r0, r2, #31
 8004a2c:	d501      	bpl.n	8004a32 <_printf_float+0x1aa>
 8004a2e:	3302      	adds	r3, #2
 8004a30:	e7f3      	b.n	8004a1a <_printf_float+0x192>
 8004a32:	2301      	movs	r3, #1
 8004a34:	e7f1      	b.n	8004a1a <_printf_float+0x192>
 8004a36:	f04f 0a67 	mov.w	sl, #103	; 0x67
 8004a3a:	e9dd 3209 	ldrd	r3, r2, [sp, #36]	; 0x24
 8004a3e:	4293      	cmp	r3, r2
 8004a40:	db05      	blt.n	8004a4e <_printf_float+0x1c6>
 8004a42:	6822      	ldr	r2, [r4, #0]
 8004a44:	6123      	str	r3, [r4, #16]
 8004a46:	07d1      	lsls	r1, r2, #31
 8004a48:	d5e8      	bpl.n	8004a1c <_printf_float+0x194>
 8004a4a:	3301      	adds	r3, #1
 8004a4c:	e7e5      	b.n	8004a1a <_printf_float+0x192>
 8004a4e:	2b00      	cmp	r3, #0
 8004a50:	bfd4      	ite	le
 8004a52:	f1c3 0302 	rsble	r3, r3, #2
 8004a56:	2301      	movgt	r3, #1
 8004a58:	4413      	add	r3, r2
 8004a5a:	e7de      	b.n	8004a1a <_printf_float+0x192>
 8004a5c:	6823      	ldr	r3, [r4, #0]
 8004a5e:	055a      	lsls	r2, r3, #21
 8004a60:	d407      	bmi.n	8004a72 <_printf_float+0x1ea>
 8004a62:	6923      	ldr	r3, [r4, #16]
 8004a64:	4642      	mov	r2, r8
 8004a66:	4631      	mov	r1, r6
 8004a68:	4628      	mov	r0, r5
 8004a6a:	47b8      	blx	r7
 8004a6c:	3001      	adds	r0, #1
 8004a6e:	d12b      	bne.n	8004ac8 <_printf_float+0x240>
 8004a70:	e767      	b.n	8004942 <_printf_float+0xba>
 8004a72:	f1ba 0f65 	cmp.w	sl, #101	; 0x65
 8004a76:	f240 80dc 	bls.w	8004c32 <_printf_float+0x3aa>
 8004a7a:	2200      	movs	r2, #0
 8004a7c:	2300      	movs	r3, #0
 8004a7e:	e9d4 0112 	ldrd	r0, r1, [r4, #72]	; 0x48
 8004a82:	f7fc f839 	bl	8000af8 <__aeabi_dcmpeq>
 8004a86:	2800      	cmp	r0, #0
 8004a88:	d033      	beq.n	8004af2 <_printf_float+0x26a>
 8004a8a:	2301      	movs	r3, #1
 8004a8c:	4a41      	ldr	r2, [pc, #260]	; (8004b94 <_printf_float+0x30c>)
 8004a8e:	4631      	mov	r1, r6
 8004a90:	4628      	mov	r0, r5
 8004a92:	47b8      	blx	r7
 8004a94:	3001      	adds	r0, #1
 8004a96:	f43f af54 	beq.w	8004942 <_printf_float+0xba>
 8004a9a:	e9dd 2309 	ldrd	r2, r3, [sp, #36]	; 0x24
 8004a9e:	429a      	cmp	r2, r3
 8004aa0:	db02      	blt.n	8004aa8 <_printf_float+0x220>
 8004aa2:	6823      	ldr	r3, [r4, #0]
 8004aa4:	07d8      	lsls	r0, r3, #31
 8004aa6:	d50f      	bpl.n	8004ac8 <_printf_float+0x240>
 8004aa8:	e9dd 2304 	ldrd	r2, r3, [sp, #16]
 8004aac:	4631      	mov	r1, r6
 8004aae:	4628      	mov	r0, r5
 8004ab0:	47b8      	blx	r7
 8004ab2:	3001      	adds	r0, #1
 8004ab4:	f43f af45 	beq.w	8004942 <_printf_float+0xba>
 8004ab8:	f04f 0800 	mov.w	r8, #0
 8004abc:	f104 091a 	add.w	r9, r4, #26
 8004ac0:	9b0a      	ldr	r3, [sp, #40]	; 0x28
 8004ac2:	3b01      	subs	r3, #1
 8004ac4:	4543      	cmp	r3, r8
 8004ac6:	dc09      	bgt.n	8004adc <_printf_float+0x254>
 8004ac8:	6823      	ldr	r3, [r4, #0]
 8004aca:	079b      	lsls	r3, r3, #30
 8004acc:	f100 8103 	bmi.w	8004cd6 <_printf_float+0x44e>
 8004ad0:	68e0      	ldr	r0, [r4, #12]
 8004ad2:	9b0b      	ldr	r3, [sp, #44]	; 0x2c
 8004ad4:	4298      	cmp	r0, r3
 8004ad6:	bfb8      	it	lt
 8004ad8:	4618      	movlt	r0, r3
 8004ada:	e734      	b.n	8004946 <_printf_float+0xbe>
 8004adc:	2301      	movs	r3, #1
 8004ade:	464a      	mov	r2, r9
 8004ae0:	4631      	mov	r1, r6
 8004ae2:	4628      	mov	r0, r5
 8004ae4:	47b8      	blx	r7
 8004ae6:	3001      	adds	r0, #1
 8004ae8:	f43f af2b 	beq.w	8004942 <_printf_float+0xba>
 8004aec:	f108 0801 	add.w	r8, r8, #1
 8004af0:	e7e6      	b.n	8004ac0 <_printf_float+0x238>
 8004af2:	9b09      	ldr	r3, [sp, #36]	; 0x24
 8004af4:	2b00      	cmp	r3, #0
 8004af6:	dc2b      	bgt.n	8004b50 <_printf_float+0x2c8>
 8004af8:	2301      	movs	r3, #1
 8004afa:	4a26      	ldr	r2, [pc, #152]	; (8004b94 <_printf_float+0x30c>)
 8004afc:	4631      	mov	r1, r6
 8004afe:	4628      	mov	r0, r5
 8004b00:	47b8      	blx	r7
 8004b02:	3001      	adds	r0, #1
 8004b04:	f43f af1d 	beq.w	8004942 <_printf_float+0xba>
 8004b08:	9b09      	ldr	r3, [sp, #36]	; 0x24
 8004b0a:	b923      	cbnz	r3, 8004b16 <_printf_float+0x28e>
 8004b0c:	9b0a      	ldr	r3, [sp, #40]	; 0x28
 8004b0e:	b913      	cbnz	r3, 8004b16 <_printf_float+0x28e>
 8004b10:	6823      	ldr	r3, [r4, #0]
 8004b12:	07d9      	lsls	r1, r3, #31
 8004b14:	d5d8      	bpl.n	8004ac8 <_printf_float+0x240>
 8004b16:	e9dd 2304 	ldrd	r2, r3, [sp, #16]
 8004b1a:	4631      	mov	r1, r6
 8004b1c:	4628      	mov	r0, r5
 8004b1e:	47b8      	blx	r7
 8004b20:	3001      	adds	r0, #1
 8004b22:	f43f af0e 	beq.w	8004942 <_printf_float+0xba>
 8004b26:	f04f 0900 	mov.w	r9, #0
 8004b2a:	f104 0a1a 	add.w	sl, r4, #26
 8004b2e:	9b09      	ldr	r3, [sp, #36]	; 0x24
 8004b30:	425b      	negs	r3, r3
 8004b32:	454b      	cmp	r3, r9
 8004b34:	dc01      	bgt.n	8004b3a <_printf_float+0x2b2>
 8004b36:	9b0a      	ldr	r3, [sp, #40]	; 0x28
 8004b38:	e794      	b.n	8004a64 <_printf_float+0x1dc>
 8004b3a:	2301      	movs	r3, #1
 8004b3c:	4652      	mov	r2, sl
 8004b3e:	4631      	mov	r1, r6
 8004b40:	4628      	mov	r0, r5
 8004b42:	47b8      	blx	r7
 8004b44:	3001      	adds	r0, #1
 8004b46:	f43f aefc 	beq.w	8004942 <_printf_float+0xba>
 8004b4a:	f109 0901 	add.w	r9, r9, #1
 8004b4e:	e7ee      	b.n	8004b2e <_printf_float+0x2a6>
 8004b50:	9a0a      	ldr	r2, [sp, #40]	; 0x28
 8004b52:	6da3      	ldr	r3, [r4, #88]	; 0x58
 8004b54:	429a      	cmp	r2, r3
 8004b56:	bfa8      	it	ge
 8004b58:	461a      	movge	r2, r3
 8004b5a:	2a00      	cmp	r2, #0
 8004b5c:	4691      	mov	r9, r2
 8004b5e:	dd07      	ble.n	8004b70 <_printf_float+0x2e8>
 8004b60:	4613      	mov	r3, r2
 8004b62:	4631      	mov	r1, r6
 8004b64:	4642      	mov	r2, r8
 8004b66:	4628      	mov	r0, r5
 8004b68:	47b8      	blx	r7
 8004b6a:	3001      	adds	r0, #1
 8004b6c:	f43f aee9 	beq.w	8004942 <_printf_float+0xba>
 8004b70:	f104 031a 	add.w	r3, r4, #26
 8004b74:	f04f 0b00 	mov.w	fp, #0
 8004b78:	ea29 79e9 	bic.w	r9, r9, r9, asr #31
 8004b7c:	9306      	str	r3, [sp, #24]
 8004b7e:	e015      	b.n	8004bac <_printf_float+0x324>
 8004b80:	7fefffff 	.word	0x7fefffff
 8004b84:	080157e6 	.word	0x080157e6
 8004b88:	080157e2 	.word	0x080157e2
 8004b8c:	080157ee 	.word	0x080157ee
 8004b90:	080157ea 	.word	0x080157ea
 8004b94:	080157f2 	.word	0x080157f2
 8004b98:	2301      	movs	r3, #1
 8004b9a:	9a06      	ldr	r2, [sp, #24]
 8004b9c:	4631      	mov	r1, r6
 8004b9e:	4628      	mov	r0, r5
 8004ba0:	47b8      	blx	r7
 8004ba2:	3001      	adds	r0, #1
 8004ba4:	f43f aecd 	beq.w	8004942 <_printf_float+0xba>
 8004ba8:	f10b 0b01 	add.w	fp, fp, #1
 8004bac:	f8d4 a058 	ldr.w	sl, [r4, #88]	; 0x58
 8004bb0:	ebaa 0309 	sub.w	r3, sl, r9
 8004bb4:	455b      	cmp	r3, fp
 8004bb6:	dcef      	bgt.n	8004b98 <_printf_float+0x310>
 8004bb8:	e9dd 2309 	ldrd	r2, r3, [sp, #36]	; 0x24
 8004bbc:	429a      	cmp	r2, r3
 8004bbe:	44d0      	add	r8, sl
 8004bc0:	db15      	blt.n	8004bee <_printf_float+0x366>
 8004bc2:	6823      	ldr	r3, [r4, #0]
 8004bc4:	07da      	lsls	r2, r3, #31
 8004bc6:	d412      	bmi.n	8004bee <_printf_float+0x366>
 8004bc8:	9b0a      	ldr	r3, [sp, #40]	; 0x28
 8004bca:	9909      	ldr	r1, [sp, #36]	; 0x24
 8004bcc:	eba3 020a 	sub.w	r2, r3, sl
 8004bd0:	eba3 0a01 	sub.w	sl, r3, r1
 8004bd4:	4592      	cmp	sl, r2
 8004bd6:	bfa8      	it	ge
 8004bd8:	4692      	movge	sl, r2
 8004bda:	f1ba 0f00 	cmp.w	sl, #0
 8004bde:	dc0e      	bgt.n	8004bfe <_printf_float+0x376>
 8004be0:	f04f 0800 	mov.w	r8, #0
 8004be4:	ea2a 7aea 	bic.w	sl, sl, sl, asr #31
 8004be8:	f104 091a 	add.w	r9, r4, #26
 8004bec:	e019      	b.n	8004c22 <_printf_float+0x39a>
 8004bee:	e9dd 2304 	ldrd	r2, r3, [sp, #16]
 8004bf2:	4631      	mov	r1, r6
 8004bf4:	4628      	mov	r0, r5
 8004bf6:	47b8      	blx	r7
 8004bf8:	3001      	adds	r0, #1
 8004bfa:	d1e5      	bne.n	8004bc8 <_printf_float+0x340>
 8004bfc:	e6a1      	b.n	8004942 <_printf_float+0xba>
 8004bfe:	4653      	mov	r3, sl
 8004c00:	4642      	mov	r2, r8
 8004c02:	4631      	mov	r1, r6
 8004c04:	4628      	mov	r0, r5
 8004c06:	47b8      	blx	r7
 8004c08:	3001      	adds	r0, #1
 8004c0a:	d1e9      	bne.n	8004be0 <_printf_float+0x358>
 8004c0c:	e699      	b.n	8004942 <_printf_float+0xba>
 8004c0e:	2301      	movs	r3, #1
 8004c10:	464a      	mov	r2, r9
 8004c12:	4631      	mov	r1, r6
 8004c14:	4628      	mov	r0, r5
 8004c16:	47b8      	blx	r7
 8004c18:	3001      	adds	r0, #1
 8004c1a:	f43f ae92 	beq.w	8004942 <_printf_float+0xba>
 8004c1e:	f108 0801 	add.w	r8, r8, #1
 8004c22:	e9dd 2309 	ldrd	r2, r3, [sp, #36]	; 0x24
 8004c26:	1a9b      	subs	r3, r3, r2
 8004c28:	eba3 030a 	sub.w	r3, r3, sl
 8004c2c:	4543      	cmp	r3, r8
 8004c2e:	dcee      	bgt.n	8004c0e <_printf_float+0x386>
 8004c30:	e74a      	b.n	8004ac8 <_printf_float+0x240>
 8004c32:	9a0a      	ldr	r2, [sp, #40]	; 0x28
 8004c34:	2a01      	cmp	r2, #1
 8004c36:	dc01      	bgt.n	8004c3c <_printf_float+0x3b4>
 8004c38:	07db      	lsls	r3, r3, #31
 8004c3a:	d53a      	bpl.n	8004cb2 <_printf_float+0x42a>
 8004c3c:	2301      	movs	r3, #1
 8004c3e:	4642      	mov	r2, r8
 8004c40:	4631      	mov	r1, r6
 8004c42:	4628      	mov	r0, r5
 8004c44:	47b8      	blx	r7
 8004c46:	3001      	adds	r0, #1
 8004c48:	f43f ae7b 	beq.w	8004942 <_printf_float+0xba>
 8004c4c:	e9dd 2304 	ldrd	r2, r3, [sp, #16]
 8004c50:	4631      	mov	r1, r6
 8004c52:	4628      	mov	r0, r5
 8004c54:	47b8      	blx	r7
 8004c56:	3001      	adds	r0, #1
 8004c58:	f108 0801 	add.w	r8, r8, #1
 8004c5c:	f43f ae71 	beq.w	8004942 <_printf_float+0xba>
 8004c60:	9b0a      	ldr	r3, [sp, #40]	; 0x28
 8004c62:	2200      	movs	r2, #0
 8004c64:	f103 3aff 	add.w	sl, r3, #4294967295
 8004c68:	e9d4 0112 	ldrd	r0, r1, [r4, #72]	; 0x48
 8004c6c:	2300      	movs	r3, #0
 8004c6e:	f7fb ff43 	bl	8000af8 <__aeabi_dcmpeq>
 8004c72:	b9c8      	cbnz	r0, 8004ca8 <_printf_float+0x420>
 8004c74:	4653      	mov	r3, sl
 8004c76:	4642      	mov	r2, r8
 8004c78:	4631      	mov	r1, r6
 8004c7a:	4628      	mov	r0, r5
 8004c7c:	47b8      	blx	r7
 8004c7e:	3001      	adds	r0, #1
 8004c80:	d10e      	bne.n	8004ca0 <_printf_float+0x418>
 8004c82:	e65e      	b.n	8004942 <_printf_float+0xba>
 8004c84:	2301      	movs	r3, #1
 8004c86:	4652      	mov	r2, sl
 8004c88:	4631      	mov	r1, r6
 8004c8a:	4628      	mov	r0, r5
 8004c8c:	47b8      	blx	r7
 8004c8e:	3001      	adds	r0, #1
 8004c90:	f43f ae57 	beq.w	8004942 <_printf_float+0xba>
 8004c94:	f108 0801 	add.w	r8, r8, #1
 8004c98:	9b0a      	ldr	r3, [sp, #40]	; 0x28
 8004c9a:	3b01      	subs	r3, #1
 8004c9c:	4543      	cmp	r3, r8
 8004c9e:	dcf1      	bgt.n	8004c84 <_printf_float+0x3fc>
 8004ca0:	464b      	mov	r3, r9
 8004ca2:	f104 0250 	add.w	r2, r4, #80	; 0x50
 8004ca6:	e6de      	b.n	8004a66 <_printf_float+0x1de>
 8004ca8:	f04f 0800 	mov.w	r8, #0
 8004cac:	f104 0a1a 	add.w	sl, r4, #26
 8004cb0:	e7f2      	b.n	8004c98 <_printf_float+0x410>
 8004cb2:	2301      	movs	r3, #1
 8004cb4:	e7df      	b.n	8004c76 <_printf_float+0x3ee>
 8004cb6:	2301      	movs	r3, #1
 8004cb8:	464a      	mov	r2, r9
 8004cba:	4631      	mov	r1, r6
 8004cbc:	4628      	mov	r0, r5
 8004cbe:	47b8      	blx	r7
 8004cc0:	3001      	adds	r0, #1
 8004cc2:	f43f ae3e 	beq.w	8004942 <_printf_float+0xba>
 8004cc6:	f108 0801 	add.w	r8, r8, #1
 8004cca:	68e3      	ldr	r3, [r4, #12]
 8004ccc:	9a0b      	ldr	r2, [sp, #44]	; 0x2c
 8004cce:	1a9b      	subs	r3, r3, r2
 8004cd0:	4543      	cmp	r3, r8
 8004cd2:	dcf0      	bgt.n	8004cb6 <_printf_float+0x42e>
 8004cd4:	e6fc      	b.n	8004ad0 <_printf_float+0x248>
 8004cd6:	f04f 0800 	mov.w	r8, #0
 8004cda:	f104 0919 	add.w	r9, r4, #25
 8004cde:	e7f4      	b.n	8004cca <_printf_float+0x442>
 8004ce0:	2900      	cmp	r1, #0
 8004ce2:	f43f ae8b 	beq.w	80049fc <_printf_float+0x174>
 8004ce6:	2300      	movs	r3, #0
 8004ce8:	e9cd 0302 	strd	r0, r3, [sp, #8]
 8004cec:	ab09      	add	r3, sp, #36	; 0x24
 8004cee:	9300      	str	r3, [sp, #0]
 8004cf0:	ec49 8b10 	vmov	d0, r8, r9
 8004cf4:	6022      	str	r2, [r4, #0]
 8004cf6:	f8cd a004 	str.w	sl, [sp, #4]
 8004cfa:	f10d 0323 	add.w	r3, sp, #35	; 0x23
 8004cfe:	4628      	mov	r0, r5
 8004d00:	f7ff fd2e 	bl	8004760 <__cvt>
 8004d04:	4680      	mov	r8, r0
 8004d06:	e648      	b.n	800499a <_printf_float+0x112>

08004d08 <_printf_common>:
 8004d08:	e92d 47f0 	stmdb	sp!, {r4, r5, r6, r7, r8, r9, sl, lr}
 8004d0c:	4691      	mov	r9, r2
 8004d0e:	461f      	mov	r7, r3
 8004d10:	688a      	ldr	r2, [r1, #8]
 8004d12:	690b      	ldr	r3, [r1, #16]
 8004d14:	f8dd 8020 	ldr.w	r8, [sp, #32]
 8004d18:	4293      	cmp	r3, r2
 8004d1a:	bfb8      	it	lt
 8004d1c:	4613      	movlt	r3, r2
 8004d1e:	f8c9 3000 	str.w	r3, [r9]
 8004d22:	f891 2043 	ldrb.w	r2, [r1, #67]	; 0x43
 8004d26:	4606      	mov	r6, r0
 8004d28:	460c      	mov	r4, r1
 8004d2a:	b112      	cbz	r2, 8004d32 <_printf_common+0x2a>
 8004d2c:	3301      	adds	r3, #1
 8004d2e:	f8c9 3000 	str.w	r3, [r9]
 8004d32:	6823      	ldr	r3, [r4, #0]
 8004d34:	0699      	lsls	r1, r3, #26
 8004d36:	bf42      	ittt	mi
 8004d38:	f8d9 3000 	ldrmi.w	r3, [r9]
 8004d3c:	3302      	addmi	r3, #2
 8004d3e:	f8c9 3000 	strmi.w	r3, [r9]
 8004d42:	6825      	ldr	r5, [r4, #0]
 8004d44:	f015 0506 	ands.w	r5, r5, #6
 8004d48:	d107      	bne.n	8004d5a <_printf_common+0x52>
 8004d4a:	f104 0a19 	add.w	sl, r4, #25
 8004d4e:	68e3      	ldr	r3, [r4, #12]
 8004d50:	f8d9 2000 	ldr.w	r2, [r9]
 8004d54:	1a9b      	subs	r3, r3, r2
 8004d56:	42ab      	cmp	r3, r5
 8004d58:	dc28      	bgt.n	8004dac <_printf_common+0xa4>
 8004d5a:	f894 3043 	ldrb.w	r3, [r4, #67]	; 0x43
 8004d5e:	6822      	ldr	r2, [r4, #0]
 8004d60:	3300      	adds	r3, #0
 8004d62:	bf18      	it	ne
 8004d64:	2301      	movne	r3, #1
 8004d66:	0692      	lsls	r2, r2, #26
 8004d68:	d42d      	bmi.n	8004dc6 <_printf_common+0xbe>
 8004d6a:	f104 0243 	add.w	r2, r4, #67	; 0x43
 8004d6e:	4639      	mov	r1, r7
 8004d70:	4630      	mov	r0, r6
 8004d72:	47c0      	blx	r8
 8004d74:	3001      	adds	r0, #1
 8004d76:	d020      	beq.n	8004dba <_printf_common+0xb2>
 8004d78:	6823      	ldr	r3, [r4, #0]
 8004d7a:	68e5      	ldr	r5, [r4, #12]
 8004d7c:	f8d9 2000 	ldr.w	r2, [r9]
 8004d80:	f003 0306 	and.w	r3, r3, #6
 8004d84:	2b04      	cmp	r3, #4
 8004d86:	bf08      	it	eq
 8004d88:	1aad      	subeq	r5, r5, r2
 8004d8a:	68a3      	ldr	r3, [r4, #8]
 8004d8c:	6922      	ldr	r2, [r4, #16]
 8004d8e:	bf0c      	ite	eq
 8004d90:	ea25 75e5 	biceq.w	r5, r5, r5, asr #31
 8004d94:	2500      	movne	r5, #0
 8004d96:	4293      	cmp	r3, r2
 8004d98:	bfc4      	itt	gt
 8004d9a:	1a9b      	subgt	r3, r3, r2
 8004d9c:	18ed      	addgt	r5, r5, r3
 8004d9e:	f04f 0900 	mov.w	r9, #0
 8004da2:	341a      	adds	r4, #26
 8004da4:	454d      	cmp	r5, r9
 8004da6:	d11a      	bne.n	8004dde <_printf_common+0xd6>
 8004da8:	2000      	movs	r0, #0
 8004daa:	e008      	b.n	8004dbe <_printf_common+0xb6>
 8004dac:	2301      	movs	r3, #1
 8004dae:	4652      	mov	r2, sl
 8004db0:	4639      	mov	r1, r7
 8004db2:	4630      	mov	r0, r6
 8004db4:	47c0      	blx	r8
 8004db6:	3001      	adds	r0, #1
 8004db8:	d103      	bne.n	8004dc2 <_printf_common+0xba>
 8004dba:	f04f 30ff 	mov.w	r0, #4294967295
 8004dbe:	e8bd 87f0 	ldmia.w	sp!, {r4, r5, r6, r7, r8, r9, sl, pc}
 8004dc2:	3501      	adds	r5, #1
 8004dc4:	e7c3      	b.n	8004d4e <_printf_common+0x46>
 8004dc6:	18e1      	adds	r1, r4, r3
 8004dc8:	1c5a      	adds	r2, r3, #1
 8004dca:	2030      	movs	r0, #48	; 0x30
 8004dcc:	f881 0043 	strb.w	r0, [r1, #67]	; 0x43
 8004dd0:	4422      	add	r2, r4
 8004dd2:	f894 1045 	ldrb.w	r1, [r4, #69]	; 0x45
 8004dd6:	f882 1043 	strb.w	r1, [r2, #67]	; 0x43
 8004dda:	3302      	adds	r3, #2
 8004ddc:	e7c5      	b.n	8004d6a <_printf_common+0x62>
 8004dde:	2301      	movs	r3, #1
 8004de0:	4622      	mov	r2, r4
 8004de2:	4639      	mov	r1, r7
 8004de4:	4630      	mov	r0, r6
 8004de6:	47c0      	blx	r8
 8004de8:	3001      	adds	r0, #1
 8004dea:	d0e6      	beq.n	8004dba <_printf_common+0xb2>
 8004dec:	f109 0901 	add.w	r9, r9, #1
 8004df0:	e7d8      	b.n	8004da4 <_printf_common+0x9c>
	...

08004df4 <_printf_i>:
 8004df4:	e92d 43f0 	stmdb	sp!, {r4, r5, r6, r7, r8, r9, lr}
 8004df8:	f101 0c43 	add.w	ip, r1, #67	; 0x43
 8004dfc:	460c      	mov	r4, r1
 8004dfe:	7e09      	ldrb	r1, [r1, #24]
 8004e00:	b085      	sub	sp, #20
 8004e02:	296e      	cmp	r1, #110	; 0x6e
 8004e04:	4617      	mov	r7, r2
 8004e06:	4606      	mov	r6, r0
 8004e08:	4698      	mov	r8, r3
 8004e0a:	9a0c      	ldr	r2, [sp, #48]	; 0x30
 8004e0c:	f000 80b3 	beq.w	8004f76 <_printf_i+0x182>
 8004e10:	d822      	bhi.n	8004e58 <_printf_i+0x64>
 8004e12:	2963      	cmp	r1, #99	; 0x63
 8004e14:	d036      	beq.n	8004e84 <_printf_i+0x90>
 8004e16:	d80a      	bhi.n	8004e2e <_printf_i+0x3a>
 8004e18:	2900      	cmp	r1, #0
 8004e1a:	f000 80b9 	beq.w	8004f90 <_printf_i+0x19c>
 8004e1e:	2958      	cmp	r1, #88	; 0x58
 8004e20:	f000 8083 	beq.w	8004f2a <_printf_i+0x136>
 8004e24:	f104 0542 	add.w	r5, r4, #66	; 0x42
 8004e28:	f884 1042 	strb.w	r1, [r4, #66]	; 0x42
 8004e2c:	e032      	b.n	8004e94 <_printf_i+0xa0>
 8004e2e:	2964      	cmp	r1, #100	; 0x64
 8004e30:	d001      	beq.n	8004e36 <_printf_i+0x42>
 8004e32:	2969      	cmp	r1, #105	; 0x69
 8004e34:	d1f6      	bne.n	8004e24 <_printf_i+0x30>
 8004e36:	6820      	ldr	r0, [r4, #0]
 8004e38:	6813      	ldr	r3, [r2, #0]
 8004e3a:	0605      	lsls	r5, r0, #24
 8004e3c:	f103 0104 	add.w	r1, r3, #4
 8004e40:	d52a      	bpl.n	8004e98 <_printf_i+0xa4>
 8004e42:	681b      	ldr	r3, [r3, #0]
 8004e44:	6011      	str	r1, [r2, #0]
 8004e46:	2b00      	cmp	r3, #0
 8004e48:	da03      	bge.n	8004e52 <_printf_i+0x5e>
 8004e4a:	222d      	movs	r2, #45	; 0x2d
 8004e4c:	425b      	negs	r3, r3
 8004e4e:	f884 2043 	strb.w	r2, [r4, #67]	; 0x43
 8004e52:	486f      	ldr	r0, [pc, #444]	; (8005010 <_printf_i+0x21c>)
 8004e54:	220a      	movs	r2, #10
 8004e56:	e039      	b.n	8004ecc <_printf_i+0xd8>
 8004e58:	2973      	cmp	r1, #115	; 0x73
 8004e5a:	f000 809d 	beq.w	8004f98 <_printf_i+0x1a4>
 8004e5e:	d808      	bhi.n	8004e72 <_printf_i+0x7e>
 8004e60:	296f      	cmp	r1, #111	; 0x6f
 8004e62:	d020      	beq.n	8004ea6 <_printf_i+0xb2>
 8004e64:	2970      	cmp	r1, #112	; 0x70
 8004e66:	d1dd      	bne.n	8004e24 <_printf_i+0x30>
 8004e68:	6823      	ldr	r3, [r4, #0]
 8004e6a:	f043 0320 	orr.w	r3, r3, #32
 8004e6e:	6023      	str	r3, [r4, #0]
 8004e70:	e003      	b.n	8004e7a <_printf_i+0x86>
 8004e72:	2975      	cmp	r1, #117	; 0x75
 8004e74:	d017      	beq.n	8004ea6 <_printf_i+0xb2>
 8004e76:	2978      	cmp	r1, #120	; 0x78
 8004e78:	d1d4      	bne.n	8004e24 <_printf_i+0x30>
 8004e7a:	2378      	movs	r3, #120	; 0x78
 8004e7c:	f884 3045 	strb.w	r3, [r4, #69]	; 0x45
 8004e80:	4864      	ldr	r0, [pc, #400]	; (8005014 <_printf_i+0x220>)
 8004e82:	e055      	b.n	8004f30 <_printf_i+0x13c>
 8004e84:	6813      	ldr	r3, [r2, #0]
 8004e86:	1d19      	adds	r1, r3, #4
 8004e88:	681b      	ldr	r3, [r3, #0]
 8004e8a:	6011      	str	r1, [r2, #0]
 8004e8c:	f104 0542 	add.w	r5, r4, #66	; 0x42
 8004e90:	f884 3042 	strb.w	r3, [r4, #66]	; 0x42
 8004e94:	2301      	movs	r3, #1
 8004e96:	e08c      	b.n	8004fb2 <_printf_i+0x1be>
 8004e98:	681b      	ldr	r3, [r3, #0]
 8004e9a:	6011      	str	r1, [r2, #0]
 8004e9c:	f010 0f40 	tst.w	r0, #64	; 0x40
 8004ea0:	bf18      	it	ne
 8004ea2:	b21b      	sxthne	r3, r3
 8004ea4:	e7cf      	b.n	8004e46 <_printf_i+0x52>
 8004ea6:	6813      	ldr	r3, [r2, #0]
 8004ea8:	6825      	ldr	r5, [r4, #0]
 8004eaa:	1d18      	adds	r0, r3, #4
 8004eac:	6010      	str	r0, [r2, #0]
 8004eae:	0628      	lsls	r0, r5, #24
 8004eb0:	d501      	bpl.n	8004eb6 <_printf_i+0xc2>
 8004eb2:	681b      	ldr	r3, [r3, #0]
 8004eb4:	e002      	b.n	8004ebc <_printf_i+0xc8>
 8004eb6:	0668      	lsls	r0, r5, #25
 8004eb8:	d5fb      	bpl.n	8004eb2 <_printf_i+0xbe>
 8004eba:	881b      	ldrh	r3, [r3, #0]
 8004ebc:	4854      	ldr	r0, [pc, #336]	; (8005010 <_printf_i+0x21c>)
 8004ebe:	296f      	cmp	r1, #111	; 0x6f
 8004ec0:	bf14      	ite	ne
 8004ec2:	220a      	movne	r2, #10
 8004ec4:	2208      	moveq	r2, #8
 8004ec6:	2100      	movs	r1, #0
 8004ec8:	f884 1043 	strb.w	r1, [r4, #67]	; 0x43
 8004ecc:	6865      	ldr	r5, [r4, #4]
 8004ece:	60a5      	str	r5, [r4, #8]
 8004ed0:	2d00      	cmp	r5, #0
 8004ed2:	f2c0 8095 	blt.w	8005000 <_printf_i+0x20c>
 8004ed6:	6821      	ldr	r1, [r4, #0]
 8004ed8:	f021 0104 	bic.w	r1, r1, #4
 8004edc:	6021      	str	r1, [r4, #0]
 8004ede:	2b00      	cmp	r3, #0
 8004ee0:	d13d      	bne.n	8004f5e <_printf_i+0x16a>
 8004ee2:	2d00      	cmp	r5, #0
 8004ee4:	f040 808e 	bne.w	8005004 <_printf_i+0x210>
 8004ee8:	4665      	mov	r5, ip
 8004eea:	2a08      	cmp	r2, #8
 8004eec:	d10b      	bne.n	8004f06 <_printf_i+0x112>
 8004eee:	6823      	ldr	r3, [r4, #0]
 8004ef0:	07db      	lsls	r3, r3, #31
 8004ef2:	d508      	bpl.n	8004f06 <_printf_i+0x112>
 8004ef4:	6923      	ldr	r3, [r4, #16]
 8004ef6:	6862      	ldr	r2, [r4, #4]
 8004ef8:	429a      	cmp	r2, r3
 8004efa:	bfde      	ittt	le
 8004efc:	2330      	movle	r3, #48	; 0x30
 8004efe:	f805 3c01 	strble.w	r3, [r5, #-1]
 8004f02:	f105 35ff 	addle.w	r5, r5, #4294967295
 8004f06:	ebac 0305 	sub.w	r3, ip, r5
 8004f0a:	6123      	str	r3, [r4, #16]
 8004f0c:	f8cd 8000 	str.w	r8, [sp]
 8004f10:	463b      	mov	r3, r7
 8004f12:	aa03      	add	r2, sp, #12
 8004f14:	4621      	mov	r1, r4
 8004f16:	4630      	mov	r0, r6
 8004f18:	f7ff fef6 	bl	8004d08 <_printf_common>
 8004f1c:	3001      	adds	r0, #1
 8004f1e:	d14d      	bne.n	8004fbc <_printf_i+0x1c8>
 8004f20:	f04f 30ff 	mov.w	r0, #4294967295
 8004f24:	b005      	add	sp, #20
 8004f26:	e8bd 83f0 	ldmia.w	sp!, {r4, r5, r6, r7, r8, r9, pc}
 8004f2a:	4839      	ldr	r0, [pc, #228]	; (8005010 <_printf_i+0x21c>)
 8004f2c:	f884 1045 	strb.w	r1, [r4, #69]	; 0x45
 8004f30:	6813      	ldr	r3, [r2, #0]
 8004f32:	6821      	ldr	r1, [r4, #0]
 8004f34:	1d1d      	adds	r5, r3, #4
 8004f36:	681b      	ldr	r3, [r3, #0]
 8004f38:	6015      	str	r5, [r2, #0]
 8004f3a:	060a      	lsls	r2, r1, #24
 8004f3c:	d50b      	bpl.n	8004f56 <_printf_i+0x162>
 8004f3e:	07ca      	lsls	r2, r1, #31
 8004f40:	bf44      	itt	mi
 8004f42:	f041 0120 	orrmi.w	r1, r1, #32
 8004f46:	6021      	strmi	r1, [r4, #0]
 8004f48:	b91b      	cbnz	r3, 8004f52 <_printf_i+0x15e>
 8004f4a:	6822      	ldr	r2, [r4, #0]
 8004f4c:	f022 0220 	bic.w	r2, r2, #32
 8004f50:	6022      	str	r2, [r4, #0]
 8004f52:	2210      	movs	r2, #16
 8004f54:	e7b7      	b.n	8004ec6 <_printf_i+0xd2>
 8004f56:	064d      	lsls	r5, r1, #25
 8004f58:	bf48      	it	mi
 8004f5a:	b29b      	uxthmi	r3, r3
 8004f5c:	e7ef      	b.n	8004f3e <_printf_i+0x14a>
 8004f5e:	4665      	mov	r5, ip
 8004f60:	fbb3 f1f2 	udiv	r1, r3, r2
 8004f64:	fb02 3311 	mls	r3, r2, r1, r3
 8004f68:	5cc3      	ldrb	r3, [r0, r3]
 8004f6a:	f805 3d01 	strb.w	r3, [r5, #-1]!
 8004f6e:	460b      	mov	r3, r1
 8004f70:	2900      	cmp	r1, #0
 8004f72:	d1f5      	bne.n	8004f60 <_printf_i+0x16c>
 8004f74:	e7b9      	b.n	8004eea <_printf_i+0xf6>
 8004f76:	6813      	ldr	r3, [r2, #0]
 8004f78:	6825      	ldr	r5, [r4, #0]
 8004f7a:	6961      	ldr	r1, [r4, #20]
 8004f7c:	1d18      	adds	r0, r3, #4
 8004f7e:	6010      	str	r0, [r2, #0]
 8004f80:	0628      	lsls	r0, r5, #24
 8004f82:	681b      	ldr	r3, [r3, #0]
 8004f84:	d501      	bpl.n	8004f8a <_printf_i+0x196>
 8004f86:	6019      	str	r1, [r3, #0]
 8004f88:	e002      	b.n	8004f90 <_printf_i+0x19c>
 8004f8a:	066a      	lsls	r2, r5, #25
 8004f8c:	d5fb      	bpl.n	8004f86 <_printf_i+0x192>
 8004f8e:	8019      	strh	r1, [r3, #0]
 8004f90:	2300      	movs	r3, #0
 8004f92:	6123      	str	r3, [r4, #16]
 8004f94:	4665      	mov	r5, ip
 8004f96:	e7b9      	b.n	8004f0c <_printf_i+0x118>
 8004f98:	6813      	ldr	r3, [r2, #0]
 8004f9a:	1d19      	adds	r1, r3, #4
 8004f9c:	6011      	str	r1, [r2, #0]
 8004f9e:	681d      	ldr	r5, [r3, #0]
 8004fa0:	6862      	ldr	r2, [r4, #4]
 8004fa2:	2100      	movs	r1, #0
 8004fa4:	4628      	mov	r0, r5
 8004fa6:	f7fb f933 	bl	8000210 <memchr>
 8004faa:	b108      	cbz	r0, 8004fb0 <_printf_i+0x1bc>
 8004fac:	1b40      	subs	r0, r0, r5
 8004fae:	6060      	str	r0, [r4, #4]
 8004fb0:	6863      	ldr	r3, [r4, #4]
 8004fb2:	6123      	str	r3, [r4, #16]
 8004fb4:	2300      	movs	r3, #0
 8004fb6:	f884 3043 	strb.w	r3, [r4, #67]	; 0x43
 8004fba:	e7a7      	b.n	8004f0c <_printf_i+0x118>
 8004fbc:	6923      	ldr	r3, [r4, #16]
 8004fbe:	462a      	mov	r2, r5
 8004fc0:	4639      	mov	r1, r7
 8004fc2:	4630      	mov	r0, r6
 8004fc4:	47c0      	blx	r8
 8004fc6:	3001      	adds	r0, #1
 8004fc8:	d0aa      	beq.n	8004f20 <_printf_i+0x12c>
 8004fca:	6823      	ldr	r3, [r4, #0]
 8004fcc:	079b      	lsls	r3, r3, #30
 8004fce:	d413      	bmi.n	8004ff8 <_printf_i+0x204>
 8004fd0:	68e0      	ldr	r0, [r4, #12]
 8004fd2:	9b03      	ldr	r3, [sp, #12]
 8004fd4:	4298      	cmp	r0, r3
 8004fd6:	bfb8      	it	lt
 8004fd8:	4618      	movlt	r0, r3
 8004fda:	e7a3      	b.n	8004f24 <_printf_i+0x130>
 8004fdc:	2301      	movs	r3, #1
 8004fde:	464a      	mov	r2, r9
 8004fe0:	4639      	mov	r1, r7
 8004fe2:	4630      	mov	r0, r6
 8004fe4:	47c0      	blx	r8
 8004fe6:	3001      	adds	r0, #1
 8004fe8:	d09a      	beq.n	8004f20 <_printf_i+0x12c>
 8004fea:	3501      	adds	r5, #1
 8004fec:	68e3      	ldr	r3, [r4, #12]
 8004fee:	9a03      	ldr	r2, [sp, #12]
 8004ff0:	1a9b      	subs	r3, r3, r2
 8004ff2:	42ab      	cmp	r3, r5
 8004ff4:	dcf2      	bgt.n	8004fdc <_printf_i+0x1e8>
 8004ff6:	e7eb      	b.n	8004fd0 <_printf_i+0x1dc>
 8004ff8:	2500      	movs	r5, #0
 8004ffa:	f104 0919 	add.w	r9, r4, #25
 8004ffe:	e7f5      	b.n	8004fec <_printf_i+0x1f8>
 8005000:	2b00      	cmp	r3, #0
 8005002:	d1ac      	bne.n	8004f5e <_printf_i+0x16a>
 8005004:	7803      	ldrb	r3, [r0, #0]
 8005006:	f884 3042 	strb.w	r3, [r4, #66]	; 0x42
 800500a:	f104 0542 	add.w	r5, r4, #66	; 0x42
 800500e:	e76c      	b.n	8004eea <_printf_i+0xf6>
 8005010:	080157f4 	.word	0x080157f4
 8005014:	08015805 	.word	0x08015805

08005018 <siprintf>:
 8005018:	b40e      	push	{r1, r2, r3}
 800501a:	b500      	push	{lr}
 800501c:	b09c      	sub	sp, #112	; 0x70
 800501e:	ab1d      	add	r3, sp, #116	; 0x74
 8005020:	9002      	str	r0, [sp, #8]
 8005022:	9006      	str	r0, [sp, #24]
 8005024:	f06f 4100 	mvn.w	r1, #2147483648	; 0x80000000
 8005028:	4809      	ldr	r0, [pc, #36]	; (8005050 <siprintf+0x38>)
 800502a:	9107      	str	r1, [sp, #28]
 800502c:	9104      	str	r1, [sp, #16]
 800502e:	4909      	ldr	r1, [pc, #36]	; (8005054 <siprintf+0x3c>)
 8005030:	f853 2b04 	ldr.w	r2, [r3], #4
 8005034:	9105      	str	r1, [sp, #20]
 8005036:	6800      	ldr	r0, [r0, #0]
 8005038:	9301      	str	r3, [sp, #4]
 800503a:	a902      	add	r1, sp, #8
 800503c:	f001 fa74 	bl	8006528 <_svfiprintf_r>
 8005040:	9b02      	ldr	r3, [sp, #8]
 8005042:	2200      	movs	r2, #0
 8005044:	701a      	strb	r2, [r3, #0]
 8005046:	b01c      	add	sp, #112	; 0x70
 8005048:	f85d eb04 	ldr.w	lr, [sp], #4
 800504c:	b003      	add	sp, #12
 800504e:	4770      	bx	lr
 8005050:	20000008 	.word	0x20000008
 8005054:	ffff0208 	.word	0xffff0208

08005058 <strcpy>:
 8005058:	4603      	mov	r3, r0
 800505a:	f811 2b01 	ldrb.w	r2, [r1], #1
 800505e:	f803 2b01 	strb.w	r2, [r3], #1
 8005062:	2a00      	cmp	r2, #0
 8005064:	d1f9      	bne.n	800505a <strcpy+0x2>
 8005066:	4770      	bx	lr

08005068 <__ascii_wctomb>:
 8005068:	b149      	cbz	r1, 800507e <__ascii_wctomb+0x16>
 800506a:	2aff      	cmp	r2, #255	; 0xff
 800506c:	bf85      	ittet	hi
 800506e:	238a      	movhi	r3, #138	; 0x8a
 8005070:	6003      	strhi	r3, [r0, #0]
 8005072:	700a      	strbls	r2, [r1, #0]
 8005074:	f04f 30ff 	movhi.w	r0, #4294967295
 8005078:	bf98      	it	ls
 800507a:	2001      	movls	r0, #1
 800507c:	4770      	bx	lr
 800507e:	4608      	mov	r0, r1
 8005080:	4770      	bx	lr

08005082 <quorem>:
 8005082:	e92d 4ff7 	stmdb	sp!, {r0, r1, r2, r4, r5, r6, r7, r8, r9, sl, fp, lr}
 8005086:	6903      	ldr	r3, [r0, #16]
 8005088:	690c      	ldr	r4, [r1, #16]
 800508a:	42a3      	cmp	r3, r4
 800508c:	4680      	mov	r8, r0
 800508e:	f2c0 8082 	blt.w	8005196 <quorem+0x114>
 8005092:	3c01      	subs	r4, #1
 8005094:	f101 0714 	add.w	r7, r1, #20
 8005098:	ea4f 0c84 	mov.w	ip, r4, lsl #2
 800509c:	f100 0614 	add.w	r6, r0, #20
 80050a0:	f857 5024 	ldr.w	r5, [r7, r4, lsl #2]
 80050a4:	f856 0024 	ldr.w	r0, [r6, r4, lsl #2]
 80050a8:	eb06 030c 	add.w	r3, r6, ip
 80050ac:	3501      	adds	r5, #1
 80050ae:	eb07 090c 	add.w	r9, r7, ip
 80050b2:	9301      	str	r3, [sp, #4]
 80050b4:	fbb0 f5f5 	udiv	r5, r0, r5
 80050b8:	b395      	cbz	r5, 8005120 <quorem+0x9e>
 80050ba:	f04f 0a00 	mov.w	sl, #0
 80050be:	4638      	mov	r0, r7
 80050c0:	46b6      	mov	lr, r6
 80050c2:	46d3      	mov	fp, sl
 80050c4:	f850 2b04 	ldr.w	r2, [r0], #4
 80050c8:	b293      	uxth	r3, r2
 80050ca:	fb05 a303 	mla	r3, r5, r3, sl
 80050ce:	ea4f 4a13 	mov.w	sl, r3, lsr #16
 80050d2:	b29b      	uxth	r3, r3
 80050d4:	ebab 0303 	sub.w	r3, fp, r3
 80050d8:	0c12      	lsrs	r2, r2, #16
 80050da:	f8de b000 	ldr.w	fp, [lr]
 80050de:	fb05 a202 	mla	r2, r5, r2, sl
 80050e2:	fa13 f38b 	uxtah	r3, r3, fp
 80050e6:	ea4f 4a12 	mov.w	sl, r2, lsr #16
 80050ea:	fa1f fb82 	uxth.w	fp, r2
 80050ee:	f8de 2000 	ldr.w	r2, [lr]
 80050f2:	ebcb 4212 	rsb	r2, fp, r2, lsr #16
 80050f6:	eb02 4223 	add.w	r2, r2, r3, asr #16
 80050fa:	b29b      	uxth	r3, r3
 80050fc:	ea43 4302 	orr.w	r3, r3, r2, lsl #16
 8005100:	4581      	cmp	r9, r0
 8005102:	ea4f 4b22 	mov.w	fp, r2, asr #16
 8005106:	f84e 3b04 	str.w	r3, [lr], #4
 800510a:	d2db      	bcs.n	80050c4 <quorem+0x42>
 800510c:	f856 300c 	ldr.w	r3, [r6, ip]
 8005110:	b933      	cbnz	r3, 8005120 <quorem+0x9e>
 8005112:	9b01      	ldr	r3, [sp, #4]
 8005114:	3b04      	subs	r3, #4
 8005116:	429e      	cmp	r6, r3
 8005118:	461a      	mov	r2, r3
 800511a:	d330      	bcc.n	800517e <quorem+0xfc>
 800511c:	f8c8 4010 	str.w	r4, [r8, #16]
 8005120:	4640      	mov	r0, r8
 8005122:	f001 f82b 	bl	800617c <__mcmp>
 8005126:	2800      	cmp	r0, #0
 8005128:	db25      	blt.n	8005176 <quorem+0xf4>
 800512a:	3501      	adds	r5, #1
 800512c:	4630      	mov	r0, r6
 800512e:	f04f 0c00 	mov.w	ip, #0
 8005132:	f857 2b04 	ldr.w	r2, [r7], #4
 8005136:	f8d0 e000 	ldr.w	lr, [r0]
 800513a:	b293      	uxth	r3, r2
 800513c:	ebac 0303 	sub.w	r3, ip, r3
 8005140:	0c12      	lsrs	r2, r2, #16
 8005142:	fa13 f38e 	uxtah	r3, r3, lr
 8005146:	ebc2 421e 	rsb	r2, r2, lr, lsr #16
 800514a:	eb02 4223 	add.w	r2, r2, r3, asr #16
 800514e:	b29b      	uxth	r3, r3
 8005150:	ea43 4302 	orr.w	r3, r3, r2, lsl #16
 8005154:	45b9      	cmp	r9, r7
 8005156:	ea4f 4c22 	mov.w	ip, r2, asr #16
 800515a:	f840 3b04 	str.w	r3, [r0], #4
 800515e:	d2e8      	bcs.n	8005132 <quorem+0xb0>
 8005160:	f856 2024 	ldr.w	r2, [r6, r4, lsl #2]
 8005164:	eb06 0384 	add.w	r3, r6, r4, lsl #2
 8005168:	b92a      	cbnz	r2, 8005176 <quorem+0xf4>
 800516a:	3b04      	subs	r3, #4
 800516c:	429e      	cmp	r6, r3
 800516e:	461a      	mov	r2, r3
 8005170:	d30b      	bcc.n	800518a <quorem+0x108>
 8005172:	f8c8 4010 	str.w	r4, [r8, #16]
 8005176:	4628      	mov	r0, r5
 8005178:	b003      	add	sp, #12
 800517a:	e8bd 8ff0 	ldmia.w	sp!, {r4, r5, r6, r7, r8, r9, sl, fp, pc}
 800517e:	6812      	ldr	r2, [r2, #0]
 8005180:	3b04      	subs	r3, #4
 8005182:	2a00      	cmp	r2, #0
 8005184:	d1ca      	bne.n	800511c <quorem+0x9a>
 8005186:	3c01      	subs	r4, #1
 8005188:	e7c5      	b.n	8005116 <quorem+0x94>
 800518a:	6812      	ldr	r2, [r2, #0]
 800518c:	3b04      	subs	r3, #4
 800518e:	2a00      	cmp	r2, #0
 8005190:	d1ef      	bne.n	8005172 <quorem+0xf0>
 8005192:	3c01      	subs	r4, #1
 8005194:	e7ea      	b.n	800516c <quorem+0xea>
 8005196:	2000      	movs	r0, #0
 8005198:	e7ee      	b.n	8005178 <quorem+0xf6>
 800519a:	0000      	movs	r0, r0
 800519c:	0000      	movs	r0, r0
	...

080051a0 <_dtoa_r>:
 80051a0:	e92d 4ff0 	stmdb	sp!, {r4, r5, r6, r7, r8, r9, sl, fp, lr}
 80051a4:	ec57 6b10 	vmov	r6, r7, d0
 80051a8:	b097      	sub	sp, #92	; 0x5c
 80051aa:	6a45      	ldr	r5, [r0, #36]	; 0x24
 80051ac:	9106      	str	r1, [sp, #24]
 80051ae:	4604      	mov	r4, r0
 80051b0:	920b      	str	r2, [sp, #44]	; 0x2c
 80051b2:	9312      	str	r3, [sp, #72]	; 0x48
 80051b4:	f8dd 8080 	ldr.w	r8, [sp, #128]	; 0x80
 80051b8:	e9cd 6700 	strd	r6, r7, [sp]
 80051bc:	b93d      	cbnz	r5, 80051ce <_dtoa_r+0x2e>
 80051be:	2010      	movs	r0, #16
 80051c0:	f000 fdb4 	bl	8005d2c <malloc>
 80051c4:	6260      	str	r0, [r4, #36]	; 0x24
 80051c6:	e9c0 5501 	strd	r5, r5, [r0, #4]
 80051ca:	6005      	str	r5, [r0, #0]
 80051cc:	60c5      	str	r5, [r0, #12]
 80051ce:	6a63      	ldr	r3, [r4, #36]	; 0x24
 80051d0:	6819      	ldr	r1, [r3, #0]
 80051d2:	b151      	cbz	r1, 80051ea <_dtoa_r+0x4a>
 80051d4:	685a      	ldr	r2, [r3, #4]
 80051d6:	604a      	str	r2, [r1, #4]
 80051d8:	2301      	movs	r3, #1
 80051da:	4093      	lsls	r3, r2
 80051dc:	608b      	str	r3, [r1, #8]
 80051de:	4620      	mov	r0, r4
 80051e0:	f000 fdeb 	bl	8005dba <_Bfree>
 80051e4:	6a63      	ldr	r3, [r4, #36]	; 0x24
 80051e6:	2200      	movs	r2, #0
 80051e8:	601a      	str	r2, [r3, #0]
 80051ea:	1e3b      	subs	r3, r7, #0
 80051ec:	bfbb      	ittet	lt
 80051ee:	f023 4300 	biclt.w	r3, r3, #2147483648	; 0x80000000
 80051f2:	9301      	strlt	r3, [sp, #4]
 80051f4:	2300      	movge	r3, #0
 80051f6:	2201      	movlt	r2, #1
 80051f8:	bfac      	ite	ge
 80051fa:	f8c8 3000 	strge.w	r3, [r8]
 80051fe:	f8c8 2000 	strlt.w	r2, [r8]
 8005202:	4baf      	ldr	r3, [pc, #700]	; (80054c0 <_dtoa_r+0x320>)
 8005204:	f8dd 8004 	ldr.w	r8, [sp, #4]
 8005208:	ea33 0308 	bics.w	r3, r3, r8
 800520c:	d114      	bne.n	8005238 <_dtoa_r+0x98>
 800520e:	9a12      	ldr	r2, [sp, #72]	; 0x48
 8005210:	f242 730f 	movw	r3, #9999	; 0x270f
 8005214:	6013      	str	r3, [r2, #0]
 8005216:	9b00      	ldr	r3, [sp, #0]
 8005218:	b923      	cbnz	r3, 8005224 <_dtoa_r+0x84>
 800521a:	f3c8 0013 	ubfx	r0, r8, #0, #20
 800521e:	2800      	cmp	r0, #0
 8005220:	f000 8542 	beq.w	8005ca8 <_dtoa_r+0xb08>
 8005224:	9b21      	ldr	r3, [sp, #132]	; 0x84
 8005226:	f8df b2ac 	ldr.w	fp, [pc, #684]	; 80054d4 <_dtoa_r+0x334>
 800522a:	2b00      	cmp	r3, #0
 800522c:	f000 8544 	beq.w	8005cb8 <_dtoa_r+0xb18>
 8005230:	f10b 0303 	add.w	r3, fp, #3
 8005234:	f000 bd3e 	b.w	8005cb4 <_dtoa_r+0xb14>
 8005238:	e9dd 6700 	ldrd	r6, r7, [sp]
 800523c:	2200      	movs	r2, #0
 800523e:	2300      	movs	r3, #0
 8005240:	4630      	mov	r0, r6
 8005242:	4639      	mov	r1, r7
 8005244:	f7fb fc58 	bl	8000af8 <__aeabi_dcmpeq>
 8005248:	4681      	mov	r9, r0
 800524a:	b168      	cbz	r0, 8005268 <_dtoa_r+0xc8>
 800524c:	9a12      	ldr	r2, [sp, #72]	; 0x48
 800524e:	2301      	movs	r3, #1
 8005250:	6013      	str	r3, [r2, #0]
 8005252:	9b21      	ldr	r3, [sp, #132]	; 0x84
 8005254:	2b00      	cmp	r3, #0
 8005256:	f000 8524 	beq.w	8005ca2 <_dtoa_r+0xb02>
 800525a:	4b9a      	ldr	r3, [pc, #616]	; (80054c4 <_dtoa_r+0x324>)
 800525c:	9a21      	ldr	r2, [sp, #132]	; 0x84
 800525e:	f103 3bff 	add.w	fp, r3, #4294967295
 8005262:	6013      	str	r3, [r2, #0]
 8005264:	f000 bd28 	b.w	8005cb8 <_dtoa_r+0xb18>
 8005268:	aa14      	add	r2, sp, #80	; 0x50
 800526a:	a915      	add	r1, sp, #84	; 0x54
 800526c:	ec47 6b10 	vmov	d0, r6, r7
 8005270:	4620      	mov	r0, r4
 8005272:	f000 fffa 	bl	800626a <__d2b>
 8005276:	f3c8 550a 	ubfx	r5, r8, #20, #11
 800527a:	9004      	str	r0, [sp, #16]
 800527c:	2d00      	cmp	r5, #0
 800527e:	d07c      	beq.n	800537a <_dtoa_r+0x1da>
 8005280:	f3c7 0313 	ubfx	r3, r7, #0, #20
 8005284:	f043 5b7f 	orr.w	fp, r3, #1069547520	; 0x3fc00000
 8005288:	46b2      	mov	sl, r6
 800528a:	f44b 1b40 	orr.w	fp, fp, #3145728	; 0x300000
 800528e:	f2a5 35ff 	subw	r5, r5, #1023	; 0x3ff
 8005292:	f8cd 904c 	str.w	r9, [sp, #76]	; 0x4c
 8005296:	2200      	movs	r2, #0
 8005298:	4b8b      	ldr	r3, [pc, #556]	; (80054c8 <_dtoa_r+0x328>)
 800529a:	4650      	mov	r0, sl
 800529c:	4659      	mov	r1, fp
 800529e:	f7fb f80b 	bl	80002b8 <__aeabi_dsub>
 80052a2:	a381      	add	r3, pc, #516	; (adr r3, 80054a8 <_dtoa_r+0x308>)
 80052a4:	e9d3 2300 	ldrd	r2, r3, [r3]
 80052a8:	f7fb f9be 	bl	8000628 <__aeabi_dmul>
 80052ac:	a380      	add	r3, pc, #512	; (adr r3, 80054b0 <_dtoa_r+0x310>)
 80052ae:	e9d3 2300 	ldrd	r2, r3, [r3]
 80052b2:	f7fb f803 	bl	80002bc <__adddf3>
 80052b6:	4606      	mov	r6, r0
 80052b8:	4628      	mov	r0, r5
 80052ba:	460f      	mov	r7, r1
 80052bc:	f7fb f94a 	bl	8000554 <__aeabi_i2d>
 80052c0:	a37d      	add	r3, pc, #500	; (adr r3, 80054b8 <_dtoa_r+0x318>)
 80052c2:	e9d3 2300 	ldrd	r2, r3, [r3]
 80052c6:	f7fb f9af 	bl	8000628 <__aeabi_dmul>
 80052ca:	4602      	mov	r2, r0
 80052cc:	460b      	mov	r3, r1
 80052ce:	4630      	mov	r0, r6
 80052d0:	4639      	mov	r1, r7
 80052d2:	f7fa fff3 	bl	80002bc <__adddf3>
 80052d6:	4606      	mov	r6, r0
 80052d8:	460f      	mov	r7, r1
 80052da:	f7fb fc55 	bl	8000b88 <__aeabi_d2iz>
 80052de:	2200      	movs	r2, #0
 80052e0:	4682      	mov	sl, r0
 80052e2:	2300      	movs	r3, #0
 80052e4:	4630      	mov	r0, r6
 80052e6:	4639      	mov	r1, r7
 80052e8:	f7fb fc10 	bl	8000b0c <__aeabi_dcmplt>
 80052ec:	b148      	cbz	r0, 8005302 <_dtoa_r+0x162>
 80052ee:	4650      	mov	r0, sl
 80052f0:	f7fb f930 	bl	8000554 <__aeabi_i2d>
 80052f4:	4632      	mov	r2, r6
 80052f6:	463b      	mov	r3, r7
 80052f8:	f7fb fbfe 	bl	8000af8 <__aeabi_dcmpeq>
 80052fc:	b908      	cbnz	r0, 8005302 <_dtoa_r+0x162>
 80052fe:	f10a 3aff 	add.w	sl, sl, #4294967295
 8005302:	f1ba 0f16 	cmp.w	sl, #22
 8005306:	d859      	bhi.n	80053bc <_dtoa_r+0x21c>
 8005308:	4970      	ldr	r1, [pc, #448]	; (80054cc <_dtoa_r+0x32c>)
 800530a:	eb01 01ca 	add.w	r1, r1, sl, lsl #3
 800530e:	e9dd 2300 	ldrd	r2, r3, [sp]
 8005312:	e9d1 0100 	ldrd	r0, r1, [r1]
 8005316:	f7fb fc17 	bl	8000b48 <__aeabi_dcmpgt>
 800531a:	2800      	cmp	r0, #0
 800531c:	d050      	beq.n	80053c0 <_dtoa_r+0x220>
 800531e:	f10a 3aff 	add.w	sl, sl, #4294967295
 8005322:	2300      	movs	r3, #0
 8005324:	930f      	str	r3, [sp, #60]	; 0x3c
 8005326:	9b14      	ldr	r3, [sp, #80]	; 0x50
 8005328:	1b5d      	subs	r5, r3, r5
 800532a:	f1b5 0801 	subs.w	r8, r5, #1
 800532e:	bf49      	itett	mi
 8005330:	f1c5 0301 	rsbmi	r3, r5, #1
 8005334:	2300      	movpl	r3, #0
 8005336:	9305      	strmi	r3, [sp, #20]
 8005338:	f04f 0800 	movmi.w	r8, #0
 800533c:	bf58      	it	pl
 800533e:	9305      	strpl	r3, [sp, #20]
 8005340:	f1ba 0f00 	cmp.w	sl, #0
 8005344:	db3e      	blt.n	80053c4 <_dtoa_r+0x224>
 8005346:	2300      	movs	r3, #0
 8005348:	44d0      	add	r8, sl
 800534a:	f8cd a038 	str.w	sl, [sp, #56]	; 0x38
 800534e:	9307      	str	r3, [sp, #28]
 8005350:	9b06      	ldr	r3, [sp, #24]
 8005352:	2b09      	cmp	r3, #9
 8005354:	f200 8090 	bhi.w	8005478 <_dtoa_r+0x2d8>
 8005358:	2b05      	cmp	r3, #5
 800535a:	bfc4      	itt	gt
 800535c:	3b04      	subgt	r3, #4
 800535e:	9306      	strgt	r3, [sp, #24]
 8005360:	9b06      	ldr	r3, [sp, #24]
 8005362:	f1a3 0302 	sub.w	r3, r3, #2
 8005366:	bfcc      	ite	gt
 8005368:	2500      	movgt	r5, #0
 800536a:	2501      	movle	r5, #1
 800536c:	2b03      	cmp	r3, #3
 800536e:	f200 808f 	bhi.w	8005490 <_dtoa_r+0x2f0>
 8005372:	e8df f003 	tbb	[pc, r3]
 8005376:	7f7d      	.short	0x7f7d
 8005378:	7131      	.short	0x7131
 800537a:	e9dd 5314 	ldrd	r5, r3, [sp, #80]	; 0x50
 800537e:	441d      	add	r5, r3
 8005380:	f205 4032 	addw	r0, r5, #1074	; 0x432
 8005384:	2820      	cmp	r0, #32
 8005386:	dd13      	ble.n	80053b0 <_dtoa_r+0x210>
 8005388:	f1c0 0040 	rsb	r0, r0, #64	; 0x40
 800538c:	9b00      	ldr	r3, [sp, #0]
 800538e:	fa08 f800 	lsl.w	r8, r8, r0
 8005392:	f205 4012 	addw	r0, r5, #1042	; 0x412
 8005396:	fa23 f000 	lsr.w	r0, r3, r0
 800539a:	ea48 0000 	orr.w	r0, r8, r0
 800539e:	f7fb f8c9 	bl	8000534 <__aeabi_ui2d>
 80053a2:	2301      	movs	r3, #1
 80053a4:	4682      	mov	sl, r0
 80053a6:	f1a1 7bf8 	sub.w	fp, r1, #32505856	; 0x1f00000
 80053aa:	3d01      	subs	r5, #1
 80053ac:	9313      	str	r3, [sp, #76]	; 0x4c
 80053ae:	e772      	b.n	8005296 <_dtoa_r+0xf6>
 80053b0:	9b00      	ldr	r3, [sp, #0]
 80053b2:	f1c0 0020 	rsb	r0, r0, #32
 80053b6:	fa03 f000 	lsl.w	r0, r3, r0
 80053ba:	e7f0      	b.n	800539e <_dtoa_r+0x1fe>
 80053bc:	2301      	movs	r3, #1
 80053be:	e7b1      	b.n	8005324 <_dtoa_r+0x184>
 80053c0:	900f      	str	r0, [sp, #60]	; 0x3c
 80053c2:	e7b0      	b.n	8005326 <_dtoa_r+0x186>
 80053c4:	9b05      	ldr	r3, [sp, #20]
 80053c6:	eba3 030a 	sub.w	r3, r3, sl
 80053ca:	9305      	str	r3, [sp, #20]
 80053cc:	f1ca 0300 	rsb	r3, sl, #0
 80053d0:	9307      	str	r3, [sp, #28]
 80053d2:	2300      	movs	r3, #0
 80053d4:	930e      	str	r3, [sp, #56]	; 0x38
 80053d6:	e7bb      	b.n	8005350 <_dtoa_r+0x1b0>
 80053d8:	2301      	movs	r3, #1
 80053da:	930a      	str	r3, [sp, #40]	; 0x28
 80053dc:	9b0b      	ldr	r3, [sp, #44]	; 0x2c
 80053de:	2b00      	cmp	r3, #0
 80053e0:	dd59      	ble.n	8005496 <_dtoa_r+0x2f6>
 80053e2:	9302      	str	r3, [sp, #8]
 80053e4:	4699      	mov	r9, r3
 80053e6:	6a66      	ldr	r6, [r4, #36]	; 0x24
 80053e8:	2200      	movs	r2, #0
 80053ea:	6072      	str	r2, [r6, #4]
 80053ec:	2204      	movs	r2, #4
 80053ee:	f102 0014 	add.w	r0, r2, #20
 80053f2:	4298      	cmp	r0, r3
 80053f4:	6871      	ldr	r1, [r6, #4]
 80053f6:	d953      	bls.n	80054a0 <_dtoa_r+0x300>
 80053f8:	4620      	mov	r0, r4
 80053fa:	f000 fcaa 	bl	8005d52 <_Balloc>
 80053fe:	6a63      	ldr	r3, [r4, #36]	; 0x24
 8005400:	6030      	str	r0, [r6, #0]
 8005402:	f1b9 0f0e 	cmp.w	r9, #14
 8005406:	f8d3 b000 	ldr.w	fp, [r3]
 800540a:	f200 80e6 	bhi.w	80055da <_dtoa_r+0x43a>
 800540e:	2d00      	cmp	r5, #0
 8005410:	f000 80e3 	beq.w	80055da <_dtoa_r+0x43a>
 8005414:	ed9d 7b00 	vldr	d7, [sp]
 8005418:	f1ba 0f00 	cmp.w	sl, #0
 800541c:	ed8d 7b10 	vstr	d7, [sp, #64]	; 0x40
 8005420:	dd74      	ble.n	800550c <_dtoa_r+0x36c>
 8005422:	4a2a      	ldr	r2, [pc, #168]	; (80054cc <_dtoa_r+0x32c>)
 8005424:	f00a 030f 	and.w	r3, sl, #15
 8005428:	eb02 03c3 	add.w	r3, r2, r3, lsl #3
 800542c:	ed93 7b00 	vldr	d7, [r3]
 8005430:	ea4f 162a 	mov.w	r6, sl, asr #4
 8005434:	06f0      	lsls	r0, r6, #27
 8005436:	ed8d 7b08 	vstr	d7, [sp, #32]
 800543a:	d565      	bpl.n	8005508 <_dtoa_r+0x368>
 800543c:	4b24      	ldr	r3, [pc, #144]	; (80054d0 <_dtoa_r+0x330>)
 800543e:	e9dd 0110 	ldrd	r0, r1, [sp, #64]	; 0x40
 8005442:	e9d3 2308 	ldrd	r2, r3, [r3, #32]
 8005446:	f7fb fa19 	bl	800087c <__aeabi_ddiv>
 800544a:	e9cd 0100 	strd	r0, r1, [sp]
 800544e:	f006 060f 	and.w	r6, r6, #15
 8005452:	2503      	movs	r5, #3
 8005454:	4f1e      	ldr	r7, [pc, #120]	; (80054d0 <_dtoa_r+0x330>)
 8005456:	e04c      	b.n	80054f2 <_dtoa_r+0x352>
 8005458:	2301      	movs	r3, #1
 800545a:	930a      	str	r3, [sp, #40]	; 0x28
 800545c:	9b0b      	ldr	r3, [sp, #44]	; 0x2c
 800545e:	4453      	add	r3, sl
 8005460:	f103 0901 	add.w	r9, r3, #1
 8005464:	9302      	str	r3, [sp, #8]
 8005466:	464b      	mov	r3, r9
 8005468:	2b01      	cmp	r3, #1
 800546a:	bfb8      	it	lt
 800546c:	2301      	movlt	r3, #1
 800546e:	e7ba      	b.n	80053e6 <_dtoa_r+0x246>
 8005470:	2300      	movs	r3, #0
 8005472:	e7b2      	b.n	80053da <_dtoa_r+0x23a>
 8005474:	2300      	movs	r3, #0
 8005476:	e7f0      	b.n	800545a <_dtoa_r+0x2ba>
 8005478:	2501      	movs	r5, #1
 800547a:	2300      	movs	r3, #0
 800547c:	9306      	str	r3, [sp, #24]
 800547e:	950a      	str	r5, [sp, #40]	; 0x28
 8005480:	f04f 33ff 	mov.w	r3, #4294967295
 8005484:	9302      	str	r3, [sp, #8]
 8005486:	4699      	mov	r9, r3
 8005488:	2200      	movs	r2, #0
 800548a:	2312      	movs	r3, #18
 800548c:	920b      	str	r2, [sp, #44]	; 0x2c
 800548e:	e7aa      	b.n	80053e6 <_dtoa_r+0x246>
 8005490:	2301      	movs	r3, #1
 8005492:	930a      	str	r3, [sp, #40]	; 0x28
 8005494:	e7f4      	b.n	8005480 <_dtoa_r+0x2e0>
 8005496:	2301      	movs	r3, #1
 8005498:	9302      	str	r3, [sp, #8]
 800549a:	4699      	mov	r9, r3
 800549c:	461a      	mov	r2, r3
 800549e:	e7f5      	b.n	800548c <_dtoa_r+0x2ec>
 80054a0:	3101      	adds	r1, #1
 80054a2:	6071      	str	r1, [r6, #4]
 80054a4:	0052      	lsls	r2, r2, #1
 80054a6:	e7a2      	b.n	80053ee <_dtoa_r+0x24e>
 80054a8:	636f4361 	.word	0x636f4361
 80054ac:	3fd287a7 	.word	0x3fd287a7
 80054b0:	8b60c8b3 	.word	0x8b60c8b3
 80054b4:	3fc68a28 	.word	0x3fc68a28
 80054b8:	509f79fb 	.word	0x509f79fb
 80054bc:	3fd34413 	.word	0x3fd34413
 80054c0:	7ff00000 	.word	0x7ff00000
 80054c4:	080157f3 	.word	0x080157f3
 80054c8:	3ff80000 	.word	0x3ff80000
 80054cc:	08015950 	.word	0x08015950
 80054d0:	08015928 	.word	0x08015928
 80054d4:	08015920 	.word	0x08015920
 80054d8:	07f1      	lsls	r1, r6, #31
 80054da:	d508      	bpl.n	80054ee <_dtoa_r+0x34e>
 80054dc:	e9dd 0108 	ldrd	r0, r1, [sp, #32]
 80054e0:	e9d7 2300 	ldrd	r2, r3, [r7]
 80054e4:	f7fb f8a0 	bl	8000628 <__aeabi_dmul>
 80054e8:	e9cd 0108 	strd	r0, r1, [sp, #32]
 80054ec:	3501      	adds	r5, #1
 80054ee:	1076      	asrs	r6, r6, #1
 80054f0:	3708      	adds	r7, #8
 80054f2:	2e00      	cmp	r6, #0
 80054f4:	d1f0      	bne.n	80054d8 <_dtoa_r+0x338>
 80054f6:	e9dd 2308 	ldrd	r2, r3, [sp, #32]
 80054fa:	e9dd 0100 	ldrd	r0, r1, [sp]
 80054fe:	f7fb f9bd 	bl	800087c <__aeabi_ddiv>
 8005502:	e9cd 0100 	strd	r0, r1, [sp]
 8005506:	e01a      	b.n	800553e <_dtoa_r+0x39e>
 8005508:	2502      	movs	r5, #2
 800550a:	e7a3      	b.n	8005454 <_dtoa_r+0x2b4>
 800550c:	f000 80a0 	beq.w	8005650 <_dtoa_r+0x4b0>
 8005510:	f1ca 0600 	rsb	r6, sl, #0
 8005514:	4b9f      	ldr	r3, [pc, #636]	; (8005794 <_dtoa_r+0x5f4>)
 8005516:	4fa0      	ldr	r7, [pc, #640]	; (8005798 <_dtoa_r+0x5f8>)
 8005518:	f006 020f 	and.w	r2, r6, #15
 800551c:	eb03 03c2 	add.w	r3, r3, r2, lsl #3
 8005520:	e9d3 2300 	ldrd	r2, r3, [r3]
 8005524:	e9dd 0110 	ldrd	r0, r1, [sp, #64]	; 0x40
 8005528:	f7fb f87e 	bl	8000628 <__aeabi_dmul>
 800552c:	e9cd 0100 	strd	r0, r1, [sp]
 8005530:	1136      	asrs	r6, r6, #4
 8005532:	2300      	movs	r3, #0
 8005534:	2502      	movs	r5, #2
 8005536:	2e00      	cmp	r6, #0
 8005538:	d17f      	bne.n	800563a <_dtoa_r+0x49a>
 800553a:	2b00      	cmp	r3, #0
 800553c:	d1e1      	bne.n	8005502 <_dtoa_r+0x362>
 800553e:	9b0f      	ldr	r3, [sp, #60]	; 0x3c
 8005540:	2b00      	cmp	r3, #0
 8005542:	f000 8087 	beq.w	8005654 <_dtoa_r+0x4b4>
 8005546:	e9dd 6700 	ldrd	r6, r7, [sp]
 800554a:	2200      	movs	r2, #0
 800554c:	4b93      	ldr	r3, [pc, #588]	; (800579c <_dtoa_r+0x5fc>)
 800554e:	4630      	mov	r0, r6
 8005550:	4639      	mov	r1, r7
 8005552:	f7fb fadb 	bl	8000b0c <__aeabi_dcmplt>
 8005556:	2800      	cmp	r0, #0
 8005558:	d07c      	beq.n	8005654 <_dtoa_r+0x4b4>
 800555a:	f1b9 0f00 	cmp.w	r9, #0
 800555e:	d079      	beq.n	8005654 <_dtoa_r+0x4b4>
 8005560:	9b02      	ldr	r3, [sp, #8]
 8005562:	2b00      	cmp	r3, #0
 8005564:	dd35      	ble.n	80055d2 <_dtoa_r+0x432>
 8005566:	f10a 33ff 	add.w	r3, sl, #4294967295
 800556a:	9308      	str	r3, [sp, #32]
 800556c:	4639      	mov	r1, r7
 800556e:	2200      	movs	r2, #0
 8005570:	4b8b      	ldr	r3, [pc, #556]	; (80057a0 <_dtoa_r+0x600>)
 8005572:	4630      	mov	r0, r6
 8005574:	f7fb f858 	bl	8000628 <__aeabi_dmul>
 8005578:	e9cd 0100 	strd	r0, r1, [sp]
 800557c:	9f02      	ldr	r7, [sp, #8]
 800557e:	3501      	adds	r5, #1
 8005580:	4628      	mov	r0, r5
 8005582:	f7fa ffe7 	bl	8000554 <__aeabi_i2d>
 8005586:	e9dd 2300 	ldrd	r2, r3, [sp]
 800558a:	f7fb f84d 	bl	8000628 <__aeabi_dmul>
 800558e:	2200      	movs	r2, #0
 8005590:	4b84      	ldr	r3, [pc, #528]	; (80057a4 <_dtoa_r+0x604>)
 8005592:	f7fa fe93 	bl	80002bc <__adddf3>
 8005596:	4605      	mov	r5, r0
 8005598:	f1a1 7650 	sub.w	r6, r1, #54525952	; 0x3400000
 800559c:	2f00      	cmp	r7, #0
 800559e:	d15d      	bne.n	800565c <_dtoa_r+0x4bc>
 80055a0:	2200      	movs	r2, #0
 80055a2:	4b81      	ldr	r3, [pc, #516]	; (80057a8 <_dtoa_r+0x608>)
 80055a4:	e9dd 0100 	ldrd	r0, r1, [sp]
 80055a8:	f7fa fe86 	bl	80002b8 <__aeabi_dsub>
 80055ac:	462a      	mov	r2, r5
 80055ae:	4633      	mov	r3, r6
 80055b0:	e9cd 0100 	strd	r0, r1, [sp]
 80055b4:	f7fb fac8 	bl	8000b48 <__aeabi_dcmpgt>
 80055b8:	2800      	cmp	r0, #0
 80055ba:	f040 8288 	bne.w	8005ace <_dtoa_r+0x92e>
 80055be:	462a      	mov	r2, r5
 80055c0:	f106 4300 	add.w	r3, r6, #2147483648	; 0x80000000
 80055c4:	e9dd 0100 	ldrd	r0, r1, [sp]
 80055c8:	f7fb faa0 	bl	8000b0c <__aeabi_dcmplt>
 80055cc:	2800      	cmp	r0, #0
 80055ce:	f040 827c 	bne.w	8005aca <_dtoa_r+0x92a>
 80055d2:	e9dd 2310 	ldrd	r2, r3, [sp, #64]	; 0x40
 80055d6:	e9cd 2300 	strd	r2, r3, [sp]
 80055da:	9b15      	ldr	r3, [sp, #84]	; 0x54
 80055dc:	2b00      	cmp	r3, #0
 80055de:	f2c0 8150 	blt.w	8005882 <_dtoa_r+0x6e2>
 80055e2:	f1ba 0f0e 	cmp.w	sl, #14
 80055e6:	f300 814c 	bgt.w	8005882 <_dtoa_r+0x6e2>
 80055ea:	4b6a      	ldr	r3, [pc, #424]	; (8005794 <_dtoa_r+0x5f4>)
 80055ec:	eb03 03ca 	add.w	r3, r3, sl, lsl #3
 80055f0:	ed93 7b00 	vldr	d7, [r3]
 80055f4:	9b0b      	ldr	r3, [sp, #44]	; 0x2c
 80055f6:	2b00      	cmp	r3, #0
 80055f8:	ed8d 7b02 	vstr	d7, [sp, #8]
 80055fc:	f280 80d8 	bge.w	80057b0 <_dtoa_r+0x610>
 8005600:	f1b9 0f00 	cmp.w	r9, #0
 8005604:	f300 80d4 	bgt.w	80057b0 <_dtoa_r+0x610>
 8005608:	f040 825e 	bne.w	8005ac8 <_dtoa_r+0x928>
 800560c:	2200      	movs	r2, #0
 800560e:	4b66      	ldr	r3, [pc, #408]	; (80057a8 <_dtoa_r+0x608>)
 8005610:	ec51 0b17 	vmov	r0, r1, d7
 8005614:	f7fb f808 	bl	8000628 <__aeabi_dmul>
 8005618:	e9dd 2300 	ldrd	r2, r3, [sp]
 800561c:	f7fb fa8a 	bl	8000b34 <__aeabi_dcmpge>
 8005620:	464f      	mov	r7, r9
 8005622:	464e      	mov	r6, r9
 8005624:	2800      	cmp	r0, #0
 8005626:	f040 8234 	bne.w	8005a92 <_dtoa_r+0x8f2>
 800562a:	2331      	movs	r3, #49	; 0x31
 800562c:	f10b 0501 	add.w	r5, fp, #1
 8005630:	f88b 3000 	strb.w	r3, [fp]
 8005634:	f10a 0a01 	add.w	sl, sl, #1
 8005638:	e22f      	b.n	8005a9a <_dtoa_r+0x8fa>
 800563a:	07f2      	lsls	r2, r6, #31
 800563c:	d505      	bpl.n	800564a <_dtoa_r+0x4aa>
 800563e:	e9d7 2300 	ldrd	r2, r3, [r7]
 8005642:	f7fa fff1 	bl	8000628 <__aeabi_dmul>
 8005646:	3501      	adds	r5, #1
 8005648:	2301      	movs	r3, #1
 800564a:	1076      	asrs	r6, r6, #1
 800564c:	3708      	adds	r7, #8
 800564e:	e772      	b.n	8005536 <_dtoa_r+0x396>
 8005650:	2502      	movs	r5, #2
 8005652:	e774      	b.n	800553e <_dtoa_r+0x39e>
 8005654:	f8cd a020 	str.w	sl, [sp, #32]
 8005658:	464f      	mov	r7, r9
 800565a:	e791      	b.n	8005580 <_dtoa_r+0x3e0>
 800565c:	4b4d      	ldr	r3, [pc, #308]	; (8005794 <_dtoa_r+0x5f4>)
 800565e:	eb03 03c7 	add.w	r3, r3, r7, lsl #3
 8005662:	e953 0102 	ldrd	r0, r1, [r3, #-8]
 8005666:	9b0a      	ldr	r3, [sp, #40]	; 0x28
 8005668:	2b00      	cmp	r3, #0
 800566a:	d047      	beq.n	80056fc <_dtoa_r+0x55c>
 800566c:	4602      	mov	r2, r0
 800566e:	460b      	mov	r3, r1
 8005670:	2000      	movs	r0, #0
 8005672:	494e      	ldr	r1, [pc, #312]	; (80057ac <_dtoa_r+0x60c>)
 8005674:	f7fb f902 	bl	800087c <__aeabi_ddiv>
 8005678:	462a      	mov	r2, r5
 800567a:	4633      	mov	r3, r6
 800567c:	f7fa fe1c 	bl	80002b8 <__aeabi_dsub>
 8005680:	e9cd 010c 	strd	r0, r1, [sp, #48]	; 0x30
 8005684:	465d      	mov	r5, fp
 8005686:	e9dd 0100 	ldrd	r0, r1, [sp]
 800568a:	f7fb fa7d 	bl	8000b88 <__aeabi_d2iz>
 800568e:	4606      	mov	r6, r0
 8005690:	f7fa ff60 	bl	8000554 <__aeabi_i2d>
 8005694:	4602      	mov	r2, r0
 8005696:	460b      	mov	r3, r1
 8005698:	e9dd 0100 	ldrd	r0, r1, [sp]
 800569c:	f7fa fe0c 	bl	80002b8 <__aeabi_dsub>
 80056a0:	3630      	adds	r6, #48	; 0x30
 80056a2:	f805 6b01 	strb.w	r6, [r5], #1
 80056a6:	e9dd 230c 	ldrd	r2, r3, [sp, #48]	; 0x30
 80056aa:	e9cd 0100 	strd	r0, r1, [sp]
 80056ae:	f7fb fa2d 	bl	8000b0c <__aeabi_dcmplt>
 80056b2:	2800      	cmp	r0, #0
 80056b4:	d163      	bne.n	800577e <_dtoa_r+0x5de>
 80056b6:	e9dd 2300 	ldrd	r2, r3, [sp]
 80056ba:	2000      	movs	r0, #0
 80056bc:	4937      	ldr	r1, [pc, #220]	; (800579c <_dtoa_r+0x5fc>)
 80056be:	f7fa fdfb 	bl	80002b8 <__aeabi_dsub>
 80056c2:	e9dd 230c 	ldrd	r2, r3, [sp, #48]	; 0x30
 80056c6:	f7fb fa21 	bl	8000b0c <__aeabi_dcmplt>
 80056ca:	2800      	cmp	r0, #0
 80056cc:	f040 80b7 	bne.w	800583e <_dtoa_r+0x69e>
 80056d0:	eba5 030b 	sub.w	r3, r5, fp
 80056d4:	429f      	cmp	r7, r3
 80056d6:	f77f af7c 	ble.w	80055d2 <_dtoa_r+0x432>
 80056da:	2200      	movs	r2, #0
 80056dc:	4b30      	ldr	r3, [pc, #192]	; (80057a0 <_dtoa_r+0x600>)
 80056de:	e9dd 010c 	ldrd	r0, r1, [sp, #48]	; 0x30
 80056e2:	f7fa ffa1 	bl	8000628 <__aeabi_dmul>
 80056e6:	2200      	movs	r2, #0
 80056e8:	e9cd 010c 	strd	r0, r1, [sp, #48]	; 0x30
 80056ec:	4b2c      	ldr	r3, [pc, #176]	; (80057a0 <_dtoa_r+0x600>)
 80056ee:	e9dd 0100 	ldrd	r0, r1, [sp]
 80056f2:	f7fa ff99 	bl	8000628 <__aeabi_dmul>
 80056f6:	e9cd 0100 	strd	r0, r1, [sp]
 80056fa:	e7c4      	b.n	8005686 <_dtoa_r+0x4e6>
 80056fc:	462a      	mov	r2, r5
 80056fe:	4633      	mov	r3, r6
 8005700:	f7fa ff92 	bl	8000628 <__aeabi_dmul>
 8005704:	e9cd 010c 	strd	r0, r1, [sp, #48]	; 0x30
 8005708:	eb0b 0507 	add.w	r5, fp, r7
 800570c:	465e      	mov	r6, fp
 800570e:	e9dd 0100 	ldrd	r0, r1, [sp]
 8005712:	f7fb fa39 	bl	8000b88 <__aeabi_d2iz>
 8005716:	4607      	mov	r7, r0
 8005718:	f7fa ff1c 	bl	8000554 <__aeabi_i2d>
 800571c:	3730      	adds	r7, #48	; 0x30
 800571e:	4602      	mov	r2, r0
 8005720:	460b      	mov	r3, r1
 8005722:	e9dd 0100 	ldrd	r0, r1, [sp]
 8005726:	f7fa fdc7 	bl	80002b8 <__aeabi_dsub>
 800572a:	f806 7b01 	strb.w	r7, [r6], #1
 800572e:	42ae      	cmp	r6, r5
 8005730:	e9cd 0100 	strd	r0, r1, [sp]
 8005734:	f04f 0200 	mov.w	r2, #0
 8005738:	d126      	bne.n	8005788 <_dtoa_r+0x5e8>
 800573a:	4b1c      	ldr	r3, [pc, #112]	; (80057ac <_dtoa_r+0x60c>)
 800573c:	e9dd 010c 	ldrd	r0, r1, [sp, #48]	; 0x30
 8005740:	f7fa fdbc 	bl	80002bc <__adddf3>
 8005744:	4602      	mov	r2, r0
 8005746:	460b      	mov	r3, r1
 8005748:	e9dd 0100 	ldrd	r0, r1, [sp]
 800574c:	f7fb f9fc 	bl	8000b48 <__aeabi_dcmpgt>
 8005750:	2800      	cmp	r0, #0
 8005752:	d174      	bne.n	800583e <_dtoa_r+0x69e>
 8005754:	e9dd 230c 	ldrd	r2, r3, [sp, #48]	; 0x30
 8005758:	2000      	movs	r0, #0
 800575a:	4914      	ldr	r1, [pc, #80]	; (80057ac <_dtoa_r+0x60c>)
 800575c:	f7fa fdac 	bl	80002b8 <__aeabi_dsub>
 8005760:	4602      	mov	r2, r0
 8005762:	460b      	mov	r3, r1
 8005764:	e9dd 0100 	ldrd	r0, r1, [sp]
 8005768:	f7fb f9d0 	bl	8000b0c <__aeabi_dcmplt>
 800576c:	2800      	cmp	r0, #0
 800576e:	f43f af30 	beq.w	80055d2 <_dtoa_r+0x432>
 8005772:	f815 3c01 	ldrb.w	r3, [r5, #-1]
 8005776:	2b30      	cmp	r3, #48	; 0x30
 8005778:	f105 32ff 	add.w	r2, r5, #4294967295
 800577c:	d002      	beq.n	8005784 <_dtoa_r+0x5e4>
 800577e:	f8dd a020 	ldr.w	sl, [sp, #32]
 8005782:	e04a      	b.n	800581a <_dtoa_r+0x67a>
 8005784:	4615      	mov	r5, r2
 8005786:	e7f4      	b.n	8005772 <_dtoa_r+0x5d2>
 8005788:	4b05      	ldr	r3, [pc, #20]	; (80057a0 <_dtoa_r+0x600>)
 800578a:	f7fa ff4d 	bl	8000628 <__aeabi_dmul>
 800578e:	e9cd 0100 	strd	r0, r1, [sp]
 8005792:	e7bc      	b.n	800570e <_dtoa_r+0x56e>
 8005794:	08015950 	.word	0x08015950
 8005798:	08015928 	.word	0x08015928
 800579c:	3ff00000 	.word	0x3ff00000
 80057a0:	40240000 	.word	0x40240000
 80057a4:	401c0000 	.word	0x401c0000
 80057a8:	40140000 	.word	0x40140000
 80057ac:	3fe00000 	.word	0x3fe00000
 80057b0:	e9dd 6700 	ldrd	r6, r7, [sp]
 80057b4:	465d      	mov	r5, fp
 80057b6:	e9dd 2302 	ldrd	r2, r3, [sp, #8]
 80057ba:	4630      	mov	r0, r6
 80057bc:	4639      	mov	r1, r7
 80057be:	f7fb f85d 	bl	800087c <__aeabi_ddiv>
 80057c2:	f7fb f9e1 	bl	8000b88 <__aeabi_d2iz>
 80057c6:	4680      	mov	r8, r0
 80057c8:	f7fa fec4 	bl	8000554 <__aeabi_i2d>
 80057cc:	e9dd 2302 	ldrd	r2, r3, [sp, #8]
 80057d0:	f7fa ff2a 	bl	8000628 <__aeabi_dmul>
 80057d4:	4602      	mov	r2, r0
 80057d6:	460b      	mov	r3, r1
 80057d8:	4630      	mov	r0, r6
 80057da:	4639      	mov	r1, r7
 80057dc:	f108 0630 	add.w	r6, r8, #48	; 0x30
 80057e0:	f7fa fd6a 	bl	80002b8 <__aeabi_dsub>
 80057e4:	f805 6b01 	strb.w	r6, [r5], #1
 80057e8:	eba5 060b 	sub.w	r6, r5, fp
 80057ec:	45b1      	cmp	r9, r6
 80057ee:	4602      	mov	r2, r0
 80057f0:	460b      	mov	r3, r1
 80057f2:	d139      	bne.n	8005868 <_dtoa_r+0x6c8>
 80057f4:	f7fa fd62 	bl	80002bc <__adddf3>
 80057f8:	e9dd 2302 	ldrd	r2, r3, [sp, #8]
 80057fc:	4606      	mov	r6, r0
 80057fe:	460f      	mov	r7, r1
 8005800:	f7fb f9a2 	bl	8000b48 <__aeabi_dcmpgt>
 8005804:	b9c8      	cbnz	r0, 800583a <_dtoa_r+0x69a>
 8005806:	e9dd 2302 	ldrd	r2, r3, [sp, #8]
 800580a:	4630      	mov	r0, r6
 800580c:	4639      	mov	r1, r7
 800580e:	f7fb f973 	bl	8000af8 <__aeabi_dcmpeq>
 8005812:	b110      	cbz	r0, 800581a <_dtoa_r+0x67a>
 8005814:	f018 0f01 	tst.w	r8, #1
 8005818:	d10f      	bne.n	800583a <_dtoa_r+0x69a>
 800581a:	9904      	ldr	r1, [sp, #16]
 800581c:	4620      	mov	r0, r4
 800581e:	f000 facc 	bl	8005dba <_Bfree>
 8005822:	2300      	movs	r3, #0
 8005824:	9a12      	ldr	r2, [sp, #72]	; 0x48
 8005826:	702b      	strb	r3, [r5, #0]
 8005828:	f10a 0301 	add.w	r3, sl, #1
 800582c:	6013      	str	r3, [r2, #0]
 800582e:	9b21      	ldr	r3, [sp, #132]	; 0x84
 8005830:	2b00      	cmp	r3, #0
 8005832:	f000 8241 	beq.w	8005cb8 <_dtoa_r+0xb18>
 8005836:	601d      	str	r5, [r3, #0]
 8005838:	e23e      	b.n	8005cb8 <_dtoa_r+0xb18>
 800583a:	f8cd a020 	str.w	sl, [sp, #32]
 800583e:	f815 2c01 	ldrb.w	r2, [r5, #-1]
 8005842:	2a39      	cmp	r2, #57	; 0x39
 8005844:	f105 33ff 	add.w	r3, r5, #4294967295
 8005848:	d108      	bne.n	800585c <_dtoa_r+0x6bc>
 800584a:	459b      	cmp	fp, r3
 800584c:	d10a      	bne.n	8005864 <_dtoa_r+0x6c4>
 800584e:	9b08      	ldr	r3, [sp, #32]
 8005850:	3301      	adds	r3, #1
 8005852:	9308      	str	r3, [sp, #32]
 8005854:	2330      	movs	r3, #48	; 0x30
 8005856:	f88b 3000 	strb.w	r3, [fp]
 800585a:	465b      	mov	r3, fp
 800585c:	781a      	ldrb	r2, [r3, #0]
 800585e:	3201      	adds	r2, #1
 8005860:	701a      	strb	r2, [r3, #0]
 8005862:	e78c      	b.n	800577e <_dtoa_r+0x5de>
 8005864:	461d      	mov	r5, r3
 8005866:	e7ea      	b.n	800583e <_dtoa_r+0x69e>
 8005868:	2200      	movs	r2, #0
 800586a:	4b9b      	ldr	r3, [pc, #620]	; (8005ad8 <_dtoa_r+0x938>)
 800586c:	f7fa fedc 	bl	8000628 <__aeabi_dmul>
 8005870:	2200      	movs	r2, #0
 8005872:	2300      	movs	r3, #0
 8005874:	4606      	mov	r6, r0
 8005876:	460f      	mov	r7, r1
 8005878:	f7fb f93e 	bl	8000af8 <__aeabi_dcmpeq>
 800587c:	2800      	cmp	r0, #0
 800587e:	d09a      	beq.n	80057b6 <_dtoa_r+0x616>
 8005880:	e7cb      	b.n	800581a <_dtoa_r+0x67a>
 8005882:	9a0a      	ldr	r2, [sp, #40]	; 0x28
 8005884:	2a00      	cmp	r2, #0
 8005886:	f000 808b 	beq.w	80059a0 <_dtoa_r+0x800>
 800588a:	9a06      	ldr	r2, [sp, #24]
 800588c:	2a01      	cmp	r2, #1
 800588e:	dc6e      	bgt.n	800596e <_dtoa_r+0x7ce>
 8005890:	9a13      	ldr	r2, [sp, #76]	; 0x4c
 8005892:	2a00      	cmp	r2, #0
 8005894:	d067      	beq.n	8005966 <_dtoa_r+0x7c6>
 8005896:	f203 4333 	addw	r3, r3, #1075	; 0x433
 800589a:	9f07      	ldr	r7, [sp, #28]
 800589c:	9d05      	ldr	r5, [sp, #20]
 800589e:	9a05      	ldr	r2, [sp, #20]
 80058a0:	2101      	movs	r1, #1
 80058a2:	441a      	add	r2, r3
 80058a4:	4620      	mov	r0, r4
 80058a6:	9205      	str	r2, [sp, #20]
 80058a8:	4498      	add	r8, r3
 80058aa:	f000 fb26 	bl	8005efa <__i2b>
 80058ae:	4606      	mov	r6, r0
 80058b0:	2d00      	cmp	r5, #0
 80058b2:	dd0c      	ble.n	80058ce <_dtoa_r+0x72e>
 80058b4:	f1b8 0f00 	cmp.w	r8, #0
 80058b8:	dd09      	ble.n	80058ce <_dtoa_r+0x72e>
 80058ba:	4545      	cmp	r5, r8
 80058bc:	9a05      	ldr	r2, [sp, #20]
 80058be:	462b      	mov	r3, r5
 80058c0:	bfa8      	it	ge
 80058c2:	4643      	movge	r3, r8
 80058c4:	1ad2      	subs	r2, r2, r3
 80058c6:	9205      	str	r2, [sp, #20]
 80058c8:	1aed      	subs	r5, r5, r3
 80058ca:	eba8 0803 	sub.w	r8, r8, r3
 80058ce:	9b07      	ldr	r3, [sp, #28]
 80058d0:	b1eb      	cbz	r3, 800590e <_dtoa_r+0x76e>
 80058d2:	9b0a      	ldr	r3, [sp, #40]	; 0x28
 80058d4:	2b00      	cmp	r3, #0
 80058d6:	d067      	beq.n	80059a8 <_dtoa_r+0x808>
 80058d8:	b18f      	cbz	r7, 80058fe <_dtoa_r+0x75e>
 80058da:	4631      	mov	r1, r6
 80058dc:	463a      	mov	r2, r7
 80058de:	4620      	mov	r0, r4
 80058e0:	f000 fbaa 	bl	8006038 <__pow5mult>
 80058e4:	9a04      	ldr	r2, [sp, #16]
 80058e6:	4601      	mov	r1, r0
 80058e8:	4606      	mov	r6, r0
 80058ea:	4620      	mov	r0, r4
 80058ec:	f000 fb0e 	bl	8005f0c <__multiply>
 80058f0:	9904      	ldr	r1, [sp, #16]
 80058f2:	9008      	str	r0, [sp, #32]
 80058f4:	4620      	mov	r0, r4
 80058f6:	f000 fa60 	bl	8005dba <_Bfree>
 80058fa:	9b08      	ldr	r3, [sp, #32]
 80058fc:	9304      	str	r3, [sp, #16]
 80058fe:	9b07      	ldr	r3, [sp, #28]
 8005900:	1bda      	subs	r2, r3, r7
 8005902:	d004      	beq.n	800590e <_dtoa_r+0x76e>
 8005904:	9904      	ldr	r1, [sp, #16]
 8005906:	4620      	mov	r0, r4
 8005908:	f000 fb96 	bl	8006038 <__pow5mult>
 800590c:	9004      	str	r0, [sp, #16]
 800590e:	2101      	movs	r1, #1
 8005910:	4620      	mov	r0, r4
 8005912:	f000 faf2 	bl	8005efa <__i2b>
 8005916:	9b0e      	ldr	r3, [sp, #56]	; 0x38
 8005918:	4607      	mov	r7, r0
 800591a:	2b00      	cmp	r3, #0
 800591c:	f000 81d0 	beq.w	8005cc0 <_dtoa_r+0xb20>
 8005920:	461a      	mov	r2, r3
 8005922:	4601      	mov	r1, r0
 8005924:	4620      	mov	r0, r4
 8005926:	f000 fb87 	bl	8006038 <__pow5mult>
 800592a:	9b06      	ldr	r3, [sp, #24]
 800592c:	2b01      	cmp	r3, #1
 800592e:	4607      	mov	r7, r0
 8005930:	dc40      	bgt.n	80059b4 <_dtoa_r+0x814>
 8005932:	9b00      	ldr	r3, [sp, #0]
 8005934:	2b00      	cmp	r3, #0
 8005936:	d139      	bne.n	80059ac <_dtoa_r+0x80c>
 8005938:	9b01      	ldr	r3, [sp, #4]
 800593a:	f3c3 0313 	ubfx	r3, r3, #0, #20
 800593e:	2b00      	cmp	r3, #0
 8005940:	d136      	bne.n	80059b0 <_dtoa_r+0x810>
 8005942:	9b01      	ldr	r3, [sp, #4]
 8005944:	f023 4300 	bic.w	r3, r3, #2147483648	; 0x80000000
 8005948:	0d1b      	lsrs	r3, r3, #20
 800594a:	051b      	lsls	r3, r3, #20
 800594c:	b12b      	cbz	r3, 800595a <_dtoa_r+0x7ba>
 800594e:	9b05      	ldr	r3, [sp, #20]
 8005950:	3301      	adds	r3, #1
 8005952:	9305      	str	r3, [sp, #20]
 8005954:	f108 0801 	add.w	r8, r8, #1
 8005958:	2301      	movs	r3, #1
 800595a:	9307      	str	r3, [sp, #28]
 800595c:	9b0e      	ldr	r3, [sp, #56]	; 0x38
 800595e:	2b00      	cmp	r3, #0
 8005960:	d12a      	bne.n	80059b8 <_dtoa_r+0x818>
 8005962:	2001      	movs	r0, #1
 8005964:	e030      	b.n	80059c8 <_dtoa_r+0x828>
 8005966:	9b14      	ldr	r3, [sp, #80]	; 0x50
 8005968:	f1c3 0336 	rsb	r3, r3, #54	; 0x36
 800596c:	e795      	b.n	800589a <_dtoa_r+0x6fa>
 800596e:	9b07      	ldr	r3, [sp, #28]
 8005970:	f109 37ff 	add.w	r7, r9, #4294967295
 8005974:	42bb      	cmp	r3, r7
 8005976:	bfbf      	itttt	lt
 8005978:	9b07      	ldrlt	r3, [sp, #28]
 800597a:	9707      	strlt	r7, [sp, #28]
 800597c:	1afa      	sublt	r2, r7, r3
 800597e:	9b0e      	ldrlt	r3, [sp, #56]	; 0x38
 8005980:	bfbb      	ittet	lt
 8005982:	189b      	addlt	r3, r3, r2
 8005984:	930e      	strlt	r3, [sp, #56]	; 0x38
 8005986:	1bdf      	subge	r7, r3, r7
 8005988:	2700      	movlt	r7, #0
 800598a:	f1b9 0f00 	cmp.w	r9, #0
 800598e:	bfb5      	itete	lt
 8005990:	9b05      	ldrlt	r3, [sp, #20]
 8005992:	9d05      	ldrge	r5, [sp, #20]
 8005994:	eba3 0509 	sublt.w	r5, r3, r9
 8005998:	464b      	movge	r3, r9
 800599a:	bfb8      	it	lt
 800599c:	2300      	movlt	r3, #0
 800599e:	e77e      	b.n	800589e <_dtoa_r+0x6fe>
 80059a0:	9f07      	ldr	r7, [sp, #28]
 80059a2:	9d05      	ldr	r5, [sp, #20]
 80059a4:	9e0a      	ldr	r6, [sp, #40]	; 0x28
 80059a6:	e783      	b.n	80058b0 <_dtoa_r+0x710>
 80059a8:	9a07      	ldr	r2, [sp, #28]
 80059aa:	e7ab      	b.n	8005904 <_dtoa_r+0x764>
 80059ac:	2300      	movs	r3, #0
 80059ae:	e7d4      	b.n	800595a <_dtoa_r+0x7ba>
 80059b0:	9b00      	ldr	r3, [sp, #0]
 80059b2:	e7d2      	b.n	800595a <_dtoa_r+0x7ba>
 80059b4:	2300      	movs	r3, #0
 80059b6:	9307      	str	r3, [sp, #28]
 80059b8:	693b      	ldr	r3, [r7, #16]
 80059ba:	eb07 0383 	add.w	r3, r7, r3, lsl #2
 80059be:	6918      	ldr	r0, [r3, #16]
 80059c0:	f000 fa4d 	bl	8005e5e <__hi0bits>
 80059c4:	f1c0 0020 	rsb	r0, r0, #32
 80059c8:	4440      	add	r0, r8
 80059ca:	f010 001f 	ands.w	r0, r0, #31
 80059ce:	d047      	beq.n	8005a60 <_dtoa_r+0x8c0>
 80059d0:	f1c0 0320 	rsb	r3, r0, #32
 80059d4:	2b04      	cmp	r3, #4
 80059d6:	dd3b      	ble.n	8005a50 <_dtoa_r+0x8b0>
 80059d8:	9b05      	ldr	r3, [sp, #20]
 80059da:	f1c0 001c 	rsb	r0, r0, #28
 80059de:	4403      	add	r3, r0
 80059e0:	9305      	str	r3, [sp, #20]
 80059e2:	4405      	add	r5, r0
 80059e4:	4480      	add	r8, r0
 80059e6:	9b05      	ldr	r3, [sp, #20]
 80059e8:	2b00      	cmp	r3, #0
 80059ea:	dd05      	ble.n	80059f8 <_dtoa_r+0x858>
 80059ec:	461a      	mov	r2, r3
 80059ee:	9904      	ldr	r1, [sp, #16]
 80059f0:	4620      	mov	r0, r4
 80059f2:	f000 fb6f 	bl	80060d4 <__lshift>
 80059f6:	9004      	str	r0, [sp, #16]
 80059f8:	f1b8 0f00 	cmp.w	r8, #0
 80059fc:	dd05      	ble.n	8005a0a <_dtoa_r+0x86a>
 80059fe:	4639      	mov	r1, r7
 8005a00:	4642      	mov	r2, r8
 8005a02:	4620      	mov	r0, r4
 8005a04:	f000 fb66 	bl	80060d4 <__lshift>
 8005a08:	4607      	mov	r7, r0
 8005a0a:	9b0f      	ldr	r3, [sp, #60]	; 0x3c
 8005a0c:	b353      	cbz	r3, 8005a64 <_dtoa_r+0x8c4>
 8005a0e:	4639      	mov	r1, r7
 8005a10:	9804      	ldr	r0, [sp, #16]
 8005a12:	f000 fbb3 	bl	800617c <__mcmp>
 8005a16:	2800      	cmp	r0, #0
 8005a18:	da24      	bge.n	8005a64 <_dtoa_r+0x8c4>
 8005a1a:	2300      	movs	r3, #0
 8005a1c:	220a      	movs	r2, #10
 8005a1e:	9904      	ldr	r1, [sp, #16]
 8005a20:	4620      	mov	r0, r4
 8005a22:	f000 f9e1 	bl	8005de8 <__multadd>
 8005a26:	9b0a      	ldr	r3, [sp, #40]	; 0x28
 8005a28:	9004      	str	r0, [sp, #16]
 8005a2a:	f10a 3aff 	add.w	sl, sl, #4294967295
 8005a2e:	2b00      	cmp	r3, #0
 8005a30:	f000 814d 	beq.w	8005cce <_dtoa_r+0xb2e>
 8005a34:	2300      	movs	r3, #0
 8005a36:	4631      	mov	r1, r6
 8005a38:	220a      	movs	r2, #10
 8005a3a:	4620      	mov	r0, r4
 8005a3c:	f000 f9d4 	bl	8005de8 <__multadd>
 8005a40:	9b02      	ldr	r3, [sp, #8]
 8005a42:	2b00      	cmp	r3, #0
 8005a44:	4606      	mov	r6, r0
 8005a46:	dc4f      	bgt.n	8005ae8 <_dtoa_r+0x948>
 8005a48:	9b06      	ldr	r3, [sp, #24]
 8005a4a:	2b02      	cmp	r3, #2
 8005a4c:	dd4c      	ble.n	8005ae8 <_dtoa_r+0x948>
 8005a4e:	e011      	b.n	8005a74 <_dtoa_r+0x8d4>
 8005a50:	d0c9      	beq.n	80059e6 <_dtoa_r+0x846>
 8005a52:	9a05      	ldr	r2, [sp, #20]
 8005a54:	331c      	adds	r3, #28
 8005a56:	441a      	add	r2, r3
 8005a58:	9205      	str	r2, [sp, #20]
 8005a5a:	441d      	add	r5, r3
 8005a5c:	4498      	add	r8, r3
 8005a5e:	e7c2      	b.n	80059e6 <_dtoa_r+0x846>
 8005a60:	4603      	mov	r3, r0
 8005a62:	e7f6      	b.n	8005a52 <_dtoa_r+0x8b2>
 8005a64:	f1b9 0f00 	cmp.w	r9, #0
 8005a68:	dc38      	bgt.n	8005adc <_dtoa_r+0x93c>
 8005a6a:	9b06      	ldr	r3, [sp, #24]
 8005a6c:	2b02      	cmp	r3, #2
 8005a6e:	dd35      	ble.n	8005adc <_dtoa_r+0x93c>
 8005a70:	f8cd 9008 	str.w	r9, [sp, #8]
 8005a74:	9b02      	ldr	r3, [sp, #8]
 8005a76:	b963      	cbnz	r3, 8005a92 <_dtoa_r+0x8f2>
 8005a78:	4639      	mov	r1, r7
 8005a7a:	2205      	movs	r2, #5
 8005a7c:	4620      	mov	r0, r4
 8005a7e:	f000 f9b3 	bl	8005de8 <__multadd>
 8005a82:	4601      	mov	r1, r0
 8005a84:	4607      	mov	r7, r0
 8005a86:	9804      	ldr	r0, [sp, #16]
 8005a88:	f000 fb78 	bl	800617c <__mcmp>
 8005a8c:	2800      	cmp	r0, #0
 8005a8e:	f73f adcc 	bgt.w	800562a <_dtoa_r+0x48a>
 8005a92:	9b0b      	ldr	r3, [sp, #44]	; 0x2c
 8005a94:	465d      	mov	r5, fp
 8005a96:	ea6f 0a03 	mvn.w	sl, r3
 8005a9a:	f04f 0900 	mov.w	r9, #0
 8005a9e:	4639      	mov	r1, r7
 8005aa0:	4620      	mov	r0, r4
 8005aa2:	f000 f98a 	bl	8005dba <_Bfree>
 8005aa6:	2e00      	cmp	r6, #0
 8005aa8:	f43f aeb7 	beq.w	800581a <_dtoa_r+0x67a>
 8005aac:	f1b9 0f00 	cmp.w	r9, #0
 8005ab0:	d005      	beq.n	8005abe <_dtoa_r+0x91e>
 8005ab2:	45b1      	cmp	r9, r6
 8005ab4:	d003      	beq.n	8005abe <_dtoa_r+0x91e>
 8005ab6:	4649      	mov	r1, r9
 8005ab8:	4620      	mov	r0, r4
 8005aba:	f000 f97e 	bl	8005dba <_Bfree>
 8005abe:	4631      	mov	r1, r6
 8005ac0:	4620      	mov	r0, r4
 8005ac2:	f000 f97a 	bl	8005dba <_Bfree>
 8005ac6:	e6a8      	b.n	800581a <_dtoa_r+0x67a>
 8005ac8:	2700      	movs	r7, #0
 8005aca:	463e      	mov	r6, r7
 8005acc:	e7e1      	b.n	8005a92 <_dtoa_r+0x8f2>
 8005ace:	f8dd a020 	ldr.w	sl, [sp, #32]
 8005ad2:	463e      	mov	r6, r7
 8005ad4:	e5a9      	b.n	800562a <_dtoa_r+0x48a>
 8005ad6:	bf00      	nop
 8005ad8:	40240000 	.word	0x40240000
 8005adc:	9b0a      	ldr	r3, [sp, #40]	; 0x28
 8005ade:	f8cd 9008 	str.w	r9, [sp, #8]
 8005ae2:	2b00      	cmp	r3, #0
 8005ae4:	f000 80fa 	beq.w	8005cdc <_dtoa_r+0xb3c>
 8005ae8:	2d00      	cmp	r5, #0
 8005aea:	dd05      	ble.n	8005af8 <_dtoa_r+0x958>
 8005aec:	4631      	mov	r1, r6
 8005aee:	462a      	mov	r2, r5
 8005af0:	4620      	mov	r0, r4
 8005af2:	f000 faef 	bl	80060d4 <__lshift>
 8005af6:	4606      	mov	r6, r0
 8005af8:	9b07      	ldr	r3, [sp, #28]
 8005afa:	2b00      	cmp	r3, #0
 8005afc:	d04c      	beq.n	8005b98 <_dtoa_r+0x9f8>
 8005afe:	6871      	ldr	r1, [r6, #4]
 8005b00:	4620      	mov	r0, r4
 8005b02:	f000 f926 	bl	8005d52 <_Balloc>
 8005b06:	6932      	ldr	r2, [r6, #16]
 8005b08:	3202      	adds	r2, #2
 8005b0a:	4605      	mov	r5, r0
 8005b0c:	0092      	lsls	r2, r2, #2
 8005b0e:	f106 010c 	add.w	r1, r6, #12
 8005b12:	300c      	adds	r0, #12
 8005b14:	f000 f912 	bl	8005d3c <memcpy>
 8005b18:	2201      	movs	r2, #1
 8005b1a:	4629      	mov	r1, r5
 8005b1c:	4620      	mov	r0, r4
 8005b1e:	f000 fad9 	bl	80060d4 <__lshift>
 8005b22:	9b00      	ldr	r3, [sp, #0]
 8005b24:	f8cd b014 	str.w	fp, [sp, #20]
 8005b28:	f003 0301 	and.w	r3, r3, #1
 8005b2c:	46b1      	mov	r9, r6
 8005b2e:	9307      	str	r3, [sp, #28]
 8005b30:	4606      	mov	r6, r0
 8005b32:	4639      	mov	r1, r7
 8005b34:	9804      	ldr	r0, [sp, #16]
 8005b36:	f7ff faa4 	bl	8005082 <quorem>
 8005b3a:	4649      	mov	r1, r9
 8005b3c:	4605      	mov	r5, r0
 8005b3e:	f100 0830 	add.w	r8, r0, #48	; 0x30
 8005b42:	9804      	ldr	r0, [sp, #16]
 8005b44:	f000 fb1a 	bl	800617c <__mcmp>
 8005b48:	4632      	mov	r2, r6
 8005b4a:	9000      	str	r0, [sp, #0]
 8005b4c:	4639      	mov	r1, r7
 8005b4e:	4620      	mov	r0, r4
 8005b50:	f000 fb2e 	bl	80061b0 <__mdiff>
 8005b54:	68c3      	ldr	r3, [r0, #12]
 8005b56:	4602      	mov	r2, r0
 8005b58:	bb03      	cbnz	r3, 8005b9c <_dtoa_r+0x9fc>
 8005b5a:	4601      	mov	r1, r0
 8005b5c:	9008      	str	r0, [sp, #32]
 8005b5e:	9804      	ldr	r0, [sp, #16]
 8005b60:	f000 fb0c 	bl	800617c <__mcmp>
 8005b64:	9a08      	ldr	r2, [sp, #32]
 8005b66:	4603      	mov	r3, r0
 8005b68:	4611      	mov	r1, r2
 8005b6a:	4620      	mov	r0, r4
 8005b6c:	9308      	str	r3, [sp, #32]
 8005b6e:	f000 f924 	bl	8005dba <_Bfree>
 8005b72:	9b08      	ldr	r3, [sp, #32]
 8005b74:	b9a3      	cbnz	r3, 8005ba0 <_dtoa_r+0xa00>
 8005b76:	9a06      	ldr	r2, [sp, #24]
 8005b78:	b992      	cbnz	r2, 8005ba0 <_dtoa_r+0xa00>
 8005b7a:	9a07      	ldr	r2, [sp, #28]
 8005b7c:	b982      	cbnz	r2, 8005ba0 <_dtoa_r+0xa00>
 8005b7e:	f1b8 0f39 	cmp.w	r8, #57	; 0x39
 8005b82:	d029      	beq.n	8005bd8 <_dtoa_r+0xa38>
 8005b84:	9b00      	ldr	r3, [sp, #0]
 8005b86:	2b00      	cmp	r3, #0
 8005b88:	dd01      	ble.n	8005b8e <_dtoa_r+0x9ee>
 8005b8a:	f105 0831 	add.w	r8, r5, #49	; 0x31
 8005b8e:	9b05      	ldr	r3, [sp, #20]
 8005b90:	1c5d      	adds	r5, r3, #1
 8005b92:	f883 8000 	strb.w	r8, [r3]
 8005b96:	e782      	b.n	8005a9e <_dtoa_r+0x8fe>
 8005b98:	4630      	mov	r0, r6
 8005b9a:	e7c2      	b.n	8005b22 <_dtoa_r+0x982>
 8005b9c:	2301      	movs	r3, #1
 8005b9e:	e7e3      	b.n	8005b68 <_dtoa_r+0x9c8>
 8005ba0:	9a00      	ldr	r2, [sp, #0]
 8005ba2:	2a00      	cmp	r2, #0
 8005ba4:	db04      	blt.n	8005bb0 <_dtoa_r+0xa10>
 8005ba6:	d125      	bne.n	8005bf4 <_dtoa_r+0xa54>
 8005ba8:	9a06      	ldr	r2, [sp, #24]
 8005baa:	bb1a      	cbnz	r2, 8005bf4 <_dtoa_r+0xa54>
 8005bac:	9a07      	ldr	r2, [sp, #28]
 8005bae:	bb0a      	cbnz	r2, 8005bf4 <_dtoa_r+0xa54>
 8005bb0:	2b00      	cmp	r3, #0
 8005bb2:	ddec      	ble.n	8005b8e <_dtoa_r+0x9ee>
 8005bb4:	2201      	movs	r2, #1
 8005bb6:	9904      	ldr	r1, [sp, #16]
 8005bb8:	4620      	mov	r0, r4
 8005bba:	f000 fa8b 	bl	80060d4 <__lshift>
 8005bbe:	4639      	mov	r1, r7
 8005bc0:	9004      	str	r0, [sp, #16]
 8005bc2:	f000 fadb 	bl	800617c <__mcmp>
 8005bc6:	2800      	cmp	r0, #0
 8005bc8:	dc03      	bgt.n	8005bd2 <_dtoa_r+0xa32>
 8005bca:	d1e0      	bne.n	8005b8e <_dtoa_r+0x9ee>
 8005bcc:	f018 0f01 	tst.w	r8, #1
 8005bd0:	d0dd      	beq.n	8005b8e <_dtoa_r+0x9ee>
 8005bd2:	f1b8 0f39 	cmp.w	r8, #57	; 0x39
 8005bd6:	d1d8      	bne.n	8005b8a <_dtoa_r+0x9ea>
 8005bd8:	9b05      	ldr	r3, [sp, #20]
 8005bda:	9a05      	ldr	r2, [sp, #20]
 8005bdc:	1c5d      	adds	r5, r3, #1
 8005bde:	2339      	movs	r3, #57	; 0x39
 8005be0:	7013      	strb	r3, [r2, #0]
 8005be2:	f815 3c01 	ldrb.w	r3, [r5, #-1]
 8005be6:	2b39      	cmp	r3, #57	; 0x39
 8005be8:	f105 32ff 	add.w	r2, r5, #4294967295
 8005bec:	d04f      	beq.n	8005c8e <_dtoa_r+0xaee>
 8005bee:	3301      	adds	r3, #1
 8005bf0:	7013      	strb	r3, [r2, #0]
 8005bf2:	e754      	b.n	8005a9e <_dtoa_r+0x8fe>
 8005bf4:	9a05      	ldr	r2, [sp, #20]
 8005bf6:	2b00      	cmp	r3, #0
 8005bf8:	f102 0501 	add.w	r5, r2, #1
 8005bfc:	dd06      	ble.n	8005c0c <_dtoa_r+0xa6c>
 8005bfe:	f1b8 0f39 	cmp.w	r8, #57	; 0x39
 8005c02:	d0e9      	beq.n	8005bd8 <_dtoa_r+0xa38>
 8005c04:	f108 0801 	add.w	r8, r8, #1
 8005c08:	9b05      	ldr	r3, [sp, #20]
 8005c0a:	e7c2      	b.n	8005b92 <_dtoa_r+0x9f2>
 8005c0c:	9a02      	ldr	r2, [sp, #8]
 8005c0e:	f805 8c01 	strb.w	r8, [r5, #-1]
 8005c12:	eba5 030b 	sub.w	r3, r5, fp
 8005c16:	4293      	cmp	r3, r2
 8005c18:	d021      	beq.n	8005c5e <_dtoa_r+0xabe>
 8005c1a:	2300      	movs	r3, #0
 8005c1c:	220a      	movs	r2, #10
 8005c1e:	9904      	ldr	r1, [sp, #16]
 8005c20:	4620      	mov	r0, r4
 8005c22:	f000 f8e1 	bl	8005de8 <__multadd>
 8005c26:	45b1      	cmp	r9, r6
 8005c28:	9004      	str	r0, [sp, #16]
 8005c2a:	f04f 0300 	mov.w	r3, #0
 8005c2e:	f04f 020a 	mov.w	r2, #10
 8005c32:	4649      	mov	r1, r9
 8005c34:	4620      	mov	r0, r4
 8005c36:	d105      	bne.n	8005c44 <_dtoa_r+0xaa4>
 8005c38:	f000 f8d6 	bl	8005de8 <__multadd>
 8005c3c:	4681      	mov	r9, r0
 8005c3e:	4606      	mov	r6, r0
 8005c40:	9505      	str	r5, [sp, #20]
 8005c42:	e776      	b.n	8005b32 <_dtoa_r+0x992>
 8005c44:	f000 f8d0 	bl	8005de8 <__multadd>
 8005c48:	4631      	mov	r1, r6
 8005c4a:	4681      	mov	r9, r0
 8005c4c:	2300      	movs	r3, #0
 8005c4e:	220a      	movs	r2, #10
 8005c50:	4620      	mov	r0, r4
 8005c52:	f000 f8c9 	bl	8005de8 <__multadd>
 8005c56:	4606      	mov	r6, r0
 8005c58:	e7f2      	b.n	8005c40 <_dtoa_r+0xaa0>
 8005c5a:	f04f 0900 	mov.w	r9, #0
 8005c5e:	2201      	movs	r2, #1
 8005c60:	9904      	ldr	r1, [sp, #16]
 8005c62:	4620      	mov	r0, r4
 8005c64:	f000 fa36 	bl	80060d4 <__lshift>
 8005c68:	4639      	mov	r1, r7
 8005c6a:	9004      	str	r0, [sp, #16]
 8005c6c:	f000 fa86 	bl	800617c <__mcmp>
 8005c70:	2800      	cmp	r0, #0
 8005c72:	dcb6      	bgt.n	8005be2 <_dtoa_r+0xa42>
 8005c74:	d102      	bne.n	8005c7c <_dtoa_r+0xadc>
 8005c76:	f018 0f01 	tst.w	r8, #1
 8005c7a:	d1b2      	bne.n	8005be2 <_dtoa_r+0xa42>
 8005c7c:	f815 3c01 	ldrb.w	r3, [r5, #-1]
 8005c80:	2b30      	cmp	r3, #48	; 0x30
 8005c82:	f105 32ff 	add.w	r2, r5, #4294967295
 8005c86:	f47f af0a 	bne.w	8005a9e <_dtoa_r+0x8fe>
 8005c8a:	4615      	mov	r5, r2
 8005c8c:	e7f6      	b.n	8005c7c <_dtoa_r+0xadc>
 8005c8e:	4593      	cmp	fp, r2
 8005c90:	d105      	bne.n	8005c9e <_dtoa_r+0xafe>
 8005c92:	2331      	movs	r3, #49	; 0x31
 8005c94:	f10a 0a01 	add.w	sl, sl, #1
 8005c98:	f88b 3000 	strb.w	r3, [fp]
 8005c9c:	e6ff      	b.n	8005a9e <_dtoa_r+0x8fe>
 8005c9e:	4615      	mov	r5, r2
 8005ca0:	e79f      	b.n	8005be2 <_dtoa_r+0xa42>
 8005ca2:	f8df b064 	ldr.w	fp, [pc, #100]	; 8005d08 <_dtoa_r+0xb68>
 8005ca6:	e007      	b.n	8005cb8 <_dtoa_r+0xb18>
 8005ca8:	9b21      	ldr	r3, [sp, #132]	; 0x84
 8005caa:	f8df b060 	ldr.w	fp, [pc, #96]	; 8005d0c <_dtoa_r+0xb6c>
 8005cae:	b11b      	cbz	r3, 8005cb8 <_dtoa_r+0xb18>
 8005cb0:	f10b 0308 	add.w	r3, fp, #8
 8005cb4:	9a21      	ldr	r2, [sp, #132]	; 0x84
 8005cb6:	6013      	str	r3, [r2, #0]
 8005cb8:	4658      	mov	r0, fp
 8005cba:	b017      	add	sp, #92	; 0x5c
 8005cbc:	e8bd 8ff0 	ldmia.w	sp!, {r4, r5, r6, r7, r8, r9, sl, fp, pc}
 8005cc0:	9b06      	ldr	r3, [sp, #24]
 8005cc2:	2b01      	cmp	r3, #1
 8005cc4:	f77f ae35 	ble.w	8005932 <_dtoa_r+0x792>
 8005cc8:	9b0e      	ldr	r3, [sp, #56]	; 0x38
 8005cca:	9307      	str	r3, [sp, #28]
 8005ccc:	e649      	b.n	8005962 <_dtoa_r+0x7c2>
 8005cce:	9b02      	ldr	r3, [sp, #8]
 8005cd0:	2b00      	cmp	r3, #0
 8005cd2:	dc03      	bgt.n	8005cdc <_dtoa_r+0xb3c>
 8005cd4:	9b06      	ldr	r3, [sp, #24]
 8005cd6:	2b02      	cmp	r3, #2
 8005cd8:	f73f aecc 	bgt.w	8005a74 <_dtoa_r+0x8d4>
 8005cdc:	465d      	mov	r5, fp
 8005cde:	4639      	mov	r1, r7
 8005ce0:	9804      	ldr	r0, [sp, #16]
 8005ce2:	f7ff f9ce 	bl	8005082 <quorem>
 8005ce6:	f100 0830 	add.w	r8, r0, #48	; 0x30
 8005cea:	f805 8b01 	strb.w	r8, [r5], #1
 8005cee:	9a02      	ldr	r2, [sp, #8]
 8005cf0:	eba5 030b 	sub.w	r3, r5, fp
 8005cf4:	429a      	cmp	r2, r3
 8005cf6:	ddb0      	ble.n	8005c5a <_dtoa_r+0xaba>
 8005cf8:	2300      	movs	r3, #0
 8005cfa:	220a      	movs	r2, #10
 8005cfc:	9904      	ldr	r1, [sp, #16]
 8005cfe:	4620      	mov	r0, r4
 8005d00:	f000 f872 	bl	8005de8 <__multadd>
 8005d04:	9004      	str	r0, [sp, #16]
 8005d06:	e7ea      	b.n	8005cde <_dtoa_r+0xb3e>
 8005d08:	080157f2 	.word	0x080157f2
 8005d0c:	08015917 	.word	0x08015917

08005d10 <_localeconv_r>:
 8005d10:	4b04      	ldr	r3, [pc, #16]	; (8005d24 <_localeconv_r+0x14>)
 8005d12:	681b      	ldr	r3, [r3, #0]
 8005d14:	6a18      	ldr	r0, [r3, #32]
 8005d16:	4b04      	ldr	r3, [pc, #16]	; (8005d28 <_localeconv_r+0x18>)
 8005d18:	2800      	cmp	r0, #0
 8005d1a:	bf08      	it	eq
 8005d1c:	4618      	moveq	r0, r3
 8005d1e:	30f0      	adds	r0, #240	; 0xf0
 8005d20:	4770      	bx	lr
 8005d22:	bf00      	nop
 8005d24:	20000008 	.word	0x20000008
 8005d28:	2000006c 	.word	0x2000006c

08005d2c <malloc>:
 8005d2c:	4b02      	ldr	r3, [pc, #8]	; (8005d38 <malloc+0xc>)
 8005d2e:	4601      	mov	r1, r0
 8005d30:	6818      	ldr	r0, [r3, #0]
 8005d32:	f000 bb45 	b.w	80063c0 <_malloc_r>
 8005d36:	bf00      	nop
 8005d38:	20000008 	.word	0x20000008

08005d3c <memcpy>:
 8005d3c:	b510      	push	{r4, lr}
 8005d3e:	1e43      	subs	r3, r0, #1
 8005d40:	440a      	add	r2, r1
 8005d42:	4291      	cmp	r1, r2
 8005d44:	d100      	bne.n	8005d48 <memcpy+0xc>
 8005d46:	bd10      	pop	{r4, pc}
 8005d48:	f811 4b01 	ldrb.w	r4, [r1], #1
 8005d4c:	f803 4f01 	strb.w	r4, [r3, #1]!
 8005d50:	e7f7      	b.n	8005d42 <memcpy+0x6>

08005d52 <_Balloc>:
 8005d52:	b570      	push	{r4, r5, r6, lr}
 8005d54:	6a45      	ldr	r5, [r0, #36]	; 0x24
 8005d56:	4604      	mov	r4, r0
 8005d58:	460e      	mov	r6, r1
 8005d5a:	b93d      	cbnz	r5, 8005d6c <_Balloc+0x1a>
 8005d5c:	2010      	movs	r0, #16
 8005d5e:	f7ff ffe5 	bl	8005d2c <malloc>
 8005d62:	6260      	str	r0, [r4, #36]	; 0x24
 8005d64:	e9c0 5501 	strd	r5, r5, [r0, #4]
 8005d68:	6005      	str	r5, [r0, #0]
 8005d6a:	60c5      	str	r5, [r0, #12]
 8005d6c:	6a65      	ldr	r5, [r4, #36]	; 0x24
 8005d6e:	68eb      	ldr	r3, [r5, #12]
 8005d70:	b183      	cbz	r3, 8005d94 <_Balloc+0x42>
 8005d72:	6a63      	ldr	r3, [r4, #36]	; 0x24
 8005d74:	68db      	ldr	r3, [r3, #12]
 8005d76:	f853 0026 	ldr.w	r0, [r3, r6, lsl #2]
 8005d7a:	b9b8      	cbnz	r0, 8005dac <_Balloc+0x5a>
 8005d7c:	2101      	movs	r1, #1
 8005d7e:	fa01 f506 	lsl.w	r5, r1, r6
 8005d82:	1d6a      	adds	r2, r5, #5
 8005d84:	0092      	lsls	r2, r2, #2
 8005d86:	4620      	mov	r0, r4
 8005d88:	f000 fabe 	bl	8006308 <_calloc_r>
 8005d8c:	b160      	cbz	r0, 8005da8 <_Balloc+0x56>
 8005d8e:	e9c0 6501 	strd	r6, r5, [r0, #4]
 8005d92:	e00e      	b.n	8005db2 <_Balloc+0x60>
 8005d94:	2221      	movs	r2, #33	; 0x21
 8005d96:	2104      	movs	r1, #4
 8005d98:	4620      	mov	r0, r4
 8005d9a:	f000 fab5 	bl	8006308 <_calloc_r>
 8005d9e:	6a63      	ldr	r3, [r4, #36]	; 0x24
 8005da0:	60e8      	str	r0, [r5, #12]
 8005da2:	68db      	ldr	r3, [r3, #12]
 8005da4:	2b00      	cmp	r3, #0
 8005da6:	d1e4      	bne.n	8005d72 <_Balloc+0x20>
 8005da8:	2000      	movs	r0, #0
 8005daa:	bd70      	pop	{r4, r5, r6, pc}
 8005dac:	6802      	ldr	r2, [r0, #0]
 8005dae:	f843 2026 	str.w	r2, [r3, r6, lsl #2]
 8005db2:	2300      	movs	r3, #0
 8005db4:	e9c0 3303 	strd	r3, r3, [r0, #12]
 8005db8:	e7f7      	b.n	8005daa <_Balloc+0x58>

08005dba <_Bfree>:
 8005dba:	b570      	push	{r4, r5, r6, lr}
 8005dbc:	6a44      	ldr	r4, [r0, #36]	; 0x24
 8005dbe:	4606      	mov	r6, r0
 8005dc0:	460d      	mov	r5, r1
 8005dc2:	b93c      	cbnz	r4, 8005dd4 <_Bfree+0x1a>
 8005dc4:	2010      	movs	r0, #16
 8005dc6:	f7ff ffb1 	bl	8005d2c <malloc>
 8005dca:	6270      	str	r0, [r6, #36]	; 0x24
 8005dcc:	e9c0 4401 	strd	r4, r4, [r0, #4]
 8005dd0:	6004      	str	r4, [r0, #0]
 8005dd2:	60c4      	str	r4, [r0, #12]
 8005dd4:	b13d      	cbz	r5, 8005de6 <_Bfree+0x2c>
 8005dd6:	6a73      	ldr	r3, [r6, #36]	; 0x24
 8005dd8:	686a      	ldr	r2, [r5, #4]
 8005dda:	68db      	ldr	r3, [r3, #12]
 8005ddc:	f853 1022 	ldr.w	r1, [r3, r2, lsl #2]
 8005de0:	6029      	str	r1, [r5, #0]
 8005de2:	f843 5022 	str.w	r5, [r3, r2, lsl #2]
 8005de6:	bd70      	pop	{r4, r5, r6, pc}

08005de8 <__multadd>:
 8005de8:	e92d 41f0 	stmdb	sp!, {r4, r5, r6, r7, r8, lr}
 8005dec:	690d      	ldr	r5, [r1, #16]
 8005dee:	461f      	mov	r7, r3
 8005df0:	4606      	mov	r6, r0
 8005df2:	460c      	mov	r4, r1
 8005df4:	f101 0c14 	add.w	ip, r1, #20
 8005df8:	2300      	movs	r3, #0
 8005dfa:	f8dc 0000 	ldr.w	r0, [ip]
 8005dfe:	b281      	uxth	r1, r0
 8005e00:	fb02 7101 	mla	r1, r2, r1, r7
 8005e04:	0c0f      	lsrs	r7, r1, #16
 8005e06:	0c00      	lsrs	r0, r0, #16
 8005e08:	fb02 7000 	mla	r0, r2, r0, r7
 8005e0c:	b289      	uxth	r1, r1
 8005e0e:	3301      	adds	r3, #1
 8005e10:	eb01 4100 	add.w	r1, r1, r0, lsl #16
 8005e14:	429d      	cmp	r5, r3
 8005e16:	ea4f 4710 	mov.w	r7, r0, lsr #16
 8005e1a:	f84c 1b04 	str.w	r1, [ip], #4
 8005e1e:	dcec      	bgt.n	8005dfa <__multadd+0x12>
 8005e20:	b1d7      	cbz	r7, 8005e58 <__multadd+0x70>
 8005e22:	68a3      	ldr	r3, [r4, #8]
 8005e24:	42ab      	cmp	r3, r5
 8005e26:	dc12      	bgt.n	8005e4e <__multadd+0x66>
 8005e28:	6861      	ldr	r1, [r4, #4]
 8005e2a:	4630      	mov	r0, r6
 8005e2c:	3101      	adds	r1, #1
 8005e2e:	f7ff ff90 	bl	8005d52 <_Balloc>
 8005e32:	6922      	ldr	r2, [r4, #16]
 8005e34:	3202      	adds	r2, #2
 8005e36:	f104 010c 	add.w	r1, r4, #12
 8005e3a:	4680      	mov	r8, r0
 8005e3c:	0092      	lsls	r2, r2, #2
 8005e3e:	300c      	adds	r0, #12
 8005e40:	f7ff ff7c 	bl	8005d3c <memcpy>
 8005e44:	4621      	mov	r1, r4
 8005e46:	4630      	mov	r0, r6
 8005e48:	f7ff ffb7 	bl	8005dba <_Bfree>
 8005e4c:	4644      	mov	r4, r8
 8005e4e:	eb04 0385 	add.w	r3, r4, r5, lsl #2
 8005e52:	3501      	adds	r5, #1
 8005e54:	615f      	str	r7, [r3, #20]
 8005e56:	6125      	str	r5, [r4, #16]
 8005e58:	4620      	mov	r0, r4
 8005e5a:	e8bd 81f0 	ldmia.w	sp!, {r4, r5, r6, r7, r8, pc}

08005e5e <__hi0bits>:
 8005e5e:	0c02      	lsrs	r2, r0, #16
 8005e60:	0412      	lsls	r2, r2, #16
 8005e62:	4603      	mov	r3, r0
 8005e64:	b9b2      	cbnz	r2, 8005e94 <__hi0bits+0x36>
 8005e66:	0403      	lsls	r3, r0, #16
 8005e68:	2010      	movs	r0, #16
 8005e6a:	f013 4f7f 	tst.w	r3, #4278190080	; 0xff000000
 8005e6e:	bf04      	itt	eq
 8005e70:	021b      	lsleq	r3, r3, #8
 8005e72:	3008      	addeq	r0, #8
 8005e74:	f013 4f70 	tst.w	r3, #4026531840	; 0xf0000000
 8005e78:	bf04      	itt	eq
 8005e7a:	011b      	lsleq	r3, r3, #4
 8005e7c:	3004      	addeq	r0, #4
 8005e7e:	f013 4f40 	tst.w	r3, #3221225472	; 0xc0000000
 8005e82:	bf04      	itt	eq
 8005e84:	009b      	lsleq	r3, r3, #2
 8005e86:	3002      	addeq	r0, #2
 8005e88:	2b00      	cmp	r3, #0
 8005e8a:	db06      	blt.n	8005e9a <__hi0bits+0x3c>
 8005e8c:	005b      	lsls	r3, r3, #1
 8005e8e:	d503      	bpl.n	8005e98 <__hi0bits+0x3a>
 8005e90:	3001      	adds	r0, #1
 8005e92:	4770      	bx	lr
 8005e94:	2000      	movs	r0, #0
 8005e96:	e7e8      	b.n	8005e6a <__hi0bits+0xc>
 8005e98:	2020      	movs	r0, #32
 8005e9a:	4770      	bx	lr

08005e9c <__lo0bits>:
 8005e9c:	6803      	ldr	r3, [r0, #0]
 8005e9e:	f013 0207 	ands.w	r2, r3, #7
 8005ea2:	4601      	mov	r1, r0
 8005ea4:	d00b      	beq.n	8005ebe <__lo0bits+0x22>
 8005ea6:	07da      	lsls	r2, r3, #31
 8005ea8:	d423      	bmi.n	8005ef2 <__lo0bits+0x56>
 8005eaa:	0798      	lsls	r0, r3, #30
 8005eac:	bf49      	itett	mi
 8005eae:	085b      	lsrmi	r3, r3, #1
 8005eb0:	089b      	lsrpl	r3, r3, #2
 8005eb2:	2001      	movmi	r0, #1
 8005eb4:	600b      	strmi	r3, [r1, #0]
 8005eb6:	bf5c      	itt	pl
 8005eb8:	600b      	strpl	r3, [r1, #0]
 8005eba:	2002      	movpl	r0, #2
 8005ebc:	4770      	bx	lr
 8005ebe:	b298      	uxth	r0, r3
 8005ec0:	b9a8      	cbnz	r0, 8005eee <__lo0bits+0x52>
 8005ec2:	0c1b      	lsrs	r3, r3, #16
 8005ec4:	2010      	movs	r0, #16
 8005ec6:	f013 0fff 	tst.w	r3, #255	; 0xff
 8005eca:	bf04      	itt	eq
 8005ecc:	0a1b      	lsreq	r3, r3, #8
 8005ece:	3008      	addeq	r0, #8
 8005ed0:	071a      	lsls	r2, r3, #28
 8005ed2:	bf04      	itt	eq
 8005ed4:	091b      	lsreq	r3, r3, #4
 8005ed6:	3004      	addeq	r0, #4
 8005ed8:	079a      	lsls	r2, r3, #30
 8005eda:	bf04      	itt	eq
 8005edc:	089b      	lsreq	r3, r3, #2
 8005ede:	3002      	addeq	r0, #2
 8005ee0:	07da      	lsls	r2, r3, #31
 8005ee2:	d402      	bmi.n	8005eea <__lo0bits+0x4e>
 8005ee4:	085b      	lsrs	r3, r3, #1
 8005ee6:	d006      	beq.n	8005ef6 <__lo0bits+0x5a>
 8005ee8:	3001      	adds	r0, #1
 8005eea:	600b      	str	r3, [r1, #0]
 8005eec:	4770      	bx	lr
 8005eee:	4610      	mov	r0, r2
 8005ef0:	e7e9      	b.n	8005ec6 <__lo0bits+0x2a>
 8005ef2:	2000      	movs	r0, #0
 8005ef4:	4770      	bx	lr
 8005ef6:	2020      	movs	r0, #32
 8005ef8:	4770      	bx	lr

08005efa <__i2b>:
 8005efa:	b510      	push	{r4, lr}
 8005efc:	460c      	mov	r4, r1
 8005efe:	2101      	movs	r1, #1
 8005f00:	f7ff ff27 	bl	8005d52 <_Balloc>
 8005f04:	2201      	movs	r2, #1
 8005f06:	6144      	str	r4, [r0, #20]
 8005f08:	6102      	str	r2, [r0, #16]
 8005f0a:	bd10      	pop	{r4, pc}

08005f0c <__multiply>:
 8005f0c:	e92d 4ff7 	stmdb	sp!, {r0, r1, r2, r4, r5, r6, r7, r8, r9, sl, fp, lr}
 8005f10:	4614      	mov	r4, r2
 8005f12:	690a      	ldr	r2, [r1, #16]
 8005f14:	6923      	ldr	r3, [r4, #16]
 8005f16:	429a      	cmp	r2, r3
 8005f18:	bfb8      	it	lt
 8005f1a:	460b      	movlt	r3, r1
 8005f1c:	4688      	mov	r8, r1
 8005f1e:	bfbc      	itt	lt
 8005f20:	46a0      	movlt	r8, r4
 8005f22:	461c      	movlt	r4, r3
 8005f24:	f8d8 7010 	ldr.w	r7, [r8, #16]
 8005f28:	f8d4 9010 	ldr.w	r9, [r4, #16]
 8005f2c:	f8d8 3008 	ldr.w	r3, [r8, #8]
 8005f30:	f8d8 1004 	ldr.w	r1, [r8, #4]
 8005f34:	eb07 0609 	add.w	r6, r7, r9
 8005f38:	42b3      	cmp	r3, r6
 8005f3a:	bfb8      	it	lt
 8005f3c:	3101      	addlt	r1, #1
 8005f3e:	f7ff ff08 	bl	8005d52 <_Balloc>
 8005f42:	f100 0514 	add.w	r5, r0, #20
 8005f46:	eb05 0e86 	add.w	lr, r5, r6, lsl #2
 8005f4a:	462b      	mov	r3, r5
 8005f4c:	2200      	movs	r2, #0
 8005f4e:	4573      	cmp	r3, lr
 8005f50:	d316      	bcc.n	8005f80 <__multiply+0x74>
 8005f52:	f104 0214 	add.w	r2, r4, #20
 8005f56:	f108 0114 	add.w	r1, r8, #20
 8005f5a:	eb02 0389 	add.w	r3, r2, r9, lsl #2
 8005f5e:	eb01 0787 	add.w	r7, r1, r7, lsl #2
 8005f62:	9300      	str	r3, [sp, #0]
 8005f64:	9b00      	ldr	r3, [sp, #0]
 8005f66:	9201      	str	r2, [sp, #4]
 8005f68:	4293      	cmp	r3, r2
 8005f6a:	d80c      	bhi.n	8005f86 <__multiply+0x7a>
 8005f6c:	2e00      	cmp	r6, #0
 8005f6e:	dd03      	ble.n	8005f78 <__multiply+0x6c>
 8005f70:	f85e 3d04 	ldr.w	r3, [lr, #-4]!
 8005f74:	2b00      	cmp	r3, #0
 8005f76:	d05d      	beq.n	8006034 <__multiply+0x128>
 8005f78:	6106      	str	r6, [r0, #16]
 8005f7a:	b003      	add	sp, #12
 8005f7c:	e8bd 8ff0 	ldmia.w	sp!, {r4, r5, r6, r7, r8, r9, sl, fp, pc}
 8005f80:	f843 2b04 	str.w	r2, [r3], #4
 8005f84:	e7e3      	b.n	8005f4e <__multiply+0x42>
 8005f86:	f8b2 b000 	ldrh.w	fp, [r2]
 8005f8a:	f1bb 0f00 	cmp.w	fp, #0
 8005f8e:	d023      	beq.n	8005fd8 <__multiply+0xcc>
 8005f90:	4689      	mov	r9, r1
 8005f92:	46ac      	mov	ip, r5
 8005f94:	f04f 0800 	mov.w	r8, #0
 8005f98:	f859 4b04 	ldr.w	r4, [r9], #4
 8005f9c:	f8dc a000 	ldr.w	sl, [ip]
 8005fa0:	b2a3      	uxth	r3, r4
 8005fa2:	fa1f fa8a 	uxth.w	sl, sl
 8005fa6:	fb0b a303 	mla	r3, fp, r3, sl
 8005faa:	ea4f 4a14 	mov.w	sl, r4, lsr #16
 8005fae:	f8dc 4000 	ldr.w	r4, [ip]
 8005fb2:	4443      	add	r3, r8
 8005fb4:	ea4f 4814 	mov.w	r8, r4, lsr #16
 8005fb8:	fb0b 840a 	mla	r4, fp, sl, r8
 8005fbc:	eb04 4413 	add.w	r4, r4, r3, lsr #16
 8005fc0:	46e2      	mov	sl, ip
 8005fc2:	b29b      	uxth	r3, r3
 8005fc4:	ea43 4304 	orr.w	r3, r3, r4, lsl #16
 8005fc8:	454f      	cmp	r7, r9
 8005fca:	ea4f 4814 	mov.w	r8, r4, lsr #16
 8005fce:	f84a 3b04 	str.w	r3, [sl], #4
 8005fd2:	d82b      	bhi.n	800602c <__multiply+0x120>
 8005fd4:	f8cc 8004 	str.w	r8, [ip, #4]
 8005fd8:	9b01      	ldr	r3, [sp, #4]
 8005fda:	f8b3 a002 	ldrh.w	sl, [r3, #2]
 8005fde:	3204      	adds	r2, #4
 8005fe0:	f1ba 0f00 	cmp.w	sl, #0
 8005fe4:	d020      	beq.n	8006028 <__multiply+0x11c>
 8005fe6:	682b      	ldr	r3, [r5, #0]
 8005fe8:	4689      	mov	r9, r1
 8005fea:	46a8      	mov	r8, r5
 8005fec:	f04f 0b00 	mov.w	fp, #0
 8005ff0:	f8b9 c000 	ldrh.w	ip, [r9]
 8005ff4:	f8b8 4002 	ldrh.w	r4, [r8, #2]
 8005ff8:	fb0a 440c 	mla	r4, sl, ip, r4
 8005ffc:	445c      	add	r4, fp
 8005ffe:	46c4      	mov	ip, r8
 8006000:	b29b      	uxth	r3, r3
 8006002:	ea43 4304 	orr.w	r3, r3, r4, lsl #16
 8006006:	f84c 3b04 	str.w	r3, [ip], #4
 800600a:	f859 3b04 	ldr.w	r3, [r9], #4
 800600e:	f8b8 b004 	ldrh.w	fp, [r8, #4]
 8006012:	0c1b      	lsrs	r3, r3, #16
 8006014:	fb0a b303 	mla	r3, sl, r3, fp
 8006018:	eb03 4314 	add.w	r3, r3, r4, lsr #16
 800601c:	454f      	cmp	r7, r9
 800601e:	ea4f 4b13 	mov.w	fp, r3, lsr #16
 8006022:	d805      	bhi.n	8006030 <__multiply+0x124>
 8006024:	f8c8 3004 	str.w	r3, [r8, #4]
 8006028:	3504      	adds	r5, #4
 800602a:	e79b      	b.n	8005f64 <__multiply+0x58>
 800602c:	46d4      	mov	ip, sl
 800602e:	e7b3      	b.n	8005f98 <__multiply+0x8c>
 8006030:	46e0      	mov	r8, ip
 8006032:	e7dd      	b.n	8005ff0 <__multiply+0xe4>
 8006034:	3e01      	subs	r6, #1
 8006036:	e799      	b.n	8005f6c <__multiply+0x60>

08006038 <__pow5mult>:
 8006038:	e92d 43f8 	stmdb	sp!, {r3, r4, r5, r6, r7, r8, r9, lr}
 800603c:	4615      	mov	r5, r2
 800603e:	f012 0203 	ands.w	r2, r2, #3
 8006042:	4606      	mov	r6, r0
 8006044:	460f      	mov	r7, r1
 8006046:	d007      	beq.n	8006058 <__pow5mult+0x20>
 8006048:	3a01      	subs	r2, #1
 800604a:	4c21      	ldr	r4, [pc, #132]	; (80060d0 <__pow5mult+0x98>)
 800604c:	2300      	movs	r3, #0
 800604e:	f854 2022 	ldr.w	r2, [r4, r2, lsl #2]
 8006052:	f7ff fec9 	bl	8005de8 <__multadd>
 8006056:	4607      	mov	r7, r0
 8006058:	10ad      	asrs	r5, r5, #2
 800605a:	d035      	beq.n	80060c8 <__pow5mult+0x90>
 800605c:	6a74      	ldr	r4, [r6, #36]	; 0x24
 800605e:	b93c      	cbnz	r4, 8006070 <__pow5mult+0x38>
 8006060:	2010      	movs	r0, #16
 8006062:	f7ff fe63 	bl	8005d2c <malloc>
 8006066:	6270      	str	r0, [r6, #36]	; 0x24
 8006068:	e9c0 4401 	strd	r4, r4, [r0, #4]
 800606c:	6004      	str	r4, [r0, #0]
 800606e:	60c4      	str	r4, [r0, #12]
 8006070:	f8d6 8024 	ldr.w	r8, [r6, #36]	; 0x24
 8006074:	f8d8 4008 	ldr.w	r4, [r8, #8]
 8006078:	b94c      	cbnz	r4, 800608e <__pow5mult+0x56>
 800607a:	f240 2171 	movw	r1, #625	; 0x271
 800607e:	4630      	mov	r0, r6
 8006080:	f7ff ff3b 	bl	8005efa <__i2b>
 8006084:	2300      	movs	r3, #0
 8006086:	f8c8 0008 	str.w	r0, [r8, #8]
 800608a:	4604      	mov	r4, r0
 800608c:	6003      	str	r3, [r0, #0]
 800608e:	f04f 0800 	mov.w	r8, #0
 8006092:	07eb      	lsls	r3, r5, #31
 8006094:	d50a      	bpl.n	80060ac <__pow5mult+0x74>
 8006096:	4639      	mov	r1, r7
 8006098:	4622      	mov	r2, r4
 800609a:	4630      	mov	r0, r6
 800609c:	f7ff ff36 	bl	8005f0c <__multiply>
 80060a0:	4639      	mov	r1, r7
 80060a2:	4681      	mov	r9, r0
 80060a4:	4630      	mov	r0, r6
 80060a6:	f7ff fe88 	bl	8005dba <_Bfree>
 80060aa:	464f      	mov	r7, r9
 80060ac:	106d      	asrs	r5, r5, #1
 80060ae:	d00b      	beq.n	80060c8 <__pow5mult+0x90>
 80060b0:	6820      	ldr	r0, [r4, #0]
 80060b2:	b938      	cbnz	r0, 80060c4 <__pow5mult+0x8c>
 80060b4:	4622      	mov	r2, r4
 80060b6:	4621      	mov	r1, r4
 80060b8:	4630      	mov	r0, r6
 80060ba:	f7ff ff27 	bl	8005f0c <__multiply>
 80060be:	6020      	str	r0, [r4, #0]
 80060c0:	f8c0 8000 	str.w	r8, [r0]
 80060c4:	4604      	mov	r4, r0
 80060c6:	e7e4      	b.n	8006092 <__pow5mult+0x5a>
 80060c8:	4638      	mov	r0, r7
 80060ca:	e8bd 83f8 	ldmia.w	sp!, {r3, r4, r5, r6, r7, r8, r9, pc}
 80060ce:	bf00      	nop
 80060d0:	08015a18 	.word	0x08015a18

080060d4 <__lshift>:
 80060d4:	e92d 47f0 	stmdb	sp!, {r4, r5, r6, r7, r8, r9, sl, lr}
 80060d8:	460c      	mov	r4, r1
 80060da:	ea4f 1a62 	mov.w	sl, r2, asr #5
 80060de:	6923      	ldr	r3, [r4, #16]
 80060e0:	6849      	ldr	r1, [r1, #4]
 80060e2:	eb0a 0903 	add.w	r9, sl, r3
 80060e6:	68a3      	ldr	r3, [r4, #8]
 80060e8:	4607      	mov	r7, r0
 80060ea:	4616      	mov	r6, r2
 80060ec:	f109 0501 	add.w	r5, r9, #1
 80060f0:	42ab      	cmp	r3, r5
 80060f2:	db32      	blt.n	800615a <__lshift+0x86>
 80060f4:	4638      	mov	r0, r7
 80060f6:	f7ff fe2c 	bl	8005d52 <_Balloc>
 80060fa:	2300      	movs	r3, #0
 80060fc:	4680      	mov	r8, r0
 80060fe:	f100 0114 	add.w	r1, r0, #20
 8006102:	461a      	mov	r2, r3
 8006104:	4553      	cmp	r3, sl
 8006106:	db2b      	blt.n	8006160 <__lshift+0x8c>
 8006108:	6920      	ldr	r0, [r4, #16]
 800610a:	ea2a 7aea 	bic.w	sl, sl, sl, asr #31
 800610e:	f104 0314 	add.w	r3, r4, #20
 8006112:	f016 021f 	ands.w	r2, r6, #31
 8006116:	eb01 018a 	add.w	r1, r1, sl, lsl #2
 800611a:	eb03 0c80 	add.w	ip, r3, r0, lsl #2
 800611e:	d025      	beq.n	800616c <__lshift+0x98>
 8006120:	f1c2 0e20 	rsb	lr, r2, #32
 8006124:	2000      	movs	r0, #0
 8006126:	681e      	ldr	r6, [r3, #0]
 8006128:	468a      	mov	sl, r1
 800612a:	4096      	lsls	r6, r2
 800612c:	4330      	orrs	r0, r6
 800612e:	f84a 0b04 	str.w	r0, [sl], #4
 8006132:	f853 0b04 	ldr.w	r0, [r3], #4
 8006136:	459c      	cmp	ip, r3
 8006138:	fa20 f00e 	lsr.w	r0, r0, lr
 800613c:	d814      	bhi.n	8006168 <__lshift+0x94>
 800613e:	6048      	str	r0, [r1, #4]
 8006140:	b108      	cbz	r0, 8006146 <__lshift+0x72>
 8006142:	f109 0502 	add.w	r5, r9, #2
 8006146:	3d01      	subs	r5, #1
 8006148:	4638      	mov	r0, r7
 800614a:	f8c8 5010 	str.w	r5, [r8, #16]
 800614e:	4621      	mov	r1, r4
 8006150:	f7ff fe33 	bl	8005dba <_Bfree>
 8006154:	4640      	mov	r0, r8
 8006156:	e8bd 87f0 	ldmia.w	sp!, {r4, r5, r6, r7, r8, r9, sl, pc}
 800615a:	3101      	adds	r1, #1
 800615c:	005b      	lsls	r3, r3, #1
 800615e:	e7c7      	b.n	80060f0 <__lshift+0x1c>
 8006160:	f841 2023 	str.w	r2, [r1, r3, lsl #2]
 8006164:	3301      	adds	r3, #1
 8006166:	e7cd      	b.n	8006104 <__lshift+0x30>
 8006168:	4651      	mov	r1, sl
 800616a:	e7dc      	b.n	8006126 <__lshift+0x52>
 800616c:	3904      	subs	r1, #4
 800616e:	f853 2b04 	ldr.w	r2, [r3], #4
 8006172:	f841 2f04 	str.w	r2, [r1, #4]!
 8006176:	459c      	cmp	ip, r3
 8006178:	d8f9      	bhi.n	800616e <__lshift+0x9a>
 800617a:	e7e4      	b.n	8006146 <__lshift+0x72>

0800617c <__mcmp>:
 800617c:	6903      	ldr	r3, [r0, #16]
 800617e:	690a      	ldr	r2, [r1, #16]
 8006180:	1a9b      	subs	r3, r3, r2
 8006182:	b530      	push	{r4, r5, lr}
 8006184:	d10c      	bne.n	80061a0 <__mcmp+0x24>
 8006186:	0092      	lsls	r2, r2, #2
 8006188:	3014      	adds	r0, #20
 800618a:	3114      	adds	r1, #20
 800618c:	1884      	adds	r4, r0, r2
 800618e:	4411      	add	r1, r2
 8006190:	f854 5d04 	ldr.w	r5, [r4, #-4]!
 8006194:	f851 2d04 	ldr.w	r2, [r1, #-4]!
 8006198:	4295      	cmp	r5, r2
 800619a:	d003      	beq.n	80061a4 <__mcmp+0x28>
 800619c:	d305      	bcc.n	80061aa <__mcmp+0x2e>
 800619e:	2301      	movs	r3, #1
 80061a0:	4618      	mov	r0, r3
 80061a2:	bd30      	pop	{r4, r5, pc}
 80061a4:	42a0      	cmp	r0, r4
 80061a6:	d3f3      	bcc.n	8006190 <__mcmp+0x14>
 80061a8:	e7fa      	b.n	80061a0 <__mcmp+0x24>
 80061aa:	f04f 33ff 	mov.w	r3, #4294967295
 80061ae:	e7f7      	b.n	80061a0 <__mcmp+0x24>

080061b0 <__mdiff>:
 80061b0:	e92d 47f0 	stmdb	sp!, {r4, r5, r6, r7, r8, r9, sl, lr}
 80061b4:	460d      	mov	r5, r1
 80061b6:	4607      	mov	r7, r0
 80061b8:	4611      	mov	r1, r2
 80061ba:	4628      	mov	r0, r5
 80061bc:	4614      	mov	r4, r2
 80061be:	f7ff ffdd 	bl	800617c <__mcmp>
 80061c2:	1e06      	subs	r6, r0, #0
 80061c4:	d108      	bne.n	80061d8 <__mdiff+0x28>
 80061c6:	4631      	mov	r1, r6
 80061c8:	4638      	mov	r0, r7
 80061ca:	f7ff fdc2 	bl	8005d52 <_Balloc>
 80061ce:	2301      	movs	r3, #1
 80061d0:	e9c0 3604 	strd	r3, r6, [r0, #16]
 80061d4:	e8bd 87f0 	ldmia.w	sp!, {r4, r5, r6, r7, r8, r9, sl, pc}
 80061d8:	bfa4      	itt	ge
 80061da:	4623      	movge	r3, r4
 80061dc:	462c      	movge	r4, r5
 80061de:	4638      	mov	r0, r7
 80061e0:	6861      	ldr	r1, [r4, #4]
 80061e2:	bfa6      	itte	ge
 80061e4:	461d      	movge	r5, r3
 80061e6:	2600      	movge	r6, #0
 80061e8:	2601      	movlt	r6, #1
 80061ea:	f7ff fdb2 	bl	8005d52 <_Balloc>
 80061ee:	692b      	ldr	r3, [r5, #16]
 80061f0:	60c6      	str	r6, [r0, #12]
 80061f2:	6926      	ldr	r6, [r4, #16]
 80061f4:	f105 0914 	add.w	r9, r5, #20
 80061f8:	f104 0214 	add.w	r2, r4, #20
 80061fc:	eb02 0786 	add.w	r7, r2, r6, lsl #2
 8006200:	eb09 0883 	add.w	r8, r9, r3, lsl #2
 8006204:	f100 0514 	add.w	r5, r0, #20
 8006208:	f04f 0e00 	mov.w	lr, #0
 800620c:	f852 ab04 	ldr.w	sl, [r2], #4
 8006210:	f859 4b04 	ldr.w	r4, [r9], #4
 8006214:	fa1e f18a 	uxtah	r1, lr, sl
 8006218:	b2a3      	uxth	r3, r4
 800621a:	1ac9      	subs	r1, r1, r3
 800621c:	0c23      	lsrs	r3, r4, #16
 800621e:	ebc3 431a 	rsb	r3, r3, sl, lsr #16
 8006222:	eb03 4321 	add.w	r3, r3, r1, asr #16
 8006226:	b289      	uxth	r1, r1
 8006228:	ea4f 4e23 	mov.w	lr, r3, asr #16
 800622c:	45c8      	cmp	r8, r9
 800622e:	ea41 4303 	orr.w	r3, r1, r3, lsl #16
 8006232:	4694      	mov	ip, r2
 8006234:	f845 3b04 	str.w	r3, [r5], #4
 8006238:	d8e8      	bhi.n	800620c <__mdiff+0x5c>
 800623a:	45bc      	cmp	ip, r7
 800623c:	d304      	bcc.n	8006248 <__mdiff+0x98>
 800623e:	f855 3d04 	ldr.w	r3, [r5, #-4]!
 8006242:	b183      	cbz	r3, 8006266 <__mdiff+0xb6>
 8006244:	6106      	str	r6, [r0, #16]
 8006246:	e7c5      	b.n	80061d4 <__mdiff+0x24>
 8006248:	f85c 1b04 	ldr.w	r1, [ip], #4
 800624c:	fa1e f381 	uxtah	r3, lr, r1
 8006250:	141a      	asrs	r2, r3, #16
 8006252:	eb02 4211 	add.w	r2, r2, r1, lsr #16
 8006256:	b29b      	uxth	r3, r3
 8006258:	ea43 4302 	orr.w	r3, r3, r2, lsl #16
 800625c:	ea4f 4e22 	mov.w	lr, r2, asr #16
 8006260:	f845 3b04 	str.w	r3, [r5], #4
 8006264:	e7e9      	b.n	800623a <__mdiff+0x8a>
 8006266:	3e01      	subs	r6, #1
 8006268:	e7e9      	b.n	800623e <__mdiff+0x8e>

0800626a <__d2b>:
 800626a:	e92d 43f7 	stmdb	sp!, {r0, r1, r2, r4, r5, r6, r7, r8, r9, lr}
 800626e:	460e      	mov	r6, r1
 8006270:	2101      	movs	r1, #1
 8006272:	ec59 8b10 	vmov	r8, r9, d0
 8006276:	4615      	mov	r5, r2
 8006278:	f7ff fd6b 	bl	8005d52 <_Balloc>
 800627c:	f3c9 540a 	ubfx	r4, r9, #20, #11
 8006280:	4607      	mov	r7, r0
 8006282:	f3c9 0313 	ubfx	r3, r9, #0, #20
 8006286:	bb34      	cbnz	r4, 80062d6 <__d2b+0x6c>
 8006288:	9301      	str	r3, [sp, #4]
 800628a:	f1b8 0300 	subs.w	r3, r8, #0
 800628e:	d027      	beq.n	80062e0 <__d2b+0x76>
 8006290:	a802      	add	r0, sp, #8
 8006292:	f840 3d08 	str.w	r3, [r0, #-8]!
 8006296:	f7ff fe01 	bl	8005e9c <__lo0bits>
 800629a:	9900      	ldr	r1, [sp, #0]
 800629c:	b1f0      	cbz	r0, 80062dc <__d2b+0x72>
 800629e:	9a01      	ldr	r2, [sp, #4]
 80062a0:	f1c0 0320 	rsb	r3, r0, #32
 80062a4:	fa02 f303 	lsl.w	r3, r2, r3
 80062a8:	430b      	orrs	r3, r1
 80062aa:	40c2      	lsrs	r2, r0
 80062ac:	617b      	str	r3, [r7, #20]
 80062ae:	9201      	str	r2, [sp, #4]
 80062b0:	9b01      	ldr	r3, [sp, #4]
 80062b2:	61bb      	str	r3, [r7, #24]
 80062b4:	2b00      	cmp	r3, #0
 80062b6:	bf14      	ite	ne
 80062b8:	2102      	movne	r1, #2
 80062ba:	2101      	moveq	r1, #1
 80062bc:	6139      	str	r1, [r7, #16]
 80062be:	b1c4      	cbz	r4, 80062f2 <__d2b+0x88>
 80062c0:	f2a4 4433 	subw	r4, r4, #1075	; 0x433
 80062c4:	4404      	add	r4, r0
 80062c6:	6034      	str	r4, [r6, #0]
 80062c8:	f1c0 0035 	rsb	r0, r0, #53	; 0x35
 80062cc:	6028      	str	r0, [r5, #0]
 80062ce:	4638      	mov	r0, r7
 80062d0:	b003      	add	sp, #12
 80062d2:	e8bd 83f0 	ldmia.w	sp!, {r4, r5, r6, r7, r8, r9, pc}
 80062d6:	f443 1380 	orr.w	r3, r3, #1048576	; 0x100000
 80062da:	e7d5      	b.n	8006288 <__d2b+0x1e>
 80062dc:	6179      	str	r1, [r7, #20]
 80062de:	e7e7      	b.n	80062b0 <__d2b+0x46>
 80062e0:	a801      	add	r0, sp, #4
 80062e2:	f7ff fddb 	bl	8005e9c <__lo0bits>
 80062e6:	9b01      	ldr	r3, [sp, #4]
 80062e8:	617b      	str	r3, [r7, #20]
 80062ea:	2101      	movs	r1, #1
 80062ec:	6139      	str	r1, [r7, #16]
 80062ee:	3020      	adds	r0, #32
 80062f0:	e7e5      	b.n	80062be <__d2b+0x54>
 80062f2:	eb07 0381 	add.w	r3, r7, r1, lsl #2
 80062f6:	f2a0 4032 	subw	r0, r0, #1074	; 0x432
 80062fa:	6030      	str	r0, [r6, #0]
 80062fc:	6918      	ldr	r0, [r3, #16]
 80062fe:	f7ff fdae 	bl	8005e5e <__hi0bits>
 8006302:	ebc0 1041 	rsb	r0, r0, r1, lsl #5
 8006306:	e7e1      	b.n	80062cc <__d2b+0x62>

08006308 <_calloc_r>:
 8006308:	b538      	push	{r3, r4, r5, lr}
 800630a:	fb02 f401 	mul.w	r4, r2, r1
 800630e:	4621      	mov	r1, r4
 8006310:	f000 f856 	bl	80063c0 <_malloc_r>
 8006314:	4605      	mov	r5, r0
 8006316:	b118      	cbz	r0, 8006320 <_calloc_r+0x18>
 8006318:	4622      	mov	r2, r4
 800631a:	2100      	movs	r1, #0
 800631c:	f7fe fa18 	bl	8004750 <memset>
 8006320:	4628      	mov	r0, r5
 8006322:	bd38      	pop	{r3, r4, r5, pc}

08006324 <_free_r>:
 8006324:	b538      	push	{r3, r4, r5, lr}
 8006326:	4605      	mov	r5, r0
 8006328:	2900      	cmp	r1, #0
 800632a:	d045      	beq.n	80063b8 <_free_r+0x94>
 800632c:	f851 3c04 	ldr.w	r3, [r1, #-4]
 8006330:	1f0c      	subs	r4, r1, #4
 8006332:	2b00      	cmp	r3, #0
 8006334:	bfb8      	it	lt
 8006336:	18e4      	addlt	r4, r4, r3
 8006338:	f000 fa17 	bl	800676a <__malloc_lock>
 800633c:	4a1f      	ldr	r2, [pc, #124]	; (80063bc <_free_r+0x98>)
 800633e:	6813      	ldr	r3, [r2, #0]
 8006340:	4610      	mov	r0, r2
 8006342:	b933      	cbnz	r3, 8006352 <_free_r+0x2e>
 8006344:	6063      	str	r3, [r4, #4]
 8006346:	6014      	str	r4, [r2, #0]
 8006348:	4628      	mov	r0, r5
 800634a:	e8bd 4038 	ldmia.w	sp!, {r3, r4, r5, lr}
 800634e:	f000 ba0d 	b.w	800676c <__malloc_unlock>
 8006352:	42a3      	cmp	r3, r4
 8006354:	d90c      	bls.n	8006370 <_free_r+0x4c>
 8006356:	6821      	ldr	r1, [r4, #0]
 8006358:	1862      	adds	r2, r4, r1
 800635a:	4293      	cmp	r3, r2
 800635c:	bf04      	itt	eq
 800635e:	681a      	ldreq	r2, [r3, #0]
 8006360:	685b      	ldreq	r3, [r3, #4]
 8006362:	6063      	str	r3, [r4, #4]
 8006364:	bf04      	itt	eq
 8006366:	1852      	addeq	r2, r2, r1
 8006368:	6022      	streq	r2, [r4, #0]
 800636a:	6004      	str	r4, [r0, #0]
 800636c:	e7ec      	b.n	8006348 <_free_r+0x24>
 800636e:	4613      	mov	r3, r2
 8006370:	685a      	ldr	r2, [r3, #4]
 8006372:	b10a      	cbz	r2, 8006378 <_free_r+0x54>
 8006374:	42a2      	cmp	r2, r4
 8006376:	d9fa      	bls.n	800636e <_free_r+0x4a>
 8006378:	6819      	ldr	r1, [r3, #0]
 800637a:	1858      	adds	r0, r3, r1
 800637c:	42a0      	cmp	r0, r4
 800637e:	d10b      	bne.n	8006398 <_free_r+0x74>
 8006380:	6820      	ldr	r0, [r4, #0]
 8006382:	4401      	add	r1, r0
 8006384:	1858      	adds	r0, r3, r1
 8006386:	4282      	cmp	r2, r0
 8006388:	6019      	str	r1, [r3, #0]
 800638a:	d1dd      	bne.n	8006348 <_free_r+0x24>
 800638c:	6810      	ldr	r0, [r2, #0]
 800638e:	6852      	ldr	r2, [r2, #4]
 8006390:	605a      	str	r2, [r3, #4]
 8006392:	4401      	add	r1, r0
 8006394:	6019      	str	r1, [r3, #0]
 8006396:	e7d7      	b.n	8006348 <_free_r+0x24>
 8006398:	d902      	bls.n	80063a0 <_free_r+0x7c>
 800639a:	230c      	movs	r3, #12
 800639c:	602b      	str	r3, [r5, #0]
 800639e:	e7d3      	b.n	8006348 <_free_r+0x24>
 80063a0:	6820      	ldr	r0, [r4, #0]
 80063a2:	1821      	adds	r1, r4, r0
 80063a4:	428a      	cmp	r2, r1
 80063a6:	bf04      	itt	eq
 80063a8:	6811      	ldreq	r1, [r2, #0]
 80063aa:	6852      	ldreq	r2, [r2, #4]
 80063ac:	6062      	str	r2, [r4, #4]
 80063ae:	bf04      	itt	eq
 80063b0:	1809      	addeq	r1, r1, r0
 80063b2:	6021      	streq	r1, [r4, #0]
 80063b4:	605c      	str	r4, [r3, #4]
 80063b6:	e7c7      	b.n	8006348 <_free_r+0x24>
 80063b8:	bd38      	pop	{r3, r4, r5, pc}
 80063ba:	bf00      	nop
 80063bc:	20000420 	.word	0x20000420

080063c0 <_malloc_r>:
 80063c0:	b570      	push	{r4, r5, r6, lr}
 80063c2:	1ccd      	adds	r5, r1, #3
 80063c4:	f025 0503 	bic.w	r5, r5, #3
 80063c8:	3508      	adds	r5, #8
 80063ca:	2d0c      	cmp	r5, #12
 80063cc:	bf38      	it	cc
 80063ce:	250c      	movcc	r5, #12
 80063d0:	2d00      	cmp	r5, #0
 80063d2:	4606      	mov	r6, r0
 80063d4:	db01      	blt.n	80063da <_malloc_r+0x1a>
 80063d6:	42a9      	cmp	r1, r5
 80063d8:	d903      	bls.n	80063e2 <_malloc_r+0x22>
 80063da:	230c      	movs	r3, #12
 80063dc:	6033      	str	r3, [r6, #0]
 80063de:	2000      	movs	r0, #0
 80063e0:	bd70      	pop	{r4, r5, r6, pc}
 80063e2:	f000 f9c2 	bl	800676a <__malloc_lock>
 80063e6:	4a21      	ldr	r2, [pc, #132]	; (800646c <_malloc_r+0xac>)
 80063e8:	6814      	ldr	r4, [r2, #0]
 80063ea:	4621      	mov	r1, r4
 80063ec:	b991      	cbnz	r1, 8006414 <_malloc_r+0x54>
 80063ee:	4c20      	ldr	r4, [pc, #128]	; (8006470 <_malloc_r+0xb0>)
 80063f0:	6823      	ldr	r3, [r4, #0]
 80063f2:	b91b      	cbnz	r3, 80063fc <_malloc_r+0x3c>
 80063f4:	4630      	mov	r0, r6
 80063f6:	f000 f98f 	bl	8006718 <_sbrk_r>
 80063fa:	6020      	str	r0, [r4, #0]
 80063fc:	4629      	mov	r1, r5
 80063fe:	4630      	mov	r0, r6
 8006400:	f000 f98a 	bl	8006718 <_sbrk_r>
 8006404:	1c43      	adds	r3, r0, #1
 8006406:	d124      	bne.n	8006452 <_malloc_r+0x92>
 8006408:	230c      	movs	r3, #12
 800640a:	6033      	str	r3, [r6, #0]
 800640c:	4630      	mov	r0, r6
 800640e:	f000 f9ad 	bl	800676c <__malloc_unlock>
 8006412:	e7e4      	b.n	80063de <_malloc_r+0x1e>
 8006414:	680b      	ldr	r3, [r1, #0]
 8006416:	1b5b      	subs	r3, r3, r5
 8006418:	d418      	bmi.n	800644c <_malloc_r+0x8c>
 800641a:	2b0b      	cmp	r3, #11
 800641c:	d90f      	bls.n	800643e <_malloc_r+0x7e>
 800641e:	600b      	str	r3, [r1, #0]
 8006420:	50cd      	str	r5, [r1, r3]
 8006422:	18cc      	adds	r4, r1, r3
 8006424:	4630      	mov	r0, r6
 8006426:	f000 f9a1 	bl	800676c <__malloc_unlock>
 800642a:	f104 000b 	add.w	r0, r4, #11
 800642e:	1d23      	adds	r3, r4, #4
 8006430:	f020 0007 	bic.w	r0, r0, #7
 8006434:	1ac3      	subs	r3, r0, r3
 8006436:	d0d3      	beq.n	80063e0 <_malloc_r+0x20>
 8006438:	425a      	negs	r2, r3
 800643a:	50e2      	str	r2, [r4, r3]
 800643c:	e7d0      	b.n	80063e0 <_malloc_r+0x20>
 800643e:	428c      	cmp	r4, r1
 8006440:	684b      	ldr	r3, [r1, #4]
 8006442:	bf16      	itet	ne
 8006444:	6063      	strne	r3, [r4, #4]
 8006446:	6013      	streq	r3, [r2, #0]
 8006448:	460c      	movne	r4, r1
 800644a:	e7eb      	b.n	8006424 <_malloc_r+0x64>
 800644c:	460c      	mov	r4, r1
 800644e:	6849      	ldr	r1, [r1, #4]
 8006450:	e7cc      	b.n	80063ec <_malloc_r+0x2c>
 8006452:	1cc4      	adds	r4, r0, #3
 8006454:	f024 0403 	bic.w	r4, r4, #3
 8006458:	42a0      	cmp	r0, r4
 800645a:	d005      	beq.n	8006468 <_malloc_r+0xa8>
 800645c:	1a21      	subs	r1, r4, r0
 800645e:	4630      	mov	r0, r6
 8006460:	f000 f95a 	bl	8006718 <_sbrk_r>
 8006464:	3001      	adds	r0, #1
 8006466:	d0cf      	beq.n	8006408 <_malloc_r+0x48>
 8006468:	6025      	str	r5, [r4, #0]
 800646a:	e7db      	b.n	8006424 <_malloc_r+0x64>
 800646c:	20000420 	.word	0x20000420
 8006470:	20000424 	.word	0x20000424

08006474 <__ssputs_r>:
 8006474:	e92d 47f0 	stmdb	sp!, {r4, r5, r6, r7, r8, r9, sl, lr}
 8006478:	688e      	ldr	r6, [r1, #8]
 800647a:	429e      	cmp	r6, r3
 800647c:	4682      	mov	sl, r0
 800647e:	460c      	mov	r4, r1
 8006480:	4690      	mov	r8, r2
 8006482:	4699      	mov	r9, r3
 8006484:	d837      	bhi.n	80064f6 <__ssputs_r+0x82>
 8006486:	898a      	ldrh	r2, [r1, #12]
 8006488:	f412 6f90 	tst.w	r2, #1152	; 0x480
 800648c:	d031      	beq.n	80064f2 <__ssputs_r+0x7e>
 800648e:	6825      	ldr	r5, [r4, #0]
 8006490:	6909      	ldr	r1, [r1, #16]
 8006492:	1a6f      	subs	r7, r5, r1
 8006494:	6965      	ldr	r5, [r4, #20]
 8006496:	2302      	movs	r3, #2
 8006498:	eb05 0545 	add.w	r5, r5, r5, lsl #1
 800649c:	fb95 f5f3 	sdiv	r5, r5, r3
 80064a0:	f109 0301 	add.w	r3, r9, #1
 80064a4:	443b      	add	r3, r7
 80064a6:	429d      	cmp	r5, r3
 80064a8:	bf38      	it	cc
 80064aa:	461d      	movcc	r5, r3
 80064ac:	0553      	lsls	r3, r2, #21
 80064ae:	d530      	bpl.n	8006512 <__ssputs_r+0x9e>
 80064b0:	4629      	mov	r1, r5
 80064b2:	f7ff ff85 	bl	80063c0 <_malloc_r>
 80064b6:	4606      	mov	r6, r0
 80064b8:	b950      	cbnz	r0, 80064d0 <__ssputs_r+0x5c>
 80064ba:	230c      	movs	r3, #12
 80064bc:	f8ca 3000 	str.w	r3, [sl]
 80064c0:	89a3      	ldrh	r3, [r4, #12]
 80064c2:	f043 0340 	orr.w	r3, r3, #64	; 0x40
 80064c6:	81a3      	strh	r3, [r4, #12]
 80064c8:	f04f 30ff 	mov.w	r0, #4294967295
 80064cc:	e8bd 87f0 	ldmia.w	sp!, {r4, r5, r6, r7, r8, r9, sl, pc}
 80064d0:	463a      	mov	r2, r7
 80064d2:	6921      	ldr	r1, [r4, #16]
 80064d4:	f7ff fc32 	bl	8005d3c <memcpy>
 80064d8:	89a3      	ldrh	r3, [r4, #12]
 80064da:	f423 6390 	bic.w	r3, r3, #1152	; 0x480
 80064de:	f043 0380 	orr.w	r3, r3, #128	; 0x80
 80064e2:	81a3      	strh	r3, [r4, #12]
 80064e4:	6126      	str	r6, [r4, #16]
 80064e6:	6165      	str	r5, [r4, #20]
 80064e8:	443e      	add	r6, r7
 80064ea:	1bed      	subs	r5, r5, r7
 80064ec:	6026      	str	r6, [r4, #0]
 80064ee:	60a5      	str	r5, [r4, #8]
 80064f0:	464e      	mov	r6, r9
 80064f2:	454e      	cmp	r6, r9
 80064f4:	d900      	bls.n	80064f8 <__ssputs_r+0x84>
 80064f6:	464e      	mov	r6, r9
 80064f8:	4632      	mov	r2, r6
 80064fa:	4641      	mov	r1, r8
 80064fc:	6820      	ldr	r0, [r4, #0]
 80064fe:	f000 f91b 	bl	8006738 <memmove>
 8006502:	68a3      	ldr	r3, [r4, #8]
 8006504:	1b9b      	subs	r3, r3, r6
 8006506:	60a3      	str	r3, [r4, #8]
 8006508:	6823      	ldr	r3, [r4, #0]
 800650a:	441e      	add	r6, r3
 800650c:	6026      	str	r6, [r4, #0]
 800650e:	2000      	movs	r0, #0
 8006510:	e7dc      	b.n	80064cc <__ssputs_r+0x58>
 8006512:	462a      	mov	r2, r5
 8006514:	f000 f92b 	bl	800676e <_realloc_r>
 8006518:	4606      	mov	r6, r0
 800651a:	2800      	cmp	r0, #0
 800651c:	d1e2      	bne.n	80064e4 <__ssputs_r+0x70>
 800651e:	6921      	ldr	r1, [r4, #16]
 8006520:	4650      	mov	r0, sl
 8006522:	f7ff feff 	bl	8006324 <_free_r>
 8006526:	e7c8      	b.n	80064ba <__ssputs_r+0x46>

08006528 <_svfiprintf_r>:
 8006528:	e92d 4ff0 	stmdb	sp!, {r4, r5, r6, r7, r8, r9, sl, fp, lr}
 800652c:	461d      	mov	r5, r3
 800652e:	898b      	ldrh	r3, [r1, #12]
 8006530:	061f      	lsls	r7, r3, #24
 8006532:	b09d      	sub	sp, #116	; 0x74
 8006534:	4680      	mov	r8, r0
 8006536:	460c      	mov	r4, r1
 8006538:	4616      	mov	r6, r2
 800653a:	d50f      	bpl.n	800655c <_svfiprintf_r+0x34>
 800653c:	690b      	ldr	r3, [r1, #16]
 800653e:	b96b      	cbnz	r3, 800655c <_svfiprintf_r+0x34>
 8006540:	2140      	movs	r1, #64	; 0x40
 8006542:	f7ff ff3d 	bl	80063c0 <_malloc_r>
 8006546:	6020      	str	r0, [r4, #0]
 8006548:	6120      	str	r0, [r4, #16]
 800654a:	b928      	cbnz	r0, 8006558 <_svfiprintf_r+0x30>
 800654c:	230c      	movs	r3, #12
 800654e:	f8c8 3000 	str.w	r3, [r8]
 8006552:	f04f 30ff 	mov.w	r0, #4294967295
 8006556:	e0c8      	b.n	80066ea <_svfiprintf_r+0x1c2>
 8006558:	2340      	movs	r3, #64	; 0x40
 800655a:	6163      	str	r3, [r4, #20]
 800655c:	2300      	movs	r3, #0
 800655e:	9309      	str	r3, [sp, #36]	; 0x24
 8006560:	2320      	movs	r3, #32
 8006562:	f88d 3029 	strb.w	r3, [sp, #41]	; 0x29
 8006566:	2330      	movs	r3, #48	; 0x30
 8006568:	f88d 302a 	strb.w	r3, [sp, #42]	; 0x2a
 800656c:	9503      	str	r5, [sp, #12]
 800656e:	f04f 0b01 	mov.w	fp, #1
 8006572:	4637      	mov	r7, r6
 8006574:	463d      	mov	r5, r7
 8006576:	f815 3b01 	ldrb.w	r3, [r5], #1
 800657a:	b10b      	cbz	r3, 8006580 <_svfiprintf_r+0x58>
 800657c:	2b25      	cmp	r3, #37	; 0x25
 800657e:	d13e      	bne.n	80065fe <_svfiprintf_r+0xd6>
 8006580:	ebb7 0a06 	subs.w	sl, r7, r6
 8006584:	d00b      	beq.n	800659e <_svfiprintf_r+0x76>
 8006586:	4653      	mov	r3, sl
 8006588:	4632      	mov	r2, r6
 800658a:	4621      	mov	r1, r4
 800658c:	4640      	mov	r0, r8
 800658e:	f7ff ff71 	bl	8006474 <__ssputs_r>
 8006592:	3001      	adds	r0, #1
 8006594:	f000 80a4 	beq.w	80066e0 <_svfiprintf_r+0x1b8>
 8006598:	9b09      	ldr	r3, [sp, #36]	; 0x24
 800659a:	4453      	add	r3, sl
 800659c:	9309      	str	r3, [sp, #36]	; 0x24
 800659e:	783b      	ldrb	r3, [r7, #0]
 80065a0:	2b00      	cmp	r3, #0
 80065a2:	f000 809d 	beq.w	80066e0 <_svfiprintf_r+0x1b8>
 80065a6:	2300      	movs	r3, #0
 80065a8:	f04f 32ff 	mov.w	r2, #4294967295
 80065ac:	e9cd 2305 	strd	r2, r3, [sp, #20]
 80065b0:	9304      	str	r3, [sp, #16]
 80065b2:	9307      	str	r3, [sp, #28]
 80065b4:	f88d 3053 	strb.w	r3, [sp, #83]	; 0x53
 80065b8:	931a      	str	r3, [sp, #104]	; 0x68
 80065ba:	462f      	mov	r7, r5
 80065bc:	2205      	movs	r2, #5
 80065be:	f817 1b01 	ldrb.w	r1, [r7], #1
 80065c2:	4850      	ldr	r0, [pc, #320]	; (8006704 <_svfiprintf_r+0x1dc>)
 80065c4:	f7f9 fe24 	bl	8000210 <memchr>
 80065c8:	9b04      	ldr	r3, [sp, #16]
 80065ca:	b9d0      	cbnz	r0, 8006602 <_svfiprintf_r+0xda>
 80065cc:	06d9      	lsls	r1, r3, #27
 80065ce:	bf44      	itt	mi
 80065d0:	2220      	movmi	r2, #32
 80065d2:	f88d 2053 	strbmi.w	r2, [sp, #83]	; 0x53
 80065d6:	071a      	lsls	r2, r3, #28
 80065d8:	bf44      	itt	mi
 80065da:	222b      	movmi	r2, #43	; 0x2b
 80065dc:	f88d 2053 	strbmi.w	r2, [sp, #83]	; 0x53
 80065e0:	782a      	ldrb	r2, [r5, #0]
 80065e2:	2a2a      	cmp	r2, #42	; 0x2a
 80065e4:	d015      	beq.n	8006612 <_svfiprintf_r+0xea>
 80065e6:	9a07      	ldr	r2, [sp, #28]
 80065e8:	462f      	mov	r7, r5
 80065ea:	2000      	movs	r0, #0
 80065ec:	250a      	movs	r5, #10
 80065ee:	4639      	mov	r1, r7
 80065f0:	f811 3b01 	ldrb.w	r3, [r1], #1
 80065f4:	3b30      	subs	r3, #48	; 0x30
 80065f6:	2b09      	cmp	r3, #9
 80065f8:	d94d      	bls.n	8006696 <_svfiprintf_r+0x16e>
 80065fa:	b1b8      	cbz	r0, 800662c <_svfiprintf_r+0x104>
 80065fc:	e00f      	b.n	800661e <_svfiprintf_r+0xf6>
 80065fe:	462f      	mov	r7, r5
 8006600:	e7b8      	b.n	8006574 <_svfiprintf_r+0x4c>
 8006602:	4a40      	ldr	r2, [pc, #256]	; (8006704 <_svfiprintf_r+0x1dc>)
 8006604:	1a80      	subs	r0, r0, r2
 8006606:	fa0b f000 	lsl.w	r0, fp, r0
 800660a:	4318      	orrs	r0, r3
 800660c:	9004      	str	r0, [sp, #16]
 800660e:	463d      	mov	r5, r7
 8006610:	e7d3      	b.n	80065ba <_svfiprintf_r+0x92>
 8006612:	9a03      	ldr	r2, [sp, #12]
 8006614:	1d11      	adds	r1, r2, #4
 8006616:	6812      	ldr	r2, [r2, #0]
 8006618:	9103      	str	r1, [sp, #12]
 800661a:	2a00      	cmp	r2, #0
 800661c:	db01      	blt.n	8006622 <_svfiprintf_r+0xfa>
 800661e:	9207      	str	r2, [sp, #28]
 8006620:	e004      	b.n	800662c <_svfiprintf_r+0x104>
 8006622:	4252      	negs	r2, r2
 8006624:	f043 0302 	orr.w	r3, r3, #2
 8006628:	9207      	str	r2, [sp, #28]
 800662a:	9304      	str	r3, [sp, #16]
 800662c:	783b      	ldrb	r3, [r7, #0]
 800662e:	2b2e      	cmp	r3, #46	; 0x2e
 8006630:	d10c      	bne.n	800664c <_svfiprintf_r+0x124>
 8006632:	787b      	ldrb	r3, [r7, #1]
 8006634:	2b2a      	cmp	r3, #42	; 0x2a
 8006636:	d133      	bne.n	80066a0 <_svfiprintf_r+0x178>
 8006638:	9b03      	ldr	r3, [sp, #12]
 800663a:	1d1a      	adds	r2, r3, #4
 800663c:	681b      	ldr	r3, [r3, #0]
 800663e:	9203      	str	r2, [sp, #12]
 8006640:	2b00      	cmp	r3, #0
 8006642:	bfb8      	it	lt
 8006644:	f04f 33ff 	movlt.w	r3, #4294967295
 8006648:	3702      	adds	r7, #2
 800664a:	9305      	str	r3, [sp, #20]
 800664c:	4d2e      	ldr	r5, [pc, #184]	; (8006708 <_svfiprintf_r+0x1e0>)
 800664e:	7839      	ldrb	r1, [r7, #0]
 8006650:	2203      	movs	r2, #3
 8006652:	4628      	mov	r0, r5
 8006654:	f7f9 fddc 	bl	8000210 <memchr>
 8006658:	b138      	cbz	r0, 800666a <_svfiprintf_r+0x142>
 800665a:	2340      	movs	r3, #64	; 0x40
 800665c:	1b40      	subs	r0, r0, r5
 800665e:	fa03 f000 	lsl.w	r0, r3, r0
 8006662:	9b04      	ldr	r3, [sp, #16]
 8006664:	4303      	orrs	r3, r0
 8006666:	3701      	adds	r7, #1
 8006668:	9304      	str	r3, [sp, #16]
 800666a:	7839      	ldrb	r1, [r7, #0]
 800666c:	4827      	ldr	r0, [pc, #156]	; (800670c <_svfiprintf_r+0x1e4>)
 800666e:	f88d 1028 	strb.w	r1, [sp, #40]	; 0x28
 8006672:	2206      	movs	r2, #6
 8006674:	1c7e      	adds	r6, r7, #1
 8006676:	f7f9 fdcb 	bl	8000210 <memchr>
 800667a:	2800      	cmp	r0, #0
 800667c:	d038      	beq.n	80066f0 <_svfiprintf_r+0x1c8>
 800667e:	4b24      	ldr	r3, [pc, #144]	; (8006710 <_svfiprintf_r+0x1e8>)
 8006680:	bb13      	cbnz	r3, 80066c8 <_svfiprintf_r+0x1a0>
 8006682:	9b03      	ldr	r3, [sp, #12]
 8006684:	3307      	adds	r3, #7
 8006686:	f023 0307 	bic.w	r3, r3, #7
 800668a:	3308      	adds	r3, #8
 800668c:	9303      	str	r3, [sp, #12]
 800668e:	9b09      	ldr	r3, [sp, #36]	; 0x24
 8006690:	444b      	add	r3, r9
 8006692:	9309      	str	r3, [sp, #36]	; 0x24
 8006694:	e76d      	b.n	8006572 <_svfiprintf_r+0x4a>
 8006696:	fb05 3202 	mla	r2, r5, r2, r3
 800669a:	2001      	movs	r0, #1
 800669c:	460f      	mov	r7, r1
 800669e:	e7a6      	b.n	80065ee <_svfiprintf_r+0xc6>
 80066a0:	2300      	movs	r3, #0
 80066a2:	3701      	adds	r7, #1
 80066a4:	9305      	str	r3, [sp, #20]
 80066a6:	4619      	mov	r1, r3
 80066a8:	250a      	movs	r5, #10
 80066aa:	4638      	mov	r0, r7
 80066ac:	f810 2b01 	ldrb.w	r2, [r0], #1
 80066b0:	3a30      	subs	r2, #48	; 0x30
 80066b2:	2a09      	cmp	r2, #9
 80066b4:	d903      	bls.n	80066be <_svfiprintf_r+0x196>
 80066b6:	2b00      	cmp	r3, #0
 80066b8:	d0c8      	beq.n	800664c <_svfiprintf_r+0x124>
 80066ba:	9105      	str	r1, [sp, #20]
 80066bc:	e7c6      	b.n	800664c <_svfiprintf_r+0x124>
 80066be:	fb05 2101 	mla	r1, r5, r1, r2
 80066c2:	2301      	movs	r3, #1
 80066c4:	4607      	mov	r7, r0
 80066c6:	e7f0      	b.n	80066aa <_svfiprintf_r+0x182>
 80066c8:	ab03      	add	r3, sp, #12
 80066ca:	9300      	str	r3, [sp, #0]
 80066cc:	4622      	mov	r2, r4
 80066ce:	4b11      	ldr	r3, [pc, #68]	; (8006714 <_svfiprintf_r+0x1ec>)
 80066d0:	a904      	add	r1, sp, #16
 80066d2:	4640      	mov	r0, r8
 80066d4:	f7fe f8d8 	bl	8004888 <_printf_float>
 80066d8:	f1b0 3fff 	cmp.w	r0, #4294967295
 80066dc:	4681      	mov	r9, r0
 80066de:	d1d6      	bne.n	800668e <_svfiprintf_r+0x166>
 80066e0:	89a3      	ldrh	r3, [r4, #12]
 80066e2:	065b      	lsls	r3, r3, #25
 80066e4:	f53f af35 	bmi.w	8006552 <_svfiprintf_r+0x2a>
 80066e8:	9809      	ldr	r0, [sp, #36]	; 0x24
 80066ea:	b01d      	add	sp, #116	; 0x74
 80066ec:	e8bd 8ff0 	ldmia.w	sp!, {r4, r5, r6, r7, r8, r9, sl, fp, pc}
 80066f0:	ab03      	add	r3, sp, #12
 80066f2:	9300      	str	r3, [sp, #0]
 80066f4:	4622      	mov	r2, r4
 80066f6:	4b07      	ldr	r3, [pc, #28]	; (8006714 <_svfiprintf_r+0x1ec>)
 80066f8:	a904      	add	r1, sp, #16
 80066fa:	4640      	mov	r0, r8
 80066fc:	f7fe fb7a 	bl	8004df4 <_printf_i>
 8006700:	e7ea      	b.n	80066d8 <_svfiprintf_r+0x1b0>
 8006702:	bf00      	nop
 8006704:	08015a24 	.word	0x08015a24
 8006708:	08015a2a 	.word	0x08015a2a
 800670c:	08015a2e 	.word	0x08015a2e
 8006710:	08004889 	.word	0x08004889
 8006714:	08006475 	.word	0x08006475

08006718 <_sbrk_r>:
 8006718:	b538      	push	{r3, r4, r5, lr}
 800671a:	4c06      	ldr	r4, [pc, #24]	; (8006734 <_sbrk_r+0x1c>)
 800671c:	2300      	movs	r3, #0
 800671e:	4605      	mov	r5, r0
 8006720:	4608      	mov	r0, r1
 8006722:	6023      	str	r3, [r4, #0]
 8006724:	f7fa fa66 	bl	8000bf4 <_sbrk>
 8006728:	1c43      	adds	r3, r0, #1
 800672a:	d102      	bne.n	8006732 <_sbrk_r+0x1a>
 800672c:	6823      	ldr	r3, [r4, #0]
 800672e:	b103      	cbz	r3, 8006732 <_sbrk_r+0x1a>
 8006730:	602b      	str	r3, [r5, #0]
 8006732:	bd38      	pop	{r3, r4, r5, pc}
 8006734:	20000740 	.word	0x20000740

08006738 <memmove>:
 8006738:	4288      	cmp	r0, r1
 800673a:	b510      	push	{r4, lr}
 800673c:	eb01 0302 	add.w	r3, r1, r2
 8006740:	d807      	bhi.n	8006752 <memmove+0x1a>
 8006742:	1e42      	subs	r2, r0, #1
 8006744:	4299      	cmp	r1, r3
 8006746:	d00a      	beq.n	800675e <memmove+0x26>
 8006748:	f811 4b01 	ldrb.w	r4, [r1], #1
 800674c:	f802 4f01 	strb.w	r4, [r2, #1]!
 8006750:	e7f8      	b.n	8006744 <memmove+0xc>
 8006752:	4283      	cmp	r3, r0
 8006754:	d9f5      	bls.n	8006742 <memmove+0xa>
 8006756:	1881      	adds	r1, r0, r2
 8006758:	1ad2      	subs	r2, r2, r3
 800675a:	42d3      	cmn	r3, r2
 800675c:	d100      	bne.n	8006760 <memmove+0x28>
 800675e:	bd10      	pop	{r4, pc}
 8006760:	f813 4d01 	ldrb.w	r4, [r3, #-1]!
 8006764:	f801 4d01 	strb.w	r4, [r1, #-1]!
 8006768:	e7f7      	b.n	800675a <memmove+0x22>

0800676a <__malloc_lock>:
 800676a:	4770      	bx	lr

0800676c <__malloc_unlock>:
 800676c:	4770      	bx	lr

0800676e <_realloc_r>:
 800676e:	b5f8      	push	{r3, r4, r5, r6, r7, lr}
 8006770:	4607      	mov	r7, r0
 8006772:	4614      	mov	r4, r2
 8006774:	460e      	mov	r6, r1
 8006776:	b921      	cbnz	r1, 8006782 <_realloc_r+0x14>
 8006778:	4611      	mov	r1, r2
 800677a:	e8bd 40f8 	ldmia.w	sp!, {r3, r4, r5, r6, r7, lr}
 800677e:	f7ff be1f 	b.w	80063c0 <_malloc_r>
 8006782:	b922      	cbnz	r2, 800678e <_realloc_r+0x20>
 8006784:	f7ff fdce 	bl	8006324 <_free_r>
 8006788:	4625      	mov	r5, r4
 800678a:	4628      	mov	r0, r5
 800678c:	bdf8      	pop	{r3, r4, r5, r6, r7, pc}
 800678e:	f000 f814 	bl	80067ba <_malloc_usable_size_r>
 8006792:	42a0      	cmp	r0, r4
 8006794:	d20f      	bcs.n	80067b6 <_realloc_r+0x48>
 8006796:	4621      	mov	r1, r4
 8006798:	4638      	mov	r0, r7
 800679a:	f7ff fe11 	bl	80063c0 <_malloc_r>
 800679e:	4605      	mov	r5, r0
 80067a0:	2800      	cmp	r0, #0
 80067a2:	d0f2      	beq.n	800678a <_realloc_r+0x1c>
 80067a4:	4631      	mov	r1, r6
 80067a6:	4622      	mov	r2, r4
 80067a8:	f7ff fac8 	bl	8005d3c <memcpy>
 80067ac:	4631      	mov	r1, r6
 80067ae:	4638      	mov	r0, r7
 80067b0:	f7ff fdb8 	bl	8006324 <_free_r>
 80067b4:	e7e9      	b.n	800678a <_realloc_r+0x1c>
 80067b6:	4635      	mov	r5, r6
 80067b8:	e7e7      	b.n	800678a <_realloc_r+0x1c>

080067ba <_malloc_usable_size_r>:
 80067ba:	f851 3c04 	ldr.w	r3, [r1, #-4]
 80067be:	1f18      	subs	r0, r3, #4
 80067c0:	2b00      	cmp	r3, #0
 80067c2:	bfbc      	itt	lt
 80067c4:	580b      	ldrlt	r3, [r1, r0]
 80067c6:	18c0      	addlt	r0, r0, r3
 80067c8:	4770      	bx	lr
	...

080067cc <_init>:
 80067cc:	b5f8      	push	{r3, r4, r5, r6, r7, lr}
 80067ce:	bf00      	nop
 80067d0:	bcf8      	pop	{r3, r4, r5, r6, r7}
 80067d2:	bc08      	pop	{r3}
 80067d4:	469e      	mov	lr, r3
 80067d6:	4770      	bx	lr

080067d8 <_fini>:
 80067d8:	b5f8      	push	{r3, r4, r5, r6, r7, lr}
 80067da:	bf00      	nop
 80067dc:	bcf8      	pop	{r3, r4, r5, r6, r7}
 80067de:	bc08      	pop	{r3}
 80067e0:	469e      	mov	lr, r3
 80067e2:	4770      	bx	lr
